
TOSBase:     file format elf32-avr

Sections:
Idx Name          Size      VMA       LMA       File off  Algn
  0 .data         00000004  00800100  0000233a  000023ce  2**0
                  CONTENTS, ALLOC, LOAD, DATA
  1 .text         0000233a  00000000  00000000  00000094  2**0
                  CONTENTS, ALLOC, LOAD, READONLY, CODE
  2 .bss          00000248  00800104  00800104  000023d2  2**0
                  ALLOC
  3 .noinit       00000000  0080034c  0080034c  000023d2  2**0
                  CONTENTS
  4 .eeprom       00000000  00810000  00810000  000023d2  2**0
                  CONTENTS
  5 .stab         0000033c  00000000  00000000  000023d4  2**2
                  CONTENTS, READONLY, DEBUGGING
  6 .stabstr      00000051  00000000  00000000  00002710  2**0
                  CONTENTS, READONLY, DEBUGGING
Disassembly of section .text:

00000000 <__vectors>:
       0:	0c 94 bc 01 	jmp	0x378
       4:	0c 94 d9 01 	jmp	0x3b2
       8:	0c 94 d9 01 	jmp	0x3b2
       c:	0c 94 d9 01 	jmp	0x3b2
      10:	0c 94 d9 01 	jmp	0x3b2
      14:	0c 94 d9 01 	jmp	0x3b2
      18:	0c 94 d9 01 	jmp	0x3b2
      1c:	0c 94 d9 01 	jmp	0x3b2
      20:	0c 94 d9 01 	jmp	0x3b2
      24:	0c 94 d9 01 	jmp	0x3b2
      28:	0c 94 d9 01 	jmp	0x3b2
      2c:	0c 94 d9 01 	jmp	0x3b2
      30:	0c 94 d9 01 	jmp	0x3b2
      34:	0c 94 d9 01 	jmp	0x3b2
      38:	0c 94 d9 01 	jmp	0x3b2
      3c:	0c 94 e7 0a 	jmp	0x15ce
      40:	0c 94 d9 01 	jmp	0x3b2
      44:	0c 94 db 01 	jmp	0x3b6
      48:	0c 94 2e 02 	jmp	0x45c
      4c:	0c 94 d9 01 	jmp	0x3b2
      50:	0c 94 58 02 	jmp	0x4b0
      54:	0c 94 7b 06 	jmp	0xcf6
      58:	0c 94 d9 01 	jmp	0x3b2
      5c:	0c 94 d9 01 	jmp	0x3b2
      60:	0c 94 d9 01 	jmp	0x3b2
      64:	0c 94 d9 01 	jmp	0x3b2
      68:	0c 94 d9 01 	jmp	0x3b2
      6c:	0c 94 d9 01 	jmp	0x3b2
      70:	0c 94 d9 01 	jmp	0x3b2
      74:	0c 94 d9 01 	jmp	0x3b2
      78:	0c 94 d9 01 	jmp	0x3b2
      7c:	0c 94 d9 01 	jmp	0x3b2
      80:	0c 94 d9 01 	jmp	0x3b2
      84:	0c 94 d9 01 	jmp	0x3b2
      88:	0c 94 d9 01 	jmp	0x3b2

0000008c <__ctors_end>:
      8c:	00 1c       	adc	r0, r0
      8e:	00 5e       	subi	r16, 0xE0	; 224
      90:	00 fa       	bst	r0, 0
      92:	01 73       	andi	r16, 0x31	; 49
      94:	01 ea       	ldi	r16, 0xA1	; 161
      96:	04 bc       	out	0x24, r0	; 36
      98:	0a 5e       	subi	r16, 0xEA	; 234

0000009a <CC1K_LPL_ValidPrecursor>:
      9a:	05 02       	muls	r16, r21
      9c:	02 02       	muls	r16, r18
      9e:	02 02       	muls	r16, r18
      a0:	02 00       	.word	0x0002	; ????

000000a1 <CC1K_LPL_SleepTime>:
      a1:	00 00       	nop
      a3:	00 14       	cp	r0, r0
      a5:	00 55       	subi	r16, 0x50	; 80
      a7:	00 87       	std	Z+8, r16	; 0x08
      a9:	00 b9       	out	0x00, r16	; 0
      ab:	01 e5       	ldi	r16, 0x51	; 81
      ad:	04 3d       	cpi	r16, 0xD4	; 212

000000af <CC1K_LPL_SleepPreamble>:
      af:	00 08       	sbc	r0, r0
      b1:	08 08       	sbc	r0, r8
      b3:	08 08       	sbc	r0, r8
      b5:	08 ae       	std	Y+56, r0	; 0x38

000000b6 <CC1K_LPL_SquelchInit>:
      b6:	ae ef       	ldi	r26, 0xFE	; 254
      b8:	ef ef       	ldi	r30, 0xFF	; 255
      ba:	ef ef       	ldi	r30, 0xFF	; 255
      bc:	ef 31       	cpi	r30, 0x1F	; 31

000000bd <CC1K_Params>:
      bd:	31 58       	subi	r19, 0x81	; 129
      bf:	00 00       	nop
      c1:	57 f6       	brid	.-108    	; 0x57
      c3:	85 03       	fmuls	r16, r21
      c5:	55 44       	sbci	r21, 0x45	; 69
      c7:	02 0f       	add	r16, r18
      c9:	60 e0       	ldi	r22, 0x00	; 0
      cb:	26 1c       	adc	r2, r6
      cd:	6f 55       	subi	r22, 0x5F	; 95
      cf:	70 01       	movw	r14, r0
      d1:	00 00       	nop
      d3:	00 00       	nop
      d5:	00 00       	nop
      d7:	00 00       	nop
      d9:	00 81       	ld	r16, Z
      db:	01 31       	cpi	r16, 0x11	; 17
      dd:	7c 00       	.word	0x007c	; ????
      df:	00 7b       	andi	r16, 0xB0	; 176
      e1:	f9 ae       	std	Y+57, r15	; 0x39
      e3:	02 38       	cpi	r16, 0x82	; 130
      e5:	8c 32       	cpi	r24, 0x2C	; 44
      e7:	80 40       	sbci	r24, 0x00	; 0
      e9:	10 26       	eor	r1, r16
      eb:	a1 6f       	ori	r26, 0xF1	; 241
      ed:	55 10       	cpse	r5, r5
      ef:	01 00       	.word	0x0001	; ????
      f1:	00 00       	nop
      f3:	00 00       	nop
      f5:	00 00       	nop
      f7:	00 00       	nop
      f9:	f3 01       	movw	r30, r6
      fb:	31 51       	subi	r19, 0x11	; 17
      fd:	00 00       	nop
      ff:	50 f7       	brcc	.-44     	; 0xd5
     101:	4f 03       	fmul	r20, r23
     103:	0e 44       	sbci	r16, 0x4E	; 78
     105:	02 0f       	add	r16, r18
     107:	58 e0       	ldi	r21, 0x08	; 8
     109:	26 a1       	ldd	r18, Z+38	; 0x26
     10b:	6f 55       	subi	r22, 0x5F	; 95
     10d:	70 01       	movw	r14, r0
     10f:	00 00       	nop
     111:	00 00       	nop
     113:	00 00       	nop
     115:	00 00       	nop
     117:	00 81       	ld	r16, Z
     119:	01 31       	cpi	r16, 0x11	; 17
     11b:	5c e0       	ldi	r21, 0x0C	; 12
     11d:	00 5c       	subi	r16, 0xC0	; 192
     11f:	db 42       	sbci	r29, 0x2B	; 43
     121:	01 aa       	std	Z+49, r0	; 0x31
     123:	8c 32       	cpi	r24, 0x2C	; 44
     125:	80 30       	cpi	r24, 0x00	; 0
     127:	10 26       	eor	r1, r16
     129:	a1 6f       	ori	r26, 0xF1	; 241
     12b:	55 10       	cpse	r5, r5
     12d:	01 00       	.word	0x0001	; ????
     12f:	00 00       	nop
     131:	00 00       	nop
     133:	00 00       	nop
     135:	00 00       	nop
     137:	f3 01       	movw	r30, r6
     139:	31 45       	sbci	r19, 0x51	; 81
     13b:	60 00       	.word	0x0060	; ????
     13d:	45 55       	subi	r20, 0x55	; 85
     13f:	bb 03       	fmulsu	r19, r19
     141:	9c 80       	ldd	r9, Y+4	; 0x04
     143:	02 0f       	add	r16, r18
     145:	68 e0       	ldi	r22, 0x08	; 8
     147:	26 a1       	ldd	r18, Z+38	; 0x26
     149:	6f 54       	subi	r22, 0x4F	; 79
     14b:	70 01       	movw	r14, r0
     14d:	00 00       	nop
     14f:	00 00       	nop
     151:	00 00       	nop
     153:	00 00       	nop
     155:	00 81       	ld	r16, Z
     157:	01 31       	cpi	r16, 0x11	; 17
     159:	58 00       	.word	0x0058	; ????
     15b:	00 57       	subi	r16, 0x70	; 112
     15d:	f6 85       	ldd	r31, Z+14	; 0x0e
     15f:	03 55       	subi	r16, 0x53	; 83
     161:	90 02       	muls	r25, r16
     163:	0f 60       	ori	r16, 0x0F	; 15
     165:	e0 26       	eor	r14, r16
     167:	a1 6f       	ori	r26, 0xF1	; 241
     169:	55 70       	andi	r21, 0x05	; 5
     16b:	01 00       	.word	0x0001	; ????
     16d:	00 00       	nop
     16f:	00 00       	nop
     171:	00 00       	nop
     173:	00 00       	nop
     175:	81 01       	movw	r16, r2

00000177 <crcTable>:
     177:	00 00       	nop
     179:	21 10       	cpse	r2, r1
     17b:	42 20       	and	r4, r2
     17d:	63 30       	cpi	r22, 0x03	; 3
     17f:	84 40       	sbci	r24, 0x04	; 4
     181:	a5 50       	subi	r26, 0x05	; 5
     183:	c6 60       	ori	r28, 0x06	; 6
     185:	e7 70       	andi	r30, 0x07	; 7
     187:	08 81       	ld	r16, Y
     189:	29 91       	ld	r18, Y+
     18b:	4a a1       	ldd	r20, Y+34	; 0x22
     18d:	6b b1       	in	r22, 0x0b	; 11
     18f:	8c c1       	rjmp	.+792    	; 0x4a9
     191:	ad d1       	rcall	.+858    	; 0x4ed
     193:	ce e1       	ldi	r28, 0x1E	; 30
     195:	ef f1       	brie	.+122    	; 0x211
     197:	31 12       	cpse	r3, r17
     199:	10 02       	muls	r17, r16
     19b:	73 32       	cpi	r23, 0x23	; 35
     19d:	52 22       	and	r5, r18
     19f:	b5 52       	subi	r27, 0x25	; 37
     1a1:	94 42       	sbci	r25, 0x24	; 36
     1a3:	f7 72       	andi	r31, 0x27	; 39
     1a5:	d6 62       	ori	r29, 0x26	; 38
     1a7:	39 93       	st	Y+, r19
     1a9:	18 83       	st	Y, r17
     1ab:	7b b3       	in	r23, 0x1b	; 27
     1ad:	5a a3       	std	Y+34, r21	; 0x22
     1af:	bd d3       	rcall	.+1914   	; 0x92b
     1b1:	9c c3       	rjmp	.+1848   	; 0x8eb
     1b3:	ff f3       	brie	.-2      	; 0x1b3
     1b5:	de e3       	ldi	r29, 0x3E	; 62
     1b7:	62 24       	eor	r6, r2
     1b9:	43 34       	cpi	r20, 0x43	; 67
     1bb:	20 04       	cpc	r2, r0
     1bd:	01 14       	cp	r0, r1
     1bf:	e6 64       	ori	r30, 0x46	; 70
     1c1:	c7 74       	andi	r28, 0x47	; 71
     1c3:	a4 44       	sbci	r26, 0x44	; 68
     1c5:	85 54       	subi	r24, 0x45	; 69
     1c7:	6a a5       	ldd	r22, Y+42	; 0x2a
     1c9:	4b b5       	in	r20, 0x2b	; 43
     1cb:	28 85       	ldd	r18, Y+8	; 0x08
     1cd:	09 95       	icall
     1cf:	ee e5       	ldi	r30, 0x5E	; 94
     1d1:	cf f5       	brid	.+114    	; 0x245
     1d3:	ac c5       	rjmp	.+2904   	; 0xd2d
     1d5:	8d d5       	rcall	.+2842   	; 0xcf1
     1d7:	53 36       	cpi	r21, 0x63	; 99
     1d9:	72 26       	eor	r7, r18
     1db:	11 16       	cp	r1, r17
     1dd:	30 06       	cpc	r3, r16
     1df:	d7 76       	andi	r29, 0x67	; 103
     1e1:	f6 66       	ori	r31, 0x66	; 102
     1e3:	95 56       	subi	r25, 0x65	; 101
     1e5:	b4 46       	sbci	r27, 0x64	; 100
     1e7:	5b b7       	in	r21, 0x3b	; 59
     1e9:	7a a7       	std	Y+42, r23	; 0x2a
     1eb:	19 97       	sbiw	r26, 0x09	; 9
     1ed:	38 87       	std	Y+8, r19	; 0x08
     1ef:	df f7       	brid	.-10     	; 0x1e7
     1f1:	fe e7       	ldi	r31, 0x7E	; 126
     1f3:	9d d7       	rcall	.+3898   	; 0x112f
     1f5:	bc c7       	rjmp	.+3960   	; 0x116f
     1f7:	c4 48       	sbci	r28, 0x84	; 132
     1f9:	e5 58       	subi	r30, 0x85	; 133
     1fb:	86 68       	ori	r24, 0x86	; 134
     1fd:	a7 78       	andi	r26, 0x87	; 135
     1ff:	40 08       	sbc	r4, r0
     201:	61 18       	sub	r6, r1
     203:	02 28       	or	r0, r2
     205:	23 38       	cpi	r18, 0x83	; 131
     207:	cc c9       	rjmp	.-3176   	; 0xfffff5a1
     209:	ed d9       	rcall	.-3110   	; 0xfffff5e5
     20b:	8e e9       	ldi	r24, 0x9E	; 158
     20d:	af f9       	.word	0xf9af	; ????
     20f:	48 89       	ldd	r20, Y+16	; 0x10
     211:	69 99       	sbic	0x0d, 1	; 13
     213:	0a a9       	ldd	r16, Y+50	; 0x32
     215:	2b b9       	out	0x0b, r18	; 11
     217:	f5 5a       	subi	r31, 0xA5	; 165
     219:	d4 4a       	sbci	r29, 0xA4	; 164
     21b:	b7 7a       	andi	r27, 0xA7	; 167
     21d:	96 6a       	ori	r25, 0xA6	; 166
     21f:	71 1a       	sub	r7, r17
     221:	50 0a       	sbc	r5, r16
     223:	33 3a       	cpi	r19, 0xA3	; 163
     225:	12 2a       	or	r1, r18
     227:	fd db       	rcall	.-2054   	; 0xfffffa23
     229:	dc cb       	rjmp	.-2120   	; 0xfffff9e3
     22b:	bf fb       	.word	0xfbbf	; ????
     22d:	9e eb       	ldi	r25, 0xBE	; 190
     22f:	79 9b       	sbis	0x0f, 1	; 15
     231:	58 8b       	std	Y+16, r21	; 0x10
     233:	3b bb       	out	0x1b, r19	; 27
     235:	1a ab       	std	Y+50, r17	; 0x32
     237:	a6 6c       	ori	r26, 0xC6	; 198
     239:	87 7c       	andi	r24, 0xC7	; 199
     23b:	e4 4c       	sbci	r30, 0xC4	; 196
     23d:	c5 5c       	subi	r28, 0xC5	; 197
     23f:	22 2c       	mov	r2, r2
     241:	03 3c       	cpi	r16, 0xC3	; 195
     243:	60 0c       	add	r6, r0
     245:	41 1c       	adc	r4, r1
     247:	ae ed       	ldi	r26, 0xDE	; 222
     249:	8f fd       	.word	0xfd8f	; ????
     24b:	ec cd       	rjmp	.-1064   	; 0xfffffe25
     24d:	cd dd       	rcall	.-1126   	; 0xfffffde9
     24f:	2a ad       	ldd	r18, Y+58	; 0x3a
     251:	0b bd       	out	0x2b, r16	; 43
     253:	68 8d       	ldd	r22, Y+24	; 0x18
     255:	49 9d       	mul	r20, r9
     257:	97 7e       	andi	r25, 0xE7	; 231
     259:	b6 6e       	ori	r27, 0xE6	; 230
     25b:	d5 5e       	subi	r29, 0xE5	; 229
     25d:	f4 4e       	sbci	r31, 0xE4	; 228
     25f:	13 3e       	cpi	r17, 0xE3	; 227
     261:	32 2e       	mov	r3, r18
     263:	51 1e       	adc	r5, r17
     265:	70 0e       	add	r7, r16
     267:	9f ff       	.word	0xff9f	; ????
     269:	be ef       	ldi	r27, 0xFE	; 254
     26b:	dd df       	rcall	.-70     	; 0x227
     26d:	fc cf       	rjmp	.-8      	; 0x267
     26f:	1b bf       	out	0x3b, r17	; 59
     271:	3a af       	std	Y+58, r19	; 0x3a
     273:	59 9f       	mul	r21, r25
     275:	78 8f       	std	Y+24, r23	; 0x18
     277:	88 91       	.word	0x9188	; ????
     279:	a9 81       	ldd	r26, Y+1	; 0x01
     27b:	ca b1       	in	r28, 0x0a	; 10
     27d:	eb a1       	ldd	r30, Y+35	; 0x23
     27f:	0c d1       	rcall	.+536    	; 0x499
     281:	2d c1       	rjmp	.+602    	; 0x4dd
     283:	4e f1       	brts	.+82     	; 0x2d7
     285:	6f e1       	ldi	r22, 0x1F	; 31
     287:	80 10       	cpse	r8, r0
     289:	a1 00       	.word	0x00a1	; ????
     28b:	c2 30       	cpi	r28, 0x02	; 2
     28d:	e3 20       	and	r14, r3
     28f:	04 50       	subi	r16, 0x04	; 4
     291:	25 40       	sbci	r18, 0x05	; 5
     293:	46 70       	andi	r20, 0x06	; 6
     295:	67 60       	ori	r22, 0x07	; 7
     297:	b9 83       	std	Y+1, r27	; 0x01
     299:	98 93       	.word	0x9398	; ????
     29b:	fb a3       	std	Y+35, r31	; 0x23
     29d:	da b3       	in	r29, 0x1a	; 26
     29f:	3d c3       	rjmp	.+1658   	; 0x91b
     2a1:	1c d3       	rcall	.+1592   	; 0x8db
     2a3:	7f e3       	ldi	r23, 0x3F	; 63
     2a5:	5e f3       	brts	.-42     	; 0x27d
     2a7:	b1 02       	muls	r27, r17
     2a9:	90 12       	cpse	r9, r16
     2ab:	f3 22       	and	r15, r19
     2ad:	d2 32       	cpi	r29, 0x22	; 34
     2af:	35 42       	sbci	r19, 0x25	; 37
     2b1:	14 52       	subi	r17, 0x24	; 36
     2b3:	77 62       	ori	r23, 0x27	; 39
     2b5:	56 72       	andi	r21, 0x26	; 38
     2b7:	ea b5       	in	r30, 0x2a	; 42
     2b9:	cb a5       	ldd	r28, Y+43	; 0x2b
     2bb:	a8 95       	wdr
     2bd:	89 85       	ldd	r24, Y+9	; 0x09
     2bf:	6e f5       	brtc	.+90     	; 0x31b
     2c1:	4f e5       	ldi	r20, 0x5F	; 95
     2c3:	2c d5       	rcall	.+2648   	; 0xd1d
     2c5:	0d c5       	rjmp	.+2586   	; 0xce1
     2c7:	e2 34       	cpi	r30, 0x42	; 66
     2c9:	c3 24       	eor	r12, r3
     2cb:	a0 14       	cp	r10, r0
     2cd:	81 04       	cpc	r8, r1
     2cf:	66 74       	andi	r22, 0x46	; 70
     2d1:	47 64       	ori	r20, 0x47	; 71
     2d3:	24 54       	subi	r18, 0x44	; 68
     2d5:	05 44       	sbci	r16, 0x45	; 69
     2d7:	db a7       	std	Y+43, r29	; 0x2b
     2d9:	fa b7       	in	r31, 0x3a	; 58
     2db:	99 87       	std	Y+9, r25	; 0x09
     2dd:	b8 97       	sbiw	r30, 0x28	; 40
     2df:	5f e7       	ldi	r21, 0x7F	; 127
     2e1:	7e f7       	brtc	.-34     	; 0x2c1
     2e3:	1d c7       	rjmp	.+3642   	; 0x111f
     2e5:	3c d7       	rcall	.+3704   	; 0x115f
     2e7:	d3 26       	eor	r13, r19
     2e9:	f2 36       	cpi	r31, 0x62	; 98
     2eb:	91 06       	cpc	r9, r17
     2ed:	b0 16       	cp	r11, r16
     2ef:	57 66       	ori	r21, 0x67	; 103
     2f1:	76 76       	andi	r23, 0x66	; 102
     2f3:	15 46       	sbci	r17, 0x65	; 101
     2f5:	34 56       	subi	r19, 0x64	; 100
     2f7:	4c d9       	rcall	.-3432   	; 0xfffff591
     2f9:	6d c9       	rjmp	.-3366   	; 0xfffff5d5
     2fb:	0e f9       	.word	0xf90e	; ????
     2fd:	2f e9       	ldi	r18, 0x9F	; 159
     2ff:	c8 99       	sbic	0x19, 0	; 25
     301:	e9 89       	ldd	r30, Y+17	; 0x11
     303:	8a b9       	out	0x0a, r24	; 10
     305:	ab a9       	ldd	r26, Y+51	; 0x33
     307:	44 58       	subi	r20, 0x84	; 132
     309:	65 48       	sbci	r22, 0x85	; 133
     30b:	06 78       	andi	r16, 0x86	; 134
     30d:	27 68       	ori	r18, 0x87	; 135
     30f:	c0 18       	sub	r12, r0
     311:	e1 08       	sbc	r14, r1
     313:	82 38       	cpi	r24, 0x82	; 130
     315:	a3 28       	or	r10, r3
     317:	7d cb       	rjmp	.-2310   	; 0xfffffa13
     319:	5c db       	rcall	.-2376   	; 0xfffff9d3
     31b:	3f eb       	ldi	r19, 0xBF	; 191
     31d:	1e fb       	.word	0xfb1e	; ????
     31f:	f9 8b       	std	Y+17, r31	; 0x11
     321:	d8 9b       	sbis	0x1b, 0	; 27
     323:	bb ab       	std	Y+51, r27	; 0x33
     325:	9a bb       	out	0x1a, r25	; 26
     327:	75 4a       	sbci	r23, 0xA5	; 165
     329:	54 5a       	subi	r21, 0xA4	; 164
     32b:	37 6a       	ori	r19, 0xA7	; 167
     32d:	16 7a       	andi	r17, 0xA6	; 166
     32f:	f1 0a       	sbc	r15, r17
     331:	d0 1a       	sub	r13, r16
     333:	b3 2a       	or	r11, r19
     335:	92 3a       	cpi	r25, 0xA2	; 162
     337:	2e fd       	.word	0xfd2e	; ????
     339:	0f ed       	ldi	r16, 0xDF	; 223
     33b:	6c dd       	rcall	.-1320   	; 0xfffffe15
     33d:	4d cd       	rjmp	.-1382   	; 0xfffffdd9
     33f:	aa bd       	out	0x2a, r26	; 42
     341:	8b ad       	ldd	r24, Y+59	; 0x3b
     343:	e8 9d       	mul	r30, r8
     345:	c9 8d       	ldd	r28, Y+25	; 0x19
     347:	26 7c       	andi	r18, 0xC6	; 198
     349:	07 6c       	ori	r16, 0xC7	; 199
     34b:	64 5c       	subi	r22, 0xC4	; 196
     34d:	45 4c       	sbci	r20, 0xC5	; 197
     34f:	a2 3c       	cpi	r26, 0xC2	; 194
     351:	83 2c       	mov	r8, r3
     353:	e0 1c       	adc	r14, r0
     355:	c1 0c       	add	r12, r1
     357:	1f ef       	ldi	r17, 0xFF	; 255
     359:	3e ff       	.word	0xff3e	; ????
     35b:	5d cf       	rjmp	.-326    	; 0x217
     35d:	7c df       	rcall	.-264    	; 0x257
     35f:	9b af       	std	Y+59, r25	; 0x3b
     361:	ba bf       	out	0x3a, r27	; 58
     363:	d9 8f       	std	Y+25, r29	; 0x19
     365:	f8 9f       	mul	r31, r24
     367:	17 6e       	ori	r17, 0xE7	; 231
     369:	36 7e       	andi	r19, 0xE6	; 230
     36b:	55 4e       	sbci	r21, 0xE5	; 229
     36d:	74 5e       	subi	r23, 0xE4	; 228
     36f:	93 2e       	mov	r9, r19
     371:	b2 3e       	cpi	r27, 0xE2	; 226
     373:	d1 0e       	add	r13, r17
     375:	f0 1e       	adc	r15, r16
     377:	00 11       	cpse	r16, r0

00000378 <__init>:
     378:	11 24       	eor	r1, r1
     37a:	1f be       	out	0x3f, r1	; 63
     37c:	cf ef       	ldi	r28, 0xFF	; 255
     37e:	d0 e1       	ldi	r29, 0x10	; 16
     380:	de bf       	out	0x3e, r29	; 62
     382:	cd bf       	out	0x3d, r28	; 61

00000384 <__do_copy_data>:
     384:	11 e0       	ldi	r17, 0x01	; 1
     386:	a0 e0       	ldi	r26, 0x00	; 0
     388:	b1 e0       	ldi	r27, 0x01	; 1
     38a:	ea e3       	ldi	r30, 0x3A	; 58
     38c:	f3 e2       	ldi	r31, 0x23	; 35
     38e:	00 e0       	ldi	r16, 0x00	; 0
     390:	0b bf       	out	0x3b, r16	; 59
     392:	02 c0       	rjmp	.+4      	; 0x398

00000394 <.__do_copy_data_loop>:
     394:	07 90       	elpm	r0, Z+
     396:	0d 92       	st	X+, r0

00000398 <.__do_copy_data_start>:
     398:	a4 30       	cpi	r26, 0x04	; 4
     39a:	b1 07       	cpc	r27, r17
     39c:	d9 f7       	brne	.-10     	; 0x394

0000039e <__do_clear_bss>:
     39e:	13 e0       	ldi	r17, 0x03	; 3
     3a0:	a4 e0       	ldi	r26, 0x04	; 4
     3a2:	b1 e0       	ldi	r27, 0x01	; 1
     3a4:	01 c0       	rjmp	.+2      	; 0x3a8

000003a6 <.do_clear_bss_loop>:
     3a6:	1d 92       	st	X+, r1

000003a8 <.do_clear_bss_start>:
     3a8:	ac 34       	cpi	r26, 0x4C	; 76
     3aa:	b1 07       	cpc	r27, r17
     3ac:	e1 f7       	brne	.-8      	; 0x3a6
     3ae:	0c 94 a5 02 	jmp	0x54a

000003b2 <__bad_interrupt>:
     3b2:	0c 94 00 00 	jmp	0x0

000003b6 <__vector_17>:
     3b6:	1f 92       	push	r1
     3b8:	0f 92       	push	r0
     3ba:	0f b6       	in	r0, 0x3f	; 63
     3bc:	0f 92       	push	r0
     3be:	11 24       	eor	r1, r1
     3c0:	2f 93       	push	r18
     3c2:	3f 93       	push	r19
     3c4:	4f 93       	push	r20
     3c6:	5f 93       	push	r21
     3c8:	6f 93       	push	r22
     3ca:	7f 93       	push	r23
     3cc:	8f 93       	push	r24
     3ce:	9f 93       	push	r25
     3d0:	af 93       	push	r26
     3d2:	bf 93       	push	r27
     3d4:	ef 93       	push	r30
     3d6:	ff 93       	push	r31
     3d8:	9f b1       	in	r25, 0x0f	; 15
     3da:	80 91 65 02 	lds	r24, 0x0265
     3de:	8f b9       	out	0x0f, r24	; 15
     3e0:	89 2f       	mov	r24, r25
     3e2:	0e 94 3c 07 	call	0xe78
     3e6:	ff 91       	pop	r31
     3e8:	ef 91       	pop	r30
     3ea:	bf 91       	pop	r27
     3ec:	af 91       	pop	r26
     3ee:	9f 91       	pop	r25
     3f0:	8f 91       	pop	r24
     3f2:	7f 91       	pop	r23
     3f4:	6f 91       	pop	r22
     3f6:	5f 91       	pop	r21
     3f8:	4f 91       	pop	r20
     3fa:	3f 91       	pop	r19
     3fc:	2f 91       	pop	r18
     3fe:	0f 90       	pop	r0
     400:	0f be       	out	0x3f, r0	; 63
     402:	0f 90       	pop	r0
     404:	1f 90       	pop	r1
     406:	18 95       	reti

00000408 <TimerM$adjustInterval>:
     408:	26 ee       	ldi	r18, 0xE6	; 230
     40a:	80 91 40 03 	lds	r24, 0x0340
     40e:	90 91 41 03 	lds	r25, 0x0341
     412:	a0 91 42 03 	lds	r26, 0x0342
     416:	b0 91 43 03 	lds	r27, 0x0343
     41a:	00 97       	sbiw	r24, 0x00	; 0
     41c:	a1 05       	cpc	r26, r1
     41e:	b1 05       	cpc	r27, r1
     420:	89 f0       	breq	.+34     	; 0x444
     422:	80 ff       	sbrs	r24, 0
     424:	0f c0       	rjmp	.+30     	; 0x444
     426:	80 91 c2 02 	lds	r24, 0x02C2
     42a:	90 91 c3 02 	lds	r25, 0x02C3
     42e:	a0 91 c4 02 	lds	r26, 0x02C4
     432:	b0 91 c5 02 	lds	r27, 0x02C5
     436:	86 3e       	cpi	r24, 0xE6	; 230
     438:	91 05       	cpc	r25, r1
     43a:	a1 05       	cpc	r26, r1
     43c:	b1 05       	cpc	r27, r1
     43e:	14 f4       	brge	.+4      	; 0x444
     440:	20 91 c2 02 	lds	r18, 0x02C2
     444:	8f b7       	in	r24, 0x3f	; 63
     446:	f8 94       	cli
     448:	99 27       	eor	r25, r25
     44a:	20 93 0e 03 	sts	0x030E, r18
     44e:	21 bf       	out	0x31, r18	; 49
     450:	10 92 fa 02 	sts	0x02FA, r1
     454:	8f bf       	out	0x3f, r24	; 63
     456:	0e 94 1c 06 	call	0xc38
     45a:	08 95       	ret

0000045c <__vector_18>:
     45c:	1f 92       	push	r1
     45e:	0f 92       	push	r0
     460:	0f b6       	in	r0, 0x3f	; 63
     462:	0f 92       	push	r0
     464:	11 24       	eor	r1, r1
     466:	2f 93       	push	r18
     468:	3f 93       	push	r19
     46a:	4f 93       	push	r20
     46c:	5f 93       	push	r21
     46e:	6f 93       	push	r22
     470:	7f 93       	push	r23
     472:	8f 93       	push	r24
     474:	9f 93       	push	r25
     476:	af 93       	push	r26
     478:	bf 93       	push	r27
     47a:	ef 93       	push	r30
     47c:	ff 93       	push	r31
     47e:	5f 9b       	sbis	0x0b, 7	; 11
     480:	06 c0       	rjmp	.+12     	; 0x48e
     482:	8c b1       	in	r24, 0x0c	; 12
     484:	40 e0       	ldi	r20, 0x00	; 0
     486:	50 e0       	ldi	r21, 0x00	; 0
     488:	60 e0       	ldi	r22, 0x00	; 0
     48a:	0e 94 24 0b 	call	0x1648
     48e:	ff 91       	pop	r31
     490:	ef 91       	pop	r30
     492:	bf 91       	pop	r27
     494:	af 91       	pop	r26
     496:	9f 91       	pop	r25
     498:	8f 91       	pop	r24
     49a:	7f 91       	pop	r23
     49c:	6f 91       	pop	r22
     49e:	5f 91       	pop	r21
     4a0:	4f 91       	pop	r20
     4a2:	3f 91       	pop	r19
     4a4:	2f 91       	pop	r18
     4a6:	0f 90       	pop	r0
     4a8:	0f be       	out	0x3f, r0	; 63
     4aa:	0f 90       	pop	r0
     4ac:	1f 90       	pop	r1
     4ae:	18 95       	reti

000004b0 <__vector_20>:
     4b0:	78 94       	sei
     4b2:	1f 92       	push	r1
     4b4:	0f 92       	push	r0
     4b6:	0f b6       	in	r0, 0x3f	; 63
     4b8:	0f 92       	push	r0
     4ba:	11 24       	eor	r1, r1
     4bc:	2f 93       	push	r18
     4be:	3f 93       	push	r19
     4c0:	4f 93       	push	r20
     4c2:	5f 93       	push	r21
     4c4:	6f 93       	push	r22
     4c6:	7f 93       	push	r23
     4c8:	8f 93       	push	r24
     4ca:	9f 93       	push	r25
     4cc:	af 93       	push	r26
     4ce:	bf 93       	push	r27
     4d0:	ef 93       	push	r30
     4d2:	ff 93       	push	r31
     4d4:	0e 94 98 0d 	call	0x1b30
     4d8:	ff 91       	pop	r31
     4da:	ef 91       	pop	r30
     4dc:	bf 91       	pop	r27
     4de:	af 91       	pop	r26
     4e0:	9f 91       	pop	r25
     4e2:	8f 91       	pop	r24
     4e4:	7f 91       	pop	r23
     4e6:	6f 91       	pop	r22
     4e8:	5f 91       	pop	r21
     4ea:	4f 91       	pop	r20
     4ec:	3f 91       	pop	r19
     4ee:	2f 91       	pop	r18
     4f0:	0f 90       	pop	r0
     4f2:	0f be       	out	0x3f, r0	; 63
     4f4:	0f 90       	pop	r0
     4f6:	1f 90       	pop	r1
     4f8:	18 95       	reti

000004fa <TOS_post>:
     4fa:	ac 01       	movw	r20, r24
     4fc:	8f b7       	in	r24, 0x3f	; 63
     4fe:	f8 94       	cli
     500:	28 2f       	mov	r18, r24
     502:	33 27       	eor	r19, r19
     504:	e0 91 cb 02 	lds	r30, 0x02CB
     508:	80 91 cb 02 	lds	r24, 0x02CB
     50c:	8f 5f       	subi	r24, 0xFF	; 255
     50e:	80 93 cb 02 	sts	0x02CB, r24
     512:	80 91 cb 02 	lds	r24, 0x02CB
     516:	87 70       	andi	r24, 0x07	; 7
     518:	80 93 cb 02 	sts	0x02CB, r24
     51c:	90 91 cb 02 	lds	r25, 0x02CB
     520:	80 91 87 02 	lds	r24, 0x0287
     524:	98 17       	cp	r25, r24
     526:	59 f0       	breq	.+22     	; 0x53e
     528:	2f bf       	out	0x3f, r18	; 63
     52a:	ff 27       	eor	r31, r31
     52c:	ee 0f       	add	r30, r30
     52e:	ff 1f       	adc	r31, r31
     530:	e2 5b       	subi	r30, 0xB2	; 178
     532:	fd 4f       	sbci	r31, 0xFD	; 253
     534:	40 83       	st	Z, r20
     536:	51 83       	std	Z+1, r21	; 0x01
     538:	81 e0       	ldi	r24, 0x01	; 1
     53a:	90 e0       	ldi	r25, 0x00	; 0
     53c:	08 95       	ret
     53e:	e0 93 cb 02 	sts	0x02CB, r30
     542:	2f bf       	out	0x3f, r18	; 63
     544:	80 e0       	ldi	r24, 0x00	; 0
     546:	90 e0       	ldi	r25, 0x00	; 0
     548:	08 95       	ret

0000054a <main>:
     54a:	cf ef       	ldi	r28, 0xFF	; 255
     54c:	d0 e1       	ldi	r29, 0x10	; 16
     54e:	de bf       	out	0x3e, r29	; 62
     550:	cd bf       	out	0x3d, r28	; 61
     552:	d2 9a       	sbi	0x1a, 2	; 26
     554:	d0 9a       	sbi	0x1a, 0	; 26
     556:	d1 9a       	sbi	0x1a, 1	; 26
     558:	d6 98       	cbi	0x1a, 6	; 26
     55a:	a7 9a       	sbi	0x14, 7	; 20
     55c:	a6 9a       	sbi	0x14, 6	; 20
     55e:	a5 9a       	sbi	0x14, 5	; 20
     560:	a4 9a       	sbi	0x14, 4	; 20
     562:	a3 9a       	sbi	0x14, 3	; 20
     564:	a2 9a       	sbi	0x14, 2	; 20
     566:	a1 9a       	sbi	0x14, 1	; 20
     568:	a0 9a       	sbi	0x14, 0	; 20
     56a:	8c 9a       	sbi	0x11, 4	; 17
     56c:	8f 9a       	sbi	0x11, 7	; 17
     56e:	8e 9a       	sbi	0x11, 6	; 17
     570:	bb 98       	cbi	0x17, 3	; 23
     572:	bf 98       	cbi	0x17, 7	; 23
     574:	d4 98       	cbi	0x1a, 4	; 26
     576:	dc 98       	cbi	0x1b, 4	; 27
     578:	d3 9a       	sbi	0x1a, 3	; 26
     57a:	8b 9a       	sbi	0x11, 3	; 17
     57c:	8d 9a       	sbi	0x11, 5	; 17
     57e:	db 9a       	sbi	0x1b, 3	; 27
     580:	da 9a       	sbi	0x1b, 2	; 27
     582:	d8 9a       	sbi	0x1b, 0	; 27
     584:	d9 9a       	sbi	0x1b, 1	; 27
     586:	83 e0       	ldi	r24, 0x03	; 3
     588:	8c 5f       	subi	r24, 0xFC	; 252
     58a:	87 39       	cpi	r24, 0x97	; 151
     58c:	e8 f3       	brcs	.-6      	; 0x588
     58e:	90 e0       	ldi	r25, 0x00	; 0
     590:	8a e0       	ldi	r24, 0x0A	; 10
     592:	80 93 68 01 	sts	0x0168, r24
     596:	90 93 cb 02 	sts	0x02CB, r25
     59a:	90 93 87 02 	sts	0x0287, r25
     59e:	2b e6       	ldi	r18, 0x6B	; 107
     5a0:	31 e0       	ldi	r19, 0x01	; 1
     5a2:	f9 01       	movw	r30, r18
     5a4:	34 96       	adiw	r30, 0x04	; 4
     5a6:	a4 e0       	ldi	r26, 0x04	; 4
     5a8:	b3 e0       	ldi	r27, 0x03	; 3
     5aa:	10 82       	st	Z, r1
     5ac:	bb 96       	adiw	r30, 0x2b	; 43
     5ae:	2d 93       	st	X+, r18
     5b0:	3d 93       	st	X+, r19
     5b2:	9f 5f       	subi	r25, 0xFF	; 255
     5b4:	25 5d       	subi	r18, 0xD5	; 213
     5b6:	3f 4f       	sbci	r19, 0xFF	; 255
     5b8:	95 30       	cpi	r25, 0x05	; 5
     5ba:	b8 f3       	brcs	.-18     	; 0x5aa
     5bc:	10 92 3d 03 	sts	0x033D, r1
     5c0:	10 92 cc 02 	sts	0x02CC, r1
     5c4:	10 92 d3 02 	sts	0x02D3, r1
     5c8:	8f ec       	ldi	r24, 0xCF	; 207
     5ca:	92 e0       	ldi	r25, 0x02	; 2
     5cc:	90 93 89 02 	sts	0x0289, r25
     5d0:	80 93 88 02 	sts	0x0288, r24
     5d4:	10 92 3e 03 	sts	0x033E, r1
     5d8:	0e 94 34 05 	call	0xa68
     5dc:	8f b7       	in	r24, 0x3f	; 63
     5de:	f8 94       	cli
     5e0:	99 27       	eor	r25, r25
     5e2:	10 92 fc 02 	sts	0x02FC, r1
     5e6:	8f bf       	out	0x3f, r24	; 63
     5e8:	8f b7       	in	r24, 0x3f	; 63
     5ea:	f8 94       	cli
     5ec:	28 2f       	mov	r18, r24
     5ee:	33 27       	eor	r19, r19
     5f0:	81 e0       	ldi	r24, 0x01	; 1
     5f2:	80 93 65 01 	sts	0x0165, r24
     5f6:	82 e0       	ldi	r24, 0x02	; 2
     5f8:	80 93 04 01 	sts	0x0104, r24
     5fc:	8f e8       	ldi	r24, 0x8F	; 143
     5fe:	92 e0       	ldi	r25, 0x02	; 2
     600:	90 93 ce 02 	sts	0x02CE, r25
     604:	80 93 cd 02 	sts	0x02CD, r24
     608:	10 92 93 02 	sts	0x0293, r1
     60c:	82 e2       	ldi	r24, 0x22	; 34
     60e:	90 e0       	ldi	r25, 0x00	; 0
     610:	90 93 c7 02 	sts	0x02C7, r25
     614:	80 93 c6 02 	sts	0x02C6, r24
     618:	10 92 4b 02 	sts	0x024B, r1
     61c:	10 92 45 03 	sts	0x0345, r1
     620:	10 92 44 03 	sts	0x0344, r1
     624:	10 92 48 02 	sts	0x0248, r1
     628:	10 92 47 02 	sts	0x0247, r1
     62c:	10 92 60 02 	sts	0x0260, r1
     630:	10 92 5f 02 	sts	0x025F, r1
     634:	10 92 63 01 	sts	0x0163, r1
     638:	10 92 61 01 	sts	0x0161, r1
     63c:	10 92 1e 03 	sts	0x031E, r1
     640:	8f ef       	ldi	r24, 0xFF	; 255
     642:	9f ef       	ldi	r25, 0xFF	; 255
     644:	90 93 fe 02 	sts	0x02FE, r25
     648:	80 93 fd 02 	sts	0x02FD, r24
     64c:	90 93 00 03 	sts	0x0300, r25
     650:	80 93 ff 02 	sts	0x02FF, r24
     654:	10 92 bc 02 	sts	0x02BC, r1
     658:	10 92 03 03 	sts	0x0303, r1
     65c:	e6 eb       	ldi	r30, 0xB6	; 182
     65e:	f0 e0       	ldi	r31, 0x00	; 0
     660:	84 91       	lpm	r24, Z
     662:	99 27       	eor	r25, r25
     664:	90 93 bb 02 	sts	0x02BB, r25
     668:	80 93 ba 02 	sts	0x02BA, r24
     66c:	2f bf       	out	0x3f, r18	; 63
     66e:	8f b7       	in	r24, 0x3f	; 63
     670:	f8 94       	cli
     672:	99 27       	eor	r25, r25
     674:	b9 98       	cbi	0x17, 1	; 23
     676:	bb 98       	cbi	0x17, 3	; 23
     678:	ba 98       	cbi	0x17, 2	; 23
     67a:	6b 98       	cbi	0x0d, 3	; 13
     67c:	6a 98       	cbi	0x0d, 2	; 13
     67e:	6f 9a       	sbi	0x0d, 7	; 13
     680:	6e 9a       	sbi	0x0d, 6	; 13
     682:	8f bf       	out	0x3f, r24	; 63
     684:	d6 98       	cbi	0x1a, 6	; 26
     686:	8c 9a       	sbi	0x11, 4	; 17
     688:	8e 9a       	sbi	0x11, 6	; 17
     68a:	8f 9a       	sbi	0x11, 7	; 17
     68c:	94 9a       	sbi	0x12, 4	; 18
     68e:	97 9a       	sbi	0x12, 7	; 18
     690:	96 9a       	sbi	0x12, 6	; 18
     692:	6a e3       	ldi	r22, 0x3A	; 58
     694:	80 91 93 02 	lds	r24, 0x0293
     698:	0e 94 78 05 	call	0xaf0
     69c:	6b e3       	ldi	r22, 0x3B	; 59
     69e:	80 e0       	ldi	r24, 0x00	; 0
     6a0:	0e 94 78 05 	call	0xaf0
     6a4:	80 ed       	ldi	r24, 0xD0	; 208
     6a6:	97 e0       	ldi	r25, 0x07	; 7
     6a8:	00 00       	nop
     6aa:	00 00       	nop
     6ac:	00 00       	nop
     6ae:	00 00       	nop
     6b0:	00 00       	nop
     6b2:	00 00       	nop
     6b4:	00 00       	nop
     6b6:	00 00       	nop
     6b8:	01 97       	sbiw	r24, 0x01	; 1
     6ba:	18 16       	cp	r1, r24
     6bc:	19 06       	cpc	r1, r25
     6be:	a4 f3       	brlt	.-24     	; 0x6a8
     6c0:	80 e8       	ldi	r24, 0x80	; 128
     6c2:	80 93 71 02 	sts	0x0271, r24
     6c6:	68 2f       	mov	r22, r24
     6c8:	8b e0       	ldi	r24, 0x0B	; 11
     6ca:	0e 94 78 05 	call	0xaf0
     6ce:	80 e9       	ldi	r24, 0x90	; 144
     6d0:	80 93 73 02 	sts	0x0273, r24
     6d4:	68 2f       	mov	r22, r24
     6d6:	84 e0       	ldi	r24, 0x04	; 4
     6d8:	0e 94 78 05 	call	0xaf0
     6dc:	10 92 75 02 	sts	0x0275, r1
     6e0:	8f e6       	ldi	r24, 0x6F	; 111
     6e2:	80 93 76 02 	sts	0x0276, r24
     6e6:	85 e5       	ldi	r24, 0x55	; 85
     6e8:	80 93 77 02 	sts	0x0277, r24
     6ec:	0e 94 9c 05 	call	0xb38
     6f0:	11 e0       	ldi	r17, 0x01	; 1
     6f2:	10 93 79 02 	sts	0x0279, r17
     6f6:	61 2f       	mov	r22, r17
     6f8:	83 e1       	ldi	r24, 0x13	; 19
     6fa:	0e 94 78 05 	call	0xaf0
     6fe:	10 93 84 02 	sts	0x0284, r17
     702:	86 e6       	ldi	r24, 0x66	; 102
     704:	92 e0       	ldi	r25, 0x02	; 2
     706:	dc 01       	movw	r26, r24
     708:	11 96       	adiw	r26, 0x01	; 1
     70a:	ee eb       	ldi	r30, 0xBE	; 190
     70c:	f0 e0       	ldi	r31, 0x00	; 0
     70e:	9c 01       	movw	r18, r24
     710:	22 5e       	subi	r18, 0xE2	; 226
     712:	3f 4f       	sbci	r19, 0xFF	; 255
     714:	84 91       	lpm	r24, Z
     716:	8d 93       	st	X+, r24
     718:	31 96       	adiw	r30, 0x01	; 1
     71a:	2a 17       	cp	r18, r26
     71c:	3b 07       	cpc	r19, r27
     71e:	d4 f7       	brge	.-12     	; 0x714
     720:	0e 94 9c 05 	call	0xb38
     724:	11 e0       	ldi	r17, 0x01	; 1
     726:	c7 e6       	ldi	r28, 0x67	; 103
     728:	d2 e0       	ldi	r29, 0x02	; 2
     72a:	89 91       	ld	r24, Y+
     72c:	68 2f       	mov	r22, r24
     72e:	81 2f       	mov	r24, r17
     730:	0e 94 78 05 	call	0xaf0
     734:	1f 5f       	subi	r17, 0xFF	; 255
     736:	1d 30       	cpi	r17, 0x0D	; 13
     738:	c0 f3       	brcs	.-16     	; 0x72a
     73a:	80 91 78 02 	lds	r24, 0x0278
     73e:	68 2f       	mov	r22, r24
     740:	82 e1       	ldi	r24, 0x12	; 18
     742:	0e 94 78 05 	call	0xaf0
     746:	60 e0       	ldi	r22, 0x00	; 0
     748:	8b e0       	ldi	r24, 0x0B	; 11
     74a:	0e 94 78 05 	call	0xaf0
     74e:	6f e3       	ldi	r22, 0x3F	; 63
     750:	82 e4       	ldi	r24, 0x42	; 66
     752:	0e 94 78 05 	call	0xaf0
     756:	61 e1       	ldi	r22, 0x11	; 17
     758:	80 e0       	ldi	r24, 0x00	; 0
     75a:	0e 94 78 05 	call	0xaf0
     75e:	66 ea       	ldi	r22, 0xA6	; 166
     760:	8e e0       	ldi	r24, 0x0E	; 14
     762:	0e 94 78 05 	call	0xaf0
     766:	8e e0       	ldi	r24, 0x0E	; 14
     768:	0e 94 af 05 	call	0xb5e
     76c:	83 ff       	sbrs	r24, 3
     76e:	fb cf       	rjmp	.-10     	; 0x766
     770:	66 e2       	ldi	r22, 0x26	; 38
     772:	8e e0       	ldi	r24, 0x0E	; 14
     774:	0e 94 78 05 	call	0xaf0
     778:	61 ee       	ldi	r22, 0xE1	; 225
     77a:	80 e0       	ldi	r24, 0x00	; 0
     77c:	0e 94 78 05 	call	0xaf0
     780:	80 91 83 02 	lds	r24, 0x0283
     784:	68 2f       	mov	r22, r24
     786:	89 e0       	ldi	r24, 0x09	; 9
     788:	0e 94 78 05 	call	0xaf0
     78c:	60 e0       	ldi	r22, 0x00	; 0
     78e:	8b e0       	ldi	r24, 0x0B	; 11
     790:	0e 94 78 05 	call	0xaf0
     794:	66 ea       	ldi	r22, 0xA6	; 166
     796:	8e e0       	ldi	r24, 0x0E	; 14
     798:	0e 94 78 05 	call	0xaf0
     79c:	ce e0       	ldi	r28, 0x0E	; 14
     79e:	8c 2f       	mov	r24, r28
     7a0:	0e 94 af 05 	call	0xb5e
     7a4:	83 ff       	sbrs	r24, 3
     7a6:	fa cf       	rjmp	.-12     	; 0x79c
     7a8:	66 e2       	ldi	r22, 0x26	; 38
     7aa:	8c 2f       	mov	r24, r28
     7ac:	0e 94 78 05 	call	0xaf0
     7b0:	80 e9       	ldi	r24, 0x90	; 144
     7b2:	80 93 73 02 	sts	0x0273, r24
     7b6:	68 2f       	mov	r22, r24
     7b8:	8d e0       	ldi	r24, 0x0D	; 13
     7ba:	0e 94 78 05 	call	0xaf0
     7be:	80 91 84 02 	lds	r24, 0x0284
     7c2:	28 2f       	mov	r18, r24
     7c4:	33 27       	eor	r19, r19
     7c6:	8f b7       	in	r24, 0x3f	; 63
     7c8:	f8 94       	cli
     7ca:	99 27       	eor	r25, r25
     7cc:	20 93 36 03 	sts	0x0336, r18
     7d0:	8f bf       	out	0x3f, r24	; 63
     7d2:	0e 94 e2 05 	call	0xbc4
     7d6:	8f b7       	in	r24, 0x3f	; 63
     7d8:	f8 94       	cli
     7da:	99 27       	eor	r25, r25
     7dc:	10 92 28 03 	sts	0x0328, r1
     7e0:	8f bf       	out	0x3f, r24	; 63
     7e2:	8f b7       	in	r24, 0x3f	; 63
     7e4:	f8 94       	cli
     7e6:	99 27       	eor	r25, r25
     7e8:	10 92 4b 03 	sts	0x034B, r1
     7ec:	10 92 4a 03 	sts	0x034A, r1
     7f0:	10 92 27 03 	sts	0x0327, r1
     7f4:	10 92 26 03 	sts	0x0326, r1
     7f8:	10 92 8d 02 	sts	0x028D, r1
     7fc:	10 92 8c 02 	sts	0x028C, r1
     800:	8f bf       	out	0x3f, r24	; 63
     802:	0e 94 e2 05 	call	0xbc4
     806:	8f b7       	in	r24, 0x3f	; 63
     808:	f8 94       	cli
     80a:	99 27       	eor	r25, r25
     80c:	c6 b9       	out	0x06, r28	; 6
     80e:	17 b8       	out	0x07, r1	; 7
     810:	8f bf       	out	0x3f, r24	; 63
     812:	8f b7       	in	r24, 0x3f	; 63
     814:	f8 94       	cli
     816:	48 2f       	mov	r20, r24
     818:	55 27       	eor	r21, r21
     81a:	20 91 00 01 	lds	r18, 0x0100
     81e:	30 91 01 01 	lds	r19, 0x0101
     822:	81 e5       	ldi	r24, 0x51	; 81
     824:	97 e3       	ldi	r25, 0x37	; 55
     826:	28 9f       	mul	r18, r24
     828:	b0 01       	movw	r22, r0
     82a:	29 9f       	mul	r18, r25
     82c:	70 0d       	add	r23, r0
     82e:	38 9f       	mul	r19, r24
     830:	70 0d       	add	r23, r0
     832:	11 24       	eor	r1, r1
     834:	cb 01       	movw	r24, r22
     836:	8f 5a       	subi	r24, 0xAF	; 175
     838:	98 4c       	sbci	r25, 0xC8	; 200
     83a:	90 93 1c 03 	sts	0x031C, r25
     83e:	80 93 1b 03 	sts	0x031B, r24
     842:	90 93 48 03 	sts	0x0348, r25
     846:	80 93 47 03 	sts	0x0347, r24
     84a:	85 e8       	ldi	r24, 0x85	; 133
     84c:	9f e0       	ldi	r25, 0x0F	; 15
     84e:	28 9f       	mul	r18, r24
     850:	f0 01       	movw	r30, r0
     852:	29 9f       	mul	r18, r25
     854:	f0 0d       	add	r31, r0
     856:	38 9f       	mul	r19, r24
     858:	f0 0d       	add	r31, r0
     85a:	11 24       	eor	r1, r1
     85c:	cf 01       	movw	r24, r30
     85e:	8b 57       	subi	r24, 0x7B	; 123
     860:	90 4f       	sbci	r25, 0xF0	; 240
     862:	90 93 6a 01 	sts	0x016A, r25
     866:	80 93 69 01 	sts	0x0169, r24
     86a:	4f bf       	out	0x3f, r20	; 63
     86c:	10 92 40 03 	sts	0x0340, r1
     870:	10 92 41 03 	sts	0x0341, r1
     874:	10 92 42 03 	sts	0x0342, r1
     878:	10 92 43 03 	sts	0x0343, r1
     87c:	10 92 fa 02 	sts	0x02FA, r1
     880:	8f ef       	ldi	r24, 0xFF	; 255
     882:	80 93 46 03 	sts	0x0346, r24
     886:	80 93 5f 01 	sts	0x015F, r24
     88a:	10 92 4c 02 	sts	0x024C, r1
     88e:	83 e0       	ldi	r24, 0x03	; 3
     890:	80 93 fb 02 	sts	0x02FB, r24
     894:	96 ee       	ldi	r25, 0xE6	; 230
     896:	90 93 0e 03 	sts	0x030E, r25
     89a:	8f b7       	in	r24, 0x3f	; 63
     89c:	f8 94       	cli
     89e:	48 2f       	mov	r20, r24
     8a0:	55 27       	eor	r21, r21
     8a2:	87 b7       	in	r24, 0x37	; 55
     8a4:	8e 7f       	andi	r24, 0xFE	; 254
     8a6:	87 bf       	out	0x37, r24	; 55
     8a8:	87 b7       	in	r24, 0x37	; 55
     8aa:	8d 7f       	andi	r24, 0xFD	; 253
     8ac:	87 bf       	out	0x37, r24	; 55
     8ae:	80 b7       	in	r24, 0x30	; 48
     8b0:	88 60       	ori	r24, 0x08	; 8
     8b2:	80 bf       	out	0x30, r24	; 48
     8b4:	8b e0       	ldi	r24, 0x0B	; 11
     8b6:	83 bf       	out	0x33, r24	; 51
     8b8:	12 be       	out	0x32, r1	; 50
     8ba:	91 bf       	out	0x31, r25	; 49
     8bc:	87 b7       	in	r24, 0x37	; 55
     8be:	82 60       	ori	r24, 0x02	; 2
     8c0:	87 bf       	out	0x37, r24	; 55
     8c2:	4f bf       	out	0x3f, r20	; 63
     8c4:	30 93 3c 03 	sts	0x033C, r19
     8c8:	20 93 3b 03 	sts	0x033B, r18
     8cc:	8f b7       	in	r24, 0x3f	; 63
     8ce:	f8 94       	cli
     8d0:	99 27       	eor	r25, r25
     8d2:	10 92 23 03 	sts	0x0323, r1
     8d6:	da 9a       	sbi	0x1b, 2	; 27
     8d8:	d8 9a       	sbi	0x1b, 0	; 27
     8da:	d9 9a       	sbi	0x1b, 1	; 27
     8dc:	8f bf       	out	0x3f, r24	; 63
     8de:	0e 94 34 05 	call	0xa68
     8e2:	10 92 90 00 	sts	0x0090, r1
     8e6:	8f e0       	ldi	r24, 0x0F	; 15
     8e8:	89 b9       	out	0x09, r24	; 9
     8ea:	22 e0       	ldi	r18, 0x02	; 2
     8ec:	2b b9       	out	0x0b, r18	; 11
     8ee:	76 e0       	ldi	r23, 0x06	; 6
     8f0:	70 93 95 00 	sts	0x0095, r23
     8f4:	88 ed       	ldi	r24, 0xD8	; 216
     8f6:	8a b9       	out	0x0a, r24	; 10
     8f8:	8f b7       	in	r24, 0x3f	; 63
     8fa:	f8 94       	cli
     8fc:	99 27       	eor	r25, r25
     8fe:	60 91 65 01 	lds	r22, 0x0165
     902:	8f bf       	out	0x3f, r24	; 63
     904:	61 30       	cpi	r22, 0x01	; 1
     906:	09 f0       	breq	.+2      	; 0x90a
     908:	7d c0       	rjmp	.+250    	; 0xa04
     90a:	8f b7       	in	r24, 0x3f	; 63
     90c:	f8 94       	cli
     90e:	48 2f       	mov	r20, r24
     910:	55 27       	eor	r21, r21
     912:	e0 91 cd 02 	lds	r30, 0x02CD
     916:	f0 91 ce 02 	lds	r31, 0x02CE
     91a:	14 82       	std	Z+4, r1	; 0x04
     91c:	20 93 65 01 	sts	0x0165, r18
     920:	10 92 61 01 	sts	0x0161, r1
     924:	10 92 63 01 	sts	0x0163, r1
     928:	8f ef       	ldi	r24, 0xFF	; 255
     92a:	9f ef       	ldi	r25, 0xFF	; 255
     92c:	90 93 fe 02 	sts	0x02FE, r25
     930:	80 93 fd 02 	sts	0x02FD, r24
     934:	80 91 bc 02 	lds	r24, 0x02BC
     938:	99 27       	eor	r25, r25
     93a:	88 0f       	add	r24, r24
     93c:	99 1f       	adc	r25, r25
     93e:	fc 01       	movw	r30, r24
     940:	e4 57       	subi	r30, 0x74	; 116
     942:	ff 4f       	sbci	r31, 0xFF	; 255
     944:	24 91       	lpm	r18, Z
     946:	33 27       	eor	r19, r19
     948:	32 2f       	mov	r19, r18
     94a:	22 27       	eor	r18, r18
     94c:	83 57       	subi	r24, 0x73	; 115
     94e:	9f 4f       	sbci	r25, 0xFF	; 255
     950:	fc 01       	movw	r30, r24
     952:	84 91       	lpm	r24, Z
     954:	99 27       	eor	r25, r25
     956:	28 2b       	or	r18, r24
     958:	39 2b       	or	r19, r25
     95a:	30 93 46 02 	sts	0x0246, r19
     95e:	20 93 45 02 	sts	0x0245, r18
     962:	4f bf       	out	0x3f, r20	; 63
     964:	80 91 03 03 	lds	r24, 0x0303
     968:	88 23       	and	r24, r24
     96a:	69 f5       	brne	.+90     	; 0x9c6
     96c:	6b e3       	ldi	r22, 0x3B	; 59
     96e:	0e 94 78 05 	call	0xaf0
     972:	80 ed       	ldi	r24, 0xD0	; 208
     974:	97 e0       	ldi	r25, 0x07	; 7
     976:	00 00       	nop
     978:	00 00       	nop
     97a:	00 00       	nop
     97c:	00 00       	nop
     97e:	00 00       	nop
     980:	00 00       	nop
     982:	00 00       	nop
     984:	00 00       	nop
     986:	01 97       	sbiw	r24, 0x01	; 1
     988:	18 16       	cp	r1, r24
     98a:	19 06       	cpc	r1, r25
     98c:	a4 f3       	brlt	.-24     	; 0x976
     98e:	69 e3       	ldi	r22, 0x39	; 57
     990:	80 e0       	ldi	r24, 0x00	; 0
     992:	0e 94 78 05 	call	0xaf0
     996:	88 ec       	ldi	r24, 0xC8	; 200
     998:	90 e0       	ldi	r25, 0x00	; 0
     99a:	00 00       	nop
     99c:	00 00       	nop
     99e:	00 00       	nop
     9a0:	00 00       	nop
     9a2:	00 00       	nop
     9a4:	00 00       	nop
     9a6:	00 00       	nop
     9a8:	00 00       	nop
     9aa:	01 97       	sbiw	r24, 0x01	; 1
     9ac:	18 16       	cp	r1, r24
     9ae:	19 06       	cpc	r1, r25
     9b0:	a4 f3       	brlt	.-24     	; 0x99a
     9b2:	bb 98       	cbi	0x17, 3	; 23
     9b4:	ba 98       	cbi	0x17, 2	; 23
     9b6:	0e 94 fd 05 	call	0xbfa
     9ba:	80 ec       	ldi	r24, 0xC0	; 192
     9bc:	8d b9       	out	0x0d, r24	; 13
     9be:	b8 98       	cbi	0x17, 0	; 23
     9c0:	0e 94 1c 06 	call	0xc38
     9c4:	1f c0       	rjmp	.+62     	; 0xa04
     9c6:	99 27       	eor	r25, r25
     9c8:	88 0f       	add	r24, r24
     9ca:	99 1f       	adc	r25, r25
     9cc:	fc 01       	movw	r30, r24
     9ce:	ef 55       	subi	r30, 0x5F	; 95
     9d0:	ff 4f       	sbci	r31, 0xFF	; 255
     9d2:	24 91       	lpm	r18, Z
     9d4:	33 27       	eor	r19, r19
     9d6:	32 2f       	mov	r19, r18
     9d8:	22 27       	eor	r18, r18
     9da:	8e 55       	subi	r24, 0x5E	; 94
     9dc:	9f 4f       	sbci	r25, 0xFF	; 255
     9de:	fc 01       	movw	r30, r24
     9e0:	84 91       	lpm	r24, Z
     9e2:	99 27       	eor	r25, r25
     9e4:	28 2b       	or	r18, r24
     9e6:	39 2b       	or	r19, r25
     9e8:	8f b7       	in	r24, 0x3f	; 63
     9ea:	f8 94       	cli
     9ec:	99 27       	eor	r25, r25
     9ee:	70 93 65 01 	sts	0x0165, r23
     9f2:	8f bf       	out	0x3f, r24	; 63
     9f4:	c9 01       	movw	r24, r18
     9f6:	aa 27       	eor	r26, r26
     9f8:	bb 27       	eor	r27, r27
     9fa:	9c 01       	movw	r18, r24
     9fc:	ad 01       	movw	r20, r26
     9fe:	80 e0       	ldi	r24, 0x00	; 0
     a00:	0e 94 2e 06 	call	0xc5c
     a04:	78 94       	sei
     a06:	90 91 87 02 	lds	r25, 0x0287
     a0a:	80 91 cb 02 	lds	r24, 0x02CB
     a0e:	98 17       	cp	r25, r24
     a10:	19 f4       	brne	.+6      	; 0xa18
     a12:	80 e0       	ldi	r24, 0x00	; 0
     a14:	90 e0       	ldi	r25, 0x00	; 0
     a16:	1f c0       	rjmp	.+62     	; 0xa56
     a18:	8f b7       	in	r24, 0x3f	; 63
     a1a:	f8 94       	cli
     a1c:	28 2f       	mov	r18, r24
     a1e:	33 27       	eor	r19, r19
     a20:	90 91 87 02 	lds	r25, 0x0287
     a24:	80 91 87 02 	lds	r24, 0x0287
     a28:	8f 5f       	subi	r24, 0xFF	; 255
     a2a:	80 93 87 02 	sts	0x0287, r24
     a2e:	80 91 87 02 	lds	r24, 0x0287
     a32:	87 70       	andi	r24, 0x07	; 7
     a34:	80 93 87 02 	sts	0x0287, r24
     a38:	e9 2f       	mov	r30, r25
     a3a:	ff 27       	eor	r31, r31
     a3c:	ee 0f       	add	r30, r30
     a3e:	ff 1f       	adc	r31, r31
     a40:	e2 5b       	subi	r30, 0xB2	; 178
     a42:	fd 4f       	sbci	r31, 0xFD	; 253
     a44:	80 81       	ld	r24, Z
     a46:	91 81       	ldd	r25, Z+1	; 0x01
     a48:	10 82       	st	Z, r1
     a4a:	11 82       	std	Z+1, r1	; 0x01
     a4c:	2f bf       	out	0x3f, r18	; 63
     a4e:	fc 01       	movw	r30, r24
     a50:	09 95       	icall
     a52:	81 e0       	ldi	r24, 0x01	; 1
     a54:	90 e0       	ldi	r25, 0x00	; 0
     a56:	88 23       	and	r24, r24
     a58:	b1 f6       	brne	.-84     	; 0xa06
     a5a:	85 b7       	in	r24, 0x35	; 53
     a5c:	80 62       	ori	r24, 0x20	; 32
     a5e:	85 bf       	out	0x35, r24	; 53
     a60:	88 95       	sleep
     a62:	00 00       	nop
     a64:	00 00       	nop
     a66:	cf cf       	rjmp	.-98     	; 0xa06

00000a68 <FramerM$HDLCInitialize>:
     a68:	8f b7       	in	r24, 0x3f	; 63
     a6a:	f8 94       	cli
     a6c:	68 2f       	mov	r22, r24
     a6e:	80 e0       	ldi	r24, 0x00	; 0
     a70:	90 e0       	ldi	r25, 0x00	; 0
     a72:	47 e0       	ldi	r20, 0x07	; 7
     a74:	51 e0       	ldi	r21, 0x01	; 1
     a76:	9c 01       	movw	r18, r24
     a78:	f9 01       	movw	r30, r18
     a7a:	e8 0f       	add	r30, r24
     a7c:	f9 1f       	adc	r31, r25
     a7e:	e1 5f       	subi	r30, 0xF1	; 241
     a80:	fc 4f       	sbci	r31, 0xFC	; 252
     a82:	44 83       	std	Z+4, r20	; 0x04
     a84:	55 83       	std	Z+5, r21	; 0x05
     a86:	12 82       	std	Z+2, r1	; 0x02
     a88:	13 82       	std	Z+3, r1	; 0x03
     a8a:	11 82       	std	Z+1, r1	; 0x01
     a8c:	01 96       	adiw	r24, 0x01	; 1
     a8e:	2b 5f       	subi	r18, 0xFB	; 251
     a90:	3f 4f       	sbci	r19, 0xFF	; 255
     a92:	45 5d       	subi	r20, 0xD5	; 213
     a94:	5f 4f       	sbci	r21, 0xFF	; 255
     a96:	82 30       	cpi	r24, 0x02	; 2
     a98:	91 05       	cpc	r25, r1
     a9a:	74 f3       	brlt	.-36     	; 0xa78
     a9c:	10 92 35 03 	sts	0x0335, r1
     aa0:	10 92 c9 02 	sts	0x02C9, r1
     aa4:	10 92 c8 02 	sts	0x02C8, r1
     aa8:	10 92 67 01 	sts	0x0167, r1
     aac:	10 92 66 01 	sts	0x0166, r1
     ab0:	10 92 06 01 	sts	0x0106, r1
     ab4:	10 92 05 01 	sts	0x0105, r1
     ab8:	10 92 5e 01 	sts	0x015E, r1
     abc:	10 92 5d 01 	sts	0x015D, r1
     ac0:	10 92 34 03 	sts	0x0334, r1
     ac4:	10 92 01 03 	sts	0x0301, r1
     ac8:	10 92 37 03 	sts	0x0337, r1
     acc:	10 92 44 02 	sts	0x0244, r1
     ad0:	10 92 43 02 	sts	0x0243, r1
     ad4:	10 92 62 02 	sts	0x0262, r1
     ad8:	10 92 61 02 	sts	0x0261, r1
     adc:	80 91 13 03 	lds	r24, 0x0313
     ae0:	90 91 14 03 	lds	r25, 0x0314
     ae4:	90 93 21 03 	sts	0x0321, r25
     ae8:	80 93 20 03 	sts	0x0320, r24
     aec:	6f bf       	out	0x3f, r22	; 63
     aee:	08 95       	ret

00000af0 <HPLCC1000M$HPLCC1000$write>:
     af0:	88 0f       	add	r24, r24
     af2:	94 98       	cbi	0x12, 4	; 18
     af4:	96 e0       	ldi	r25, 0x06	; 6
     af6:	87 ff       	sbrs	r24, 7
     af8:	02 c0       	rjmp	.+4      	; 0xafe
     afa:	97 9a       	sbi	0x12, 7	; 18
     afc:	01 c0       	rjmp	.+2      	; 0xb00
     afe:	97 98       	cbi	0x12, 7	; 18
     b00:	96 98       	cbi	0x12, 6	; 18
     b02:	96 9a       	sbi	0x12, 6	; 18
     b04:	88 0f       	add	r24, r24
     b06:	91 50       	subi	r25, 0x01	; 1
     b08:	97 ff       	sbrs	r25, 7
     b0a:	f5 cf       	rjmp	.-22     	; 0xaf6
     b0c:	97 9a       	sbi	0x12, 7	; 18
     b0e:	96 98       	cbi	0x12, 6	; 18
     b10:	96 9a       	sbi	0x12, 6	; 18
     b12:	94 9a       	sbi	0x12, 4	; 18
     b14:	97 e0       	ldi	r25, 0x07	; 7
     b16:	67 ff       	sbrs	r22, 7
     b18:	02 c0       	rjmp	.+4      	; 0xb1e
     b1a:	97 9a       	sbi	0x12, 7	; 18
     b1c:	01 c0       	rjmp	.+2      	; 0xb20
     b1e:	97 98       	cbi	0x12, 7	; 18
     b20:	96 98       	cbi	0x12, 6	; 18
     b22:	96 9a       	sbi	0x12, 6	; 18
     b24:	66 0f       	add	r22, r22
     b26:	91 50       	subi	r25, 0x01	; 1
     b28:	97 ff       	sbrs	r25, 7
     b2a:	f5 cf       	rjmp	.-22     	; 0xb16
     b2c:	94 9a       	sbi	0x12, 4	; 18
     b2e:	97 9a       	sbi	0x12, 7	; 18
     b30:	96 9a       	sbi	0x12, 6	; 18
     b32:	81 e0       	ldi	r24, 0x01	; 1
     b34:	90 e0       	ldi	r25, 0x00	; 0
     b36:	08 95       	ret

00000b38 <CC1000ControlM$cc1000SetModem>:
     b38:	80 91 75 02 	lds	r24, 0x0275
     b3c:	68 2f       	mov	r22, r24
     b3e:	8f e0       	ldi	r24, 0x0F	; 15
     b40:	0e 94 78 05 	call	0xaf0
     b44:	80 91 76 02 	lds	r24, 0x0276
     b48:	68 2f       	mov	r22, r24
     b4a:	80 e1       	ldi	r24, 0x10	; 16
     b4c:	0e 94 78 05 	call	0xaf0
     b50:	80 91 77 02 	lds	r24, 0x0277
     b54:	68 2f       	mov	r22, r24
     b56:	81 e1       	ldi	r24, 0x11	; 17
     b58:	0e 94 78 05 	call	0xaf0
     b5c:	08 95       	ret

00000b5e <HPLCC1000M$HPLCC1000$read>:
     b5e:	90 e0       	ldi	r25, 0x00	; 0
     b60:	88 0f       	add	r24, r24
     b62:	94 98       	cbi	0x12, 4	; 18
     b64:	26 e0       	ldi	r18, 0x06	; 6
     b66:	30 e0       	ldi	r19, 0x00	; 0
     b68:	87 ff       	sbrs	r24, 7
     b6a:	02 c0       	rjmp	.+4      	; 0xb70
     b6c:	97 9a       	sbi	0x12, 7	; 18
     b6e:	01 c0       	rjmp	.+2      	; 0xb72
     b70:	97 98       	cbi	0x12, 7	; 18
     b72:	96 98       	cbi	0x12, 6	; 18
     b74:	96 9a       	sbi	0x12, 6	; 18
     b76:	88 0f       	add	r24, r24
     b78:	21 50       	subi	r18, 0x01	; 1
     b7a:	30 40       	sbci	r19, 0x00	; 0
     b7c:	37 ff       	sbrs	r19, 7
     b7e:	f4 cf       	rjmp	.-24     	; 0xb68
     b80:	27 e0       	ldi	r18, 0x07	; 7
     b82:	30 e0       	ldi	r19, 0x00	; 0
     b84:	97 98       	cbi	0x12, 7	; 18
     b86:	96 98       	cbi	0x12, 6	; 18
     b88:	96 9a       	sbi	0x12, 6	; 18
     b8a:	8f 98       	cbi	0x11, 7	; 17
     b8c:	94 9a       	sbi	0x12, 4	; 18
     b8e:	96 98       	cbi	0x12, 6	; 18
     b90:	40 e0       	ldi	r20, 0x00	; 0
     b92:	50 e0       	ldi	r21, 0x00	; 0
     b94:	87 99       	sbic	0x10, 7	; 16
     b96:	41 e0       	ldi	r20, 0x01	; 1
     b98:	89 2f       	mov	r24, r25
     b9a:	99 27       	eor	r25, r25
     b9c:	21 50       	subi	r18, 0x01	; 1
     b9e:	30 40       	sbci	r19, 0x00	; 0
     ba0:	44 23       	and	r20, r20
     ba2:	29 f0       	breq	.+10     	; 0xbae
     ba4:	88 0f       	add	r24, r24
     ba6:	99 1f       	adc	r25, r25
     ba8:	98 2f       	mov	r25, r24
     baa:	91 60       	ori	r25, 0x01	; 1
     bac:	02 c0       	rjmp	.+4      	; 0xbb2
     bae:	98 2f       	mov	r25, r24
     bb0:	99 0f       	add	r25, r25
     bb2:	96 9a       	sbi	0x12, 6	; 18
     bb4:	37 ff       	sbrs	r19, 7
     bb6:	eb cf       	rjmp	.-42     	; 0xb8e
     bb8:	94 9a       	sbi	0x12, 4	; 18
     bba:	8f 9a       	sbi	0x11, 7	; 17
     bbc:	97 9a       	sbi	0x12, 7	; 18
     bbe:	89 2f       	mov	r24, r25
     bc0:	99 27       	eor	r25, r25
     bc2:	08 95       	ret

00000bc4 <HPLADCM$init_portmap>:
     bc4:	8f b7       	in	r24, 0x3f	; 63
     bc6:	f8 94       	cli
     bc8:	28 2f       	mov	r18, r24
     bca:	80 91 42 02 	lds	r24, 0x0242
     bce:	88 23       	and	r24, r24
     bd0:	91 f4       	brne	.+36     	; 0xbf6
     bd2:	80 e0       	ldi	r24, 0x00	; 0
     bd4:	90 e0       	ldi	r25, 0x00	; 0
     bd6:	e8 e2       	ldi	r30, 0x28	; 40
     bd8:	f3 e0       	ldi	r31, 0x03	; 3
     bda:	81 93       	st	Z+, r24
     bdc:	01 96       	adiw	r24, 0x01	; 1
     bde:	8c 30       	cpi	r24, 0x0C	; 12
     be0:	91 05       	cpc	r25, r1
     be2:	dc f3       	brlt	.-10     	; 0xbda
     be4:	8e e1       	ldi	r24, 0x1E	; 30
     be6:	80 93 32 03 	sts	0x0332, r24
     bea:	8f e1       	ldi	r24, 0x1F	; 31
     bec:	80 93 33 03 	sts	0x0333, r24
     bf0:	81 e0       	ldi	r24, 0x01	; 1
     bf2:	80 93 42 02 	sts	0x0242, r24
     bf6:	2f bf       	out	0x3f, r18	; 63
     bf8:	08 95       	ret

00000bfa <CC1000ControlM$CC1000Control$RxMode>:
     bfa:	61 e1       	ldi	r22, 0x11	; 17
     bfc:	80 e0       	ldi	r24, 0x00	; 0
     bfe:	0e 94 78 05 	call	0xaf0
     c02:	80 91 6f 02 	lds	r24, 0x026F
     c06:	68 2f       	mov	r22, r24
     c08:	89 e0       	ldi	r24, 0x09	; 9
     c0a:	0e 94 78 05 	call	0xaf0
     c0e:	60 e0       	ldi	r22, 0x00	; 0
     c10:	8b e0       	ldi	r24, 0x0B	; 11
     c12:	0e 94 78 05 	call	0xaf0
     c16:	8a ef       	ldi	r24, 0xFA	; 250
     c18:	90 e0       	ldi	r25, 0x00	; 0
     c1a:	00 00       	nop
     c1c:	00 00       	nop
     c1e:	00 00       	nop
     c20:	00 00       	nop
     c22:	00 00       	nop
     c24:	00 00       	nop
     c26:	00 00       	nop
     c28:	00 00       	nop
     c2a:	01 97       	sbiw	r24, 0x01	; 1
     c2c:	18 16       	cp	r1, r24
     c2e:	19 06       	cpc	r1, r25
     c30:	a4 f3       	brlt	.-24     	; 0xc1a
     c32:	81 e0       	ldi	r24, 0x01	; 1
     c34:	90 e0       	ldi	r25, 0x00	; 0
     c36:	08 95       	ret

00000c38 <HPLPowerManagementM$PowerManagement$adjustPower>:
     c38:	80 91 03 01 	lds	r24, 0x0103
     c3c:	88 23       	and	r24, r24
     c3e:	29 f4       	brne	.+10     	; 0xc4a
     c40:	8c e8       	ldi	r24, 0x8C	; 140
     c42:	9f e0       	ldi	r25, 0x0F	; 15
     c44:	0e 94 7d 02 	call	0x4fa
     c48:	06 c0       	rjmp	.+12     	; 0xc56
     c4a:	85 b7       	in	r24, 0x35	; 53
     c4c:	83 7e       	andi	r24, 0xE3	; 227
     c4e:	85 bf       	out	0x35, r24	; 53
     c50:	85 b7       	in	r24, 0x35	; 53
     c52:	80 62       	ori	r24, 0x20	; 32
     c54:	85 bf       	out	0x35, r24	; 53
     c56:	80 e0       	ldi	r24, 0x00	; 0
     c58:	90 e0       	ldi	r25, 0x00	; 0
     c5a:	08 95       	ret

00000c5c <TimerM$Timer$start>:
     c5c:	cf 93       	push	r28
     c5e:	df 93       	push	r29
     c60:	78 2f       	mov	r23, r24
     c62:	88 23       	and	r24, r24
     c64:	11 f4       	brne	.+4      	; 0xc6a
     c66:	62 30       	cpi	r22, 0x02	; 2
     c68:	1c f0       	brlt	.+6      	; 0xc70
     c6a:	80 e0       	ldi	r24, 0x00	; 0
     c6c:	90 e0       	ldi	r25, 0x00	; 0
     c6e:	40 c0       	rjmp	.+128    	; 0xcf0
     c70:	20 93 be 02 	sts	0x02BE, r18
     c74:	30 93 bf 02 	sts	0x02BF, r19
     c78:	40 93 c0 02 	sts	0x02C0, r20
     c7c:	50 93 c1 02 	sts	0x02C1, r21
     c80:	60 93 bd 02 	sts	0x02BD, r22
     c84:	8f b7       	in	r24, 0x3f	; 63
     c86:	f8 94       	cli
     c88:	c8 2f       	mov	r28, r24
     c8a:	dd 27       	eor	r29, r29
     c8c:	82 b7       	in	r24, 0x32	; 50
     c8e:	28 0f       	add	r18, r24
     c90:	31 1d       	adc	r19, r1
     c92:	41 1d       	adc	r20, r1
     c94:	51 1d       	adc	r21, r1
     c96:	20 93 c2 02 	sts	0x02C2, r18
     c9a:	30 93 c3 02 	sts	0x02C3, r19
     c9e:	40 93 c4 02 	sts	0x02C4, r20
     ca2:	50 93 c5 02 	sts	0x02C5, r21
     ca6:	80 91 40 03 	lds	r24, 0x0340
     caa:	90 91 41 03 	lds	r25, 0x0341
     cae:	a0 91 42 03 	lds	r26, 0x0342
     cb2:	b0 91 43 03 	lds	r27, 0x0343
     cb6:	81 60       	ori	r24, 0x01	; 1
     cb8:	80 93 40 03 	sts	0x0340, r24
     cbc:	90 93 41 03 	sts	0x0341, r25
     cc0:	a0 93 42 03 	sts	0x0342, r26
     cc4:	b0 93 43 03 	sts	0x0343, r27
     cc8:	80 91 0e 03 	lds	r24, 0x030E
     ccc:	99 27       	eor	r25, r25
     cce:	aa 27       	eor	r26, r26
     cd0:	bb 27       	eor	r27, r27
     cd2:	28 17       	cp	r18, r24
     cd4:	39 07       	cpc	r19, r25
     cd6:	4a 07       	cpc	r20, r26
     cd8:	5b 07       	cpc	r21, r27
     cda:	38 f4       	brcc	.+14     	; 0xcea
     cdc:	20 93 0e 03 	sts	0x030E, r18
     ce0:	21 bf       	out	0x31, r18	; 49
     ce2:	70 93 fa 02 	sts	0x02FA, r23
     ce6:	0e 94 1c 06 	call	0xc38
     cea:	cf bf       	out	0x3f, r28	; 63
     cec:	81 e0       	ldi	r24, 0x01	; 1
     cee:	90 e0       	ldi	r25, 0x00	; 0
     cf0:	df 91       	pop	r29
     cf2:	cf 91       	pop	r28
     cf4:	08 95       	ret

00000cf6 <__vector_21>:
     cf6:	1f 92       	push	r1
     cf8:	0f 92       	push	r0
     cfa:	0f b6       	in	r0, 0x3f	; 63
     cfc:	0f 92       	push	r0
     cfe:	11 24       	eor	r1, r1
     d00:	ff 92       	push	r15
     d02:	0f 93       	push	r16
     d04:	1f 93       	push	r17
     d06:	2f 93       	push	r18
     d08:	3f 93       	push	r19
     d0a:	4f 93       	push	r20
     d0c:	5f 93       	push	r21
     d0e:	6f 93       	push	r22
     d10:	7f 93       	push	r23
     d12:	8f 93       	push	r24
     d14:	9f 93       	push	r25
     d16:	af 93       	push	r26
     d18:	bf 93       	push	r27
     d1a:	cf 93       	push	r28
     d1c:	df 93       	push	r29
     d1e:	ef 93       	push	r30
     d20:	ff 93       	push	r31
     d22:	c4 b1       	in	r28, 0x04	; 4
     d24:	d5 b1       	in	r29, 0x05	; 5
     d26:	d3 70       	andi	r29, 0x03	; 3
     d28:	34 9a       	sbi	0x06, 4	; 6
     d2a:	37 98       	cbi	0x06, 7	; 6
     d2c:	78 94       	sei
     d2e:	8f b7       	in	r24, 0x3f	; 63
     d30:	f8 94       	cli
     d32:	f8 2e       	mov	r15, r24
     d34:	80 91 4a 03 	lds	r24, 0x034A
     d38:	08 2f       	mov	r16, r24
     d3a:	11 27       	eor	r17, r17
     d3c:	21 e0       	ldi	r18, 0x01	; 1
     d3e:	30 e0       	ldi	r19, 0x00	; 0
     d40:	00 2e       	mov	r0, r16
     d42:	02 c0       	rjmp	.+4      	; 0xd48
     d44:	22 0f       	add	r18, r18
     d46:	33 1f       	adc	r19, r19
     d48:	0a 94       	dec	r0
     d4a:	e2 f7       	brpl	.-8      	; 0xd44
     d4c:	80 91 26 03 	lds	r24, 0x0326
     d50:	90 91 27 03 	lds	r25, 0x0327
     d54:	82 23       	and	r24, r18
     d56:	93 23       	and	r25, r19
     d58:	89 2b       	or	r24, r25
     d5a:	61 f4       	brne	.+24     	; 0xd74
     d5c:	20 95       	com	r18
     d5e:	30 95       	com	r19
     d60:	80 91 8c 02 	lds	r24, 0x028C
     d64:	90 91 8d 02 	lds	r25, 0x028D
     d68:	82 23       	and	r24, r18
     d6a:	93 23       	and	r25, r19
     d6c:	90 93 8d 02 	sts	0x028D, r25
     d70:	80 93 8c 02 	sts	0x028C, r24
     d74:	40 91 8c 02 	lds	r20, 0x028C
     d78:	50 91 8d 02 	lds	r21, 0x028D
     d7c:	41 15       	cp	r20, r1
     d7e:	51 05       	cpc	r21, r1
     d80:	11 f1       	breq	.+68     	; 0xdc6
     d82:	20 91 4a 03 	lds	r18, 0x034A
     d86:	30 91 4b 03 	lds	r19, 0x034B
     d8a:	2f 5f       	subi	r18, 0xFF	; 255
     d8c:	3f 4f       	sbci	r19, 0xFF	; 255
     d8e:	2c 30       	cpi	r18, 0x0C	; 12
     d90:	31 05       	cpc	r19, r1
     d92:	11 f0       	breq	.+4      	; 0xd98
     d94:	c9 01       	movw	r24, r18
     d96:	02 c0       	rjmp	.+4      	; 0xd9c
     d98:	80 e0       	ldi	r24, 0x00	; 0
     d9a:	90 e0       	ldi	r25, 0x00	; 0
     d9c:	9c 01       	movw	r18, r24
     d9e:	81 e0       	ldi	r24, 0x01	; 1
     da0:	90 e0       	ldi	r25, 0x00	; 0
     da2:	02 2e       	mov	r0, r18
     da4:	02 c0       	rjmp	.+4      	; 0xdaa
     da6:	88 0f       	add	r24, r24
     da8:	99 1f       	adc	r25, r25
     daa:	0a 94       	dec	r0
     dac:	e2 f7       	brpl	.-8      	; 0xda6
     dae:	84 23       	and	r24, r20
     db0:	95 23       	and	r25, r21
     db2:	89 2b       	or	r24, r25
     db4:	51 f3       	breq	.-44     	; 0xd8a
     db6:	30 93 4b 03 	sts	0x034B, r19
     dba:	20 93 4a 03 	sts	0x034A, r18
     dbe:	80 91 4a 03 	lds	r24, 0x034A
     dc2:	0e 94 2a 07 	call	0xe54
     dc6:	ff be       	out	0x3f, r15	; 63
     dc8:	01 15       	cp	r16, r1
     dca:	11 05       	cpc	r17, r1
     dcc:	69 f4       	brne	.+26     	; 0xde8
     dce:	8f b7       	in	r24, 0x3f	; 63
     dd0:	f8 94       	cli
     dd2:	28 2f       	mov	r18, r24
     dd4:	33 27       	eor	r19, r19
     dd6:	d0 93 00 03 	sts	0x0300, r29
     dda:	c0 93 ff 02 	sts	0x02FF, r28
     dde:	81 e0       	ldi	r24, 0x01	; 1
     de0:	80 93 1e 03 	sts	0x031E, r24
     de4:	2f bf       	out	0x3f, r18	; 63
     de6:	01 c0       	rjmp	.+2      	; 0xdea
     de8:	80 e0       	ldi	r24, 0x00	; 0
     dea:	99 27       	eor	r25, r25
     dec:	2f b7       	in	r18, 0x3f	; 63
     dee:	f8 94       	cli
     df0:	88 23       	and	r24, r24
     df2:	c9 f4       	brne	.+50     	; 0xe26
     df4:	61 e0       	ldi	r22, 0x01	; 1
     df6:	70 e0       	ldi	r23, 0x00	; 0
     df8:	02 c0       	rjmp	.+4      	; 0xdfe
     dfa:	66 0f       	add	r22, r22
     dfc:	77 1f       	adc	r23, r23
     dfe:	0a 95       	dec	r16
     e00:	e2 f7       	brpl	.-8      	; 0xdfa
     e02:	40 91 26 03 	lds	r20, 0x0326
     e06:	50 91 27 03 	lds	r21, 0x0327
     e0a:	ca 01       	movw	r24, r20
     e0c:	86 23       	and	r24, r22
     e0e:	97 23       	and	r25, r23
     e10:	89 2b       	or	r24, r25
     e12:	49 f0       	breq	.+18     	; 0xe26
     e14:	cb 01       	movw	r24, r22
     e16:	80 95       	com	r24
     e18:	90 95       	com	r25
     e1a:	48 23       	and	r20, r24
     e1c:	59 23       	and	r21, r25
     e1e:	50 93 27 03 	sts	0x0327, r21
     e22:	40 93 26 03 	sts	0x0326, r20
     e26:	2f bf       	out	0x3f, r18	; 63
     e28:	ff 91       	pop	r31
     e2a:	ef 91       	pop	r30
     e2c:	df 91       	pop	r29
     e2e:	cf 91       	pop	r28
     e30:	bf 91       	pop	r27
     e32:	af 91       	pop	r26
     e34:	9f 91       	pop	r25
     e36:	8f 91       	pop	r24
     e38:	7f 91       	pop	r23
     e3a:	6f 91       	pop	r22
     e3c:	5f 91       	pop	r21
     e3e:	4f 91       	pop	r20
     e40:	3f 91       	pop	r19
     e42:	2f 91       	pop	r18
     e44:	1f 91       	pop	r17
     e46:	0f 91       	pop	r16
     e48:	ff 90       	pop	r15
     e4a:	0f 90       	pop	r0
     e4c:	0f be       	out	0x3f, r0	; 63
     e4e:	0f 90       	pop	r0
     e50:	1f 90       	pop	r1
     e52:	18 95       	reti

00000e54 <HPLADCM$ADC$samplePort>:
     e54:	98 2f       	mov	r25, r24
     e56:	8f b7       	in	r24, 0x3f	; 63
     e58:	f8 94       	cli
     e5a:	28 2f       	mov	r18, r24
     e5c:	33 27       	eor	r19, r19
     e5e:	e8 e2       	ldi	r30, 0x28	; 40
     e60:	f3 e0       	ldi	r31, 0x03	; 3
     e62:	e9 0f       	add	r30, r25
     e64:	f1 1d       	adc	r31, r1
     e66:	80 81       	ld	r24, Z
     e68:	8f 71       	andi	r24, 0x1F	; 31
     e6a:	87 b9       	out	0x07, r24	; 7
     e6c:	2f bf       	out	0x3f, r18	; 63
     e6e:	37 9a       	sbi	0x06, 7	; 6
     e70:	36 9a       	sbi	0x06, 6	; 6
     e72:	81 e0       	ldi	r24, 0x01	; 1
     e74:	90 e0       	ldi	r25, 0x00	; 0
     e76:	08 95       	ret

00000e78 <CC1000RadioIntM$SpiByteFifo$dataReady>:
     e78:	1f 93       	push	r17
     e7a:	cf 93       	push	r28
     e7c:	68 2f       	mov	r22, r24
     e7e:	80 91 36 03 	lds	r24, 0x0336
     e82:	81 11       	cpse	r24, r1
     e84:	60 95       	com	r22
     e86:	80 91 65 01 	lds	r24, 0x0165
     e8a:	48 2f       	mov	r20, r24
     e8c:	55 27       	eor	r21, r21
     e8e:	42 30       	cpi	r20, 0x02	; 2
     e90:	51 05       	cpc	r21, r1
     e92:	09 f4       	brne	.+2      	; 0xe96
     e94:	ad c0       	rjmp	.+346    	; 0xff0
     e96:	43 30       	cpi	r20, 0x03	; 3
     e98:	51 05       	cpc	r21, r1
     e9a:	24 f4       	brge	.+8      	; 0xea4
     e9c:	41 15       	cp	r20, r1
     e9e:	51 05       	cpc	r21, r1
     ea0:	71 f0       	breq	.+28     	; 0xebe
     ea2:	a2 c2       	rjmp	.+1348   	; 0x13e8
     ea4:	44 30       	cpi	r20, 0x04	; 4
     ea6:	51 05       	cpc	r21, r1
     ea8:	09 f4       	brne	.+2      	; 0xeac
     eaa:	7e c1       	rjmp	.+764    	; 0x11a8
     eac:	44 30       	cpi	r20, 0x04	; 4
     eae:	51 05       	cpc	r21, r1
     eb0:	0c f4       	brge	.+2      	; 0xeb4
     eb2:	04 c1       	rjmp	.+520    	; 0x10bc
     eb4:	45 30       	cpi	r20, 0x05	; 5
     eb6:	51 05       	cpc	r21, r1
     eb8:	09 f4       	brne	.+2      	; 0xebc
     eba:	d8 c1       	rjmp	.+944    	; 0x126c
     ebc:	95 c2       	rjmp	.+1322   	; 0x13e8
     ebe:	20 91 22 03 	lds	r18, 0x0322
     ec2:	8f b7       	in	r24, 0x3f	; 63
     ec4:	f8 94       	cli
     ec6:	99 27       	eor	r25, r25
     ec8:	20 93 65 02 	sts	0x0265, r18
     ecc:	8f bf       	out	0x3f, r24	; 63
     ece:	60 91 38 03 	lds	r22, 0x0338
     ed2:	70 91 39 03 	lds	r23, 0x0339
     ed6:	6f 5f       	subi	r22, 0xFF	; 255
     ed8:	7f 4f       	sbci	r23, 0xFF	; 255
     eda:	70 93 39 03 	sts	0x0339, r23
     ede:	60 93 38 03 	sts	0x0338, r22
     ee2:	80 91 04 01 	lds	r24, 0x0104
     ee6:	99 27       	eor	r25, r25
     ee8:	84 30       	cpi	r24, 0x04	; 4
     eea:	91 05       	cpc	r25, r1
     eec:	59 f1       	breq	.+86     	; 0xf44
     eee:	85 30       	cpi	r24, 0x05	; 5
     ef0:	91 05       	cpc	r25, r1
     ef2:	34 f4       	brge	.+12     	; 0xf00
     ef4:	82 30       	cpi	r24, 0x02	; 2
     ef6:	91 05       	cpc	r25, r1
     ef8:	59 f0       	breq	.+22     	; 0xf10
     efa:	03 97       	sbiw	r24, 0x03	; 3
     efc:	b1 f0       	breq	.+44     	; 0xf2a
     efe:	6a c0       	rjmp	.+212    	; 0xfd4
     f00:	86 30       	cpi	r24, 0x06	; 6
     f02:	91 05       	cpc	r25, r1
     f04:	09 f4       	brne	.+2      	; 0xf08
     f06:	5e c0       	rjmp	.+188    	; 0xfc4
     f08:	06 97       	sbiw	r24, 0x06	; 6
     f0a:	0c f4       	brge	.+2      	; 0xf0e
     f0c:	4b c0       	rjmp	.+150    	; 0xfa4
     f0e:	62 c0       	rjmp	.+196    	; 0xfd4
     f10:	80 91 45 02 	lds	r24, 0x0245
     f14:	90 91 46 02 	lds	r25, 0x0246
     f18:	68 17       	cp	r22, r24
     f1a:	79 07       	cpc	r23, r25
     f1c:	08 f4       	brcc	.+2      	; 0xf20
     f1e:	64 c2       	rjmp	.+1224   	; 0x13e8
     f20:	83 e3       	ldi	r24, 0x33	; 51
     f22:	80 93 22 03 	sts	0x0322, r24
     f26:	83 e0       	ldi	r24, 0x03	; 3
     f28:	52 c0       	rjmp	.+164    	; 0xfce
     f2a:	8c ec       	ldi	r24, 0xCC	; 204
     f2c:	80 93 22 03 	sts	0x0322, r24
     f30:	84 e0       	ldi	r24, 0x04	; 4
     f32:	80 93 04 01 	sts	0x0104, r24
     f36:	8f ef       	ldi	r24, 0xFF	; 255
     f38:	9f ef       	ldi	r25, 0xFF	; 255
     f3a:	90 93 39 03 	sts	0x0339, r25
     f3e:	80 93 38 03 	sts	0x0338, r24
     f42:	52 c2       	rjmp	.+1188   	; 0x13e8
     f44:	80 91 38 03 	lds	r24, 0x0338
     f48:	28 2f       	mov	r18, r24
     f4a:	33 27       	eor	r19, r19
     f4c:	80 91 49 02 	lds	r24, 0x0249
     f50:	90 91 4a 02 	lds	r25, 0x024A
     f54:	28 17       	cp	r18, r24
     f56:	39 07       	cpc	r19, r25
     f58:	f8 f4       	brcc	.+62     	; 0xf98
     f5a:	e0 91 24 03 	lds	r30, 0x0324
     f5e:	f0 91 25 03 	lds	r31, 0x0325
     f62:	e6 0f       	add	r30, r22
     f64:	f7 1f       	adc	r31, r23
     f66:	20 81       	ld	r18, Z
     f68:	20 93 22 03 	sts	0x0322, r18
     f6c:	80 91 63 02 	lds	r24, 0x0263
     f70:	90 91 64 02 	lds	r25, 0x0264
     f74:	e7 e7       	ldi	r30, 0x77	; 119
     f76:	f1 e0       	ldi	r31, 0x01	; 1
     f78:	29 27       	eor	r18, r25
     f7a:	22 0f       	add	r18, r18
     f7c:	f1 1d       	adc	r31, r1
     f7e:	e2 0f       	add	r30, r18
     f80:	f1 1d       	adc	r31, r1
     f82:	c8 95       	lpm
     f84:	98 2f       	mov	r25, r24
     f86:	80 2d       	mov	r24, r0
     f88:	31 96       	adiw	r30, 0x01	; 1
     f8a:	c8 95       	lpm
     f8c:	90 25       	eor	r25, r0
     f8e:	90 93 64 02 	sts	0x0264, r25
     f92:	80 93 63 02 	sts	0x0263, r24
     f96:	28 c2       	rjmp	.+1104   	; 0x13e8
     f98:	80 91 63 02 	lds	r24, 0x0263
     f9c:	80 93 22 03 	sts	0x0322, r24
     fa0:	85 e0       	ldi	r24, 0x05	; 5
     fa2:	15 c0       	rjmp	.+42     	; 0xfce
     fa4:	80 91 63 02 	lds	r24, 0x0263
     fa8:	90 91 64 02 	lds	r25, 0x0264
     fac:	89 2f       	mov	r24, r25
     fae:	99 27       	eor	r25, r25
     fb0:	80 93 22 03 	sts	0x0322, r24
     fb4:	86 e0       	ldi	r24, 0x06	; 6
     fb6:	80 93 04 01 	sts	0x0104, r24
     fba:	50 93 39 03 	sts	0x0339, r21
     fbe:	40 93 38 03 	sts	0x0338, r20
     fc2:	12 c2       	rjmp	.+1060   	; 0x13e8
     fc4:	64 30       	cpi	r22, 0x04	; 4
     fc6:	71 05       	cpc	r23, r1
     fc8:	08 f4       	brcc	.+2      	; 0xfcc
     fca:	0e c2       	rjmp	.+1052   	; 0x13e8
     fcc:	87 e0       	ldi	r24, 0x07	; 7
     fce:	80 93 04 01 	sts	0x0104, r24
     fd2:	0a c2       	rjmp	.+1044   	; 0x13e8
     fd4:	bb 98       	cbi	0x17, 3	; 23
     fd6:	ba 98       	cbi	0x17, 2	; 23
     fd8:	0e 94 fd 05 	call	0xbfa
     fdc:	10 92 63 01 	sts	0x0163, r1
     fe0:	83 ee       	ldi	r24, 0xE3	; 227
     fe2:	9e e0       	ldi	r25, 0x0E	; 14
     fe4:	0e 94 7d 02 	call	0x4fa
     fe8:	88 23       	and	r24, r24
     fea:	09 f4       	brne	.+2      	; 0xfee
     fec:	fd c1       	rjmp	.+1018   	; 0x13e8
     fee:	99 c1       	rjmp	.+818    	; 0x1322
     ff0:	6a 3a       	cpi	r22, 0xAA	; 170
     ff2:	11 f0       	breq	.+4      	; 0xff8
     ff4:	65 35       	cpi	r22, 0x55	; 85
     ff6:	71 f5       	brne	.+92     	; 0x1054
     ff8:	20 91 44 03 	lds	r18, 0x0344
     ffc:	30 91 45 03 	lds	r19, 0x0345
    1000:	2f 5f       	subi	r18, 0xFF	; 255
    1002:	3f 4f       	sbci	r19, 0xFF	; 255
    1004:	30 93 45 03 	sts	0x0345, r19
    1008:	20 93 44 03 	sts	0x0344, r18
    100c:	80 91 03 03 	lds	r24, 0x0303
    1010:	e8 2f       	mov	r30, r24
    1012:	ff 27       	eor	r31, r31
    1014:	e6 56       	subi	r30, 0x66	; 102
    1016:	ff 4f       	sbci	r31, 0xFF	; 255
    1018:	84 91       	lpm	r24, Z
    101a:	99 27       	eor	r25, r25
    101c:	82 17       	cp	r24, r18
    101e:	93 07       	cpc	r25, r19
    1020:	08 f0       	brcs	.+2      	; 0x1024
    1022:	e2 c1       	rjmp	.+964    	; 0x13e8
    1024:	10 92 3f 03 	sts	0x033F, r1
    1028:	10 92 45 03 	sts	0x0345, r1
    102c:	10 92 44 03 	sts	0x0344, r1
    1030:	10 92 8b 02 	sts	0x028B, r1
    1034:	10 92 8a 02 	sts	0x028A, r1
    1038:	10 92 4b 02 	sts	0x024B, r1
    103c:	10 92 64 02 	sts	0x0264, r1
    1040:	10 92 63 02 	sts	0x0263, r1
    1044:	82 e2       	ldi	r24, 0x22	; 34
    1046:	90 e0       	ldi	r25, 0x00	; 0
    1048:	90 93 c7 02 	sts	0x02C7, r25
    104c:	80 93 c6 02 	sts	0x02C6, r24
    1050:	84 e0       	ldi	r24, 0x04	; 4
    1052:	68 c1       	rjmp	.+720    	; 0x1324
    1054:	80 91 63 01 	lds	r24, 0x0163
    1058:	88 23       	and	r24, r24
    105a:	09 f4       	brne	.+2      	; 0x105e
    105c:	c5 c1       	rjmp	.+906    	; 0x13e8
    105e:	80 91 fd 02 	lds	r24, 0x02FD
    1062:	90 91 fe 02 	lds	r25, 0x02FE
    1066:	01 97       	sbiw	r24, 0x01	; 1
    1068:	90 93 fe 02 	sts	0x02FE, r25
    106c:	80 93 fd 02 	sts	0x02FD, r24
    1070:	18 16       	cp	r1, r24
    1072:	19 06       	cpc	r1, r25
    1074:	0c f4       	brge	.+2      	; 0x1078
    1076:	b8 c1       	rjmp	.+880    	; 0x13e8
    1078:	10 92 1e 03 	sts	0x031E, r1
    107c:	8f b7       	in	r24, 0x3f	; 63
    107e:	f8 94       	cli
    1080:	c8 2f       	mov	r28, r24
    1082:	20 91 8c 02 	lds	r18, 0x028C
    1086:	30 91 8d 02 	lds	r19, 0x028D
    108a:	20 fd       	sbrc	r18, 0
    108c:	10 c0       	rjmp	.+32     	; 0x10ae
    108e:	c9 01       	movw	r24, r18
    1090:	81 60       	ori	r24, 0x01	; 1
    1092:	90 93 8d 02 	sts	0x028D, r25
    1096:	80 93 8c 02 	sts	0x028C, r24
    109a:	21 15       	cp	r18, r1
    109c:	31 05       	cpc	r19, r1
    109e:	39 f4       	brne	.+14     	; 0x10ae
    10a0:	30 93 4b 03 	sts	0x034B, r19
    10a4:	20 93 4a 03 	sts	0x034A, r18
    10a8:	80 e0       	ldi	r24, 0x00	; 0
    10aa:	0e 94 2a 07 	call	0xe54
    10ae:	cf bf       	out	0x3f, r28	; 63
    10b0:	10 92 45 03 	sts	0x0345, r1
    10b4:	10 92 44 03 	sts	0x0344, r1
    10b8:	83 e0       	ldi	r24, 0x03	; 3
    10ba:	34 c1       	rjmp	.+616    	; 0x1324
    10bc:	6a 3a       	cpi	r22, 0xAA	; 170
    10be:	09 f4       	brne	.+2      	; 0x10c2
    10c0:	5e c0       	rjmp	.+188    	; 0x117e
    10c2:	65 35       	cpi	r22, 0x55	; 85
    10c4:	09 f4       	brne	.+2      	; 0x10c8
    10c6:	5b c0       	rjmp	.+182    	; 0x117e
    10c8:	80 91 1e 03 	lds	r24, 0x031E
    10cc:	88 23       	and	r24, r24
    10ce:	09 f4       	brne	.+2      	; 0x10d2
    10d0:	8b c1       	rjmp	.+790    	; 0x13e8
    10d2:	80 91 03 03 	lds	r24, 0x0303
    10d6:	e8 2f       	mov	r30, r24
    10d8:	ff 27       	eor	r31, r31
    10da:	ea 54       	subi	r30, 0x4A	; 74
    10dc:	ff 4f       	sbci	r31, 0xFF	; 255
    10de:	84 91       	lpm	r24, Z
    10e0:	28 2f       	mov	r18, r24
    10e2:	33 27       	eor	r19, r19
    10e4:	80 91 ff 02 	lds	r24, 0x02FF
    10e8:	90 91 00 03 	lds	r25, 0x0300
    10ec:	28 17       	cp	r18, r24
    10ee:	39 07       	cpc	r19, r25
    10f0:	08 f0       	brcs	.+2      	; 0x10f4
    10f2:	45 c0       	rjmp	.+138    	; 0x117e
    10f4:	61 ee       	ldi	r22, 0xE1	; 225
    10f6:	80 e0       	ldi	r24, 0x00	; 0
    10f8:	0e 94 78 05 	call	0xaf0
    10fc:	80 91 83 02 	lds	r24, 0x0283
    1100:	68 2f       	mov	r22, r24
    1102:	89 e0       	ldi	r24, 0x09	; 9
    1104:	0e 94 78 05 	call	0xaf0
    1108:	8a ef       	ldi	r24, 0xFA	; 250
    110a:	90 e0       	ldi	r25, 0x00	; 0
    110c:	00 00       	nop
    110e:	00 00       	nop
    1110:	00 00       	nop
    1112:	00 00       	nop
    1114:	00 00       	nop
    1116:	00 00       	nop
    1118:	00 00       	nop
    111a:	00 00       	nop
    111c:	01 97       	sbiw	r24, 0x01	; 1
    111e:	18 16       	cp	r1, r24
    1120:	19 06       	cpc	r1, r25
    1122:	a4 f3       	brlt	.-24     	; 0x110c
    1124:	80 91 71 02 	lds	r24, 0x0271
    1128:	68 2f       	mov	r22, r24
    112a:	8b e0       	ldi	r24, 0x0B	; 11
    112c:	0e 94 78 05 	call	0xaf0
    1130:	84 e1       	ldi	r24, 0x14	; 20
    1132:	90 e0       	ldi	r25, 0x00	; 0
    1134:	00 00       	nop
    1136:	00 00       	nop
    1138:	00 00       	nop
    113a:	00 00       	nop
    113c:	00 00       	nop
    113e:	00 00       	nop
    1140:	00 00       	nop
    1142:	00 00       	nop
    1144:	01 97       	sbiw	r24, 0x01	; 1
    1146:	18 16       	cp	r1, r24
    1148:	19 06       	cpc	r1, r25
    114a:	a4 f3       	brlt	.-24     	; 0x1134
    114c:	bb 9a       	sbi	0x17, 3	; 23
    114e:	ba 9a       	sbi	0x17, 2	; 23
    1150:	10 92 39 03 	sts	0x0339, r1
    1154:	10 92 38 03 	sts	0x0338, r1
    1158:	10 92 64 02 	sts	0x0264, r1
    115c:	10 92 63 02 	sts	0x0263, r1
    1160:	10 92 65 01 	sts	0x0165, r1
    1164:	82 e0       	ldi	r24, 0x02	; 2
    1166:	80 93 04 01 	sts	0x0104, r24
    116a:	2a ea       	ldi	r18, 0xAA	; 170
    116c:	20 93 22 03 	sts	0x0322, r18
    1170:	8f b7       	in	r24, 0x3f	; 63
    1172:	f8 94       	cli
    1174:	99 27       	eor	r25, r25
    1176:	20 93 65 02 	sts	0x0265, r18
    117a:	8f bf       	out	0x3f, r24	; 63
    117c:	35 c1       	rjmp	.+618    	; 0x13e8
    117e:	0e 94 a3 0a 	call	0x1546
    1182:	8f 70       	andi	r24, 0x0F	; 15
    1184:	90 70       	andi	r25, 0x00	; 0
    1186:	24 e2       	ldi	r18, 0x24	; 36
    1188:	30 e0       	ldi	r19, 0x00	; 0
    118a:	82 9f       	mul	r24, r18
    118c:	a0 01       	movw	r20, r0
    118e:	83 9f       	mul	r24, r19
    1190:	50 0d       	add	r21, r0
    1192:	92 9f       	mul	r25, r18
    1194:	50 0d       	add	r21, r0
    1196:	11 24       	eor	r1, r1
    1198:	ca 01       	movw	r24, r20
    119a:	82 0f       	add	r24, r18
    119c:	93 1f       	adc	r25, r19
    119e:	90 93 fe 02 	sts	0x02FE, r25
    11a2:	80 93 fd 02 	sts	0x02FD, r24
    11a6:	bd c0       	rjmp	.+378    	; 0x1322
    11a8:	6a 3a       	cpi	r22, 0xAA	; 170
    11aa:	11 f0       	breq	.+4      	; 0x11b0
    11ac:	65 35       	cpi	r22, 0x55	; 85
    11ae:	19 f4       	brne	.+6      	; 0x11b6
    11b0:	60 93 60 02 	sts	0x0260, r22
    11b4:	19 c1       	rjmp	.+562    	; 0x13e8
    11b6:	80 91 3f 03 	lds	r24, 0x033F
    11ba:	99 27       	eor	r25, r25
    11bc:	00 97       	sbiw	r24, 0x00	; 0
    11be:	21 f0       	breq	.+8      	; 0x11c8
    11c0:	03 97       	sbiw	r24, 0x03	; 3
    11c2:	0c f0       	brlt	.+2      	; 0x11c6
    11c4:	4a c0       	rjmp	.+148    	; 0x125a
    11c6:	06 c0       	rjmp	.+12     	; 0x11d4
    11c8:	60 93 5f 02 	sts	0x025F, r22
    11cc:	49 c0       	rjmp	.+146    	; 0x1260
    11ce:	0e 94 c6 0a 	call	0x158c
    11d2:	43 c0       	rjmp	.+134    	; 0x125a
    11d4:	20 91 5f 02 	lds	r18, 0x025F
    11d8:	30 91 60 02 	lds	r19, 0x0260
    11dc:	92 2f       	mov	r25, r18
    11de:	88 27       	eor	r24, r24
    11e0:	90 93 60 02 	sts	0x0260, r25
    11e4:	80 93 5f 02 	sts	0x025F, r24
    11e8:	60 93 5f 02 	sts	0x025F, r22
    11ec:	10 e0       	ldi	r17, 0x00	; 0
    11ee:	22 0f       	add	r18, r18
    11f0:	33 1f       	adc	r19, r19
    11f2:	67 fd       	sbrc	r22, 7
    11f4:	21 60       	ori	r18, 0x01	; 1
    11f6:	66 0f       	add	r22, r22
    11f8:	53 e3       	ldi	r21, 0x33	; 51
    11fa:	2c 3c       	cpi	r18, 0xCC	; 204
    11fc:	35 07       	cpc	r19, r21
    11fe:	49 f5       	brne	.+82     	; 0x1252
    1200:	e0 91 cd 02 	lds	r30, 0x02CD
    1204:	f0 91 ce 02 	lds	r31, 0x02CE
    1208:	44 81       	ldd	r20, Z+4	; 0x04
    120a:	44 23       	and	r20, r20
    120c:	01 f7       	brne	.-64     	; 0x11ce
    120e:	85 e0       	ldi	r24, 0x05	; 5
    1210:	80 93 65 01 	sts	0x0165, r24
    1214:	8f b7       	in	r24, 0x3f	; 63
    1216:	f8 94       	cli
    1218:	c8 2f       	mov	r28, r24
    121a:	20 91 8c 02 	lds	r18, 0x028C
    121e:	30 91 8d 02 	lds	r19, 0x028D
    1222:	20 fd       	sbrc	r18, 0
    1224:	10 c0       	rjmp	.+32     	; 0x1246
    1226:	c9 01       	movw	r24, r18
    1228:	81 60       	ori	r24, 0x01	; 1
    122a:	90 93 8d 02 	sts	0x028D, r25
    122e:	80 93 8c 02 	sts	0x028C, r24
    1232:	21 15       	cp	r18, r1
    1234:	31 05       	cpc	r19, r1
    1236:	39 f4       	brne	.+14     	; 0x1246
    1238:	30 93 4b 03 	sts	0x034B, r19
    123c:	20 93 4a 03 	sts	0x034A, r18
    1240:	84 2f       	mov	r24, r20
    1242:	0e 94 2a 07 	call	0xe54
    1246:	cf bf       	out	0x3f, r28	; 63
    1248:	87 e0       	ldi	r24, 0x07	; 7
    124a:	81 1b       	sub	r24, r17
    124c:	80 93 4b 02 	sts	0x024B, r24
    1250:	07 c0       	rjmp	.+14     	; 0x1260
    1252:	1f 5f       	subi	r17, 0xFF	; 255
    1254:	18 30       	cpi	r17, 0x08	; 8
    1256:	58 f2       	brcs	.-106    	; 0x11ee
    1258:	03 c0       	rjmp	.+6      	; 0x1260
    125a:	82 e0       	ldi	r24, 0x02	; 2
    125c:	80 93 65 01 	sts	0x0165, r24
    1260:	80 91 3f 03 	lds	r24, 0x033F
    1264:	8f 5f       	subi	r24, 0xFF	; 255
    1266:	80 93 3f 03 	sts	0x033F, r24
    126a:	be c0       	rjmp	.+380    	; 0x13e8
    126c:	80 91 5f 02 	lds	r24, 0x025F
    1270:	90 91 60 02 	lds	r25, 0x0260
    1274:	98 2f       	mov	r25, r24
    1276:	88 27       	eor	r24, r24
    1278:	90 93 60 02 	sts	0x0260, r25
    127c:	80 93 5f 02 	sts	0x025F, r24
    1280:	60 93 5f 02 	sts	0x025F, r22
    1284:	20 91 5f 02 	lds	r18, 0x025F
    1288:	30 91 60 02 	lds	r19, 0x0260
    128c:	00 90 4b 02 	lds	r0, 0x024B
    1290:	02 c0       	rjmp	.+4      	; 0x1296
    1292:	36 95       	lsr	r19
    1294:	27 95       	ror	r18
    1296:	0a 94       	dec	r0
    1298:	e2 f7       	brpl	.-8      	; 0x1292
    129a:	62 2f       	mov	r22, r18
    129c:	e0 91 cd 02 	lds	r30, 0x02CD
    12a0:	f0 91 ce 02 	lds	r31, 0x02CE
    12a4:	80 91 8a 02 	lds	r24, 0x028A
    12a8:	90 91 8b 02 	lds	r25, 0x028B
    12ac:	e8 0f       	add	r30, r24
    12ae:	f9 1f       	adc	r31, r25
    12b0:	20 83       	st	Z, r18
    12b2:	40 91 8a 02 	lds	r20, 0x028A
    12b6:	50 91 8b 02 	lds	r21, 0x028B
    12ba:	4f 5f       	subi	r20, 0xFF	; 255
    12bc:	5f 4f       	sbci	r21, 0xFF	; 255
    12be:	50 93 8b 02 	sts	0x028B, r21
    12c2:	40 93 8a 02 	sts	0x028A, r20
    12c6:	80 91 c6 02 	lds	r24, 0x02C6
    12ca:	90 91 c7 02 	lds	r25, 0x02C7
    12ce:	48 17       	cp	r20, r24
    12d0:	59 07       	cpc	r21, r25
    12d2:	98 f5       	brcc	.+102    	; 0x133a
    12d4:	80 91 63 02 	lds	r24, 0x0263
    12d8:	90 91 64 02 	lds	r25, 0x0264
    12dc:	e7 e7       	ldi	r30, 0x77	; 119
    12de:	f1 e0       	ldi	r31, 0x01	; 1
    12e0:	69 27       	eor	r22, r25
    12e2:	66 0f       	add	r22, r22
    12e4:	f1 1d       	adc	r31, r1
    12e6:	e6 0f       	add	r30, r22
    12e8:	f1 1d       	adc	r31, r1
    12ea:	c8 95       	lpm
    12ec:	98 2f       	mov	r25, r24
    12ee:	80 2d       	mov	r24, r0
    12f0:	31 96       	adiw	r30, 0x01	; 1
    12f2:	c8 95       	lpm
    12f4:	90 25       	eor	r25, r0
    12f6:	90 93 64 02 	sts	0x0264, r25
    12fa:	80 93 63 02 	sts	0x0263, r24
    12fe:	45 30       	cpi	r20, 0x05	; 5
    1300:	51 05       	cpc	r21, r1
    1302:	09 f0       	breq	.+2      	; 0x1306
    1304:	71 c0       	rjmp	.+226    	; 0x13e8
    1306:	e0 91 cd 02 	lds	r30, 0x02CD
    130a:	f0 91 ce 02 	lds	r31, 0x02CE
    130e:	84 81       	ldd	r24, Z+4	; 0x04
    1310:	99 27       	eor	r25, r25
    1312:	90 93 c7 02 	sts	0x02C7, r25
    1316:	80 93 c6 02 	sts	0x02C6, r24
    131a:	8e 31       	cpi	r24, 0x1E	; 30
    131c:	91 05       	cpc	r25, r1
    131e:	28 f0       	brcs	.+10     	; 0x132a
    1320:	14 82       	std	Z+4, r1	; 0x04
    1322:	82 e0       	ldi	r24, 0x02	; 2
    1324:	80 93 65 01 	sts	0x0165, r24
    1328:	5f c0       	rjmp	.+190    	; 0x13e8
    132a:	00 97       	sbiw	r24, 0x00	; 0
    132c:	f1 f0       	breq	.+60     	; 0x136a
    132e:	05 96       	adiw	r24, 0x05	; 5
    1330:	90 93 c7 02 	sts	0x02C7, r25
    1334:	80 93 c6 02 	sts	0x02C6, r24
    1338:	57 c0       	rjmp	.+174    	; 0x13e8
    133a:	48 17       	cp	r20, r24
    133c:	59 07       	cpc	r21, r25
    133e:	e1 f4       	brne	.+56     	; 0x1378
    1340:	80 91 63 02 	lds	r24, 0x0263
    1344:	90 91 64 02 	lds	r25, 0x0264
    1348:	e7 e7       	ldi	r30, 0x77	; 119
    134a:	f1 e0       	ldi	r31, 0x01	; 1
    134c:	69 27       	eor	r22, r25
    134e:	66 0f       	add	r22, r22
    1350:	f1 1d       	adc	r31, r1
    1352:	e6 0f       	add	r30, r22
    1354:	f1 1d       	adc	r31, r1
    1356:	c8 95       	lpm
    1358:	98 2f       	mov	r25, r24
    135a:	80 2d       	mov	r24, r0
    135c:	31 96       	adiw	r30, 0x01	; 1
    135e:	c8 95       	lpm
    1360:	90 25       	eor	r25, r0
    1362:	90 93 64 02 	sts	0x0264, r25
    1366:	80 93 63 02 	sts	0x0263, r24
    136a:	82 e2       	ldi	r24, 0x22	; 34
    136c:	90 e0       	ldi	r25, 0x00	; 0
    136e:	90 93 8b 02 	sts	0x028B, r25
    1372:	80 93 8a 02 	sts	0x028A, r24
    1376:	38 c0       	rjmp	.+112    	; 0x13e8
    1378:	44 32       	cpi	r20, 0x24	; 36
    137a:	51 05       	cpc	r21, r1
    137c:	a8 f1       	brcs	.+106    	; 0x13e8
    137e:	e0 91 cd 02 	lds	r30, 0x02CD
    1382:	f0 91 ce 02 	lds	r31, 0x02CE
    1386:	22 a1       	ldd	r18, Z+34	; 0x22
    1388:	33 a1       	ldd	r19, Z+35	; 0x23
    138a:	80 91 63 02 	lds	r24, 0x0263
    138e:	90 91 64 02 	lds	r25, 0x0264
    1392:	28 17       	cp	r18, r24
    1394:	39 07       	cpc	r19, r25
    1396:	29 f4       	brne	.+10     	; 0x13a2
    1398:	81 e0       	ldi	r24, 0x01	; 1
    139a:	90 e0       	ldi	r25, 0x00	; 0
    139c:	82 a3       	std	Z+34, r24	; 0x22
    139e:	93 a3       	std	Z+35, r25	; 0x23
    13a0:	02 c0       	rjmp	.+4      	; 0x13a6
    13a2:	12 a2       	std	Z+34, r1	; 0x22
    13a4:	13 a2       	std	Z+35, r1	; 0x23
    13a6:	0e 94 df 0a 	call	0x15be
    13aa:	c2 e0       	ldi	r28, 0x02	; 2
    13ac:	c0 93 65 01 	sts	0x0165, r28
    13b0:	e0 91 cd 02 	lds	r30, 0x02CD
    13b4:	f0 91 ce 02 	lds	r31, 0x02CE
    13b8:	80 91 ff 02 	lds	r24, 0x02FF
    13bc:	90 91 00 03 	lds	r25, 0x0300
    13c0:	84 a3       	std	Z+36, r24	; 0x24
    13c2:	95 a3       	std	Z+37, r25	; 0x25
    13c4:	88 e6       	ldi	r24, 0x68	; 104
    13c6:	9e e0       	ldi	r25, 0x0E	; 14
    13c8:	0e 94 7d 02 	call	0x4fa
    13cc:	88 23       	and	r24, r24
    13ce:	61 f4       	brne	.+24     	; 0x13e8
    13d0:	e0 91 cd 02 	lds	r30, 0x02CD
    13d4:	f0 91 ce 02 	lds	r31, 0x02CE
    13d8:	84 83       	std	Z+4, r24	; 0x04
    13da:	c0 93 65 01 	sts	0x0165, r28
    13de:	80 ec       	ldi	r24, 0xC0	; 192
    13e0:	8d b9       	out	0x0d, r24	; 13
    13e2:	b8 98       	cbi	0x17, 0	; 23
    13e4:	0e 94 1c 06 	call	0xc38
    13e8:	81 e0       	ldi	r24, 0x01	; 1
    13ea:	90 e0       	ldi	r25, 0x00	; 0
    13ec:	cf 91       	pop	r28
    13ee:	1f 91       	pop	r17
    13f0:	08 95       	ret

000013f2 <FramerM$StartTx>:
    13f2:	cf 93       	push	r28
    13f4:	c1 e0       	ldi	r28, 0x01	; 1
    13f6:	20 e0       	ldi	r18, 0x00	; 0
    13f8:	8f b7       	in	r24, 0x3f	; 63
    13fa:	f8 94       	cli
    13fc:	38 2f       	mov	r19, r24
    13fe:	80 91 35 03 	lds	r24, 0x0335
    1402:	88 23       	and	r24, r24
    1404:	91 f5       	brne	.+100    	; 0x146a
    1406:	80 91 49 03 	lds	r24, 0x0349
    140a:	99 27       	eor	r25, r25
    140c:	81 ff       	sbrs	r24, 1
    140e:	08 c0       	rjmp	.+16     	; 0x1420
    1410:	82 e0       	ldi	r24, 0x02	; 2
    1412:	93 e0       	ldi	r25, 0x03	; 3
    1414:	90 93 86 02 	sts	0x0286, r25
    1418:	80 93 85 02 	sts	0x0285, r24
    141c:	80 e4       	ldi	r24, 0x40	; 64
    141e:	1a c0       	rjmp	.+52     	; 0x1454
    1420:	82 ff       	sbrs	r24, 2
    1422:	0f c0       	rjmp	.+30     	; 0x1442
    1424:	e0 91 5d 01 	lds	r30, 0x015D
    1428:	f0 91 5e 01 	lds	r31, 0x015E
    142c:	f0 93 86 02 	sts	0x0286, r31
    1430:	e0 93 85 02 	sts	0x0285, r30
    1434:	82 e4       	ldi	r24, 0x42	; 66
    1436:	80 93 60 01 	sts	0x0160, r24
    143a:	84 81       	ldd	r24, Z+4	; 0x04
    143c:	99 27       	eor	r25, r25
    143e:	05 96       	adiw	r24, 0x05	; 5
    1440:	0d c0       	rjmp	.+26     	; 0x145c
    1442:	83 ff       	sbrs	r24, 3
    1444:	12 c0       	rjmp	.+36     	; 0x146a
    1446:	84 e6       	ldi	r24, 0x64	; 100
    1448:	91 e0       	ldi	r25, 0x01	; 1
    144a:	90 93 86 02 	sts	0x0286, r25
    144e:	80 93 85 02 	sts	0x0285, r24
    1452:	8f ef       	ldi	r24, 0xFF	; 255
    1454:	80 93 60 01 	sts	0x0160, r24
    1458:	81 e0       	ldi	r24, 0x01	; 1
    145a:	90 e0       	ldi	r25, 0x00	; 0
    145c:	90 93 67 01 	sts	0x0167, r25
    1460:	80 93 66 01 	sts	0x0166, r24
    1464:	2c 2f       	mov	r18, r28
    1466:	c0 93 35 03 	sts	0x0335, r28
    146a:	3f bf       	out	0x3f, r19	; 63
    146c:	22 23       	and	r18, r18
    146e:	f1 f0       	breq	.+60     	; 0x14ac
    1470:	8f b7       	in	r24, 0x3f	; 63
    1472:	f8 94       	cli
    1474:	99 27       	eor	r25, r25
    1476:	10 92 06 01 	sts	0x0106, r1
    147a:	10 92 05 01 	sts	0x0105, r1
    147e:	10 92 c9 02 	sts	0x02C9, r1
    1482:	10 92 c8 02 	sts	0x02C8, r1
    1486:	8f bf       	out	0x3f, r24	; 63
    1488:	8e e7       	ldi	r24, 0x7E	; 126
    148a:	0e 94 5a 0a 	call	0x14b4
    148e:	c8 2f       	mov	r28, r24
    1490:	81 30       	cpi	r24, 0x01	; 1
    1492:	61 f0       	breq	.+24     	; 0x14ac
    1494:	8f b7       	in	r24, 0x3f	; 63
    1496:	f8 94       	cli
    1498:	28 2f       	mov	r18, r24
    149a:	33 27       	eor	r19, r19
    149c:	88 e0       	ldi	r24, 0x08	; 8
    149e:	80 93 35 03 	sts	0x0335, r24
    14a2:	2f bf       	out	0x3f, r18	; 63
    14a4:	8f e6       	ldi	r24, 0x6F	; 111
    14a6:	9a e0       	ldi	r25, 0x0A	; 10
    14a8:	0e 94 7d 02 	call	0x4fa
    14ac:	8c 2f       	mov	r24, r28
    14ae:	99 27       	eor	r25, r25
    14b0:	cf 91       	pop	r28
    14b2:	08 95       	ret

000014b4 <UARTM$ByteComm$txByte>:
    14b4:	48 2f       	mov	r20, r24
    14b6:	8f b7       	in	r24, 0x3f	; 63
    14b8:	f8 94       	cli
    14ba:	28 2f       	mov	r18, r24
    14bc:	33 27       	eor	r19, r19
    14be:	90 91 fc 02 	lds	r25, 0x02FC
    14c2:	81 e0       	ldi	r24, 0x01	; 1
    14c4:	80 93 fc 02 	sts	0x02FC, r24
    14c8:	2f bf       	out	0x3f, r18	; 63
    14ca:	99 23       	and	r25, r25
    14cc:	19 f0       	breq	.+6      	; 0x14d4
    14ce:	80 e0       	ldi	r24, 0x00	; 0
    14d0:	90 e0       	ldi	r25, 0x00	; 0
    14d2:	08 95       	ret
    14d4:	4c b9       	out	0x0c, r20	; 12
    14d6:	5e 9a       	sbi	0x0b, 6	; 11
    14d8:	81 e0       	ldi	r24, 0x01	; 1
    14da:	90 e0       	ldi	r25, 0x00	; 0
    14dc:	08 95       	ret

000014de <FramerM$PacketSent>:
    14de:	8f b7       	in	r24, 0x3f	; 63
    14e0:	f8 94       	cli
    14e2:	28 2f       	mov	r18, r24
    14e4:	33 27       	eor	r19, r19
    14e6:	80 91 35 03 	lds	r24, 0x0335
    14ea:	88 30       	cpi	r24, 0x08	; 8
    14ec:	11 f4       	brne	.+4      	; 0x14f2
    14ee:	10 92 35 03 	sts	0x0335, r1
    14f2:	2f bf       	out	0x3f, r18	; 63
    14f4:	80 91 60 01 	lds	r24, 0x0160
    14f8:	90 91 49 03 	lds	r25, 0x0349
    14fc:	80 34       	cpi	r24, 0x40	; 64
    14fe:	51 f4       	brne	.+20     	; 0x1514
    1500:	8f b7       	in	r24, 0x3f	; 63
    1502:	f8 94       	cli
    1504:	28 2f       	mov	r18, r24
    1506:	33 27       	eor	r19, r19
    1508:	82 e0       	ldi	r24, 0x02	; 2
    150a:	98 27       	eor	r25, r24
    150c:	90 93 49 03 	sts	0x0349, r25
    1510:	2f bf       	out	0x3f, r18	; 63
    1512:	16 c0       	rjmp	.+44     	; 0x1540
    1514:	8f b7       	in	r24, 0x3f	; 63
    1516:	f8 94       	cli
    1518:	28 2f       	mov	r18, r24
    151a:	33 27       	eor	r19, r19
    151c:	84 e0       	ldi	r24, 0x04	; 4
    151e:	98 27       	eor	r25, r24
    1520:	90 93 49 03 	sts	0x0349, r25
    1524:	2f bf       	out	0x3f, r18	; 63
    1526:	e0 91 5d 01 	lds	r30, 0x015D
    152a:	f0 91 5e 01 	lds	r31, 0x015E
    152e:	14 82       	std	Z+4, r1	; 0x04
    1530:	8f b7       	in	r24, 0x3f	; 63
    1532:	f8 94       	cli
    1534:	99 27       	eor	r25, r25
    1536:	10 92 5e 01 	sts	0x015E, r1
    153a:	10 92 5d 01 	sts	0x015D, r1
    153e:	8f bf       	out	0x3f, r24	; 63
    1540:	0e 94 f9 09 	call	0x13f2
    1544:	08 95       	ret

00001546 <RandomLFSR$Random$rand>:
    1546:	8f b7       	in	r24, 0x3f	; 63
    1548:	f8 94       	cli
    154a:	48 2f       	mov	r20, r24
    154c:	55 27       	eor	r21, r21
    154e:	20 91 1b 03 	lds	r18, 0x031B
    1552:	30 91 1c 03 	lds	r19, 0x031C
    1556:	83 2f       	mov	r24, r19
    1558:	88 1f       	adc	r24, r24
    155a:	88 27       	eor	r24, r24
    155c:	88 1f       	adc	r24, r24
    155e:	22 0f       	add	r18, r18
    1560:	33 1f       	adc	r19, r19
    1562:	88 23       	and	r24, r24
    1564:	21 f0       	breq	.+8      	; 0x156e
    1566:	8b e0       	ldi	r24, 0x0B	; 11
    1568:	90 e1       	ldi	r25, 0x10	; 16
    156a:	28 27       	eor	r18, r24
    156c:	39 27       	eor	r19, r25
    156e:	2f 5f       	subi	r18, 0xFF	; 255
    1570:	3f 4f       	sbci	r19, 0xFF	; 255
    1572:	30 93 1c 03 	sts	0x031C, r19
    1576:	20 93 1b 03 	sts	0x031B, r18
    157a:	80 91 69 01 	lds	r24, 0x0169
    157e:	90 91 6a 01 	lds	r25, 0x016A
    1582:	28 27       	eor	r18, r24
    1584:	39 27       	eor	r19, r25
    1586:	4f bf       	out	0x3f, r20	; 63
    1588:	c9 01       	movw	r24, r18
    158a:	08 95       	ret

0000158c <LedsC$Leds$redToggle>:
    158c:	8f b7       	in	r24, 0x3f	; 63
    158e:	f8 94       	cli
    1590:	38 2f       	mov	r19, r24
    1592:	20 91 23 03 	lds	r18, 0x0323
    1596:	20 ff       	sbrs	r18, 0
    1598:	06 c0       	rjmp	.+12     	; 0x15a6
    159a:	8f b7       	in	r24, 0x3f	; 63
    159c:	f8 94       	cli
    159e:	99 27       	eor	r25, r25
    15a0:	da 9a       	sbi	0x1b, 2	; 27
    15a2:	2e 7f       	andi	r18, 0xFE	; 254
    15a4:	05 c0       	rjmp	.+10     	; 0x15b0
    15a6:	8f b7       	in	r24, 0x3f	; 63
    15a8:	f8 94       	cli
    15aa:	99 27       	eor	r25, r25
    15ac:	da 98       	cbi	0x1b, 2	; 27
    15ae:	21 60       	ori	r18, 0x01	; 1
    15b0:	20 93 23 03 	sts	0x0323, r18
    15b4:	8f bf       	out	0x3f, r24	; 63
    15b6:	3f bf       	out	0x3f, r19	; 63
    15b8:	81 e0       	ldi	r24, 0x01	; 1
    15ba:	90 e0       	ldi	r25, 0x00	; 0
    15bc:	08 95       	ret

000015be <HPLSpiM$SpiByteFifo$disableIntr>:
    15be:	6f 98       	cbi	0x0d, 7	; 13
    15c0:	b8 9a       	sbi	0x17, 0	; 23
    15c2:	c0 98       	cbi	0x18, 0	; 24
    15c4:	0e 94 1c 06 	call	0xc38
    15c8:	81 e0       	ldi	r24, 0x01	; 1
    15ca:	90 e0       	ldi	r25, 0x00	; 0
    15cc:	08 95       	ret

000015ce <__vector_15>:
    15ce:	78 94       	sei
    15d0:	1f 92       	push	r1
    15d2:	0f 92       	push	r0
    15d4:	0f b6       	in	r0, 0x3f	; 63
    15d6:	0f 92       	push	r0
    15d8:	11 24       	eor	r1, r1
    15da:	2f 93       	push	r18
    15dc:	3f 93       	push	r19
    15de:	4f 93       	push	r20
    15e0:	5f 93       	push	r21
    15e2:	6f 93       	push	r22
    15e4:	7f 93       	push	r23
    15e6:	8f 93       	push	r24
    15e8:	9f 93       	push	r25
    15ea:	af 93       	push	r26
    15ec:	bf 93       	push	r27
    15ee:	ef 93       	push	r30
    15f0:	ff 93       	push	r31
    15f2:	8f b7       	in	r24, 0x3f	; 63
    15f4:	f8 94       	cli
    15f6:	28 2f       	mov	r18, r24
    15f8:	33 27       	eor	r19, r19
    15fa:	80 91 4d 02 	lds	r24, 0x024D
    15fe:	88 23       	and	r24, r24
    1600:	69 f0       	breq	.+26     	; 0x161c
    1602:	80 91 ca 02 	lds	r24, 0x02CA
    1606:	80 93 1f 03 	sts	0x031F, r24
    160a:	88 60       	ori	r24, 0x08	; 8
    160c:	80 93 ca 02 	sts	0x02CA, r24
    1610:	83 bf       	out	0x33, r24	; 51
    1612:	80 91 5e 02 	lds	r24, 0x025E
    1616:	81 bf       	out	0x31, r24	; 49
    1618:	10 92 4d 02 	sts	0x024D, r1
    161c:	2f bf       	out	0x3f, r18	; 63
    161e:	88 e0       	ldi	r24, 0x08	; 8
    1620:	9f e0       	ldi	r25, 0x0F	; 15
    1622:	0e 94 7d 02 	call	0x4fa
    1626:	ff 91       	pop	r31
    1628:	ef 91       	pop	r30
    162a:	bf 91       	pop	r27
    162c:	af 91       	pop	r26
    162e:	9f 91       	pop	r25
    1630:	8f 91       	pop	r24
    1632:	7f 91       	pop	r23
    1634:	6f 91       	pop	r22
    1636:	5f 91       	pop	r21
    1638:	4f 91       	pop	r20
    163a:	3f 91       	pop	r19
    163c:	2f 91       	pop	r18
    163e:	0f 90       	pop	r0
    1640:	0f be       	out	0x3f, r0	; 63
    1642:	0f 90       	pop	r0
    1644:	1f 90       	pop	r1
    1646:	18 95       	reti

00001648 <FramerM$ByteComm$rxByteReady>:
    1648:	38 2f       	mov	r19, r24
    164a:	80 91 34 03 	lds	r24, 0x0334
    164e:	99 27       	eor	r25, r25
    1650:	82 30       	cpi	r24, 0x02	; 2
    1652:	91 05       	cpc	r25, r1
    1654:	09 f4       	brne	.+2      	; 0x1658
    1656:	6b c0       	rjmp	.+214    	; 0x172e
    1658:	83 30       	cpi	r24, 0x03	; 3
    165a:	91 05       	cpc	r25, r1
    165c:	2c f4       	brge	.+10     	; 0x1668
    165e:	00 97       	sbiw	r24, 0x00	; 0
    1660:	59 f0       	breq	.+22     	; 0x1678
    1662:	01 97       	sbiw	r24, 0x01	; 1
    1664:	81 f1       	breq	.+96     	; 0x16c6
    1666:	b7 c1       	rjmp	.+878    	; 0x19d6
    1668:	83 30       	cpi	r24, 0x03	; 3
    166a:	91 05       	cpc	r25, r1
    166c:	09 f4       	brne	.+2      	; 0x1670
    166e:	9c c0       	rjmp	.+312    	; 0x17a8
    1670:	04 97       	sbiw	r24, 0x04	; 4
    1672:	09 f4       	brne	.+2      	; 0x1676
    1674:	59 c1       	rjmp	.+690    	; 0x1928
    1676:	af c1       	rjmp	.+862    	; 0x19d6
    1678:	3e 37       	cpi	r19, 0x7E	; 126
    167a:	09 f0       	breq	.+2      	; 0x167e
    167c:	ae c1       	rjmp	.+860    	; 0x19da
    167e:	80 91 01 03 	lds	r24, 0x0301
    1682:	99 27       	eor	r25, r25
    1684:	fc 01       	movw	r30, r24
    1686:	ee 0f       	add	r30, r30
    1688:	ff 1f       	adc	r31, r31
    168a:	ee 0f       	add	r30, r30
    168c:	ff 1f       	adc	r31, r31
    168e:	e8 0f       	add	r30, r24
    1690:	f9 1f       	adc	r31, r25
    1692:	e8 0f       	add	r30, r24
    1694:	f9 1f       	adc	r31, r25
    1696:	e1 5f       	subi	r30, 0xF1	; 241
    1698:	fc 4f       	sbci	r31, 0xFC	; 252
    169a:	82 81       	ldd	r24, Z+2	; 0x02
    169c:	93 81       	ldd	r25, Z+3	; 0x03
    169e:	00 97       	sbiw	r24, 0x00	; 0
    16a0:	09 f0       	breq	.+2      	; 0x16a4
    16a2:	9b c1       	rjmp	.+822    	; 0x19da
    16a4:	11 82       	std	Z+1, r1	; 0x01
    16a6:	90 93 62 02 	sts	0x0262, r25
    16aa:	80 93 61 02 	sts	0x0261, r24
    16ae:	90 93 44 02 	sts	0x0244, r25
    16b2:	80 93 43 02 	sts	0x0243, r24
    16b6:	84 81       	ldd	r24, Z+4	; 0x04
    16b8:	95 81       	ldd	r25, Z+5	; 0x05
    16ba:	90 93 21 03 	sts	0x0321, r25
    16be:	80 93 20 03 	sts	0x0320, r24
    16c2:	81 e0       	ldi	r24, 0x01	; 1
    16c4:	85 c1       	rjmp	.+778    	; 0x19d0
    16c6:	3e 37       	cpi	r19, 0x7E	; 126
    16c8:	09 f4       	brne	.+2      	; 0x16cc
    16ca:	87 c1       	rjmp	.+782    	; 0x19da
    16cc:	80 91 01 03 	lds	r24, 0x0301
    16d0:	99 27       	eor	r25, r25
    16d2:	fc 01       	movw	r30, r24
    16d4:	ee 0f       	add	r30, r30
    16d6:	ff 1f       	adc	r31, r31
    16d8:	ee 0f       	add	r30, r30
    16da:	ff 1f       	adc	r31, r31
    16dc:	e8 0f       	add	r30, r24
    16de:	f9 1f       	adc	r31, r25
    16e0:	e8 0f       	add	r30, r24
    16e2:	f9 1f       	adc	r31, r25
    16e4:	e1 5f       	subi	r30, 0xF1	; 241
    16e6:	fc 4f       	sbci	r31, 0xFC	; 252
    16e8:	30 83       	st	Z, r19
    16ea:	80 91 61 02 	lds	r24, 0x0261
    16ee:	90 91 62 02 	lds	r25, 0x0262
    16f2:	e7 e7       	ldi	r30, 0x77	; 119
    16f4:	f1 e0       	ldi	r31, 0x01	; 1
    16f6:	23 2f       	mov	r18, r19
    16f8:	29 27       	eor	r18, r25
    16fa:	22 0f       	add	r18, r18
    16fc:	f1 1d       	adc	r31, r1
    16fe:	e2 0f       	add	r30, r18
    1700:	f1 1d       	adc	r31, r1
    1702:	c8 95       	lpm
    1704:	98 2f       	mov	r25, r24
    1706:	80 2d       	mov	r24, r0
    1708:	31 96       	adiw	r30, 0x01	; 1
    170a:	c8 95       	lpm
    170c:	90 25       	eor	r25, r0
    170e:	90 93 62 02 	sts	0x0262, r25
    1712:	80 93 61 02 	sts	0x0261, r24
    1716:	83 2f       	mov	r24, r19
    1718:	99 27       	eor	r25, r25
    171a:	81 34       	cpi	r24, 0x41	; 65
    171c:	91 05       	cpc	r25, r1
    171e:	29 f0       	breq	.+10     	; 0x172a
    1720:	82 34       	cpi	r24, 0x42	; 66
    1722:	91 05       	cpc	r25, r1
    1724:	09 f4       	brne	.+2      	; 0x1728
    1726:	53 c1       	rjmp	.+678    	; 0x19ce
    1728:	56 c1       	rjmp	.+684    	; 0x19d6
    172a:	82 e0       	ldi	r24, 0x02	; 2
    172c:	51 c1       	rjmp	.+674    	; 0x19d0
    172e:	3e 37       	cpi	r19, 0x7E	; 126
    1730:	09 f4       	brne	.+2      	; 0x1734
    1732:	51 c1       	rjmp	.+674    	; 0x19d6
    1734:	60 91 01 03 	lds	r22, 0x0301
    1738:	3d 37       	cpi	r19, 0x7D	; 125
    173a:	81 f4       	brne	.+32     	; 0x175c
    173c:	86 2f       	mov	r24, r22
    173e:	99 27       	eor	r25, r25
    1740:	fc 01       	movw	r30, r24
    1742:	ee 0f       	add	r30, r30
    1744:	ff 1f       	adc	r31, r31
    1746:	ee 0f       	add	r30, r30
    1748:	ff 1f       	adc	r31, r31
    174a:	e8 0f       	add	r30, r24
    174c:	f9 1f       	adc	r31, r25
    174e:	e8 0f       	add	r30, r24
    1750:	f9 1f       	adc	r31, r25
    1752:	e1 5f       	subi	r30, 0xF1	; 241
    1754:	fc 4f       	sbci	r31, 0xFC	; 252
    1756:	80 e2       	ldi	r24, 0x20	; 32
    1758:	81 83       	std	Z+1, r24	; 0x01
    175a:	3f c1       	rjmp	.+638    	; 0x19da
    175c:	86 2f       	mov	r24, r22
    175e:	99 27       	eor	r25, r25
    1760:	fc 01       	movw	r30, r24
    1762:	ee 0f       	add	r30, r30
    1764:	ff 1f       	adc	r31, r31
    1766:	ee 0f       	add	r30, r30
    1768:	ff 1f       	adc	r31, r31
    176a:	e8 0f       	add	r30, r24
    176c:	f9 1f       	adc	r31, r25
    176e:	e8 0f       	add	r30, r24
    1770:	f9 1f       	adc	r31, r25
    1772:	e1 5f       	subi	r30, 0xF1	; 241
    1774:	fc 4f       	sbci	r31, 0xFC	; 252
    1776:	21 81       	ldd	r18, Z+1	; 0x01
    1778:	23 27       	eor	r18, r19
    177a:	21 83       	std	Z+1, r18	; 0x01
    177c:	80 91 61 02 	lds	r24, 0x0261
    1780:	90 91 62 02 	lds	r25, 0x0262
    1784:	e7 e7       	ldi	r30, 0x77	; 119
    1786:	f1 e0       	ldi	r31, 0x01	; 1
    1788:	29 27       	eor	r18, r25
    178a:	22 0f       	add	r18, r18
    178c:	f1 1d       	adc	r31, r1
    178e:	e2 0f       	add	r30, r18
    1790:	f1 1d       	adc	r31, r1
    1792:	c8 95       	lpm
    1794:	98 2f       	mov	r25, r24
    1796:	80 2d       	mov	r24, r0
    1798:	31 96       	adiw	r30, 0x01	; 1
    179a:	c8 95       	lpm
    179c:	90 25       	eor	r25, r0
    179e:	90 93 62 02 	sts	0x0262, r25
    17a2:	80 93 61 02 	sts	0x0261, r24
    17a6:	13 c1       	rjmp	.+550    	; 0x19ce
    17a8:	40 91 43 02 	lds	r20, 0x0243
    17ac:	50 91 44 02 	lds	r21, 0x0244
    17b0:	4c 32       	cpi	r20, 0x2C	; 44
    17b2:	51 05       	cpc	r21, r1
    17b4:	08 f0       	brcs	.+2      	; 0x17b8
    17b6:	ba c0       	rjmp	.+372    	; 0x192c
    17b8:	3d 37       	cpi	r19, 0x7D	; 125
    17ba:	11 f4       	brne	.+4      	; 0x17c0
    17bc:	84 e0       	ldi	r24, 0x04	; 4
    17be:	08 c1       	rjmp	.+528    	; 0x19d0
    17c0:	3e 37       	cpi	r19, 0x7E	; 126
    17c2:	09 f0       	breq	.+2      	; 0x17c6
    17c4:	7f c0       	rjmp	.+254    	; 0x18c4
    17c6:	42 30       	cpi	r20, 0x02	; 2
    17c8:	51 05       	cpc	r21, r1
    17ca:	08 f4       	brcc	.+2      	; 0x17ce
    17cc:	5f c0       	rjmp	.+190    	; 0x188c
    17ce:	e0 91 20 03 	lds	r30, 0x0320
    17d2:	f0 91 21 03 	lds	r31, 0x0321
    17d6:	e4 0f       	add	r30, r20
    17d8:	f5 1f       	adc	r31, r21
    17da:	82 91       	ld	r24, -Z
    17dc:	99 27       	eor	r25, r25
    17de:	38 2f       	mov	r19, r24
    17e0:	22 27       	eor	r18, r18
    17e2:	82 91       	ld	r24, -Z
    17e4:	99 27       	eor	r25, r25
    17e6:	28 2b       	or	r18, r24
    17e8:	39 2b       	or	r19, r25
    17ea:	80 91 61 02 	lds	r24, 0x0261
    17ee:	90 91 62 02 	lds	r25, 0x0262
    17f2:	60 91 01 03 	lds	r22, 0x0301
    17f6:	28 17       	cp	r18, r24
    17f8:	39 07       	cpc	r19, r25
    17fa:	e1 f4       	brne	.+56     	; 0x1834
    17fc:	86 2f       	mov	r24, r22
    17fe:	99 27       	eor	r25, r25
    1800:	fc 01       	movw	r30, r24
    1802:	ee 0f       	add	r30, r30
    1804:	ff 1f       	adc	r31, r31
    1806:	ee 0f       	add	r30, r30
    1808:	ff 1f       	adc	r31, r31
    180a:	e8 0f       	add	r30, r24
    180c:	f9 1f       	adc	r31, r25
    180e:	e8 0f       	add	r30, r24
    1810:	f9 1f       	adc	r31, r25
    1812:	e1 5f       	subi	r30, 0xF1	; 241
    1814:	fc 4f       	sbci	r31, 0xFC	; 252
    1816:	42 50       	subi	r20, 0x02	; 2
    1818:	50 40       	sbci	r21, 0x00	; 0
    181a:	42 83       	std	Z+2, r20	; 0x02
    181c:	53 83       	std	Z+3, r21	; 0x03
    181e:	84 ec       	ldi	r24, 0xC4	; 196
    1820:	9f e0       	ldi	r25, 0x0F	; 15
    1822:	0e 94 7d 02 	call	0x4fa
    1826:	80 91 01 03 	lds	r24, 0x0301
    182a:	8f 5f       	subi	r24, 0xFF	; 255
    182c:	81 70       	andi	r24, 0x01	; 1
    182e:	80 93 01 03 	sts	0x0301, r24
    1832:	10 c0       	rjmp	.+32     	; 0x1854
    1834:	86 2f       	mov	r24, r22
    1836:	99 27       	eor	r25, r25
    1838:	fc 01       	movw	r30, r24
    183a:	ee 0f       	add	r30, r30
    183c:	ff 1f       	adc	r31, r31
    183e:	ee 0f       	add	r30, r30
    1840:	ff 1f       	adc	r31, r31
    1842:	e8 0f       	add	r30, r24
    1844:	f9 1f       	adc	r31, r25
    1846:	e8 0f       	add	r30, r24
    1848:	f9 1f       	adc	r31, r25
    184a:	e1 5f       	subi	r30, 0xF1	; 241
    184c:	fc 4f       	sbci	r31, 0xFC	; 252
    184e:	12 82       	std	Z+2, r1	; 0x02
    1850:	13 82       	std	Z+3, r1	; 0x03
    1852:	11 82       	std	Z+1, r1	; 0x01
    1854:	80 91 01 03 	lds	r24, 0x0301
    1858:	99 27       	eor	r25, r25
    185a:	fc 01       	movw	r30, r24
    185c:	ee 0f       	add	r30, r30
    185e:	ff 1f       	adc	r31, r31
    1860:	ee 0f       	add	r30, r30
    1862:	ff 1f       	adc	r31, r31
    1864:	e8 0f       	add	r30, r24
    1866:	f9 1f       	adc	r31, r25
    1868:	e8 0f       	add	r30, r24
    186a:	f9 1f       	adc	r31, r25
    186c:	e1 5f       	subi	r30, 0xF1	; 241
    186e:	fc 4f       	sbci	r31, 0xFC	; 252
    1870:	82 81       	ldd	r24, Z+2	; 0x02
    1872:	93 81       	ldd	r25, Z+3	; 0x03
    1874:	89 2b       	or	r24, r25
    1876:	d9 f4       	brne	.+54     	; 0x18ae
    1878:	84 81       	ldd	r24, Z+4	; 0x04
    187a:	95 81       	ldd	r25, Z+5	; 0x05
    187c:	90 93 21 03 	sts	0x0321, r25
    1880:	80 93 20 03 	sts	0x0320, r24
    1884:	81 e0       	ldi	r24, 0x01	; 1
    1886:	80 93 34 03 	sts	0x0334, r24
    188a:	13 c0       	rjmp	.+38     	; 0x18b2
    188c:	80 91 01 03 	lds	r24, 0x0301
    1890:	99 27       	eor	r25, r25
    1892:	fc 01       	movw	r30, r24
    1894:	ee 0f       	add	r30, r30
    1896:	ff 1f       	adc	r31, r31
    1898:	ee 0f       	add	r30, r30
    189a:	ff 1f       	adc	r31, r31
    189c:	e8 0f       	add	r30, r24
    189e:	f9 1f       	adc	r31, r25
    18a0:	e8 0f       	add	r30, r24
    18a2:	f9 1f       	adc	r31, r25
    18a4:	e1 5f       	subi	r30, 0xF1	; 241
    18a6:	fc 4f       	sbci	r31, 0xFC	; 252
    18a8:	12 82       	std	Z+2, r1	; 0x02
    18aa:	13 82       	std	Z+3, r1	; 0x03
    18ac:	11 82       	std	Z+1, r1	; 0x01
    18ae:	10 92 34 03 	sts	0x0334, r1
    18b2:	10 92 62 02 	sts	0x0262, r1
    18b6:	10 92 61 02 	sts	0x0261, r1
    18ba:	10 92 44 02 	sts	0x0244, r1
    18be:	10 92 43 02 	sts	0x0243, r1
    18c2:	8b c0       	rjmp	.+278    	; 0x19da
    18c4:	e0 91 20 03 	lds	r30, 0x0320
    18c8:	f0 91 21 03 	lds	r31, 0x0321
    18cc:	e4 0f       	add	r30, r20
    18ce:	f5 1f       	adc	r31, r21
    18d0:	30 83       	st	Z, r19
    18d2:	40 91 43 02 	lds	r20, 0x0243
    18d6:	50 91 44 02 	lds	r21, 0x0244
    18da:	42 30       	cpi	r20, 0x02	; 2
    18dc:	51 05       	cpc	r21, r1
    18de:	e8 f0       	brcs	.+58     	; 0x191a
    18e0:	20 91 61 02 	lds	r18, 0x0261
    18e4:	30 91 62 02 	lds	r19, 0x0262
    18e8:	e0 91 20 03 	lds	r30, 0x0320
    18ec:	f0 91 21 03 	lds	r31, 0x0321
    18f0:	e4 0f       	add	r30, r20
    18f2:	f5 1f       	adc	r31, r21
    18f4:	32 97       	sbiw	r30, 0x02	; 2
    18f6:	80 81       	ld	r24, Z
    18f8:	e7 e7       	ldi	r30, 0x77	; 119
    18fa:	f1 e0       	ldi	r31, 0x01	; 1
    18fc:	83 27       	eor	r24, r19
    18fe:	88 0f       	add	r24, r24
    1900:	f1 1d       	adc	r31, r1
    1902:	e8 0f       	add	r30, r24
    1904:	f1 1d       	adc	r31, r1
    1906:	c8 95       	lpm
    1908:	32 2f       	mov	r19, r18
    190a:	20 2d       	mov	r18, r0
    190c:	31 96       	adiw	r30, 0x01	; 1
    190e:	c8 95       	lpm
    1910:	30 25       	eor	r19, r0
    1912:	30 93 62 02 	sts	0x0262, r19
    1916:	20 93 61 02 	sts	0x0261, r18
    191a:	4f 5f       	subi	r20, 0xFF	; 255
    191c:	5f 4f       	sbci	r21, 0xFF	; 255
    191e:	50 93 44 02 	sts	0x0244, r21
    1922:	40 93 43 02 	sts	0x0243, r20
    1926:	59 c0       	rjmp	.+178    	; 0x19da
    1928:	3e 37       	cpi	r19, 0x7E	; 126
    192a:	d1 f4       	brne	.+52     	; 0x1960
    192c:	10 92 62 02 	sts	0x0262, r1
    1930:	10 92 61 02 	sts	0x0261, r1
    1934:	10 92 44 02 	sts	0x0244, r1
    1938:	10 92 43 02 	sts	0x0243, r1
    193c:	80 91 01 03 	lds	r24, 0x0301
    1940:	99 27       	eor	r25, r25
    1942:	fc 01       	movw	r30, r24
    1944:	ee 0f       	add	r30, r30
    1946:	ff 1f       	adc	r31, r31
    1948:	ee 0f       	add	r30, r30
    194a:	ff 1f       	adc	r31, r31
    194c:	e8 0f       	add	r30, r24
    194e:	f9 1f       	adc	r31, r25
    1950:	e8 0f       	add	r30, r24
    1952:	f9 1f       	adc	r31, r25
    1954:	e1 5f       	subi	r30, 0xF1	; 241
    1956:	fc 4f       	sbci	r31, 0xFC	; 252
    1958:	12 82       	std	Z+2, r1	; 0x02
    195a:	13 82       	std	Z+3, r1	; 0x03
    195c:	11 82       	std	Z+1, r1	; 0x01
    195e:	3b c0       	rjmp	.+118    	; 0x19d6
    1960:	80 e2       	ldi	r24, 0x20	; 32
    1962:	83 27       	eor	r24, r19
    1964:	e0 91 20 03 	lds	r30, 0x0320
    1968:	f0 91 21 03 	lds	r31, 0x0321
    196c:	20 91 43 02 	lds	r18, 0x0243
    1970:	30 91 44 02 	lds	r19, 0x0244
    1974:	e2 0f       	add	r30, r18
    1976:	f3 1f       	adc	r31, r19
    1978:	80 83       	st	Z, r24
    197a:	40 91 43 02 	lds	r20, 0x0243
    197e:	50 91 44 02 	lds	r21, 0x0244
    1982:	42 30       	cpi	r20, 0x02	; 2
    1984:	51 05       	cpc	r21, r1
    1986:	e8 f0       	brcs	.+58     	; 0x19c2
    1988:	20 91 61 02 	lds	r18, 0x0261
    198c:	30 91 62 02 	lds	r19, 0x0262
    1990:	e0 91 20 03 	lds	r30, 0x0320
    1994:	f0 91 21 03 	lds	r31, 0x0321
    1998:	e4 0f       	add	r30, r20
    199a:	f5 1f       	adc	r31, r21
    199c:	32 97       	sbiw	r30, 0x02	; 2
    199e:	80 81       	ld	r24, Z
    19a0:	e7 e7       	ldi	r30, 0x77	; 119
    19a2:	f1 e0       	ldi	r31, 0x01	; 1
    19a4:	83 27       	eor	r24, r19
    19a6:	88 0f       	add	r24, r24
    19a8:	f1 1d       	adc	r31, r1
    19aa:	e8 0f       	add	r30, r24
    19ac:	f1 1d       	adc	r31, r1
    19ae:	c8 95       	lpm
    19b0:	32 2f       	mov	r19, r18
    19b2:	20 2d       	mov	r18, r0
    19b4:	31 96       	adiw	r30, 0x01	; 1
    19b6:	c8 95       	lpm
    19b8:	30 25       	eor	r19, r0
    19ba:	30 93 62 02 	sts	0x0262, r19
    19be:	20 93 61 02 	sts	0x0261, r18
    19c2:	4f 5f       	subi	r20, 0xFF	; 255
    19c4:	5f 4f       	sbci	r21, 0xFF	; 255
    19c6:	50 93 44 02 	sts	0x0244, r21
    19ca:	40 93 43 02 	sts	0x0243, r20
    19ce:	83 e0       	ldi	r24, 0x03	; 3
    19d0:	80 93 34 03 	sts	0x0334, r24
    19d4:	02 c0       	rjmp	.+4      	; 0x19da
    19d6:	10 92 34 03 	sts	0x0334, r1
    19da:	81 e0       	ldi	r24, 0x01	; 1
    19dc:	90 e0       	ldi	r25, 0x00	; 0
    19de:	08 95       	ret

000019e0 <TOSBaseM$UARTRcvdTask>:
    19e0:	1f 93       	push	r17
    19e2:	cf 93       	push	r28
    19e4:	e0 91 88 02 	lds	r30, 0x0288
    19e8:	f0 91 89 02 	lds	r31, 0x0289
    19ec:	80 91 02 01 	lds	r24, 0x0102
    19f0:	83 83       	std	Z+3, r24	; 0x03
    19f2:	e0 91 88 02 	lds	r30, 0x0288
    19f6:	f0 91 89 02 	lds	r31, 0x0289
    19fa:	11 e0       	ldi	r17, 0x01	; 1
    19fc:	8f b7       	in	r24, 0x3f	; 63
    19fe:	f8 94       	cli
    1a00:	c8 2f       	mov	r28, r24
    1a02:	80 91 61 01 	lds	r24, 0x0161
    1a06:	88 23       	and	r24, r24
    1a08:	11 f0       	breq	.+4      	; 0x1a0e
    1a0a:	10 e0       	ldi	r17, 0x00	; 0
    1a0c:	18 c0       	rjmp	.+48     	; 0x1a3e
    1a0e:	10 93 61 01 	sts	0x0161, r17
    1a12:	f0 93 25 03 	sts	0x0325, r31
    1a16:	e0 93 24 03 	sts	0x0324, r30
    1a1a:	84 81       	ldd	r24, Z+4	; 0x04
    1a1c:	99 27       	eor	r25, r25
    1a1e:	05 96       	adiw	r24, 0x05	; 5
    1a20:	90 93 4a 02 	sts	0x024A, r25
    1a24:	80 93 49 02 	sts	0x0249, r24
    1a28:	0e 94 a3 0a 	call	0x1546
    1a2c:	8f 77       	andi	r24, 0x7F	; 127
    1a2e:	90 70       	andi	r25, 0x00	; 0
    1a30:	84 96       	adiw	r24, 0x24	; 36
    1a32:	90 93 fe 02 	sts	0x02FE, r25
    1a36:	80 93 fd 02 	sts	0x02FD, r24
    1a3a:	10 93 63 01 	sts	0x0163, r17
    1a3e:	cf bf       	out	0x3f, r28	; 63
    1a40:	11 23       	and	r17, r17
    1a42:	09 f4       	brne	.+2      	; 0x1a46
    1a44:	67 c0       	rjmp	.+206    	; 0x1b14
    1a46:	8f b7       	in	r24, 0x3f	; 63
    1a48:	f8 94       	cli
    1a4a:	99 27       	eor	r25, r25
    1a4c:	20 91 65 01 	lds	r18, 0x0165
    1a50:	8f bf       	out	0x3f, r24	; 63
    1a52:	26 30       	cpi	r18, 0x06	; 6
    1a54:	09 f0       	breq	.+2      	; 0x1a58
    1a56:	5e c0       	rjmp	.+188    	; 0x1b14
    1a58:	40 91 40 03 	lds	r20, 0x0340
    1a5c:	50 91 41 03 	lds	r21, 0x0341
    1a60:	60 91 42 03 	lds	r22, 0x0342
    1a64:	70 91 43 03 	lds	r23, 0x0343
    1a68:	40 ff       	sbrs	r20, 0
    1a6a:	17 c0       	rjmp	.+46     	; 0x1a9a
    1a6c:	8f b7       	in	r24, 0x3f	; 63
    1a6e:	f8 94       	cli
    1a70:	28 2f       	mov	r18, r24
    1a72:	33 27       	eor	r19, r19
    1a74:	db 01       	movw	r26, r22
    1a76:	ca 01       	movw	r24, r20
    1a78:	8e 7f       	andi	r24, 0xFE	; 254
    1a7a:	80 93 40 03 	sts	0x0340, r24
    1a7e:	90 93 41 03 	sts	0x0341, r25
    1a82:	a0 93 42 03 	sts	0x0342, r26
    1a86:	b0 93 43 03 	sts	0x0343, r27
    1a8a:	2f bf       	out	0x3f, r18	; 63
    1a8c:	00 97       	sbiw	r24, 0x00	; 0
    1a8e:	a1 05       	cpc	r26, r1
    1a90:	b1 05       	cpc	r27, r1
    1a92:	19 f4       	brne	.+6      	; 0x1a9a
    1a94:	81 e0       	ldi	r24, 0x01	; 1
    1a96:	80 93 fa 02 	sts	0x02FA, r24
    1a9a:	6b e3       	ldi	r22, 0x3B	; 59
    1a9c:	80 e0       	ldi	r24, 0x00	; 0
    1a9e:	0e 94 78 05 	call	0xaf0
    1aa2:	80 ed       	ldi	r24, 0xD0	; 208
    1aa4:	97 e0       	ldi	r25, 0x07	; 7
    1aa6:	00 00       	nop
    1aa8:	00 00       	nop
    1aaa:	00 00       	nop
    1aac:	00 00       	nop
    1aae:	00 00       	nop
    1ab0:	00 00       	nop
    1ab2:	00 00       	nop
    1ab4:	00 00       	nop
    1ab6:	01 97       	sbiw	r24, 0x01	; 1
    1ab8:	18 16       	cp	r1, r24
    1aba:	19 06       	cpc	r1, r25
    1abc:	a4 f3       	brlt	.-24     	; 0x1aa6
    1abe:	69 e3       	ldi	r22, 0x39	; 57
    1ac0:	80 e0       	ldi	r24, 0x00	; 0
    1ac2:	0e 94 78 05 	call	0xaf0
    1ac6:	88 ec       	ldi	r24, 0xC8	; 200
    1ac8:	90 e0       	ldi	r25, 0x00	; 0
    1aca:	00 00       	nop
    1acc:	00 00       	nop
    1ace:	00 00       	nop
    1ad0:	00 00       	nop
    1ad2:	00 00       	nop
    1ad4:	00 00       	nop
    1ad6:	00 00       	nop
    1ad8:	00 00       	nop
    1ada:	01 97       	sbiw	r24, 0x01	; 1
    1adc:	18 16       	cp	r1, r24
    1ade:	19 06       	cpc	r1, r25
    1ae0:	a4 f3       	brlt	.-24     	; 0x1aca
    1ae2:	0e 94 fd 05 	call	0xbfa
    1ae6:	bb 98       	cbi	0x17, 3	; 23
    1ae8:	ba 98       	cbi	0x17, 2	; 23
    1aea:	80 ec       	ldi	r24, 0xC0	; 192
    1aec:	8d b9       	out	0x0d, r24	; 13
    1aee:	b8 98       	cbi	0x17, 0	; 23
    1af0:	0e 94 1c 06 	call	0xc38
    1af4:	20 e2       	ldi	r18, 0x20	; 32
    1af6:	30 e0       	ldi	r19, 0x00	; 0
    1af8:	40 e0       	ldi	r20, 0x00	; 0
    1afa:	50 e0       	ldi	r21, 0x00	; 0
    1afc:	61 e0       	ldi	r22, 0x01	; 1
    1afe:	80 e0       	ldi	r24, 0x00	; 0
    1b00:	0e 94 2e 06 	call	0xc5c
    1b04:	8f b7       	in	r24, 0x3f	; 63
    1b06:	f8 94       	cli
    1b08:	28 2f       	mov	r18, r24
    1b0a:	33 27       	eor	r19, r19
    1b0c:	82 e0       	ldi	r24, 0x02	; 2
    1b0e:	80 93 65 01 	sts	0x0165, r24
    1b12:	2f bf       	out	0x3f, r18	; 63
    1b14:	11 23       	and	r17, r17
    1b16:	39 f4       	brne	.+14     	; 0x1b26
    1b18:	8f b7       	in	r24, 0x3f	; 63
    1b1a:	f8 94       	cli
    1b1c:	99 27       	eor	r25, r25
    1b1e:	10 92 3e 03 	sts	0x033E, r1
    1b22:	8f bf       	out	0x3f, r24	; 63
    1b24:	02 c0       	rjmp	.+4      	; 0x1b2a
    1b26:	0e 94 c6 0a 	call	0x158c
    1b2a:	cf 91       	pop	r28
    1b2c:	1f 91       	pop	r17
    1b2e:	08 95       	ret

00001b30 <UARTM$HPLUART$putDone>:
    1b30:	8f b7       	in	r24, 0x3f	; 63
    1b32:	f8 94       	cli
    1b34:	99 27       	eor	r25, r25
    1b36:	20 91 fc 02 	lds	r18, 0x02FC
    1b3a:	10 92 fc 02 	sts	0x02FC, r1
    1b3e:	8f bf       	out	0x3f, r24	; 63
    1b40:	22 23       	and	r18, r18
    1b42:	09 f4       	brne	.+2      	; 0x1b46
    1b44:	a4 c0       	rjmp	.+328    	; 0x1c8e
    1b46:	80 91 35 03 	lds	r24, 0x0335
    1b4a:	87 30       	cpi	r24, 0x07	; 7
    1b4c:	31 f4       	brne	.+12     	; 0x1b5a
    1b4e:	10 92 35 03 	sts	0x0335, r1
    1b52:	8f e6       	ldi	r24, 0x6F	; 111
    1b54:	9a e0       	ldi	r25, 0x0A	; 10
    1b56:	0e 94 7d 02 	call	0x4fa
    1b5a:	21 e0       	ldi	r18, 0x01	; 1
    1b5c:	80 91 35 03 	lds	r24, 0x0335
    1b60:	99 27       	eor	r25, r25
    1b62:	84 30       	cpi	r24, 0x04	; 4
    1b64:	91 05       	cpc	r25, r1
    1b66:	09 f4       	brne	.+2      	; 0x1b6a
    1b68:	6e c0       	rjmp	.+220    	; 0x1c46
    1b6a:	85 30       	cpi	r24, 0x05	; 5
    1b6c:	91 05       	cpc	r25, r1
    1b6e:	54 f4       	brge	.+20     	; 0x1b84
    1b70:	82 30       	cpi	r24, 0x02	; 2
    1b72:	91 05       	cpc	r25, r1
    1b74:	61 f1       	breq	.+88     	; 0x1bce
    1b76:	83 30       	cpi	r24, 0x03	; 3
    1b78:	91 05       	cpc	r25, r1
    1b7a:	0c f0       	brlt	.+2      	; 0x1b7e
    1b7c:	58 c0       	rjmp	.+176    	; 0x1c2e
    1b7e:	01 97       	sbiw	r24, 0x01	; 1
    1b80:	49 f0       	breq	.+18     	; 0x1b94
    1b82:	7c c0       	rjmp	.+248    	; 0x1c7c
    1b84:	86 30       	cpi	r24, 0x06	; 6
    1b86:	91 05       	cpc	r25, r1
    1b88:	09 f4       	brne	.+2      	; 0x1b8c
    1b8a:	71 c0       	rjmp	.+226    	; 0x1c6e
    1b8c:	06 97       	sbiw	r24, 0x06	; 6
    1b8e:	0c f4       	brge	.+2      	; 0x1b92
    1b90:	63 c0       	rjmp	.+198    	; 0x1c58
    1b92:	74 c0       	rjmp	.+232    	; 0x1c7c
    1b94:	82 e0       	ldi	r24, 0x02	; 2
    1b96:	80 93 35 03 	sts	0x0335, r24
    1b9a:	20 91 05 01 	lds	r18, 0x0105
    1b9e:	30 91 06 01 	lds	r19, 0x0106
    1ba2:	80 91 60 01 	lds	r24, 0x0160
    1ba6:	e7 e7       	ldi	r30, 0x77	; 119
    1ba8:	f1 e0       	ldi	r31, 0x01	; 1
    1baa:	83 27       	eor	r24, r19
    1bac:	88 0f       	add	r24, r24
    1bae:	f1 1d       	adc	r31, r1
    1bb0:	e8 0f       	add	r30, r24
    1bb2:	f1 1d       	adc	r31, r1
    1bb4:	c8 95       	lpm
    1bb6:	32 2f       	mov	r19, r18
    1bb8:	20 2d       	mov	r18, r0
    1bba:	31 96       	adiw	r30, 0x01	; 1
    1bbc:	c8 95       	lpm
    1bbe:	30 25       	eor	r19, r0
    1bc0:	30 93 06 01 	sts	0x0106, r19
    1bc4:	20 93 05 01 	sts	0x0105, r18
    1bc8:	80 91 60 01 	lds	r24, 0x0160
    1bcc:	54 c0       	rjmp	.+168    	; 0x1c76
    1bce:	e0 91 85 02 	lds	r30, 0x0285
    1bd2:	f0 91 86 02 	lds	r31, 0x0286
    1bd6:	20 91 c8 02 	lds	r18, 0x02C8
    1bda:	30 91 c9 02 	lds	r19, 0x02C9
    1bde:	e2 0f       	add	r30, r18
    1be0:	f3 1f       	adc	r31, r19
    1be2:	50 81       	ld	r21, Z
    1be4:	80 91 05 01 	lds	r24, 0x0105
    1be8:	90 91 06 01 	lds	r25, 0x0106
    1bec:	e7 e7       	ldi	r30, 0x77	; 119
    1bee:	f1 e0       	ldi	r31, 0x01	; 1
    1bf0:	45 2f       	mov	r20, r21
    1bf2:	49 27       	eor	r20, r25
    1bf4:	44 0f       	add	r20, r20
    1bf6:	f1 1d       	adc	r31, r1
    1bf8:	e4 0f       	add	r30, r20
    1bfa:	f1 1d       	adc	r31, r1
    1bfc:	c8 95       	lpm
    1bfe:	98 2f       	mov	r25, r24
    1c00:	80 2d       	mov	r24, r0
    1c02:	31 96       	adiw	r30, 0x01	; 1
    1c04:	c8 95       	lpm
    1c06:	90 25       	eor	r25, r0
    1c08:	90 93 06 01 	sts	0x0106, r25
    1c0c:	80 93 05 01 	sts	0x0105, r24
    1c10:	2f 5f       	subi	r18, 0xFF	; 255
    1c12:	3f 4f       	sbci	r19, 0xFF	; 255
    1c14:	30 93 c9 02 	sts	0x02C9, r19
    1c18:	20 93 c8 02 	sts	0x02C8, r18
    1c1c:	80 91 66 01 	lds	r24, 0x0166
    1c20:	90 91 67 01 	lds	r25, 0x0167
    1c24:	28 17       	cp	r18, r24
    1c26:	39 07       	cpc	r19, r25
    1c28:	98 f0       	brcs	.+38     	; 0x1c50
    1c2a:	84 e0       	ldi	r24, 0x04	; 4
    1c2c:	0f c0       	rjmp	.+30     	; 0x1c4c
    1c2e:	80 91 3a 03 	lds	r24, 0x033A
    1c32:	90 e2       	ldi	r25, 0x20	; 32
    1c34:	89 27       	eor	r24, r25
    1c36:	0e 94 5a 0a 	call	0x14b4
    1c3a:	28 2f       	mov	r18, r24
    1c3c:	80 91 1d 03 	lds	r24, 0x031D
    1c40:	80 93 35 03 	sts	0x0335, r24
    1c44:	1b c0       	rjmp	.+54     	; 0x1c7c
    1c46:	50 91 05 01 	lds	r21, 0x0105
    1c4a:	85 e0       	ldi	r24, 0x05	; 5
    1c4c:	80 93 35 03 	sts	0x0335, r24
    1c50:	85 2f       	mov	r24, r21
    1c52:	0e 94 4a 0e 	call	0x1c94
    1c56:	11 c0       	rjmp	.+34     	; 0x1c7a
    1c58:	80 91 05 01 	lds	r24, 0x0105
    1c5c:	90 91 06 01 	lds	r25, 0x0106
    1c60:	29 2f       	mov	r18, r25
    1c62:	33 27       	eor	r19, r19
    1c64:	86 e0       	ldi	r24, 0x06	; 6
    1c66:	80 93 35 03 	sts	0x0335, r24
    1c6a:	82 2f       	mov	r24, r18
    1c6c:	f2 cf       	rjmp	.-28     	; 0x1c52
    1c6e:	87 e0       	ldi	r24, 0x07	; 7
    1c70:	80 93 35 03 	sts	0x0335, r24
    1c74:	8e e7       	ldi	r24, 0x7E	; 126
    1c76:	0e 94 5a 0a 	call	0x14b4
    1c7a:	28 2f       	mov	r18, r24
    1c7c:	21 30       	cpi	r18, 0x01	; 1
    1c7e:	39 f0       	breq	.+14     	; 0x1c8e
    1c80:	88 e0       	ldi	r24, 0x08	; 8
    1c82:	80 93 35 03 	sts	0x0335, r24
    1c86:	8f e6       	ldi	r24, 0x6F	; 111
    1c88:	9a e0       	ldi	r25, 0x0A	; 10
    1c8a:	0e 94 7d 02 	call	0x4fa
    1c8e:	81 e0       	ldi	r24, 0x01	; 1
    1c90:	90 e0       	ldi	r25, 0x00	; 0
    1c92:	08 95       	ret

00001c94 <FramerM$TxArbitraryByte>:
    1c94:	98 2f       	mov	r25, r24
    1c96:	8d 57       	subi	r24, 0x7D	; 125
    1c98:	82 30       	cpi	r24, 0x02	; 2
    1c9a:	78 f4       	brcc	.+30     	; 0x1cba
    1c9c:	8f b7       	in	r24, 0x3f	; 63
    1c9e:	f8 94       	cli
    1ca0:	28 2f       	mov	r18, r24
    1ca2:	33 27       	eor	r19, r19
    1ca4:	80 91 35 03 	lds	r24, 0x0335
    1ca8:	80 93 1d 03 	sts	0x031D, r24
    1cac:	83 e0       	ldi	r24, 0x03	; 3
    1cae:	80 93 35 03 	sts	0x0335, r24
    1cb2:	90 93 3a 03 	sts	0x033A, r25
    1cb6:	2f bf       	out	0x3f, r18	; 63
    1cb8:	9d e7       	ldi	r25, 0x7D	; 125
    1cba:	89 2f       	mov	r24, r25
    1cbc:	0e 94 5a 0a 	call	0x14b4
    1cc0:	99 27       	eor	r25, r25
    1cc2:	08 95       	ret

00001cc4 <__nesc_atomic_end>:
    1cc4:	8f bf       	out	0x3f, r24	; 63
    1cc6:	08 95       	ret

00001cc8 <__nesc_atomic_start>:
    1cc8:	8f b7       	in	r24, 0x3f	; 63
    1cca:	f8 94       	cli
    1ccc:	99 27       	eor	r25, r25
    1cce:	08 95       	ret

00001cd0 <CC1000RadioIntM$PacketRcvd>:
    1cd0:	cf 93       	push	r28
    1cd2:	df 93       	push	r29
    1cd4:	8f b7       	in	r24, 0x3f	; 63
    1cd6:	f8 94       	cli
    1cd8:	68 2f       	mov	r22, r24
    1cda:	77 27       	eor	r23, r23
    1cdc:	a0 91 cd 02 	lds	r26, 0x02CD
    1ce0:	b0 91 ce 02 	lds	r27, 0x02CE
    1ce4:	97 96       	adiw	r26, 0x27	; 39
    1ce6:	1d 92       	st	X+, r1
    1ce8:	1c 92       	st	X, r1
    1cea:	98 97       	sbiw	r26, 0x28	; 40
    1cec:	94 96       	adiw	r26, 0x24	; 36
    1cee:	8d 91       	ld	r24, X+
    1cf0:	9c 91       	ld	r25, X
    1cf2:	95 97       	sbiw	r26, 0x25	; 37
    1cf4:	9c 01       	movw	r18, r24
    1cf6:	22 0f       	add	r18, r18
    1cf8:	33 1f       	adc	r19, r19
    1cfa:	22 0f       	add	r18, r18
    1cfc:	33 1f       	adc	r19, r19
    1cfe:	28 0f       	add	r18, r24
    1d00:	39 1f       	adc	r19, r25
    1d02:	40 91 ba 02 	lds	r20, 0x02BA
    1d06:	50 91 bb 02 	lds	r21, 0x02BB
    1d0a:	ca 01       	movw	r24, r20
    1d0c:	88 0f       	add	r24, r24
    1d0e:	99 1f       	adc	r25, r25
    1d10:	84 0f       	add	r24, r20
    1d12:	95 1f       	adc	r25, r21
    1d14:	28 0f       	add	r18, r24
    1d16:	39 1f       	adc	r19, r25
    1d18:	53 e0       	ldi	r21, 0x03	; 3
    1d1a:	36 95       	lsr	r19
    1d1c:	27 95       	ror	r18
    1d1e:	5a 95       	dec	r21
    1d20:	e1 f7       	brne	.-8      	; 0x1d1a
    1d22:	30 93 bb 02 	sts	0x02BB, r19
    1d26:	20 93 ba 02 	sts	0x02BA, r18
    1d2a:	6f bf       	out	0x3f, r22	; 63
    1d2c:	92 96       	adiw	r26, 0x22	; 34
    1d2e:	8d 91       	ld	r24, X+
    1d30:	9c 91       	ld	r25, X
    1d32:	93 97       	sbiw	r26, 0x23	; 35
    1d34:	89 2b       	or	r24, r25
    1d36:	69 f1       	breq	.+90     	; 0x1d92
    1d38:	13 96       	adiw	r26, 0x03	; 3
    1d3a:	9c 91       	ld	r25, X
    1d3c:	13 97       	sbiw	r26, 0x03	; 3
    1d3e:	80 91 02 01 	lds	r24, 0x0102
    1d42:	98 17       	cp	r25, r24
    1d44:	11 f0       	breq	.+4      	; 0x1d4a
    1d46:	9d 01       	movw	r18, r26
    1d48:	26 c0       	rjmp	.+76     	; 0x1d96
    1d4a:	8f b7       	in	r24, 0x3f	; 63
    1d4c:	f8 94       	cli
    1d4e:	28 2f       	mov	r18, r24
    1d50:	90 91 3d 03 	lds	r25, 0x033D
    1d54:	e9 2f       	mov	r30, r25
    1d56:	ff 27       	eor	r31, r31
    1d58:	ee 0f       	add	r30, r30
    1d5a:	ff 1f       	adc	r31, r31
    1d5c:	ec 5f       	subi	r30, 0xFC	; 252
    1d5e:	fc 4f       	sbci	r31, 0xFC	; 252
    1d60:	c0 81       	ld	r28, Z
    1d62:	d1 81       	ldd	r29, Z+1	; 0x01
    1d64:	8c 81       	ldd	r24, Y+4	; 0x04
    1d66:	88 23       	and	r24, r24
    1d68:	51 f4       	brne	.+20     	; 0x1d7e
    1d6a:	a0 83       	st	Z, r26
    1d6c:	b1 83       	std	Z+1, r27	; 0x01
    1d6e:	9f 5f       	subi	r25, 0xFF	; 255
    1d70:	89 2f       	mov	r24, r25
    1d72:	65 e0       	ldi	r22, 0x05	; 5
    1d74:	0e 94 91 11 	call	0x2322
    1d78:	90 93 3d 03 	sts	0x033D, r25
    1d7c:	02 c0       	rjmp	.+4      	; 0x1d82
    1d7e:	c0 e0       	ldi	r28, 0x00	; 0
    1d80:	d0 e0       	ldi	r29, 0x00	; 0
    1d82:	2f bf       	out	0x3f, r18	; 63
    1d84:	20 97       	sbiw	r28, 0x00	; 0
    1d86:	29 f0       	breq	.+10     	; 0x1d92
    1d88:	8d e4       	ldi	r24, 0x4D	; 77
    1d8a:	90 e1       	ldi	r25, 0x10	; 16
    1d8c:	0e 94 7d 02 	call	0x4fa
    1d90:	01 c0       	rjmp	.+2      	; 0x1d94
    1d92:	ed 01       	movw	r28, r26
    1d94:	9e 01       	movw	r18, r28
    1d96:	8f b7       	in	r24, 0x3f	; 63
    1d98:	f8 94       	cli
    1d9a:	99 27       	eor	r25, r25
    1d9c:	21 15       	cp	r18, r1
    1d9e:	31 05       	cpc	r19, r1
    1da0:	21 f0       	breq	.+8      	; 0x1daa
    1da2:	30 93 ce 02 	sts	0x02CE, r19
    1da6:	20 93 cd 02 	sts	0x02CD, r18
    1daa:	e0 91 cd 02 	lds	r30, 0x02CD
    1dae:	f0 91 ce 02 	lds	r31, 0x02CE
    1db2:	14 82       	std	Z+4, r1	; 0x04
    1db4:	8f bf       	out	0x3f, r24	; 63
    1db6:	80 ec       	ldi	r24, 0xC0	; 192
    1db8:	8d b9       	out	0x0d, r24	; 13
    1dba:	b8 98       	cbi	0x17, 0	; 23
    1dbc:	0e 94 1c 06 	call	0xc38
    1dc0:	df 91       	pop	r29
    1dc2:	cf 91       	pop	r28
    1dc4:	08 95       	ret

00001dc6 <CC1000RadioIntM$PacketSent>:
    1dc6:	8f b7       	in	r24, 0x3f	; 63
    1dc8:	f8 94       	cli
    1dca:	99 27       	eor	r25, r25
    1dcc:	e0 91 24 03 	lds	r30, 0x0324
    1dd0:	f0 91 25 03 	lds	r31, 0x0325
    1dd4:	17 a2       	std	Z+39, r1	; 0x27
    1dd6:	10 a6       	std	Z+40, r1	; 0x28
    1dd8:	8f bf       	out	0x3f, r24	; 63
    1dda:	80 91 3e 03 	lds	r24, 0x033E
    1dde:	81 ff       	sbrs	r24, 1
    1de0:	05 c0       	rjmp	.+10     	; 0x1dec
    1de2:	87 e9       	ldi	r24, 0x97	; 151
    1de4:	90 e1       	ldi	r25, 0x10	; 16
    1de6:	0e 94 7d 02 	call	0x4fa
    1dea:	0b c0       	rjmp	.+22     	; 0x1e02
    1dec:	8f b7       	in	r24, 0x3f	; 63
    1dee:	f8 94       	cli
    1df0:	99 27       	eor	r25, r25
    1df2:	e0 91 88 02 	lds	r30, 0x0288
    1df6:	f0 91 89 02 	lds	r31, 0x0289
    1dfa:	14 82       	std	Z+4, r1	; 0x04
    1dfc:	10 92 3e 03 	sts	0x033E, r1
    1e00:	8f bf       	out	0x3f, r24	; 63
    1e02:	8f b7       	in	r24, 0x3f	; 63
    1e04:	f8 94       	cli
    1e06:	99 27       	eor	r25, r25
    1e08:	10 92 61 01 	sts	0x0161, r1
    1e0c:	8f bf       	out	0x3f, r24	; 63
    1e0e:	08 95       	ret

00001e10 <TimerM$HandleFire>:
    1e10:	cf 93       	push	r28
    1e12:	df 93       	push	r29
    1e14:	81 e0       	ldi	r24, 0x01	; 1
    1e16:	80 93 fa 02 	sts	0x02FA, r24
    1e1a:	80 91 40 03 	lds	r24, 0x0340
    1e1e:	90 91 41 03 	lds	r25, 0x0341
    1e22:	a0 91 42 03 	lds	r26, 0x0342
    1e26:	b0 91 43 03 	lds	r27, 0x0343
    1e2a:	00 97       	sbiw	r24, 0x00	; 0
    1e2c:	a1 05       	cpc	r26, r1
    1e2e:	b1 05       	cpc	r27, r1
    1e30:	09 f4       	brne	.+2      	; 0x1e34
    1e32:	6d c0       	rjmp	.+218    	; 0x1f0e
    1e34:	fd 01       	movw	r30, r26
    1e36:	ec 01       	movw	r28, r24
    1e38:	80 ff       	sbrs	r24, 0
    1e3a:	69 c0       	rjmp	.+210    	; 0x1f0e
    1e3c:	80 91 0e 03 	lds	r24, 0x030E
    1e40:	99 27       	eor	r25, r25
    1e42:	01 96       	adiw	r24, 0x01	; 1
    1e44:	aa 27       	eor	r26, r26
    1e46:	97 fd       	sbrc	r25, 7
    1e48:	a0 95       	com	r26
    1e4a:	ba 2f       	mov	r27, r26
    1e4c:	20 91 c2 02 	lds	r18, 0x02C2
    1e50:	30 91 c3 02 	lds	r19, 0x02C3
    1e54:	40 91 c4 02 	lds	r20, 0x02C4
    1e58:	50 91 c5 02 	lds	r21, 0x02C5
    1e5c:	28 1b       	sub	r18, r24
    1e5e:	39 0b       	sbc	r19, r25
    1e60:	4a 0b       	sbc	r20, r26
    1e62:	5b 0b       	sbc	r21, r27
    1e64:	20 93 c2 02 	sts	0x02C2, r18
    1e68:	30 93 c3 02 	sts	0x02C3, r19
    1e6c:	40 93 c4 02 	sts	0x02C4, r20
    1e70:	50 93 c5 02 	sts	0x02C5, r21
    1e74:	23 30       	cpi	r18, 0x03	; 3
    1e76:	31 05       	cpc	r19, r1
    1e78:	41 05       	cpc	r20, r1
    1e7a:	51 05       	cpc	r21, r1
    1e7c:	0c f0       	brlt	.+2      	; 0x1e80
    1e7e:	47 c0       	rjmp	.+142    	; 0x1f0e
    1e80:	80 91 bd 02 	lds	r24, 0x02BD
    1e84:	88 23       	and	r24, r24
    1e86:	a9 f4       	brne	.+42     	; 0x1eb2
    1e88:	80 91 be 02 	lds	r24, 0x02BE
    1e8c:	90 91 bf 02 	lds	r25, 0x02BF
    1e90:	a0 91 c0 02 	lds	r26, 0x02C0
    1e94:	b0 91 c1 02 	lds	r27, 0x02C1
    1e98:	28 0f       	add	r18, r24
    1e9a:	39 1f       	adc	r19, r25
    1e9c:	4a 1f       	adc	r20, r26
    1e9e:	5b 1f       	adc	r21, r27
    1ea0:	20 93 c2 02 	sts	0x02C2, r18
    1ea4:	30 93 c3 02 	sts	0x02C3, r19
    1ea8:	40 93 c4 02 	sts	0x02C4, r20
    1eac:	50 93 c5 02 	sts	0x02C5, r21
    1eb0:	14 c0       	rjmp	.+40     	; 0x1eda
    1eb2:	81 e0       	ldi	r24, 0x01	; 1
    1eb4:	90 e0       	ldi	r25, 0x00	; 0
    1eb6:	80 95       	com	r24
    1eb8:	90 95       	com	r25
    1eba:	aa 27       	eor	r26, r26
    1ebc:	97 fd       	sbrc	r25, 7
    1ebe:	a0 95       	com	r26
    1ec0:	ba 2f       	mov	r27, r26
    1ec2:	8c 23       	and	r24, r28
    1ec4:	9d 23       	and	r25, r29
    1ec6:	ae 23       	and	r26, r30
    1ec8:	bf 23       	and	r27, r31
    1eca:	80 93 40 03 	sts	0x0340, r24
    1ece:	90 93 41 03 	sts	0x0341, r25
    1ed2:	a0 93 42 03 	sts	0x0342, r26
    1ed6:	b0 93 43 03 	sts	0x0343, r27
    1eda:	80 91 46 03 	lds	r24, 0x0346
    1ede:	88 23       	and	r24, r24
    1ee0:	19 f4       	brne	.+6      	; 0x1ee8
    1ee2:	8f ef       	ldi	r24, 0xFF	; 255
    1ee4:	80 93 46 03 	sts	0x0346, r24
    1ee8:	90 91 46 03 	lds	r25, 0x0346
    1eec:	9f 5f       	subi	r25, 0xFF	; 255
    1eee:	90 93 46 03 	sts	0x0346, r25
    1ef2:	80 91 4c 02 	lds	r24, 0x024C
    1ef6:	8f 5f       	subi	r24, 0xFF	; 255
    1ef8:	80 93 4c 02 	sts	0x024C, r24
    1efc:	e9 2f       	mov	r30, r25
    1efe:	ff 27       	eor	r31, r31
    1f00:	ee 59       	subi	r30, 0x9E	; 158
    1f02:	fe 4f       	sbci	r31, 0xFE	; 254
    1f04:	10 82       	st	Z, r1
    1f06:	8e ec       	ldi	r24, 0xCE	; 206
    1f08:	90 e1       	ldi	r25, 0x10	; 16
    1f0a:	0e 94 7d 02 	call	0x4fa
    1f0e:	0e 94 04 02 	call	0x408
    1f12:	df 91       	pop	r29
    1f14:	cf 91       	pop	r28
    1f16:	08 95       	ret

00001f18 <HPLPowerManagementM$doAdjustment>:
    1f18:	87 b7       	in	r24, 0x37	; 55
    1f1a:	99 27       	eor	r25, r25
    1f1c:	8c 7f       	andi	r24, 0xFC	; 252
    1f1e:	00 97       	sbiw	r24, 0x00	; 0
    1f20:	19 f0       	breq	.+6      	; 0x1f28
    1f22:	80 e0       	ldi	r24, 0x00	; 0
    1f24:	90 e0       	ldi	r25, 0x00	; 0
    1f26:	1a c0       	rjmp	.+52     	; 0x1f5c
    1f28:	6f 99       	sbic	0x0d, 7	; 13
    1f2a:	18 c0       	rjmp	.+48     	; 0x1f5c
    1f2c:	37 9b       	sbis	0x06, 7	; 6
    1f2e:	03 c0       	rjmp	.+6      	; 0x1f36
    1f30:	88 e0       	ldi	r24, 0x08	; 8
    1f32:	90 e0       	ldi	r25, 0x00	; 0
    1f34:	13 c0       	rjmp	.+38     	; 0x1f5c
    1f36:	87 b7       	in	r24, 0x37	; 55
    1f38:	99 27       	eor	r25, r25
    1f3a:	83 70       	andi	r24, 0x03	; 3
    1f3c:	90 70       	andi	r25, 0x00	; 0
    1f3e:	89 2b       	or	r24, r25
    1f40:	59 f0       	breq	.+22     	; 0x1f58
    1f42:	81 b7       	in	r24, 0x31	; 49
    1f44:	92 b7       	in	r25, 0x32	; 50
    1f46:	89 1b       	sub	r24, r25
    1f48:	80 31       	cpi	r24, 0x10	; 16
    1f4a:	18 f4       	brcc	.+6      	; 0x1f52
    1f4c:	8c e1       	ldi	r24, 0x1C	; 28
    1f4e:	90 e0       	ldi	r25, 0x00	; 0
    1f50:	05 c0       	rjmp	.+10     	; 0x1f5c
    1f52:	88 e1       	ldi	r24, 0x18	; 24
    1f54:	90 e0       	ldi	r25, 0x00	; 0
    1f56:	02 c0       	rjmp	.+4      	; 0x1f5c
    1f58:	80 e1       	ldi	r24, 0x10	; 16
    1f5a:	90 e0       	ldi	r25, 0x00	; 0
    1f5c:	38 2f       	mov	r19, r24
    1f5e:	25 b7       	in	r18, 0x35	; 53
    1f60:	23 7e       	andi	r18, 0xE3	; 227
    1f62:	8c 31       	cpi	r24, 0x1C	; 28
    1f64:	21 f0       	breq	.+8      	; 0x1f6e
    1f66:	88 31       	cpi	r24, 0x18	; 24
    1f68:	11 f0       	breq	.+4      	; 0x1f6e
    1f6a:	08 c0       	rjmp	.+16     	; 0x1f7c
    1f6c:	00 00       	nop
    1f6e:	80 b7       	in	r24, 0x30	; 48
    1f70:	99 27       	eor	r25, r25
    1f72:	87 70       	andi	r24, 0x07	; 7
    1f74:	90 70       	andi	r25, 0x00	; 0
    1f76:	89 2b       	or	r24, r25
    1f78:	c9 f7       	brne	.-14     	; 0x1f6c
    1f7a:	23 7e       	andi	r18, 0xE3	; 227
    1f7c:	23 2b       	or	r18, r19
    1f7e:	25 bf       	out	0x35, r18	; 53
    1f80:	85 b7       	in	r24, 0x35	; 53
    1f82:	80 62       	ori	r24, 0x20	; 32
    1f84:	85 bf       	out	0x35, r24	; 53
    1f86:	08 95       	ret

00001f88 <FramerM$PacketRcvd>:
    1f88:	ef 92       	push	r14
    1f8a:	ff 92       	push	r15
    1f8c:	0f 93       	push	r16
    1f8e:	1f 93       	push	r17
    1f90:	cf 93       	push	r28
    1f92:	df 93       	push	r29
    1f94:	90 91 37 03 	lds	r25, 0x0337
    1f98:	86 e0       	ldi	r24, 0x06	; 6
    1f9a:	98 9f       	mul	r25, r24
    1f9c:	70 01       	movw	r14, r0
    1f9e:	11 24       	eor	r1, r1
    1fa0:	8f e0       	ldi	r24, 0x0F	; 15
    1fa2:	93 e0       	ldi	r25, 0x03	; 3
    1fa4:	e8 0e       	add	r14, r24
    1fa6:	f9 1e       	adc	r15, r25
    1fa8:	f7 01       	movw	r30, r14
    1faa:	c4 81       	ldd	r28, Z+4	; 0x04
    1fac:	d5 81       	ldd	r29, Z+5	; 0x05
    1fae:	82 81       	ldd	r24, Z+2	; 0x02
    1fb0:	93 81       	ldd	r25, Z+3	; 0x03
    1fb2:	05 97       	sbiw	r24, 0x05	; 5
    1fb4:	08 f4       	brcc	.+2      	; 0x1fb8
    1fb6:	56 c0       	rjmp	.+172    	; 0x2064
    1fb8:	20 81       	ld	r18, Z
    1fba:	82 2f       	mov	r24, r18
    1fbc:	99 27       	eor	r25, r25
    1fbe:	81 34       	cpi	r24, 0x41	; 65
    1fc0:	91 05       	cpc	r25, r1
    1fc2:	61 f0       	breq	.+24     	; 0x1fdc
    1fc4:	82 34       	cpi	r24, 0x42	; 66
    1fc6:	91 05       	cpc	r25, r1
    1fc8:	2c f4       	brge	.+10     	; 0x1fd4
    1fca:	80 34       	cpi	r24, 0x40	; 64
    1fcc:	91 05       	cpc	r25, r1
    1fce:	09 f4       	brne	.+2      	; 0x1fd2
    1fd0:	49 c0       	rjmp	.+146    	; 0x2064
    1fd2:	42 c0       	rjmp	.+132    	; 0x2058
    1fd4:	82 34       	cpi	r24, 0x42	; 66
    1fd6:	91 05       	cpc	r25, r1
    1fd8:	d9 f0       	breq	.+54     	; 0x2010
    1fda:	3e c0       	rjmp	.+124    	; 0x2058
    1fdc:	81 e0       	ldi	r24, 0x01	; 1
    1fde:	90 e0       	ldi	r25, 0x00	; 0
    1fe0:	8a a3       	std	Y+34, r24	; 0x22
    1fe2:	9b a3       	std	Y+35, r25	; 0x23
    1fe4:	f7 01       	movw	r30, r14
    1fe6:	21 81       	ldd	r18, Z+1	; 0x01
    1fe8:	8f b7       	in	r24, 0x3f	; 63
    1fea:	f8 94       	cli
    1fec:	90 91 3e 03 	lds	r25, 0x033E
    1ff0:	90 fd       	sbrc	r25, 0
    1ff2:	18 c0       	rjmp	.+48     	; 0x2024
    1ff4:	00 91 88 02 	lds	r16, 0x0288
    1ff8:	10 91 89 02 	lds	r17, 0x0289
    1ffc:	93 60       	ori	r25, 0x03	; 3
    1ffe:	90 93 3e 03 	sts	0x033E, r25
    2002:	d0 93 89 02 	sts	0x0289, r29
    2006:	c0 93 88 02 	sts	0x0288, r28
    200a:	20 93 8e 02 	sts	0x028E, r18
    200e:	18 c0       	rjmp	.+48     	; 0x2040
    2010:	81 e0       	ldi	r24, 0x01	; 1
    2012:	90 e0       	ldi	r25, 0x00	; 0
    2014:	8a a3       	std	Y+34, r24	; 0x22
    2016:	9b a3       	std	Y+35, r25	; 0x23
    2018:	8f b7       	in	r24, 0x3f	; 63
    201a:	f8 94       	cli
    201c:	90 91 3e 03 	lds	r25, 0x033E
    2020:	90 ff       	sbrs	r25, 0
    2022:	03 c0       	rjmp	.+6      	; 0x202a
    2024:	00 e0       	ldi	r16, 0x00	; 0
    2026:	10 e0       	ldi	r17, 0x00	; 0
    2028:	0b c0       	rjmp	.+22     	; 0x2040
    202a:	00 91 88 02 	lds	r16, 0x0288
    202e:	10 91 89 02 	lds	r17, 0x0289
    2032:	91 60       	ori	r25, 0x01	; 1
    2034:	90 93 3e 03 	sts	0x033E, r25
    2038:	d0 93 89 02 	sts	0x0289, r29
    203c:	c0 93 88 02 	sts	0x0288, r28
    2040:	8f bf       	out	0x3f, r24	; 63
    2042:	01 15       	cp	r16, r1
    2044:	11 05       	cpc	r17, r1
    2046:	11 f4       	brne	.+4      	; 0x204c
    2048:	8e 01       	movw	r16, r28
    204a:	04 c0       	rjmp	.+8      	; 0x2054
    204c:	80 ef       	ldi	r24, 0xF0	; 240
    204e:	9c e0       	ldi	r25, 0x0C	; 12
    2050:	0e 94 7d 02 	call	0x4fa
    2054:	e8 01       	movw	r28, r16
    2056:	06 c0       	rjmp	.+12     	; 0x2064
    2058:	20 93 64 01 	sts	0x0164, r18
    205c:	84 e8       	ldi	r24, 0x84	; 132
    205e:	91 e1       	ldi	r25, 0x11	; 17
    2060:	0e 94 7d 02 	call	0x4fa
    2064:	8f b7       	in	r24, 0x3f	; 63
    2066:	f8 94       	cli
    2068:	28 2f       	mov	r18, r24
    206a:	33 27       	eor	r19, r19
    206c:	20 97       	sbiw	r28, 0x00	; 0
    206e:	19 f0       	breq	.+6      	; 0x2076
    2070:	f7 01       	movw	r30, r14
    2072:	c4 83       	std	Z+4, r28	; 0x04
    2074:	d5 83       	std	Z+5, r29	; 0x05
    2076:	f7 01       	movw	r30, r14
    2078:	12 82       	std	Z+2, r1	; 0x02
    207a:	13 82       	std	Z+3, r1	; 0x03
    207c:	11 82       	std	Z+1, r1	; 0x01
    207e:	80 91 37 03 	lds	r24, 0x0337
    2082:	8f 5f       	subi	r24, 0xFF	; 255
    2084:	81 70       	andi	r24, 0x01	; 1
    2086:	80 93 37 03 	sts	0x0337, r24
    208a:	2f bf       	out	0x3f, r18	; 63
    208c:	df 91       	pop	r29
    208e:	cf 91       	pop	r28
    2090:	1f 91       	pop	r17
    2092:	0f 91       	pop	r16
    2094:	ff 90       	pop	r15
    2096:	ef 90       	pop	r14
    2098:	08 95       	ret

0000209a <TOSBaseM$RadioRcvdTask>:
    209a:	cf 93       	push	r28
    209c:	df 93       	push	r29
    209e:	8f b7       	in	r24, 0x3f	; 63
    20a0:	f8 94       	cli
    20a2:	28 2f       	mov	r18, r24
    20a4:	33 27       	eor	r19, r19
    20a6:	80 91 cc 02 	lds	r24, 0x02CC
    20aa:	e8 2f       	mov	r30, r24
    20ac:	ff 27       	eor	r31, r31
    20ae:	ee 0f       	add	r30, r30
    20b0:	ff 1f       	adc	r31, r31
    20b2:	ec 5f       	subi	r30, 0xFC	; 252
    20b4:	fc 4f       	sbci	r31, 0xFC	; 252
    20b6:	c0 81       	ld	r28, Z
    20b8:	d1 81       	ldd	r29, Z+1	; 0x01
    20ba:	8f 5f       	subi	r24, 0xFF	; 255
    20bc:	65 e0       	ldi	r22, 0x05	; 5
    20be:	0e 94 91 11 	call	0x2322
    20c2:	90 93 cc 02 	sts	0x02CC, r25
    20c6:	2f bf       	out	0x3f, r18	; 63
    20c8:	21 e0       	ldi	r18, 0x01	; 1
    20ca:	8f b7       	in	r24, 0x3f	; 63
    20cc:	f8 94       	cli
    20ce:	90 91 49 03 	lds	r25, 0x0349
    20d2:	92 fd       	sbrc	r25, 2
    20d4:	08 c0       	rjmp	.+16     	; 0x20e6
    20d6:	94 60       	ori	r25, 0x04	; 4
    20d8:	90 93 49 03 	sts	0x0349, r25
    20dc:	d0 93 5e 01 	sts	0x015E, r29
    20e0:	c0 93 5d 01 	sts	0x015D, r28
    20e4:	01 c0       	rjmp	.+2      	; 0x20e8
    20e6:	20 e0       	ldi	r18, 0x00	; 0
    20e8:	8f bf       	out	0x3f, r24	; 63
    20ea:	21 30       	cpi	r18, 0x01	; 1
    20ec:	19 f4       	brne	.+6      	; 0x20f4
    20ee:	0e 94 f9 09 	call	0x13f2
    20f2:	28 2f       	mov	r18, r24
    20f4:	21 30       	cpi	r18, 0x01	; 1
    20f6:	11 f0       	breq	.+4      	; 0x20fc
    20f8:	1c 82       	std	Y+4, r1	; 0x04
    20fa:	16 c0       	rjmp	.+44     	; 0x2128
    20fc:	8f b7       	in	r24, 0x3f	; 63
    20fe:	f8 94       	cli
    2100:	38 2f       	mov	r19, r24
    2102:	20 91 23 03 	lds	r18, 0x0323
    2106:	21 ff       	sbrs	r18, 1
    2108:	06 c0       	rjmp	.+12     	; 0x2116
    210a:	8f b7       	in	r24, 0x3f	; 63
    210c:	f8 94       	cli
    210e:	99 27       	eor	r25, r25
    2110:	d9 9a       	sbi	0x1b, 1	; 27
    2112:	2d 7f       	andi	r18, 0xFD	; 253
    2114:	05 c0       	rjmp	.+10     	; 0x2120
    2116:	8f b7       	in	r24, 0x3f	; 63
    2118:	f8 94       	cli
    211a:	99 27       	eor	r25, r25
    211c:	d9 98       	cbi	0x1b, 1	; 27
    211e:	22 60       	ori	r18, 0x02	; 2
    2120:	20 93 23 03 	sts	0x0323, r18
    2124:	8f bf       	out	0x3f, r24	; 63
    2126:	3f bf       	out	0x3f, r19	; 63
    2128:	df 91       	pop	r29
    212a:	cf 91       	pop	r28
    212c:	08 95       	ret

0000212e <TOSBaseM$SendAckTask>:
    212e:	20 91 8e 02 	lds	r18, 0x028E
    2132:	31 e0       	ldi	r19, 0x01	; 1
    2134:	8f b7       	in	r24, 0x3f	; 63
    2136:	f8 94       	cli
    2138:	90 91 49 03 	lds	r25, 0x0349
    213c:	91 fd       	sbrc	r25, 1
    213e:	06 c0       	rjmp	.+12     	; 0x214c
    2140:	92 60       	ori	r25, 0x02	; 2
    2142:	90 93 49 03 	sts	0x0349, r25
    2146:	20 93 02 03 	sts	0x0302, r18
    214a:	01 c0       	rjmp	.+2      	; 0x214e
    214c:	30 e0       	ldi	r19, 0x00	; 0
    214e:	8f bf       	out	0x3f, r24	; 63
    2150:	31 30       	cpi	r19, 0x01	; 1
    2152:	11 f4       	brne	.+4      	; 0x2158
    2154:	0e 94 f9 09 	call	0x13f2
    2158:	8f b7       	in	r24, 0x3f	; 63
    215a:	f8 94       	cli
    215c:	38 2f       	mov	r19, r24
    215e:	20 91 23 03 	lds	r18, 0x0323
    2162:	22 ff       	sbrs	r18, 2
    2164:	06 c0       	rjmp	.+12     	; 0x2172
    2166:	8f b7       	in	r24, 0x3f	; 63
    2168:	f8 94       	cli
    216a:	99 27       	eor	r25, r25
    216c:	d8 9a       	sbi	0x1b, 0	; 27
    216e:	2b 7f       	andi	r18, 0xFB	; 251
    2170:	05 c0       	rjmp	.+10     	; 0x217c
    2172:	8f b7       	in	r24, 0x3f	; 63
    2174:	f8 94       	cli
    2176:	99 27       	eor	r25, r25
    2178:	d8 98       	cbi	0x1b, 0	; 27
    217a:	24 60       	ori	r18, 0x04	; 4
    217c:	20 93 23 03 	sts	0x0323, r18
    2180:	8f bf       	out	0x3f, r24	; 63
    2182:	3f bf       	out	0x3f, r19	; 63
    2184:	8f b7       	in	r24, 0x3f	; 63
    2186:	f8 94       	cli
    2188:	99 27       	eor	r25, r25
    218a:	e0 91 88 02 	lds	r30, 0x0288
    218e:	f0 91 89 02 	lds	r31, 0x0289
    2192:	14 82       	std	Z+4, r1	; 0x04
    2194:	10 92 3e 03 	sts	0x033E, r1
    2198:	8f bf       	out	0x3f, r24	; 63
    219a:	08 95       	ret

0000219c <TimerM$signalOneTimer>:
    219c:	1f 93       	push	r17
    219e:	cf 93       	push	r28
    21a0:	df 93       	push	r29
    21a2:	90 91 4c 02 	lds	r25, 0x024C
    21a6:	99 23       	and	r25, r25
    21a8:	19 f4       	brne	.+6      	; 0x21b0
    21aa:	a1 e0       	ldi	r26, 0x01	; 1
    21ac:	b0 e0       	ldi	r27, 0x00	; 0
    21ae:	16 c0       	rjmp	.+44     	; 0x21dc
    21b0:	80 91 5f 01 	lds	r24, 0x015F
    21b4:	88 23       	and	r24, r24
    21b6:	19 f4       	brne	.+6      	; 0x21be
    21b8:	8f ef       	ldi	r24, 0xFF	; 255
    21ba:	80 93 5f 01 	sts	0x015F, r24
    21be:	80 91 5f 01 	lds	r24, 0x015F
    21c2:	8f 5f       	subi	r24, 0xFF	; 255
    21c4:	80 93 5f 01 	sts	0x015F, r24
    21c8:	91 50       	subi	r25, 0x01	; 1
    21ca:	90 93 4c 02 	sts	0x024C, r25
    21ce:	e8 2f       	mov	r30, r24
    21d0:	ff 27       	eor	r31, r31
    21d2:	ee 59       	subi	r30, 0x9E	; 158
    21d4:	fe 4f       	sbci	r31, 0xFE	; 254
    21d6:	80 81       	ld	r24, Z
    21d8:	a8 2f       	mov	r26, r24
    21da:	bb 27       	eor	r27, r27
    21dc:	aa 23       	and	r26, r26
    21de:	09 f0       	breq	.+2      	; 0x21e2
    21e0:	8f c0       	rjmp	.+286    	; 0x2300
    21e2:	e0 91 03 03 	lds	r30, 0x0303
    21e6:	ee 23       	and	r30, r30
    21e8:	09 f4       	brne	.+2      	; 0x21ec
    21ea:	8a c0       	rjmp	.+276    	; 0x2300
    21ec:	8f b7       	in	r24, 0x3f	; 63
    21ee:	f8 94       	cli
    21f0:	99 27       	eor	r25, r25
    21f2:	20 91 65 01 	lds	r18, 0x0165
    21f6:	10 91 63 01 	lds	r17, 0x0163
    21fa:	8f bf       	out	0x3f, r24	; 63
    21fc:	33 27       	eor	r19, r19
    21fe:	22 30       	cpi	r18, 0x02	; 2
    2200:	31 05       	cpc	r19, r1
    2202:	21 f0       	breq	.+8      	; 0x220c
    2204:	26 30       	cpi	r18, 0x06	; 6
    2206:	31 05       	cpc	r19, r1
    2208:	91 f1       	breq	.+100    	; 0x226e
    220a:	72 c0       	rjmp	.+228    	; 0x22f0
    220c:	8e 2f       	mov	r24, r30
    220e:	99 27       	eor	r25, r25
    2210:	88 0f       	add	r24, r24
    2212:	99 1f       	adc	r25, r25
    2214:	fc 01       	movw	r30, r24
    2216:	ef 55       	subi	r30, 0x5F	; 95
    2218:	ff 4f       	sbci	r31, 0xFF	; 255
    221a:	24 91       	lpm	r18, Z
    221c:	33 27       	eor	r19, r19
    221e:	d2 2f       	mov	r29, r18
    2220:	cc 27       	eor	r28, r28
    2222:	8e 55       	subi	r24, 0x5E	; 94
    2224:	9f 4f       	sbci	r25, 0xFF	; 255
    2226:	fc 01       	movw	r30, r24
    2228:	84 91       	lpm	r24, Z
    222a:	99 27       	eor	r25, r25
    222c:	c8 2b       	or	r28, r24
    222e:	d9 2b       	or	r29, r25
    2230:	11 23       	and	r17, r17
    2232:	09 f0       	breq	.+2      	; 0x2236
    2234:	5d c0       	rjmp	.+186    	; 0x22f0
    2236:	8f b7       	in	r24, 0x3f	; 63
    2238:	f8 94       	cli
    223a:	28 2f       	mov	r18, r24
    223c:	33 27       	eor	r19, r19
    223e:	86 e0       	ldi	r24, 0x06	; 6
    2240:	80 93 65 01 	sts	0x0165, r24
    2244:	2f bf       	out	0x3f, r18	; 63
    2246:	ce 01       	movw	r24, r28
    2248:	aa 27       	eor	r26, r26
    224a:	bb 27       	eor	r27, r27
    224c:	9c 01       	movw	r18, r24
    224e:	ad 01       	movw	r20, r26
    2250:	61 e0       	ldi	r22, 0x01	; 1
    2252:	81 2f       	mov	r24, r17
    2254:	0e 94 2e 06 	call	0xc5c
    2258:	61 2f       	mov	r22, r17
    225a:	8b e0       	ldi	r24, 0x0B	; 11
    225c:	0e 94 78 05 	call	0xaf0
    2260:	6f e3       	ldi	r22, 0x3F	; 63
    2262:	81 2f       	mov	r24, r17
    2264:	0e 94 78 05 	call	0xaf0
    2268:	0e 94 df 0a 	call	0x15be
    226c:	49 c0       	rjmp	.+146    	; 0x2300
    226e:	ff 27       	eor	r31, r31
    2270:	e1 55       	subi	r30, 0x51	; 81
    2272:	ff 4f       	sbci	r31, 0xFF	; 255
    2274:	84 91       	lpm	r24, Z
    2276:	c8 2f       	mov	r28, r24
    2278:	dd 27       	eor	r29, r29
    227a:	8f b7       	in	r24, 0x3f	; 63
    227c:	f8 94       	cli
    227e:	28 2f       	mov	r18, r24
    2280:	33 27       	eor	r19, r19
    2282:	82 e0       	ldi	r24, 0x02	; 2
    2284:	80 93 65 01 	sts	0x0165, r24
    2288:	2f bf       	out	0x3f, r18	; 63
    228a:	6b e3       	ldi	r22, 0x3B	; 59
    228c:	8a 2f       	mov	r24, r26
    228e:	0e 94 78 05 	call	0xaf0
    2292:	80 ed       	ldi	r24, 0xD0	; 208
    2294:	97 e0       	ldi	r25, 0x07	; 7
    2296:	00 00       	nop
    2298:	00 00       	nop
    229a:	00 00       	nop
    229c:	00 00       	nop
    229e:	00 00       	nop
    22a0:	00 00       	nop
    22a2:	00 00       	nop
    22a4:	00 00       	nop
    22a6:	01 97       	sbiw	r24, 0x01	; 1
    22a8:	18 16       	cp	r1, r24
    22aa:	19 06       	cpc	r1, r25
    22ac:	a4 f3       	brlt	.-24     	; 0x2296
    22ae:	69 e3       	ldi	r22, 0x39	; 57
    22b0:	80 e0       	ldi	r24, 0x00	; 0
    22b2:	0e 94 78 05 	call	0xaf0
    22b6:	88 ec       	ldi	r24, 0xC8	; 200
    22b8:	90 e0       	ldi	r25, 0x00	; 0
    22ba:	00 00       	nop
    22bc:	00 00       	nop
    22be:	00 00       	nop
    22c0:	00 00       	nop
    22c2:	00 00       	nop
    22c4:	00 00       	nop
    22c6:	00 00       	nop
    22c8:	00 00       	nop
    22ca:	01 97       	sbiw	r24, 0x01	; 1
    22cc:	18 16       	cp	r1, r24
    22ce:	19 06       	cpc	r1, r25
    22d0:	a4 f3       	brlt	.-24     	; 0x22ba
    22d2:	bb 98       	cbi	0x17, 3	; 23
    22d4:	ba 98       	cbi	0x17, 2	; 23
    22d6:	0e 94 fd 05 	call	0xbfa
    22da:	80 ec       	ldi	r24, 0xC0	; 192
    22dc:	8d b9       	out	0x0d, r24	; 13
    22de:	b8 98       	cbi	0x17, 0	; 23
    22e0:	0e 94 1c 06 	call	0xc38
    22e4:	ce 01       	movw	r24, r28
    22e6:	aa 27       	eor	r26, r26
    22e8:	bb 27       	eor	r27, r27
    22ea:	9c 01       	movw	r18, r24
    22ec:	ad 01       	movw	r20, r26
    22ee:	04 c0       	rjmp	.+8      	; 0x22f8
    22f0:	20 e2       	ldi	r18, 0x20	; 32
    22f2:	30 e0       	ldi	r19, 0x00	; 0
    22f4:	40 e0       	ldi	r20, 0x00	; 0
    22f6:	50 e0       	ldi	r21, 0x00	; 0
    22f8:	61 e0       	ldi	r22, 0x01	; 1
    22fa:	80 e0       	ldi	r24, 0x00	; 0
    22fc:	0e 94 2e 06 	call	0xc5c
    2300:	df 91       	pop	r29
    2302:	cf 91       	pop	r28
    2304:	1f 91       	pop	r17
    2306:	08 95       	ret

00002308 <FramerM$PacketUnknown>:
    2308:	8f b7       	in	r24, 0x3f	; 63
    230a:	f8 94       	cli
    230c:	28 2f       	mov	r18, r24
    230e:	33 27       	eor	r19, r19
    2310:	80 91 49 03 	lds	r24, 0x0349
    2314:	88 60       	ori	r24, 0x08	; 8
    2316:	80 93 49 03 	sts	0x0349, r24
    231a:	2f bf       	out	0x3f, r18	; 63
    231c:	0e 94 f9 09 	call	0x13f2
    2320:	08 95       	ret

00002322 <__udivmodqi4>:
    2322:	99 1b       	sub	r25, r25
    2324:	79 e0       	ldi	r23, 0x09	; 9
    2326:	04 c0       	rjmp	.+8      	; 0x2330

00002328 <__udivmodqi4_loop>:
    2328:	99 1f       	adc	r25, r25
    232a:	96 17       	cp	r25, r22
    232c:	08 f0       	brcs	.+2      	; 0x2330
    232e:	96 1b       	sub	r25, r22

00002330 <__udivmodqi4_ep>:
    2330:	88 1f       	adc	r24, r24
    2332:	7a 95       	dec	r23
    2334:	c9 f7       	brne	.-14     	; 0x2328
    2336:	80 95       	com	r24
    2338:	08 95       	ret
