
main.exe:     file format elf32-avr

Disassembly of section .text:

00000000 <__vectors>:
       0:	0c 94 30 01 	jmp	0x260
       4:	0c 94 50 01 	jmp	0x2a0
       8:	0c 94 50 01 	jmp	0x2a0
       c:	0c 94 50 01 	jmp	0x2a0
      10:	0c 94 50 01 	jmp	0x2a0
      14:	0c 94 50 01 	jmp	0x2a0
      18:	0c 94 50 01 	jmp	0x2a0
      1c:	0c 94 50 01 	jmp	0x2a0
      20:	0c 94 50 01 	jmp	0x2a0
      24:	0c 94 be 0b 	jmp	0x177c
      28:	0c 94 50 01 	jmp	0x2a0
      2c:	0c 94 50 01 	jmp	0x2a0
      30:	0c 94 50 01 	jmp	0x2a0
      34:	0c 94 50 01 	jmp	0x2a0
      38:	0c 94 50 01 	jmp	0x2a0
      3c:	0c 94 31 14 	jmp	0x2862
      40:	0c 94 50 01 	jmp	0x2a0
      44:	0c 94 74 01 	jmp	0x2e8
      48:	0c 94 9f 01 	jmp	0x33e
      4c:	0c 94 50 01 	jmp	0x2a0
      50:	0c 94 c9 01 	jmp	0x392
      54:	0c 94 50 01 	jmp	0x2a0
      58:	0c 94 50 01 	jmp	0x2a0
      5c:	0c 94 50 01 	jmp	0x2a0

00000060 <__ctors_end>:
      60:	00 00       	nop
      62:	21 10       	cpse	r2, r1
      64:	42 20       	and	r4, r2
      66:	63 30       	cpi	r22, 0x03	; 3
      68:	84 40       	sbci	r24, 0x04	; 4
      6a:	a5 50       	subi	r26, 0x05	; 5
      6c:	c6 60       	ori	r28, 0x06	; 6
      6e:	e7 70       	andi	r30, 0x07	; 7
      70:	08 81       	ld	r16, Y
      72:	29 91       	ld	r18, Y+
      74:	4a a1       	ldd	r20, Y+34	; 0x22
      76:	6b b1       	in	r22, 0x0b	; 11
      78:	8c c1       	rjmp	.+792    	; 0x392
      7a:	ad d1       	rcall	.+858    	; 0x3d6
      7c:	ce e1       	ldi	r28, 0x1E	; 30
      7e:	ef f1       	brie	.+122    	; 0xfa
      80:	31 12       	cpse	r3, r17
      82:	10 02       	muls	r17, r16
      84:	73 32       	cpi	r23, 0x23	; 35
      86:	52 22       	and	r5, r18
      88:	b5 52       	subi	r27, 0x25	; 37
      8a:	94 42       	sbci	r25, 0x24	; 36
      8c:	f7 72       	andi	r31, 0x27	; 39
      8e:	d6 62       	ori	r29, 0x26	; 38
      90:	39 93       	st	Y+, r19
      92:	18 83       	st	Y, r17
      94:	7b b3       	in	r23, 0x1b	; 27
      96:	5a a3       	std	Y+34, r21	; 0x22
      98:	bd d3       	rcall	.+1914   	; 0x814
      9a:	9c c3       	rjmp	.+1848   	; 0x7d4
      9c:	ff f3       	brie	.-2      	; 0x9c
      9e:	de e3       	ldi	r29, 0x3E	; 62
      a0:	62 24       	eor	r6, r2
      a2:	43 34       	cpi	r20, 0x43	; 67
      a4:	20 04       	cpc	r2, r0
      a6:	01 14       	cp	r0, r1
      a8:	e6 64       	ori	r30, 0x46	; 70
      aa:	c7 74       	andi	r28, 0x47	; 71
      ac:	a4 44       	sbci	r26, 0x44	; 68
      ae:	85 54       	subi	r24, 0x45	; 69
      b0:	6a a5       	ldd	r22, Y+42	; 0x2a
      b2:	4b b5       	in	r20, 0x2b	; 43
      b4:	28 85       	ldd	r18, Y+8	; 0x08
      b6:	09 95       	icall
      b8:	ee e5       	ldi	r30, 0x5E	; 94
      ba:	cf f5       	brid	.+114    	; 0x12e
      bc:	ac c5       	rjmp	.+2904   	; 0xc16
      be:	8d d5       	rcall	.+2842   	; 0xbda
      c0:	53 36       	cpi	r21, 0x63	; 99
      c2:	72 26       	eor	r7, r18
      c4:	11 16       	cp	r1, r17
      c6:	30 06       	cpc	r3, r16
      c8:	d7 76       	andi	r29, 0x67	; 103
      ca:	f6 66       	ori	r31, 0x66	; 102
      cc:	95 56       	subi	r25, 0x65	; 101
      ce:	b4 46       	sbci	r27, 0x64	; 100
      d0:	5b b7       	in	r21, 0x3b	; 59
      d2:	7a a7       	std	Y+42, r23	; 0x2a
      d4:	19 97       	sbiw	r26, 0x09	; 9
      d6:	38 87       	std	Y+8, r19	; 0x08
      d8:	df f7       	brid	.-10     	; 0xd0
      da:	fe e7       	ldi	r31, 0x7E	; 126
      dc:	9d d7       	rcall	.+3898   	; 0x1018
      de:	bc c7       	rjmp	.+3960   	; 0x1058
      e0:	c4 48       	sbci	r28, 0x84	; 132
      e2:	e5 58       	subi	r30, 0x85	; 133
      e4:	86 68       	ori	r24, 0x86	; 134
      e6:	a7 78       	andi	r26, 0x87	; 135
      e8:	40 08       	sbc	r4, r0
      ea:	61 18       	sub	r6, r1
      ec:	02 28       	or	r0, r2
      ee:	23 38       	cpi	r18, 0x83	; 131
      f0:	cc c9       	rjmp	.-3176   	; 0xfffff48a
      f2:	ed d9       	rcall	.-3110   	; 0xfffff4ce
      f4:	8e e9       	ldi	r24, 0x9E	; 158
      f6:	af f9       	.word	0xf9af	; ????
      f8:	48 89       	ldd	r20, Y+16	; 0x10
      fa:	69 99       	sbic	0x0d, 1	; 13
      fc:	0a a9       	ldd	r16, Y+50	; 0x32
      fe:	2b b9       	out	0x0b, r18	; 11
     100:	f5 5a       	subi	r31, 0xA5	; 165
     102:	d4 4a       	sbci	r29, 0xA4	; 164
     104:	b7 7a       	andi	r27, 0xA7	; 167
     106:	96 6a       	ori	r25, 0xA6	; 166
     108:	71 1a       	sub	r7, r17
     10a:	50 0a       	sbc	r5, r16
     10c:	33 3a       	cpi	r19, 0xA3	; 163
     10e:	12 2a       	or	r1, r18
     110:	fd db       	rcall	.-2054   	; 0xfffff90c
     112:	dc cb       	rjmp	.-2120   	; 0xfffff8cc
     114:	bf fb       	.word	0xfbbf	; ????
     116:	9e eb       	ldi	r25, 0xBE	; 190
     118:	79 9b       	sbis	0x0f, 1	; 15
     11a:	58 8b       	std	Y+16, r21	; 0x10
     11c:	3b bb       	out	0x1b, r19	; 27
     11e:	1a ab       	std	Y+50, r17	; 0x32
     120:	a6 6c       	ori	r26, 0xC6	; 198
     122:	87 7c       	andi	r24, 0xC7	; 199
     124:	e4 4c       	sbci	r30, 0xC4	; 196
     126:	c5 5c       	subi	r28, 0xC5	; 197
     128:	22 2c       	mov	r2, r2
     12a:	03 3c       	cpi	r16, 0xC3	; 195
     12c:	60 0c       	add	r6, r0
     12e:	41 1c       	adc	r4, r1
     130:	ae ed       	ldi	r26, 0xDE	; 222
     132:	8f fd       	.word	0xfd8f	; ????
     134:	ec cd       	rjmp	.-1064   	; 0xfffffd0e
     136:	cd dd       	rcall	.-1126   	; 0xfffffcd2
     138:	2a ad       	ldd	r18, Y+58	; 0x3a
     13a:	0b bd       	out	0x2b, r16	; 43
     13c:	68 8d       	ldd	r22, Y+24	; 0x18
     13e:	49 9d       	mul	r20, r9
     140:	97 7e       	andi	r25, 0xE7	; 231
     142:	b6 6e       	ori	r27, 0xE6	; 230
     144:	d5 5e       	subi	r29, 0xE5	; 229
     146:	f4 4e       	sbci	r31, 0xE4	; 228
     148:	13 3e       	cpi	r17, 0xE3	; 227
     14a:	32 2e       	mov	r3, r18
     14c:	51 1e       	adc	r5, r17
     14e:	70 0e       	add	r7, r16
     150:	9f ff       	.word	0xff9f	; ????
     152:	be ef       	ldi	r27, 0xFE	; 254
     154:	dd df       	rcall	.-70     	; 0x110
     156:	fc cf       	rjmp	.-8      	; 0x150
     158:	1b bf       	out	0x3b, r17	; 59
     15a:	3a af       	std	Y+58, r19	; 0x3a
     15c:	59 9f       	mul	r21, r25
     15e:	78 8f       	std	Y+24, r23	; 0x18
     160:	88 91       	.word	0x9188	; ????
     162:	a9 81       	ldd	r26, Y+1	; 0x01
     164:	ca b1       	in	r28, 0x0a	; 10
     166:	eb a1       	ldd	r30, Y+35	; 0x23
     168:	0c d1       	rcall	.+536    	; 0x382
     16a:	2d c1       	rjmp	.+602    	; 0x3c6
     16c:	4e f1       	brts	.+82     	; 0x1c0
     16e:	6f e1       	ldi	r22, 0x1F	; 31
     170:	80 10       	cpse	r8, r0
     172:	a1 00       	.word	0x00a1	; ????
     174:	c2 30       	cpi	r28, 0x02	; 2
     176:	e3 20       	and	r14, r3
     178:	04 50       	subi	r16, 0x04	; 4
     17a:	25 40       	sbci	r18, 0x05	; 5
     17c:	46 70       	andi	r20, 0x06	; 6
     17e:	67 60       	ori	r22, 0x07	; 7
     180:	b9 83       	std	Y+1, r27	; 0x01
     182:	98 93       	.word	0x9398	; ????
     184:	fb a3       	std	Y+35, r31	; 0x23
     186:	da b3       	in	r29, 0x1a	; 26
     188:	3d c3       	rjmp	.+1658   	; 0x804
     18a:	1c d3       	rcall	.+1592   	; 0x7c4
     18c:	7f e3       	ldi	r23, 0x3F	; 63
     18e:	5e f3       	brts	.-42     	; 0x166
     190:	b1 02       	muls	r27, r17
     192:	90 12       	cpse	r9, r16
     194:	f3 22       	and	r15, r19
     196:	d2 32       	cpi	r29, 0x22	; 34
     198:	35 42       	sbci	r19, 0x25	; 37
     19a:	14 52       	subi	r17, 0x24	; 36
     19c:	77 62       	ori	r23, 0x27	; 39
     19e:	56 72       	andi	r21, 0x26	; 38
     1a0:	ea b5       	in	r30, 0x2a	; 42
     1a2:	cb a5       	ldd	r28, Y+43	; 0x2b
     1a4:	a8 95       	wdr
     1a6:	89 85       	ldd	r24, Y+9	; 0x09
     1a8:	6e f5       	brtc	.+90     	; 0x204
     1aa:	4f e5       	ldi	r20, 0x5F	; 95
     1ac:	2c d5       	rcall	.+2648   	; 0xc06
     1ae:	0d c5       	rjmp	.+2586   	; 0xbca
     1b0:	e2 34       	cpi	r30, 0x42	; 66
     1b2:	c3 24       	eor	r12, r3
     1b4:	a0 14       	cp	r10, r0
     1b6:	81 04       	cpc	r8, r1
     1b8:	66 74       	andi	r22, 0x46	; 70
     1ba:	47 64       	ori	r20, 0x47	; 71
     1bc:	24 54       	subi	r18, 0x44	; 68
     1be:	05 44       	sbci	r16, 0x45	; 69
     1c0:	db a7       	std	Y+43, r29	; 0x2b
     1c2:	fa b7       	in	r31, 0x3a	; 58
     1c4:	99 87       	std	Y+9, r25	; 0x09
     1c6:	b8 97       	sbiw	r30, 0x28	; 40
     1c8:	5f e7       	ldi	r21, 0x7F	; 127
     1ca:	7e f7       	brtc	.-34     	; 0x1aa
     1cc:	1d c7       	rjmp	.+3642   	; 0x1008
     1ce:	3c d7       	rcall	.+3704   	; 0x1048
     1d0:	d3 26       	eor	r13, r19
     1d2:	f2 36       	cpi	r31, 0x62	; 98
     1d4:	91 06       	cpc	r9, r17
     1d6:	b0 16       	cp	r11, r16
     1d8:	57 66       	ori	r21, 0x67	; 103
     1da:	76 76       	andi	r23, 0x66	; 102
     1dc:	15 46       	sbci	r17, 0x65	; 101
     1de:	34 56       	subi	r19, 0x64	; 100
     1e0:	4c d9       	rcall	.-3432   	; 0xfffff47a
     1e2:	6d c9       	rjmp	.-3366   	; 0xfffff4be
     1e4:	0e f9       	.word	0xf90e	; ????
     1e6:	2f e9       	ldi	r18, 0x9F	; 159
     1e8:	c8 99       	sbic	0x19, 0	; 25
     1ea:	e9 89       	ldd	r30, Y+17	; 0x11
     1ec:	8a b9       	out	0x0a, r24	; 10
     1ee:	ab a9       	ldd	r26, Y+51	; 0x33
     1f0:	44 58       	subi	r20, 0x84	; 132
     1f2:	65 48       	sbci	r22, 0x85	; 133
     1f4:	06 78       	andi	r16, 0x86	; 134
     1f6:	27 68       	ori	r18, 0x87	; 135
     1f8:	c0 18       	sub	r12, r0
     1fa:	e1 08       	sbc	r14, r1
     1fc:	82 38       	cpi	r24, 0x82	; 130
     1fe:	a3 28       	or	r10, r3
     200:	7d cb       	rjmp	.-2310   	; 0xfffff8fc
     202:	5c db       	rcall	.-2376   	; 0xfffff8bc
     204:	3f eb       	ldi	r19, 0xBF	; 191
     206:	1e fb       	.word	0xfb1e	; ????
     208:	f9 8b       	std	Y+17, r31	; 0x11
     20a:	d8 9b       	sbis	0x1b, 0	; 27
     20c:	bb ab       	std	Y+51, r27	; 0x33
     20e:	9a bb       	out	0x1a, r25	; 26
     210:	75 4a       	sbci	r23, 0xA5	; 165
     212:	54 5a       	subi	r21, 0xA4	; 164
     214:	37 6a       	ori	r19, 0xA7	; 167
     216:	16 7a       	andi	r17, 0xA6	; 166
     218:	f1 0a       	sbc	r15, r17
     21a:	d0 1a       	sub	r13, r16
     21c:	b3 2a       	or	r11, r19
     21e:	92 3a       	cpi	r25, 0xA2	; 162
     220:	2e fd       	.word	0xfd2e	; ????
     222:	0f ed       	ldi	r16, 0xDF	; 223
     224:	6c dd       	rcall	.-1320   	; 0xfffffcfe
     226:	4d cd       	rjmp	.-1382   	; 0xfffffcc2
     228:	aa bd       	out	0x2a, r26	; 42
     22a:	8b ad       	ldd	r24, Y+59	; 0x3b
     22c:	e8 9d       	mul	r30, r8
     22e:	c9 8d       	ldd	r28, Y+25	; 0x19
     230:	26 7c       	andi	r18, 0xC6	; 198
     232:	07 6c       	ori	r16, 0xC7	; 199
     234:	64 5c       	subi	r22, 0xC4	; 196
     236:	45 4c       	sbci	r20, 0xC5	; 197
     238:	a2 3c       	cpi	r26, 0xC2	; 194
     23a:	83 2c       	mov	r8, r3
     23c:	e0 1c       	adc	r14, r0
     23e:	c1 0c       	add	r12, r1
     240:	1f ef       	ldi	r17, 0xFF	; 255
     242:	3e ff       	.word	0xff3e	; ????
     244:	5d cf       	rjmp	.-326    	; 0x100
     246:	7c df       	rcall	.-264    	; 0x140
     248:	9b af       	std	Y+59, r25	; 0x3b
     24a:	ba bf       	out	0x3a, r27	; 58
     24c:	d9 8f       	std	Y+25, r29	; 0x19
     24e:	f8 9f       	mul	r31, r24
     250:	17 6e       	ori	r17, 0xE7	; 231
     252:	36 7e       	andi	r19, 0xE6	; 230
     254:	55 4e       	sbci	r21, 0xE5	; 229
     256:	74 5e       	subi	r23, 0xE4	; 228
     258:	93 2e       	mov	r9, r19
     25a:	b2 3e       	cpi	r27, 0xE2	; 226
     25c:	d1 0e       	add	r13, r17
     25e:	f0 1e       	adc	r15, r16

00000260 <__init>:
     260:	11 24       	eor	r1, r1
     262:	1f be       	out	0x3f, r1	; 63
     264:	cf ef       	ldi	r28, 0xFF	; 255
     266:	df e0       	ldi	r29, 0x0F	; 15
     268:	de bf       	out	0x3e, r29	; 62
     26a:	cd bf       	out	0x3d, r28	; 61

0000026c <__do_copy_data>:
     26c:	10 e0       	ldi	r17, 0x00	; 0
     26e:	a0 e6       	ldi	r26, 0x60	; 96
     270:	b0 e0       	ldi	r27, 0x00	; 0
     272:	ea e3       	ldi	r30, 0x3A	; 58
     274:	f1 e3       	ldi	r31, 0x31	; 49
     276:	0f ef       	ldi	r16, 0xFF	; 255

00000278 <.__do_copy_data_carry>:
     278:	03 95       	inc	r16
     27a:	0b bf       	out	0x3b, r16	; 59
     27c:	04 c0       	rjmp	.+8      	; 0x286

0000027e <.__do_copy_data_loop>:
     27e:	d8 95       	elpm
     280:	0d 92       	st	X+, r0
     282:	31 96       	adiw	r30, 0x01	; 1
     284:	c8 f3       	brcs	.-14     	; 0x278

00000286 <.__do_copy_data_start>:
     286:	a0 37       	cpi	r26, 0x70	; 112
     288:	b1 07       	cpc	r27, r17
     28a:	c9 f7       	brne	.-14     	; 0x27e

0000028c <__do_clear_bss>:
     28c:	11 e0       	ldi	r17, 0x01	; 1
     28e:	a0 e7       	ldi	r26, 0x70	; 112
     290:	b0 e0       	ldi	r27, 0x00	; 0
     292:	01 c0       	rjmp	.+2      	; 0x296

00000294 <.do_clear_bss_loop>:
     294:	1d 92       	st	X+, r1

00000296 <.do_clear_bss_start>:
     296:	a5 3f       	cpi	r26, 0xF5	; 245
     298:	b1 07       	cpc	r27, r17
     29a:	e1 f7       	brne	.-8      	; 0x294
     29c:	0c 94 1d 03 	jmp	0x63a

000002a0 <__bad_interrupt>:
     2a0:	0c 94 00 00 	jmp	0x0

000002a4 <IdentC$clearIdentity>:
     2a4:	80 e0       	ldi	r24, 0x00	; 0
     2a6:	0e 94 b9 04 	call	0x972
     2aa:	10 92 cc 01 	sts	0x01CC, r1
     2ae:	08 95       	ret

000002b0 <IdentC$setIdentity>:
     2b0:	2f e0       	ldi	r18, 0x0F	; 15
     2b2:	ac e8       	ldi	r26, 0x8C	; 140
     2b4:	b1 e0       	ldi	r27, 0x01	; 1
     2b6:	f9 2f       	mov	r31, r25
     2b8:	e8 2f       	mov	r30, r24
     2ba:	01 90       	ld	r0, Z+
     2bc:	0d 92       	st	X+, r0
     2be:	2a 95       	dec	r18
     2c0:	e1 f7       	brne	.-8      	; 0x2ba
     2c2:	81 e0       	ldi	r24, 0x01	; 1
     2c4:	80 93 cc 01 	sts	0x01CC, r24
     2c8:	10 92 e4 00 	sts	0x00E4, r1
     2cc:	10 92 d0 00 	sts	0x00D0, r1
     2d0:	80 e0       	ldi	r24, 0x00	; 0
     2d2:	0e 94 b9 04 	call	0x972
     2d6:	80 e0       	ldi	r24, 0x00	; 0
     2d8:	28 ee       	ldi	r18, 0xE8	; 232
     2da:	33 e0       	ldi	r19, 0x03	; 3
     2dc:	40 e0       	ldi	r20, 0x00	; 0
     2de:	50 e0       	ldi	r21, 0x00	; 0
     2e0:	68 2f       	mov	r22, r24
     2e2:	0e 94 b9 06 	call	0xd72
     2e6:	08 95       	ret

000002e8 <__vector_17>:
     2e8:	1f 92       	push	r1
     2ea:	0f 92       	push	r0
     2ec:	0f b6       	in	r0, 0x3f	; 63
     2ee:	0f 92       	push	r0
     2f0:	11 24       	eor	r1, r1
     2f2:	2f 93       	push	r18
     2f4:	3f 93       	push	r19
     2f6:	4f 93       	push	r20
     2f8:	5f 93       	push	r21
     2fa:	6f 93       	push	r22
     2fc:	7f 93       	push	r23
     2fe:	8f 93       	push	r24
     300:	9f 93       	push	r25
     302:	af 93       	push	r26
     304:	bf 93       	push	r27
     306:	ef 93       	push	r30
     308:	ff 93       	push	r31
     30a:	8f b1       	in	r24, 0x0f	; 15
     30c:	90 91 f2 01 	lds	r25, 0x01F2
     310:	9f b9       	out	0x0f, r25	; 15
     312:	92 e0       	ldi	r25, 0x02	; 2
     314:	90 93 cf 00 	sts	0x00CF, r25
     318:	0e 94 37 0e 	call	0x1c6e
     31c:	ff 91       	pop	r31
     31e:	ef 91       	pop	r30
     320:	bf 91       	pop	r27
     322:	af 91       	pop	r26
     324:	9f 91       	pop	r25
     326:	8f 91       	pop	r24
     328:	7f 91       	pop	r23
     32a:	6f 91       	pop	r22
     32c:	5f 91       	pop	r21
     32e:	4f 91       	pop	r20
     330:	3f 91       	pop	r19
     332:	2f 91       	pop	r18
     334:	0f 90       	pop	r0
     336:	0f be       	out	0x3f, r0	; 63
     338:	0f 90       	pop	r0
     33a:	1f 90       	pop	r1
     33c:	18 95       	reti

0000033e <__vector_18>:
     33e:	1f 92       	push	r1
     340:	0f 92       	push	r0
     342:	0f b6       	in	r0, 0x3f	; 63
     344:	0f 92       	push	r0
     346:	11 24       	eor	r1, r1
     348:	2f 93       	push	r18
     34a:	3f 93       	push	r19
     34c:	4f 93       	push	r20
     34e:	5f 93       	push	r21
     350:	6f 93       	push	r22
     352:	7f 93       	push	r23
     354:	8f 93       	push	r24
     356:	9f 93       	push	r25
     358:	af 93       	push	r26
     35a:	bf 93       	push	r27
     35c:	ef 93       	push	r30
     35e:	ff 93       	push	r31
     360:	5f 9b       	sbis	0x0b, 7	; 11
     362:	06 c0       	rjmp	.+12     	; 0x370
     364:	8c b1       	in	r24, 0x0c	; 12
     366:	40 e0       	ldi	r20, 0x00	; 0
     368:	50 e0       	ldi	r21, 0x00	; 0
     36a:	60 e0       	ldi	r22, 0x00	; 0
     36c:	0e 94 e5 10 	call	0x21ca
     370:	ff 91       	pop	r31
     372:	ef 91       	pop	r30
     374:	bf 91       	pop	r27
     376:	af 91       	pop	r26
     378:	9f 91       	pop	r25
     37a:	8f 91       	pop	r24
     37c:	7f 91       	pop	r23
     37e:	6f 91       	pop	r22
     380:	5f 91       	pop	r21
     382:	4f 91       	pop	r20
     384:	3f 91       	pop	r19
     386:	2f 91       	pop	r18
     388:	0f 90       	pop	r0
     38a:	0f be       	out	0x3f, r0	; 63
     38c:	0f 90       	pop	r0
     38e:	1f 90       	pop	r1
     390:	18 95       	reti

00000392 <__vector_20>:
     392:	78 94       	sei
     394:	1f 92       	push	r1
     396:	0f 92       	push	r0
     398:	0f b6       	in	r0, 0x3f	; 63
     39a:	0f 92       	push	r0
     39c:	11 24       	eor	r1, r1
     39e:	2f 93       	push	r18
     3a0:	3f 93       	push	r19
     3a2:	4f 93       	push	r20
     3a4:	5f 93       	push	r21
     3a6:	6f 93       	push	r22
     3a8:	7f 93       	push	r23
     3aa:	8f 93       	push	r24
     3ac:	9f 93       	push	r25
     3ae:	af 93       	push	r26
     3b0:	bf 93       	push	r27
     3b2:	ef 93       	push	r30
     3b4:	ff 93       	push	r31
     3b6:	0e 94 67 13 	call	0x26ce
     3ba:	ff 91       	pop	r31
     3bc:	ef 91       	pop	r30
     3be:	bf 91       	pop	r27
     3c0:	af 91       	pop	r26
     3c2:	9f 91       	pop	r25
     3c4:	8f 91       	pop	r24
     3c6:	7f 91       	pop	r23
     3c8:	6f 91       	pop	r22
     3ca:	5f 91       	pop	r21
     3cc:	4f 91       	pop	r20
     3ce:	3f 91       	pop	r19
     3d0:	2f 91       	pop	r18
     3d2:	0f 90       	pop	r0
     3d4:	0f be       	out	0x3f, r0	; 63
     3d6:	0f 90       	pop	r0
     3d8:	1f 90       	pop	r1
     3da:	18 95       	reti

000003dc <TimerM$adjustInterval>:
     3dc:	af 92       	push	r10
     3de:	bf 92       	push	r11
     3e0:	cf 92       	push	r12
     3e2:	df 92       	push	r13
     3e4:	ef 92       	push	r14
     3e6:	ff 92       	push	r15
     3e8:	0f 93       	push	r16
     3ea:	1f 93       	push	r17
     3ec:	cf 93       	push	r28
     3ee:	df 93       	push	r29
     3f0:	86 ee       	ldi	r24, 0xE6	; 230
     3f2:	f8 2e       	mov	r15, r24
     3f4:	a0 90 e4 01 	lds	r10, 0x01E4
     3f8:	b0 90 e5 01 	lds	r11, 0x01E5
     3fc:	c0 90 e6 01 	lds	r12, 0x01E6
     400:	d0 90 e7 01 	lds	r13, 0x01E7
     404:	a1 14       	cp	r10, r1
     406:	b1 04       	cpc	r11, r1
     408:	c1 04       	cpc	r12, r1
     40a:	d1 04       	cpc	r13, r1
     40c:	89 f1       	breq	.+98     	; 0x470
     40e:	ee 24       	eor	r14, r14
     410:	60 e2       	ldi	r22, 0x20	; 32
     412:	71 e0       	ldi	r23, 0x01	; 1
     414:	00 e0       	ldi	r16, 0x00	; 0
     416:	10 e0       	ldi	r17, 0x00	; 0
     418:	81 e0       	ldi	r24, 0x01	; 1
     41a:	90 e0       	ldi	r25, 0x00	; 0
     41c:	00 2e       	mov	r0, r16
     41e:	02 c0       	rjmp	.+4      	; 0x424
     420:	88 0f       	add	r24, r24
     422:	99 1f       	adc	r25, r25
     424:	0a 94       	dec	r0
     426:	e2 f7       	brpl	.-8      	; 0x420
     428:	aa 27       	eor	r26, r26
     42a:	97 fd       	sbrc	r25, 7
     42c:	a0 95       	com	r26
     42e:	ba 2f       	mov	r27, r26
     430:	8a 21       	and	r24, r10
     432:	9b 21       	and	r25, r11
     434:	ac 21       	and	r26, r12
     436:	bd 21       	and	r27, r13
     438:	00 97       	sbiw	r24, 0x00	; 0
     43a:	a1 05       	cpc	r26, r1
     43c:	b1 05       	cpc	r27, r1
     43e:	81 f0       	breq	.+32     	; 0x460
     440:	2f 2d       	mov	r18, r15
     442:	33 27       	eor	r19, r19
     444:	44 27       	eor	r20, r20
     446:	55 27       	eor	r21, r21
     448:	f7 2f       	mov	r31, r23
     44a:	e6 2f       	mov	r30, r22
     44c:	85 81       	ldd	r24, Z+5	; 0x05
     44e:	96 81       	ldd	r25, Z+6	; 0x06
     450:	a7 81       	ldd	r26, Z+7	; 0x07
     452:	b0 85       	ldd	r27, Z+8	; 0x08
     454:	82 17       	cp	r24, r18
     456:	93 07       	cpc	r25, r19
     458:	a4 07       	cpc	r26, r20
     45a:	b5 07       	cpc	r27, r21
     45c:	0c f4       	brge	.+2      	; 0x460
     45e:	f5 80       	ldd	r15, Z+5	; 0x05
     460:	e3 94       	inc	r14
     462:	0f 5f       	subi	r16, 0xFF	; 255
     464:	1f 4f       	sbci	r17, 0xFF	; 255
     466:	67 5f       	subi	r22, 0xF7	; 247
     468:	7f 4f       	sbci	r23, 0xFF	; 255
     46a:	f1 e0       	ldi	r31, 0x01	; 1
     46c:	fe 15       	cp	r31, r14
     46e:	a0 f6       	brcc	.-88     	; 0x418
     470:	8f b7       	in	r24, 0x3f	; 63
     472:	f8 94       	cli
     474:	99 27       	eor	r25, r25
     476:	f0 92 b8 01 	sts	0x01B8, r15
     47a:	f1 be       	out	0x31, r15	; 49
     47c:	10 92 3d 01 	sts	0x013D, r1
     480:	8f bf       	out	0x3f, r24	; 63
     482:	0e 94 2c 07 	call	0xe58
     486:	df 91       	pop	r29
     488:	cf 91       	pop	r28
     48a:	1f 91       	pop	r17
     48c:	0f 91       	pop	r16
     48e:	ff 90       	pop	r15
     490:	ef 90       	pop	r14
     492:	df 90       	pop	r13
     494:	cf 90       	pop	r12
     496:	bf 90       	pop	r11
     498:	af 90       	pop	r10
     49a:	08 95       	ret

0000049c <IdentC$adaptBroadcastPeriod>:
     49c:	ef 92       	push	r14
     49e:	ff 92       	push	r15
     4a0:	0f 93       	push	r16
     4a2:	1f 93       	push	r17
     4a4:	20 91 3e 01 	lds	r18, 0x013E
     4a8:	30 91 3f 01 	lds	r19, 0x013F
     4ac:	80 91 cb 00 	lds	r24, 0x00CB
     4b0:	90 91 cc 00 	lds	r25, 0x00CC
     4b4:	aa 27       	eor	r26, r26
     4b6:	bb 27       	eor	r27, r27
     4b8:	55 e0       	ldi	r21, 0x05	; 5
     4ba:	b6 95       	lsr	r27
     4bc:	a7 95       	ror	r26
     4be:	97 95       	ror	r25
     4c0:	87 95       	ror	r24
     4c2:	5a 95       	dec	r21
     4c4:	d1 f7       	brne	.-12     	; 0x4ba
     4c6:	41 e0       	ldi	r20, 0x01	; 1
     4c8:	81 30       	cpi	r24, 0x01	; 1
     4ca:	94 07       	cpc	r25, r20
     4cc:	b8 f0       	brcs	.+46     	; 0x4fc
     4ce:	82 2f       	mov	r24, r18
     4d0:	93 2f       	mov	r25, r19
     4d2:	aa 27       	eor	r26, r26
     4d4:	bb 27       	eor	r27, r27
     4d6:	20 e4       	ldi	r18, 0x40	; 64
     4d8:	31 e0       	ldi	r19, 0x01	; 1
     4da:	40 e0       	ldi	r20, 0x00	; 0
     4dc:	50 e0       	ldi	r21, 0x00	; 0
     4de:	68 2f       	mov	r22, r24
     4e0:	79 2f       	mov	r23, r25
     4e2:	8a 2f       	mov	r24, r26
     4e4:	9b 2f       	mov	r25, r27
     4e6:	0e 94 5b 18 	call	0x30b6
     4ea:	b9 2f       	mov	r27, r25
     4ec:	a8 2f       	mov	r26, r24
     4ee:	97 2f       	mov	r25, r23
     4f0:	86 2f       	mov	r24, r22
     4f2:	89 2f       	mov	r24, r25
     4f4:	9a 2f       	mov	r25, r26
     4f6:	ab 2f       	mov	r26, r27
     4f8:	bb 27       	eor	r27, r27
     4fa:	31 c0       	rjmp	.+98     	; 0x55e
     4fc:	80 38       	cpi	r24, 0x80	; 128
     4fe:	91 05       	cpc	r25, r1
     500:	80 f5       	brcc	.+96     	; 0x562
     502:	e2 2e       	mov	r14, r18
     504:	f3 2e       	mov	r15, r19
     506:	00 27       	eor	r16, r16
     508:	11 27       	eor	r17, r17
     50a:	51 2f       	mov	r21, r17
     50c:	40 2f       	mov	r20, r16
     50e:	3f 2d       	mov	r19, r15
     510:	2e 2d       	mov	r18, r14
     512:	63 e0       	ldi	r22, 0x03	; 3
     514:	70 e0       	ldi	r23, 0x00	; 0
     516:	80 e0       	ldi	r24, 0x00	; 0
     518:	90 e0       	ldi	r25, 0x00	; 0
     51a:	0e 94 5b 18 	call	0x30b6
     51e:	b9 2f       	mov	r27, r25
     520:	a8 2f       	mov	r26, r24
     522:	97 2f       	mov	r25, r23
     524:	86 2f       	mov	r24, r22
     526:	89 2f       	mov	r24, r25
     528:	9a 2f       	mov	r25, r26
     52a:	ab 2f       	mov	r26, r27
     52c:	bb 27       	eor	r27, r27
     52e:	80 50       	subi	r24, 0x00	; 0
     530:	9f 4f       	sbci	r25, 0xFF	; 255
     532:	50 2f       	mov	r21, r16
     534:	4f 2d       	mov	r20, r15
     536:	3e 2d       	mov	r19, r14
     538:	22 27       	eor	r18, r18
     53a:	e8 2e       	mov	r14, r24
     53c:	f9 2e       	mov	r15, r25
     53e:	00 27       	eor	r16, r16
     540:	11 27       	eor	r17, r17
     542:	95 2f       	mov	r25, r21
     544:	84 2f       	mov	r24, r20
     546:	73 2f       	mov	r23, r19
     548:	62 2f       	mov	r22, r18
     54a:	51 2f       	mov	r21, r17
     54c:	40 2f       	mov	r20, r16
     54e:	3f 2d       	mov	r19, r15
     550:	2e 2d       	mov	r18, r14
     552:	0e 94 76 18 	call	0x30ec
     556:	b5 2f       	mov	r27, r21
     558:	a4 2f       	mov	r26, r20
     55a:	93 2f       	mov	r25, r19
     55c:	82 2f       	mov	r24, r18
     55e:	28 2f       	mov	r18, r24
     560:	39 2f       	mov	r19, r25
     562:	8a e0       	ldi	r24, 0x0A	; 10
     564:	20 30       	cpi	r18, 0x00	; 0
     566:	38 07       	cpc	r19, r24
     568:	18 f4       	brcc	.+6      	; 0x570
     56a:	80 e0       	ldi	r24, 0x00	; 0
     56c:	9a e0       	ldi	r25, 0x0A	; 10
     56e:	06 c0       	rjmp	.+12     	; 0x57c
     570:	4c e3       	ldi	r20, 0x3C	; 60
     572:	21 30       	cpi	r18, 0x01	; 1
     574:	34 07       	cpc	r19, r20
     576:	38 f0       	brcs	.+14     	; 0x586
     578:	80 e0       	ldi	r24, 0x00	; 0
     57a:	9c e3       	ldi	r25, 0x3C	; 60
     57c:	90 93 3f 01 	sts	0x013F, r25
     580:	80 93 3e 01 	sts	0x013E, r24
     584:	04 c0       	rjmp	.+8      	; 0x58e
     586:	30 93 3f 01 	sts	0x013F, r19
     58a:	20 93 3e 01 	sts	0x013E, r18
     58e:	1f 91       	pop	r17
     590:	0f 91       	pop	r16
     592:	ff 90       	pop	r15
     594:	ef 90       	pop	r14
     596:	08 95       	ret

00000598 <IdentC$updateMsgRate>:
     598:	80 91 cb 00 	lds	r24, 0x00CB
     59c:	90 91 cc 00 	lds	r25, 0x00CC
     5a0:	aa 27       	eor	r26, r26
     5a2:	bb 27       	eor	r27, r27
     5a4:	28 ef       	ldi	r18, 0xF8	; 248
     5a6:	30 e0       	ldi	r19, 0x00	; 0
     5a8:	40 e0       	ldi	r20, 0x00	; 0
     5aa:	50 e0       	ldi	r21, 0x00	; 0
     5ac:	68 2f       	mov	r22, r24
     5ae:	79 2f       	mov	r23, r25
     5b0:	8a 2f       	mov	r24, r26
     5b2:	9b 2f       	mov	r25, r27
     5b4:	0e 94 5b 18 	call	0x30b6
     5b8:	b9 2f       	mov	r27, r25
     5ba:	a8 2f       	mov	r26, r24
     5bc:	97 2f       	mov	r25, r23
     5be:	86 2f       	mov	r24, r22
     5c0:	89 2f       	mov	r24, r25
     5c2:	9a 2f       	mov	r25, r26
     5c4:	ab 2f       	mov	r26, r27
     5c6:	bb 27       	eor	r27, r27
     5c8:	28 2f       	mov	r18, r24
     5ca:	39 2f       	mov	r19, r25
     5cc:	80 91 d0 00 	lds	r24, 0x00D0
     5d0:	99 27       	eor	r25, r25
     5d2:	98 2f       	mov	r25, r24
     5d4:	88 27       	eor	r24, r24
     5d6:	28 0f       	add	r18, r24
     5d8:	39 1f       	adc	r19, r25
     5da:	30 93 cc 00 	sts	0x00CC, r19
     5de:	20 93 cb 00 	sts	0x00CB, r18
     5e2:	10 92 d0 00 	sts	0x00D0, r1
     5e6:	08 95       	ret

000005e8 <TOS_post>:
     5e8:	48 2f       	mov	r20, r24
     5ea:	59 2f       	mov	r21, r25
     5ec:	8f b7       	in	r24, 0x3f	; 63
     5ee:	f8 94       	cli
     5f0:	28 2f       	mov	r18, r24
     5f2:	33 27       	eor	r19, r19
     5f4:	e0 91 39 01 	lds	r30, 0x0139
     5f8:	80 91 39 01 	lds	r24, 0x0139
     5fc:	8f 5f       	subi	r24, 0xFF	; 255
     5fe:	80 93 39 01 	sts	0x0139, r24
     602:	80 91 39 01 	lds	r24, 0x0139
     606:	87 70       	andi	r24, 0x07	; 7
     608:	80 93 39 01 	sts	0x0139, r24
     60c:	90 91 39 01 	lds	r25, 0x0139
     610:	80 91 17 01 	lds	r24, 0x0117
     614:	98 17       	cp	r25, r24
     616:	59 f0       	breq	.+22     	; 0x62e
     618:	2f bf       	out	0x3f, r18	; 63
     61a:	ff 27       	eor	r31, r31
     61c:	ee 0f       	add	r30, r30
     61e:	ff 1f       	adc	r31, r31
     620:	e9 50       	subi	r30, 0x09	; 9
     622:	ff 4f       	sbci	r31, 0xFF	; 255
     624:	40 83       	st	Z, r20
     626:	51 83       	std	Z+1, r21	; 0x01
     628:	81 e0       	ldi	r24, 0x01	; 1
     62a:	90 e0       	ldi	r25, 0x00	; 0
     62c:	08 95       	ret
     62e:	e0 93 39 01 	sts	0x0139, r30
     632:	2f bf       	out	0x3f, r18	; 63
     634:	80 e0       	ldi	r24, 0x00	; 0
     636:	90 e0       	ldi	r25, 0x00	; 0
     638:	08 95       	ret

0000063a <main>:
     63a:	cf ef       	ldi	r28, 0xFF	; 255
     63c:	df e0       	ldi	r29, 0x0F	; 15
     63e:	de bf       	out	0x3e, r29	; 62
     640:	cd bf       	out	0x3d, r28	; 61
     642:	1a ba       	out	0x1a, r1	; 26
     644:	17 ba       	out	0x17, r1	; 23
     646:	11 ba       	out	0x11, r1	; 17
     648:	82 e0       	ldi	r24, 0x02	; 2
     64a:	82 b9       	out	0x02, r24	; 2
     64c:	83 b9       	out	0x03, r24	; 3
     64e:	d2 9a       	sbi	0x1a, 2	; 26
     650:	d0 9a       	sbi	0x1a, 0	; 26
     652:	d1 9a       	sbi	0x1a, 1	; 26
     654:	8d 9a       	sbi	0x11, 5	; 17
     656:	17 9a       	sbi	0x02, 7	; 2
     658:	8f 9a       	sbi	0x11, 7	; 17
     65a:	8e 9a       	sbi	0x11, 6	; 17
     65c:	bb 9a       	sbi	0x17, 3	; 23
     65e:	1f 9a       	sbi	0x03, 7	; 3
     660:	b8 98       	cbi	0x17, 0	; 23
     662:	da 9a       	sbi	0x1b, 2	; 27
     664:	d8 9a       	sbi	0x1b, 0	; 27
     666:	d9 9a       	sbi	0x1b, 1	; 27
     668:	14 9a       	sbi	0x02, 4	; 2
     66a:	1c 9a       	sbi	0x03, 4	; 3
     66c:	15 98       	cbi	0x02, 5	; 2
     66e:	1d 9a       	sbi	0x03, 5	; 3
     670:	8a e0       	ldi	r24, 0x0A	; 10
     672:	0e 94 a0 04 	call	0x940
     676:	10 92 39 01 	sts	0x0139, r1
     67a:	10 92 17 01 	sts	0x0117, r1
     67e:	8f b7       	in	r24, 0x3f	; 63
     680:	f8 94       	cli
     682:	99 27       	eor	r25, r25
     684:	10 92 d0 01 	sts	0x01D0, r1
     688:	da 9a       	sbi	0x1b, 2	; 27
     68a:	d8 9a       	sbi	0x1b, 0	; 27
     68c:	d9 9a       	sbi	0x1b, 1	; 27
     68e:	8f bf       	out	0x3f, r24	; 63
     690:	81 e5       	ldi	r24, 0x51	; 81
     692:	0e 94 a0 04 	call	0x940
     696:	10 92 ef 01 	sts	0x01EF, r1
     69a:	10 92 ee 01 	sts	0x01EE, r1
     69e:	8f b7       	in	r24, 0x3f	; 63
     6a0:	f8 94       	cli
     6a2:	28 2f       	mov	r18, r24
     6a4:	33 27       	eor	r19, r19
     6a6:	d8 9a       	sbi	0x1b, 0	; 27
     6a8:	80 91 d0 01 	lds	r24, 0x01D0
     6ac:	8b 7f       	andi	r24, 0xFB	; 251
     6ae:	80 93 d0 01 	sts	0x01D0, r24
     6b2:	2f bf       	out	0x3f, r18	; 63
     6b4:	0e 94 52 01 	call	0x2a4
     6b8:	10 92 34 01 	sts	0x0134, r1
     6bc:	80 e0       	ldi	r24, 0x00	; 0
     6be:	9a e0       	ldi	r25, 0x0A	; 10
     6c0:	90 93 3f 01 	sts	0x013F, r25
     6c4:	80 93 3e 01 	sts	0x013E, r24
     6c8:	60 e0       	ldi	r22, 0x00	; 0
     6ca:	70 e0       	ldi	r23, 0x00	; 0
     6cc:	81 e0       	ldi	r24, 0x01	; 1
     6ce:	90 e0       	ldi	r25, 0x00	; 0
     6d0:	20 e0       	ldi	r18, 0x00	; 0
     6d2:	3a e0       	ldi	r19, 0x0A	; 10
     6d4:	40 e0       	ldi	r20, 0x00	; 0
     6d6:	50 e0       	ldi	r21, 0x00	; 0
     6d8:	0e 94 76 18 	call	0x30ec
     6dc:	b5 2f       	mov	r27, r21
     6de:	a4 2f       	mov	r26, r20
     6e0:	93 2f       	mov	r25, r19
     6e2:	82 2f       	mov	r24, r18
     6e4:	aa 27       	eor	r26, r26
     6e6:	bb 27       	eor	r27, r27
     6e8:	ba 2f       	mov	r27, r26
     6ea:	a9 2f       	mov	r26, r25
     6ec:	98 2f       	mov	r25, r24
     6ee:	88 27       	eor	r24, r24
     6f0:	68 2f       	mov	r22, r24
     6f2:	79 2f       	mov	r23, r25
     6f4:	8a 2f       	mov	r24, r26
     6f6:	9b 2f       	mov	r25, r27
     6f8:	28 e0       	ldi	r18, 0x08	; 8
     6fa:	30 e0       	ldi	r19, 0x00	; 0
     6fc:	40 e0       	ldi	r20, 0x00	; 0
     6fe:	50 e0       	ldi	r21, 0x00	; 0
     700:	0e 94 76 18 	call	0x30ec
     704:	30 93 cc 00 	sts	0x00CC, r19
     708:	20 93 cb 00 	sts	0x00CB, r18
     70c:	0e 94 05 05 	call	0xa0a
     710:	0e 94 34 05 	call	0xa68
     714:	8f b7       	in	r24, 0x3f	; 63
     716:	f8 94       	cli
     718:	99 27       	eor	r25, r25
     71a:	10 92 56 01 	sts	0x0156, r1
     71e:	8f bf       	out	0x3f, r24	; 63
     720:	8f b7       	in	r24, 0x3f	; 63
     722:	f8 94       	cli
     724:	28 2f       	mov	r18, r24
     726:	33 27       	eor	r19, r19
     728:	88 e5       	ldi	r24, 0x58	; 88
     72a:	91 e0       	ldi	r25, 0x01	; 1
     72c:	90 93 3b 01 	sts	0x013B, r25
     730:	80 93 3a 01 	sts	0x013A, r24
     734:	10 92 e8 00 	sts	0x00E8, r1
     738:	10 92 32 01 	sts	0x0132, r1
     73c:	2f bf       	out	0x3f, r18	; 63
     73e:	8f b7       	in	r24, 0x3f	; 63
     740:	f8 94       	cli
     742:	28 2f       	mov	r18, r24
     744:	33 27       	eor	r19, r19
     746:	8f ef       	ldi	r24, 0xFF	; 255
     748:	9f ef       	ldi	r25, 0xFF	; 255
     74a:	90 93 09 01 	sts	0x0109, r25
     74e:	80 93 08 01 	sts	0x0108, r24
     752:	2f bf       	out	0x3f, r18	; 63
     754:	0e 94 7a 05 	call	0xaf4
     758:	8f b7       	in	r24, 0x3f	; 63
     75a:	f8 94       	cli
     75c:	e8 2f       	mov	r30, r24
     75e:	ff 27       	eor	r31, r31
     760:	20 91 60 00 	lds	r18, 0x0060
     764:	30 91 61 00 	lds	r19, 0x0061
     768:	93 2f       	mov	r25, r19
     76a:	82 2f       	mov	r24, r18
     76c:	61 e5       	ldi	r22, 0x51	; 81
     76e:	77 e3       	ldi	r23, 0x37	; 55
     770:	0e 94 49 18 	call	0x3092
     774:	8f 5a       	subi	r24, 0xAF	; 175
     776:	98 4c       	sbci	r25, 0xC8	; 200
     778:	90 93 c8 01 	sts	0x01C8, r25
     77c:	80 93 c7 01 	sts	0x01C7, r24
     780:	90 93 ed 01 	sts	0x01ED, r25
     784:	80 93 ec 01 	sts	0x01EC, r24
     788:	93 2f       	mov	r25, r19
     78a:	82 2f       	mov	r24, r18
     78c:	65 e8       	ldi	r22, 0x85	; 133
     78e:	7f e0       	ldi	r23, 0x0F	; 15
     790:	0e 94 49 18 	call	0x3092
     794:	8b 57       	subi	r24, 0x7B	; 123
     796:	90 4f       	sbci	r25, 0xF0	; 240
     798:	90 93 e2 00 	sts	0x00E2, r25
     79c:	80 93 e1 00 	sts	0x00E1, r24
     7a0:	ef bf       	out	0x3f, r30	; 63
     7a2:	10 92 e3 01 	sts	0x01E3, r1
     7a6:	10 92 dd 01 	sts	0x01DD, r1
     7aa:	10 92 dc 01 	sts	0x01DC, r1
     7ae:	10 92 1c 01 	sts	0x011C, r1
     7b2:	10 92 1b 01 	sts	0x011B, r1
     7b6:	00 e1       	ldi	r16, 0x10	; 16
     7b8:	10 e0       	ldi	r17, 0x00	; 0
     7ba:	10 93 ca 01 	sts	0x01CA, r17
     7be:	00 93 c9 01 	sts	0x01C9, r16
     7c2:	10 93 b4 01 	sts	0x01B4, r17
     7c6:	00 93 b3 01 	sts	0x01B3, r16
     7ca:	10 92 41 01 	sts	0x0141, r1
     7ce:	10 92 ef 00 	sts	0x00EF, r1
     7d2:	10 92 e9 00 	sts	0x00E9, r1
     7d6:	10 92 e5 00 	sts	0x00E5, r1
     7da:	c1 e0       	ldi	r28, 0x01	; 1
     7dc:	c0 93 57 01 	sts	0x0157, r28
     7e0:	80 e0       	ldi	r24, 0x00	; 0
     7e2:	98 e0       	ldi	r25, 0x08	; 8
     7e4:	90 93 11 01 	sts	0x0111, r25
     7e8:	80 93 10 01 	sts	0x0110, r24
     7ec:	90 93 0e 01 	sts	0x010E, r25
     7f0:	80 93 0d 01 	sts	0x010D, r24
     7f4:	80 91 12 01 	lds	r24, 0x0112
     7f8:	90 91 0f 01 	lds	r25, 0x010F
     7fc:	82 60       	ori	r24, 0x02	; 2
     7fe:	92 60       	ori	r25, 0x02	; 2
     800:	82 7e       	andi	r24, 0xE2	; 226
     802:	80 93 12 01 	sts	0x0112, r24
     806:	92 7e       	andi	r25, 0xE2	; 226
     808:	90 93 0f 01 	sts	0x010F, r25
     80c:	db 98       	cbi	0x1b, 3	; 27
     80e:	d3 9a       	sbi	0x1a, 3	; 26
     810:	df 9a       	sbi	0x1b, 7	; 27
     812:	d7 9a       	sbi	0x1a, 7	; 26
     814:	de 98       	cbi	0x1b, 6	; 27
     816:	d6 98       	cbi	0x1a, 6	; 26
     818:	8f b7       	in	r24, 0x3f	; 63
     81a:	f8 94       	cli
     81c:	99 27       	eor	r25, r25
     81e:	c0 93 37 01 	sts	0x0137, r28
     822:	10 92 16 01 	sts	0x0116, r1
     826:	8f bf       	out	0x3f, r24	; 63
     828:	15 9a       	sbi	0x02, 5	; 2
     82a:	1d 9a       	sbi	0x03, 5	; 3
     82c:	0e 94 05 05 	call	0xa0a
     830:	10 92 d9 00 	sts	0x00D9, r1
     834:	c0 93 ea 01 	sts	0x01EA, r28
     838:	26 e4       	ldi	r18, 0x46	; 70
     83a:	31 e0       	ldi	r19, 0x01	; 1
     83c:	10 93 b4 01 	sts	0x01B4, r17
     840:	00 93 b3 01 	sts	0x01B3, r16
     844:	80 91 41 01 	lds	r24, 0x0141
     848:	88 23       	and	r24, r24
     84a:	19 f0       	breq	.+6      	; 0x852
     84c:	80 e0       	ldi	r24, 0x00	; 0
     84e:	90 e0       	ldi	r25, 0x00	; 0
     850:	0e c0       	rjmp	.+28     	; 0x86e
     852:	c0 93 41 01 	sts	0x0141, r28
     856:	30 93 af 01 	sts	0x01AF, r19
     85a:	20 93 ae 01 	sts	0x01AE, r18
     85e:	40 e0       	ldi	r20, 0x00	; 0
     860:	50 e0       	ldi	r21, 0x00	; 0
     862:	61 e0       	ldi	r22, 0x01	; 1
     864:	70 e0       	ldi	r23, 0x00	; 0
     866:	8c 2f       	mov	r24, r28
     868:	0e 94 9a 05 	call	0xb34
     86c:	99 27       	eor	r25, r25
     86e:	99 27       	eor	r25, r25
     870:	88 23       	and	r24, r24
     872:	11 f4       	brne	.+4      	; 0x878
     874:	80 93 ea 01 	sts	0x01EA, r24
     878:	80 91 cc 01 	lds	r24, 0x01CC
     87c:	88 23       	and	r24, r24
     87e:	41 f0       	breq	.+16     	; 0x890
     880:	28 ee       	ldi	r18, 0xE8	; 232
     882:	33 e0       	ldi	r19, 0x03	; 3
     884:	40 e0       	ldi	r20, 0x00	; 0
     886:	50 e0       	ldi	r21, 0x00	; 0
     888:	60 e0       	ldi	r22, 0x00	; 0
     88a:	86 2f       	mov	r24, r22
     88c:	0e 94 b9 06 	call	0xd72
     890:	0e 94 34 05 	call	0xa68
     894:	8c e0       	ldi	r24, 0x0C	; 12
     896:	89 b9       	out	0x09, r24	; 9
     898:	8c b1       	in	r24, 0x0c	; 12
     89a:	88 ed       	ldi	r24, 0xD8	; 216
     89c:	8a b9       	out	0x0a, r24	; 10
     89e:	18 9a       	sbi	0x03, 0	; 3
     8a0:	8f b7       	in	r24, 0x3f	; 63
     8a2:	f8 94       	cli
     8a4:	08 2f       	mov	r16, r24
     8a6:	11 27       	eor	r17, r17
     8a8:	80 91 32 01 	lds	r24, 0x0132
     8ac:	89 30       	cpi	r24, 0x09	; 9
     8ae:	41 f4       	brne	.+16     	; 0x8c0
     8b0:	10 92 32 01 	sts	0x0132, r1
     8b4:	10 92 e8 00 	sts	0x00E8, r1
     8b8:	0e 94 2c 07 	call	0xe58
     8bc:	0e 94 7a 05 	call	0xaf4
     8c0:	0f bf       	out	0x3f, r16	; 63
     8c2:	28 ee       	ldi	r18, 0xE8	; 232
     8c4:	33 e0       	ldi	r19, 0x03	; 3
     8c6:	40 e0       	ldi	r20, 0x00	; 0
     8c8:	50 e0       	ldi	r21, 0x00	; 0
     8ca:	60 e0       	ldi	r22, 0x00	; 0
     8cc:	81 e0       	ldi	r24, 0x01	; 1
     8ce:	0e 94 b9 06 	call	0xd72
     8d2:	10 92 e3 01 	sts	0x01E3, r1
     8d6:	0e 94 2c 07 	call	0xe58
     8da:	78 94       	sei
     8dc:	90 91 17 01 	lds	r25, 0x0117
     8e0:	80 91 39 01 	lds	r24, 0x0139
     8e4:	98 17       	cp	r25, r24
     8e6:	19 f4       	brne	.+6      	; 0x8ee
     8e8:	80 e0       	ldi	r24, 0x00	; 0
     8ea:	90 e0       	ldi	r25, 0x00	; 0
     8ec:	20 c0       	rjmp	.+64     	; 0x92e
     8ee:	8f b7       	in	r24, 0x3f	; 63
     8f0:	f8 94       	cli
     8f2:	28 2f       	mov	r18, r24
     8f4:	33 27       	eor	r19, r19
     8f6:	90 91 17 01 	lds	r25, 0x0117
     8fa:	80 91 17 01 	lds	r24, 0x0117
     8fe:	8f 5f       	subi	r24, 0xFF	; 255
     900:	80 93 17 01 	sts	0x0117, r24
     904:	80 91 17 01 	lds	r24, 0x0117
     908:	87 70       	andi	r24, 0x07	; 7
     90a:	80 93 17 01 	sts	0x0117, r24
     90e:	e9 2f       	mov	r30, r25
     910:	ff 27       	eor	r31, r31
     912:	ee 0f       	add	r30, r30
     914:	ff 1f       	adc	r31, r31
     916:	e9 50       	subi	r30, 0x09	; 9
     918:	ff 4f       	sbci	r31, 0xFF	; 255
     91a:	80 81       	ld	r24, Z
     91c:	91 81       	ldd	r25, Z+1	; 0x01
     91e:	10 82       	st	Z, r1
     920:	11 82       	std	Z+1, r1	; 0x01
     922:	2f bf       	out	0x3f, r18	; 63
     924:	e8 2f       	mov	r30, r24
     926:	f9 2f       	mov	r31, r25
     928:	09 95       	icall
     92a:	81 e0       	ldi	r24, 0x01	; 1
     92c:	90 e0       	ldi	r25, 0x00	; 0
     92e:	88 23       	and	r24, r24
     930:	a9 f6       	brne	.-86     	; 0x8dc
     932:	85 b7       	in	r24, 0x35	; 53
     934:	80 62       	ori	r24, 0x20	; 32
     936:	85 bf       	out	0x35, r24	; 53
     938:	88 95       	sleep
     93a:	00 00       	nop
     93c:	00 00       	nop
     93e:	ce cf       	rjmp	.-100    	; 0x8dc

00000940 <PotM$setPot>:
     940:	90 e0       	ldi	r25, 0x00	; 0
     942:	d9 9a       	sbi	0x1b, 1	; 27
     944:	95 98       	cbi	0x12, 5	; 18
     946:	da 9a       	sbi	0x1b, 2	; 27
     948:	da 98       	cbi	0x1b, 2	; 27
     94a:	95 9a       	sbi	0x12, 5	; 18
     94c:	9f 5f       	subi	r25, 0xFF	; 255
     94e:	97 39       	cpi	r25, 0x97	; 151
     950:	c0 f3       	brcs	.-16     	; 0x942
     952:	90 e0       	ldi	r25, 0x00	; 0
     954:	98 17       	cp	r25, r24
     956:	40 f4       	brcc	.+16     	; 0x968
     958:	d9 98       	cbi	0x1b, 1	; 27
     95a:	95 98       	cbi	0x12, 5	; 18
     95c:	da 9a       	sbi	0x1b, 2	; 27
     95e:	da 98       	cbi	0x1b, 2	; 27
     960:	95 9a       	sbi	0x12, 5	; 18
     962:	9f 5f       	subi	r25, 0xFF	; 255
     964:	98 17       	cp	r25, r24
     966:	c0 f3       	brcs	.-16     	; 0x958
     968:	d9 9a       	sbi	0x1b, 1	; 27
     96a:	da 9a       	sbi	0x1b, 2	; 27
     96c:	80 93 e0 00 	sts	0x00E0, r24
     970:	08 95       	ret

00000972 <TimerM$Timer$stop>:
     972:	cf 93       	push	r28
     974:	df 93       	push	r29
     976:	82 30       	cpi	r24, 0x02	; 2
     978:	08 f0       	brcs	.+2      	; 0x97c
     97a:	42 c0       	rjmp	.+132    	; 0xa00
     97c:	61 e0       	ldi	r22, 0x01	; 1
     97e:	70 e0       	ldi	r23, 0x00	; 0
     980:	46 2f       	mov	r20, r22
     982:	57 2f       	mov	r21, r23
     984:	02 c0       	rjmp	.+4      	; 0x98a
     986:	44 0f       	add	r20, r20
     988:	55 1f       	adc	r21, r21
     98a:	8a 95       	dec	r24
     98c:	e2 f7       	brpl	.-8      	; 0x986
     98e:	84 2f       	mov	r24, r20
     990:	95 2f       	mov	r25, r21
     992:	aa 27       	eor	r26, r26
     994:	97 fd       	sbrc	r25, 7
     996:	a0 95       	com	r26
     998:	ba 2f       	mov	r27, r26
     99a:	c0 91 e4 01 	lds	r28, 0x01E4
     99e:	d0 91 e5 01 	lds	r29, 0x01E5
     9a2:	e0 91 e6 01 	lds	r30, 0x01E6
     9a6:	f0 91 e7 01 	lds	r31, 0x01E7
     9aa:	8c 23       	and	r24, r28
     9ac:	9d 23       	and	r25, r29
     9ae:	ae 23       	and	r26, r30
     9b0:	bf 23       	and	r27, r31
     9b2:	00 97       	sbiw	r24, 0x00	; 0
     9b4:	a1 05       	cpc	r26, r1
     9b6:	b1 05       	cpc	r27, r1
     9b8:	19 f1       	breq	.+70     	; 0xa00
     9ba:	8f b7       	in	r24, 0x3f	; 63
     9bc:	f8 94       	cli
     9be:	28 2f       	mov	r18, r24
     9c0:	33 27       	eor	r19, r19
     9c2:	40 95       	com	r20
     9c4:	50 95       	com	r21
     9c6:	84 2f       	mov	r24, r20
     9c8:	95 2f       	mov	r25, r21
     9ca:	aa 27       	eor	r26, r26
     9cc:	97 fd       	sbrc	r25, 7
     9ce:	a0 95       	com	r26
     9d0:	ba 2f       	mov	r27, r26
     9d2:	8c 23       	and	r24, r28
     9d4:	9d 23       	and	r25, r29
     9d6:	ae 23       	and	r26, r30
     9d8:	bf 23       	and	r27, r31
     9da:	80 93 e4 01 	sts	0x01E4, r24
     9de:	90 93 e5 01 	sts	0x01E5, r25
     9e2:	a0 93 e6 01 	sts	0x01E6, r26
     9e6:	b0 93 e7 01 	sts	0x01E7, r27
     9ea:	2f bf       	out	0x3f, r18	; 63
     9ec:	00 97       	sbiw	r24, 0x00	; 0
     9ee:	a1 05       	cpc	r26, r1
     9f0:	b1 05       	cpc	r27, r1
     9f2:	19 f4       	brne	.+6      	; 0x9fa
     9f4:	81 e0       	ldi	r24, 0x01	; 1
     9f6:	80 93 3d 01 	sts	0x013D, r24
     9fa:	97 2f       	mov	r25, r23
     9fc:	86 2f       	mov	r24, r22
     9fe:	02 c0       	rjmp	.+4      	; 0xa04
     a00:	80 e0       	ldi	r24, 0x00	; 0
     a02:	90 e0       	ldi	r25, 0x00	; 0
     a04:	df 91       	pop	r29
     a06:	cf 91       	pop	r28
     a08:	08 95       	ret

00000a0a <TimerM$StdControl$init>:
     a0a:	10 92 e4 01 	sts	0x01E4, r1
     a0e:	10 92 e5 01 	sts	0x01E5, r1
     a12:	10 92 e6 01 	sts	0x01E6, r1
     a16:	10 92 e7 01 	sts	0x01E7, r1
     a1a:	10 92 3d 01 	sts	0x013D, r1
     a1e:	8f ef       	ldi	r24, 0xFF	; 255
     a20:	80 93 eb 01 	sts	0x01EB, r24
     a24:	80 93 d1 00 	sts	0x00D1, r24
     a28:	10 92 f4 00 	sts	0x00F4, r1
     a2c:	83 e0       	ldi	r24, 0x03	; 3
     a2e:	80 93 40 01 	sts	0x0140, r24
     a32:	96 ee       	ldi	r25, 0xE6	; 230
     a34:	90 93 b8 01 	sts	0x01B8, r25
     a38:	8f b7       	in	r24, 0x3f	; 63
     a3a:	f8 94       	cli
     a3c:	28 2f       	mov	r18, r24
     a3e:	33 27       	eor	r19, r19
     a40:	87 b7       	in	r24, 0x37	; 55
     a42:	8e 7f       	andi	r24, 0xFE	; 254
     a44:	87 bf       	out	0x37, r24	; 55
     a46:	87 b7       	in	r24, 0x37	; 55
     a48:	8d 7f       	andi	r24, 0xFD	; 253
     a4a:	87 bf       	out	0x37, r24	; 55
     a4c:	80 b7       	in	r24, 0x30	; 48
     a4e:	88 60       	ori	r24, 0x08	; 8
     a50:	80 bf       	out	0x30, r24	; 48
     a52:	8b e0       	ldi	r24, 0x0B	; 11
     a54:	83 bf       	out	0x33, r24	; 51
     a56:	12 be       	out	0x32, r1	; 50
     a58:	91 bf       	out	0x31, r25	; 49
     a5a:	87 b7       	in	r24, 0x37	; 55
     a5c:	82 60       	ori	r24, 0x02	; 2
     a5e:	87 bf       	out	0x37, r24	; 55
     a60:	2f bf       	out	0x3f, r18	; 63
     a62:	81 e0       	ldi	r24, 0x01	; 1
     a64:	90 e0       	ldi	r25, 0x00	; 0
     a66:	08 95       	ret

00000a68 <FramerM$HDLCInitialize>:
     a68:	8f b7       	in	r24, 0x3f	; 63
     a6a:	f8 94       	cli
     a6c:	68 2f       	mov	r22, r24
     a6e:	80 e0       	ldi	r24, 0x00	; 0
     a70:	90 e0       	ldi	r25, 0x00	; 0
     a72:	45 e7       	ldi	r20, 0x75	; 117
     a74:	50 e0       	ldi	r21, 0x00	; 0
     a76:	28 2f       	mov	r18, r24
     a78:	39 2f       	mov	r19, r25
     a7a:	f3 2f       	mov	r31, r19
     a7c:	e2 2f       	mov	r30, r18
     a7e:	e8 0f       	add	r30, r24
     a80:	f9 1f       	adc	r31, r25
     a82:	e5 54       	subi	r30, 0x45	; 69
     a84:	fe 4f       	sbci	r31, 0xFE	; 254
     a86:	44 83       	std	Z+4, r20	; 0x04
     a88:	55 83       	std	Z+5, r21	; 0x05
     a8a:	12 82       	std	Z+2, r1	; 0x02
     a8c:	13 82       	std	Z+3, r1	; 0x03
     a8e:	11 82       	std	Z+1, r1	; 0x01
     a90:	01 96       	adiw	r24, 0x01	; 1
     a92:	2b 5f       	subi	r18, 0xFB	; 251
     a94:	3f 4f       	sbci	r19, 0xFF	; 255
     a96:	45 5d       	subi	r20, 0xD5	; 213
     a98:	5f 4f       	sbci	r21, 0xFF	; 255
     a9a:	82 30       	cpi	r24, 0x02	; 2
     a9c:	91 05       	cpc	r25, r1
     a9e:	6c f3       	brlt	.-38     	; 0xa7a
     aa0:	10 92 d4 01 	sts	0x01D4, r1
     aa4:	10 92 36 01 	sts	0x0136, r1
     aa8:	10 92 35 01 	sts	0x0135, r1
     aac:	10 92 dc 00 	sts	0x00DC, r1
     ab0:	10 92 db 00 	sts	0x00DB, r1
     ab4:	10 92 73 00 	sts	0x0073, r1
     ab8:	10 92 72 00 	sts	0x0072, r1
     abc:	10 92 ce 00 	sts	0x00CE, r1
     ac0:	10 92 cd 00 	sts	0x00CD, r1
     ac4:	10 92 d1 01 	sts	0x01D1, r1
     ac8:	10 92 b0 01 	sts	0x01B0, r1
     acc:	10 92 d9 01 	sts	0x01D9, r1
     ad0:	10 92 e7 00 	sts	0x00E7, r1
     ad4:	10 92 e6 00 	sts	0x00E6, r1
     ad8:	10 92 0b 01 	sts	0x010B, r1
     adc:	10 92 0a 01 	sts	0x010A, r1
     ae0:	80 91 bf 01 	lds	r24, 0x01BF
     ae4:	90 91 c0 01 	lds	r25, 0x01C0
     ae8:	90 93 cf 01 	sts	0x01CF, r25
     aec:	80 93 ce 01 	sts	0x01CE, r24
     af0:	6f bf       	out	0x3f, r22	; 63
     af2:	08 95       	ret

00000af4 <ChannelMonC$ChannelMon$startSymbolSearch>:
     af4:	8f b7       	in	r24, 0x3f	; 63
     af6:	f8 94       	cli
     af8:	28 2f       	mov	r18, r24
     afa:	33 27       	eor	r19, r19
     afc:	10 92 ed 00 	sts	0x00ED, r1
     b00:	97 9a       	sbi	0x12, 7	; 18
     b02:	96 9a       	sbi	0x12, 6	; 18
     b04:	c3 98       	cbi	0x18, 3	; 24
     b06:	9f e7       	ldi	r25, 0x7F	; 127
     b08:	87 b7       	in	r24, 0x37	; 55
     b0a:	89 23       	and	r24, r25
     b0c:	87 bf       	out	0x37, r24	; 55
     b0e:	87 b7       	in	r24, 0x37	; 55
     b10:	8f 7b       	andi	r24, 0xBF	; 191
     b12:	87 bf       	out	0x37, r24	; 55
     b14:	87 b7       	in	r24, 0x37	; 55
     b16:	89 23       	and	r24, r25
     b18:	87 bf       	out	0x37, r24	; 55
     b1a:	89 e0       	ldi	r24, 0x09	; 9
     b1c:	85 bd       	out	0x25, r24	; 37
     b1e:	88 ec       	ldi	r24, 0xC8	; 200
     b20:	83 bd       	out	0x23, r24	; 35
     b22:	87 b7       	in	r24, 0x37	; 55
     b24:	80 68       	ori	r24, 0x80	; 128
     b26:	87 bf       	out	0x37, r24	; 55
     b28:	14 bc       	out	0x24, r1	; 36
     b2a:	be 9a       	sbi	0x17, 6	; 23
     b2c:	2f bf       	out	0x3f, r18	; 63
     b2e:	81 e0       	ldi	r24, 0x01	; 1
     b30:	90 e0       	ldi	r25, 0x00	; 0
     b32:	08 95       	ret

00000b34 <PageEEPROMM$newRequest>:
     b34:	0f 93       	push	r16
     b36:	1f 93       	push	r17
     b38:	e8 2f       	mov	r30, r24
     b3a:	88 e0       	ldi	r24, 0x08	; 8
     b3c:	60 30       	cpi	r22, 0x00	; 0
     b3e:	78 07       	cpc	r23, r24
     b40:	98 f4       	brcc	.+38     	; 0xb68
     b42:	f1 e0       	ldi	r31, 0x01	; 1
     b44:	48 30       	cpi	r20, 0x08	; 8
     b46:	5f 07       	cpc	r21, r31
     b48:	78 f4       	brcc	.+30     	; 0xb68
     b4a:	81 e0       	ldi	r24, 0x01	; 1
     b4c:	09 30       	cpi	r16, 0x09	; 9
     b4e:	18 07       	cpc	r17, r24
     b50:	58 f4       	brcc	.+22     	; 0xb68
     b52:	95 2f       	mov	r25, r21
     b54:	84 2f       	mov	r24, r20
     b56:	80 0f       	add	r24, r16
     b58:	91 1f       	adc	r25, r17
     b5a:	89 50       	subi	r24, 0x09	; 9
     b5c:	91 40       	sbci	r25, 0x01	; 1
     b5e:	20 f4       	brcc	.+8      	; 0xb68
     b60:	80 91 ef 00 	lds	r24, 0x00EF
     b64:	88 23       	and	r24, r24
     b66:	19 f0       	breq	.+6      	; 0xb6e
     b68:	80 e0       	ldi	r24, 0x00	; 0
     b6a:	90 e0       	ldi	r25, 0x00	; 0
     b6c:	3c c0       	rjmp	.+120    	; 0xbe6
     b6e:	e0 93 ef 00 	sts	0x00EF, r30
     b72:	e0 91 b7 01 	lds	r30, 0x01B7
     b76:	ee 23       	and	r30, r30
     b78:	29 f0       	breq	.+10     	; 0xb84
     b7a:	88 e7       	ldi	r24, 0x78	; 120
     b7c:	94 e1       	ldi	r25, 0x14	; 20
     b7e:	0e 94 f4 02 	call	0x5e8
     b82:	2f c0       	rjmp	.+94     	; 0xbe2
     b84:	30 93 19 01 	sts	0x0119, r19
     b88:	20 93 18 01 	sts	0x0118, r18
     b8c:	10 93 71 00 	sts	0x0071, r17
     b90:	00 93 70 00 	sts	0x0070, r16
     b94:	70 93 de 00 	sts	0x00DE, r23
     b98:	60 93 dd 00 	sts	0x00DD, r22
     b9c:	50 93 f1 01 	sts	0x01F1, r21
     ba0:	40 93 f0 01 	sts	0x01F0, r20
     ba4:	80 91 0d 01 	lds	r24, 0x010D
     ba8:	90 91 0e 01 	lds	r25, 0x010E
     bac:	68 17       	cp	r22, r24
     bae:	79 07       	cpc	r23, r25
     bb0:	19 f4       	brne	.+6      	; 0xbb8
     bb2:	e0 93 d7 00 	sts	0x00D7, r30
     bb6:	13 c0       	rjmp	.+38     	; 0xbde
     bb8:	80 91 10 01 	lds	r24, 0x0110
     bbc:	90 91 11 01 	lds	r25, 0x0111
     bc0:	68 17       	cp	r22, r24
     bc2:	79 07       	cpc	r23, r25
     bc4:	21 f4       	brne	.+8      	; 0xbce
     bc6:	81 e0       	ldi	r24, 0x01	; 1
     bc8:	80 93 d7 00 	sts	0x00D7, r24
     bcc:	08 c0       	rjmp	.+16     	; 0xbde
     bce:	9e 2f       	mov	r25, r30
     bd0:	80 91 d7 00 	lds	r24, 0x00D7
     bd4:	88 23       	and	r24, r24
     bd6:	09 f4       	brne	.+2      	; 0xbda
     bd8:	91 e0       	ldi	r25, 0x01	; 1
     bda:	90 93 d7 00 	sts	0x00D7, r25
     bde:	0e 94 8d 07 	call	0xf1a
     be2:	81 e0       	ldi	r24, 0x01	; 1
     be4:	90 e0       	ldi	r25, 0x00	; 0
     be6:	1f 91       	pop	r17
     be8:	0f 91       	pop	r16
     bea:	08 95       	ret

00000bec <PageEEPROMM$requestDone>:
     bec:	48 2f       	mov	r20, r24
     bee:	80 91 ef 00 	lds	r24, 0x00EF
     bf2:	10 92 ef 00 	sts	0x00EF, r1
     bf6:	99 27       	eor	r25, r25
     bf8:	84 30       	cpi	r24, 0x04	; 4
     bfa:	91 05       	cpc	r25, r1
     bfc:	09 f4       	brne	.+2      	; 0xc00
     bfe:	8c c0       	rjmp	.+280    	; 0xd18
     c00:	85 30       	cpi	r24, 0x05	; 5
     c02:	91 05       	cpc	r25, r1
     c04:	5c f4       	brge	.+22     	; 0xc1c
     c06:	82 30       	cpi	r24, 0x02	; 2
     c08:	91 05       	cpc	r25, r1
     c0a:	09 f4       	brne	.+2      	; 0xc0e
     c0c:	85 c0       	rjmp	.+266    	; 0xd18
     c0e:	83 30       	cpi	r24, 0x03	; 3
     c10:	91 05       	cpc	r25, r1
     c12:	0c f0       	brlt	.+2      	; 0xc16
     c14:	53 c0       	rjmp	.+166    	; 0xcbc
     c16:	01 97       	sbiw	r24, 0x01	; 1
     c18:	49 f0       	breq	.+18     	; 0xc2c
     c1a:	08 95       	ret
     c1c:	87 30       	cpi	r24, 0x07	; 7
     c1e:	91 05       	cpc	r25, r1
     c20:	0c f4       	brge	.+2      	; 0xc24
     c22:	65 c0       	rjmp	.+202    	; 0xcee
     c24:	09 97       	sbiw	r24, 0x09	; 9
     c26:	0c f0       	brlt	.+2      	; 0xc2a
     c28:	77 c0       	rjmp	.+238    	; 0xd18
     c2a:	6c c0       	rjmp	.+216    	; 0xd04
     c2c:	10 92 41 01 	sts	0x0141, r1
     c30:	20 91 ae 01 	lds	r18, 0x01AE
     c34:	30 91 af 01 	lds	r19, 0x01AF
     c38:	41 30       	cpi	r20, 0x01	; 1
     c3a:	91 f4       	brne	.+36     	; 0xc60
     c3c:	80 91 b3 01 	lds	r24, 0x01B3
     c40:	90 91 b4 01 	lds	r25, 0x01B4
     c44:	01 96       	adiw	r24, 0x01	; 1
     c46:	90 93 b4 01 	sts	0x01B4, r25
     c4a:	80 93 b3 01 	sts	0x01B3, r24
     c4e:	80 50       	subi	r24, 0x00	; 0
     c50:	90 48       	sbci	r25, 0x80	; 128
     c52:	31 f4       	brne	.+12     	; 0xc60
     c54:	80 e1       	ldi	r24, 0x10	; 16
     c56:	90 e0       	ldi	r25, 0x00	; 0
     c58:	90 93 b4 01 	sts	0x01B4, r25
     c5c:	80 93 b3 01 	sts	0x01B3, r24
     c60:	44 23       	and	r20, r20
     c62:	39 f1       	breq	.+78     	; 0xcb2
     c64:	81 e0       	ldi	r24, 0x01	; 1
     c66:	26 34       	cpi	r18, 0x46	; 70
     c68:	38 07       	cpc	r19, r24
     c6a:	19 f5       	brne	.+70     	; 0xcb2
     c6c:	80 91 46 01 	lds	r24, 0x0146
     c70:	88 23       	and	r24, r24
     c72:	39 f0       	breq	.+14     	; 0xc82
     c74:	2f 5f       	subi	r18, 0xFF	; 255
     c76:	3f 4f       	sbci	r19, 0xFF	; 255
     c78:	93 2f       	mov	r25, r19
     c7a:	82 2f       	mov	r24, r18
     c7c:	0e 94 8d 06 	call	0xd1a
     c80:	18 c0       	rjmp	.+48     	; 0xcb2
     c82:	80 93 46 01 	sts	0x0146, r24
     c86:	0e 94 52 01 	call	0x2a4
     c8a:	8f b7       	in	r24, 0x3f	; 63
     c8c:	f8 94       	cli
     c8e:	28 2f       	mov	r18, r24
     c90:	33 27       	eor	r19, r19
     c92:	da 98       	cbi	0x1b, 2	; 27
     c94:	80 91 d0 01 	lds	r24, 0x01D0
     c98:	81 60       	ori	r24, 0x01	; 1
     c9a:	80 93 d0 01 	sts	0x01D0, r24
     c9e:	2f bf       	out	0x3f, r18	; 63
     ca0:	9f b7       	in	r25, 0x3f	; 63
     ca2:	f8 94       	cli
     ca4:	29 2f       	mov	r18, r25
     ca6:	33 27       	eor	r19, r19
     ca8:	d9 9a       	sbi	0x1b, 1	; 27
     caa:	8d 7f       	andi	r24, 0xFD	; 253
     cac:	80 93 d0 01 	sts	0x01D0, r24
     cb0:	2f bf       	out	0x3f, r18	; 63
     cb2:	10 92 d9 00 	sts	0x00D9, r1
     cb6:	10 92 ea 01 	sts	0x01EA, r1
     cba:	08 95       	ret
     cbc:	80 91 f4 01 	lds	r24, 0x01F4
     cc0:	88 23       	and	r24, r24
     cc2:	19 f0       	breq	.+6      	; 0xcca
     cc4:	84 2f       	mov	r24, r20
     cc6:	99 27       	eor	r25, r25
     cc8:	02 c0       	rjmp	.+4      	; 0xcce
     cca:	80 e0       	ldi	r24, 0x00	; 0
     ccc:	90 e0       	ldi	r25, 0x00	; 0
     cce:	80 93 f4 01 	sts	0x01F4, r24
     cd2:	82 e0       	ldi	r24, 0x02	; 2
     cd4:	80 93 41 01 	sts	0x0141, r24
     cd8:	80 91 13 01 	lds	r24, 0x0113
     cdc:	99 27       	eor	r25, r25
     cde:	89 2b       	or	r24, r25
     ce0:	d9 f4       	brne	.+54     	; 0xd18
     ce2:	80 e0       	ldi	r24, 0x00	; 0
     ce4:	0e 94 3e 07 	call	0xe7c
     ce8:	80 93 1e 01 	sts	0x011E, r24
     cec:	08 95       	ret
     cee:	10 92 41 01 	sts	0x0141, r1
     cf2:	80 91 13 01 	lds	r24, 0x0113
     cf6:	99 27       	eor	r25, r25
     cf8:	89 2b       	or	r24, r25
     cfa:	71 f4       	brne	.+28     	; 0xd18
     cfc:	84 2f       	mov	r24, r20
     cfe:	0e 94 aa 0a 	call	0x1554
     d02:	08 95       	ret
     d04:	10 92 41 01 	sts	0x0141, r1
     d08:	80 91 13 01 	lds	r24, 0x0113
     d0c:	99 27       	eor	r25, r25
     d0e:	89 2b       	or	r24, r25
     d10:	19 f4       	brne	.+6      	; 0xd18
     d12:	84 2f       	mov	r24, r20
     d14:	0e 94 aa 0a 	call	0x1554
     d18:	08 95       	ret

00000d1a <AppM$setIdentity>:
     d1a:	48 2f       	mov	r20, r24
     d1c:	59 2f       	mov	r21, r25
     d1e:	81 e0       	ldi	r24, 0x01	; 1
     d20:	80 93 46 01 	sts	0x0146, r24
     d24:	a7 e4       	ldi	r26, 0x47	; 71
     d26:	b1 e0       	ldi	r27, 0x01	; 1
     d28:	f5 2f       	mov	r31, r21
     d2a:	e4 2f       	mov	r30, r20
     d2c:	2e e0       	ldi	r18, 0x0E	; 14
     d2e:	30 e0       	ldi	r19, 0x00	; 0
     d30:	81 91       	ld	r24, Z+
     d32:	8d 93       	st	X+, r24
     d34:	21 50       	subi	r18, 0x01	; 1
     d36:	30 40       	sbci	r19, 0x00	; 0
     d38:	8f ef       	ldi	r24, 0xFF	; 255
     d3a:	2f 3f       	cpi	r18, 0xFF	; 255
     d3c:	38 07       	cpc	r19, r24
     d3e:	c1 f7       	brne	.-16     	; 0xd30
     d40:	95 2f       	mov	r25, r21
     d42:	84 2f       	mov	r24, r20
     d44:	0e 94 58 01 	call	0x2b0
     d48:	8f b7       	in	r24, 0x3f	; 63
     d4a:	f8 94       	cli
     d4c:	28 2f       	mov	r18, r24
     d4e:	33 27       	eor	r19, r19
     d50:	da 9a       	sbi	0x1b, 2	; 27
     d52:	80 91 d0 01 	lds	r24, 0x01D0
     d56:	8e 7f       	andi	r24, 0xFE	; 254
     d58:	80 93 d0 01 	sts	0x01D0, r24
     d5c:	2f bf       	out	0x3f, r18	; 63
     d5e:	9f b7       	in	r25, 0x3f	; 63
     d60:	f8 94       	cli
     d62:	29 2f       	mov	r18, r25
     d64:	33 27       	eor	r19, r19
     d66:	d9 98       	cbi	0x1b, 1	; 27
     d68:	82 60       	ori	r24, 0x02	; 2
     d6a:	80 93 d0 01 	sts	0x01D0, r24
     d6e:	2f bf       	out	0x3f, r18	; 63
     d70:	08 95       	ret

00000d72 <TimerM$Timer$start>:
     d72:	cf 92       	push	r12
     d74:	df 92       	push	r13
     d76:	ef 92       	push	r14
     d78:	ff 92       	push	r15
     d7a:	0f 93       	push	r16
     d7c:	1f 93       	push	r17
     d7e:	cf 93       	push	r28
     d80:	df 93       	push	r29
     d82:	e2 2e       	mov	r14, r18
     d84:	f3 2e       	mov	r15, r19
     d86:	04 2f       	mov	r16, r20
     d88:	15 2f       	mov	r17, r21
     d8a:	82 30       	cpi	r24, 0x02	; 2
     d8c:	10 f4       	brcc	.+4      	; 0xd92
     d8e:	62 30       	cpi	r22, 0x02	; 2
     d90:	1c f0       	brlt	.+6      	; 0xd98
     d92:	80 e0       	ldi	r24, 0x00	; 0
     d94:	90 e0       	ldi	r25, 0x00	; 0
     d96:	57 c0       	rjmp	.+174    	; 0xe46
     d98:	28 2f       	mov	r18, r24
     d9a:	33 27       	eor	r19, r19
     d9c:	f3 2f       	mov	r31, r19
     d9e:	e2 2f       	mov	r30, r18
     da0:	a3 e0       	ldi	r26, 0x03	; 3
     da2:	ee 0f       	add	r30, r30
     da4:	ff 1f       	adc	r31, r31
     da6:	aa 95       	dec	r26
     da8:	e1 f7       	brne	.-8      	; 0xda2
     daa:	e2 0f       	add	r30, r18
     dac:	f3 1f       	adc	r31, r19
     dae:	e0 5e       	subi	r30, 0xE0	; 224
     db0:	fe 4f       	sbci	r31, 0xFE	; 254
     db2:	e1 82       	std	Z+1, r14	; 0x01
     db4:	f2 82       	std	Z+2, r15	; 0x02
     db6:	03 83       	std	Z+3, r16	; 0x03
     db8:	14 83       	std	Z+4, r17	; 0x04
     dba:	60 83       	st	Z, r22
     dbc:	8f b7       	in	r24, 0x3f	; 63
     dbe:	f8 94       	cli
     dc0:	c8 2f       	mov	r28, r24
     dc2:	dd 27       	eor	r29, r29
     dc4:	82 b7       	in	r24, 0x32	; 50
     dc6:	e8 0e       	add	r14, r24
     dc8:	f1 1c       	adc	r15, r1
     dca:	01 1d       	adc	r16, r1
     dcc:	11 1d       	adc	r17, r1
     dce:	e5 82       	std	Z+5, r14	; 0x05
     dd0:	f6 82       	std	Z+6, r15	; 0x06
     dd2:	07 83       	std	Z+7, r16	; 0x07
     dd4:	10 87       	std	Z+8, r17	; 0x08
     dd6:	f1 e0       	ldi	r31, 0x01	; 1
     dd8:	cf 2e       	mov	r12, r31
     dda:	d1 2c       	mov	r13, r1
     ddc:	9d 2d       	mov	r25, r13
     dde:	8c 2d       	mov	r24, r12
     de0:	02 c0       	rjmp	.+4      	; 0xde6
     de2:	88 0f       	add	r24, r24
     de4:	99 1f       	adc	r25, r25
     de6:	2a 95       	dec	r18
     de8:	e2 f7       	brpl	.-8      	; 0xde2
     dea:	28 2f       	mov	r18, r24
     dec:	39 2f       	mov	r19, r25
     dee:	44 27       	eor	r20, r20
     df0:	37 fd       	sbrc	r19, 7
     df2:	40 95       	com	r20
     df4:	54 2f       	mov	r21, r20
     df6:	80 91 e4 01 	lds	r24, 0x01E4
     dfa:	90 91 e5 01 	lds	r25, 0x01E5
     dfe:	a0 91 e6 01 	lds	r26, 0x01E6
     e02:	b0 91 e7 01 	lds	r27, 0x01E7
     e06:	82 2b       	or	r24, r18
     e08:	93 2b       	or	r25, r19
     e0a:	a4 2b       	or	r26, r20
     e0c:	b5 2b       	or	r27, r21
     e0e:	80 93 e4 01 	sts	0x01E4, r24
     e12:	90 93 e5 01 	sts	0x01E5, r25
     e16:	a0 93 e6 01 	sts	0x01E6, r26
     e1a:	b0 93 e7 01 	sts	0x01E7, r27
     e1e:	80 91 b8 01 	lds	r24, 0x01B8
     e22:	99 27       	eor	r25, r25
     e24:	aa 27       	eor	r26, r26
     e26:	bb 27       	eor	r27, r27
     e28:	e8 16       	cp	r14, r24
     e2a:	f9 06       	cpc	r15, r25
     e2c:	0a 07       	cpc	r16, r26
     e2e:	1b 07       	cpc	r17, r27
     e30:	38 f4       	brcc	.+14     	; 0xe40
     e32:	e0 92 b8 01 	sts	0x01B8, r14
     e36:	e1 be       	out	0x31, r14	; 49
     e38:	10 92 3d 01 	sts	0x013D, r1
     e3c:	0e 94 2c 07 	call	0xe58
     e40:	cf bf       	out	0x3f, r28	; 63
     e42:	9d 2d       	mov	r25, r13
     e44:	8c 2d       	mov	r24, r12
     e46:	df 91       	pop	r29
     e48:	cf 91       	pop	r28
     e4a:	1f 91       	pop	r17
     e4c:	0f 91       	pop	r16
     e4e:	ff 90       	pop	r15
     e50:	ef 90       	pop	r14
     e52:	df 90       	pop	r13
     e54:	cf 90       	pop	r12
     e56:	08 95       	ret

00000e58 <HPLPowerManagementM$PowerManagement$adjustPower>:
     e58:	80 91 6f 00 	lds	r24, 0x006F
     e5c:	88 23       	and	r24, r24
     e5e:	29 f4       	brne	.+10     	; 0xe6a
     e60:	84 ea       	ldi	r24, 0xA4	; 164
     e62:	95 e1       	ldi	r25, 0x15	; 21
     e64:	0e 94 f4 02 	call	0x5e8
     e68:	06 c0       	rjmp	.+12     	; 0xe76
     e6a:	85 b7       	in	r24, 0x35	; 53
     e6c:	83 7e       	andi	r24, 0xE3	; 227
     e6e:	85 bf       	out	0x35, r24	; 53
     e70:	85 b7       	in	r24, 0x35	; 53
     e72:	80 62       	ori	r24, 0x20	; 32
     e74:	85 bf       	out	0x35, r24	; 53
     e76:	80 e0       	ldi	r24, 0x00	; 0
     e78:	90 e0       	ldi	r25, 0x00	; 0
     e7a:	08 95       	ret

00000e7c <eepromM$EEPROMWrite$endWrite>:
     e7c:	98 2f       	mov	r25, r24
     e7e:	80 91 41 01 	lds	r24, 0x0141
     e82:	82 30       	cpi	r24, 0x02	; 2
     e84:	21 f4       	brne	.+8      	; 0xe8e
     e86:	80 91 13 01 	lds	r24, 0x0113
     e8a:	98 17       	cp	r25, r24
     e8c:	19 f0       	breq	.+6      	; 0xe94
     e8e:	80 e0       	ldi	r24, 0x00	; 0
     e90:	90 e0       	ldi	r25, 0x00	; 0
     e92:	08 95       	ret
     e94:	84 e0       	ldi	r24, 0x04	; 4
     e96:	80 93 41 01 	sts	0x0141, r24
     e9a:	86 e0       	ldi	r24, 0x06	; 6
     e9c:	0e 94 53 07 	call	0xea6
     ea0:	81 e0       	ldi	r24, 0x01	; 1
     ea2:	90 e0       	ldi	r25, 0x00	; 0
     ea4:	08 95       	ret

00000ea6 <PageEEPROMM$syncOrFlushAll>:
     ea6:	98 2f       	mov	r25, r24
     ea8:	80 91 ef 00 	lds	r24, 0x00EF
     eac:	88 23       	and	r24, r24
     eae:	19 f0       	breq	.+6      	; 0xeb6
     eb0:	80 e0       	ldi	r24, 0x00	; 0
     eb2:	90 e0       	ldi	r25, 0x00	; 0
     eb4:	08 95       	ret
     eb6:	90 93 ef 00 	sts	0x00EF, r25
     eba:	80 91 b7 01 	lds	r24, 0x01B7
     ebe:	88 23       	and	r24, r24
     ec0:	19 f0       	breq	.+6      	; 0xec8
     ec2:	88 e7       	ldi	r24, 0x78	; 120
     ec4:	94 e1       	ldi	r25, 0x14	; 20
     ec6:	13 c0       	rjmp	.+38     	; 0xeee
     ec8:	80 91 0f 01 	lds	r24, 0x010F
     ecc:	98 2f       	mov	r25, r24
     ece:	92 70       	andi	r25, 0x02	; 2
     ed0:	81 fd       	sbrc	r24, 1
     ed2:	03 c0       	rjmp	.+6      	; 0xeda
     ed4:	90 93 d7 00 	sts	0x00D7, r25
     ed8:	0f c0       	rjmp	.+30     	; 0xef8
     eda:	80 91 12 01 	lds	r24, 0x0112
     ede:	81 fd       	sbrc	r24, 1
     ee0:	04 c0       	rjmp	.+8      	; 0xeea
     ee2:	81 e0       	ldi	r24, 0x01	; 1
     ee4:	80 93 d7 00 	sts	0x00D7, r24
     ee8:	07 c0       	rjmp	.+14     	; 0xef8
     eea:	84 e7       	ldi	r24, 0x74	; 116
     eec:	94 e1       	ldi	r25, 0x14	; 20
     eee:	0e 94 f4 02 	call	0x5e8
     ef2:	81 e0       	ldi	r24, 0x01	; 1
     ef4:	90 e0       	ldi	r25, 0x00	; 0
     ef6:	08 95       	ret
     ef8:	80 91 d7 00 	lds	r24, 0x00D7
     efc:	99 27       	eor	r25, r25
     efe:	f9 2f       	mov	r31, r25
     f00:	e8 2f       	mov	r30, r24
     f02:	ee 0f       	add	r30, r30
     f04:	ff 1f       	adc	r31, r31
     f06:	e8 0f       	add	r30, r24
     f08:	f9 1f       	adc	r31, r25
     f0a:	e1 5f       	subi	r30, 0xF1	; 241
     f0c:	fe 4f       	sbci	r31, 0xFE	; 254
     f0e:	80 81       	ld	r24, Z
     f10:	87 7e       	andi	r24, 0xE7	; 231
     f12:	80 83       	st	Z, r24
     f14:	0e 94 8d 07 	call	0xf1a
     f18:	ec cf       	rjmp	.-40     	; 0xef2

00000f1a <PageEEPROMM$handleRWRequest>:
     f1a:	0f 93       	push	r16
     f1c:	1f 93       	push	r17
     f1e:	40 91 d7 00 	lds	r20, 0x00D7
     f22:	84 2f       	mov	r24, r20
     f24:	99 27       	eor	r25, r25
     f26:	f9 2f       	mov	r31, r25
     f28:	e8 2f       	mov	r30, r24
     f2a:	ee 0f       	add	r30, r30
     f2c:	ff 1f       	adc	r31, r31
     f2e:	e8 0f       	add	r30, r24
     f30:	f9 1f       	adc	r31, r25
     f32:	ae 2f       	mov	r26, r30
     f34:	bf 2f       	mov	r27, r31
     f36:	a3 5f       	subi	r26, 0xF3	; 243
     f38:	be 4f       	sbci	r27, 0xFE	; 254
     f3a:	20 91 dd 00 	lds	r18, 0x00DD
     f3e:	30 91 de 00 	lds	r19, 0x00DE
     f42:	8d 91       	ld	r24, X+
     f44:	9c 91       	ld	r25, X
     f46:	11 97       	sbiw	r26, 0x01	; 1
     f48:	28 17       	cp	r18, r24
     f4a:	39 07       	cpc	r19, r25
     f4c:	09 f0       	breq	.+2      	; 0xf50
     f4e:	ef c0       	rjmp	.+478    	; 0x112e
     f50:	50 91 ef 00 	lds	r21, 0x00EF
     f54:	85 2f       	mov	r24, r21
     f56:	99 27       	eor	r25, r25
     f58:	84 30       	cpi	r24, 0x04	; 4
     f5a:	91 05       	cpc	r25, r1
     f5c:	b1 f0       	breq	.+44     	; 0xf8a
     f5e:	85 30       	cpi	r24, 0x05	; 5
     f60:	91 05       	cpc	r25, r1
     f62:	64 f4       	brge	.+24     	; 0xf7c
     f64:	82 30       	cpi	r24, 0x02	; 2
     f66:	91 05       	cpc	r25, r1
     f68:	09 f4       	brne	.+2      	; 0xf6c
     f6a:	8c c0       	rjmp	.+280    	; 0x1084
     f6c:	83 30       	cpi	r24, 0x03	; 3
     f6e:	91 05       	cpc	r25, r1
     f70:	0c f0       	brlt	.+2      	; 0xf74
     f72:	aa c0       	rjmp	.+340    	; 0x10c8
     f74:	01 97       	sbiw	r24, 0x01	; 1
     f76:	09 f4       	brne	.+2      	; 0xf7a
     f78:	5a c0       	rjmp	.+180    	; 0x102e
     f7a:	03 c1       	rjmp	.+518    	; 0x1182
     f7c:	87 30       	cpi	r24, 0x07	; 7
     f7e:	91 05       	cpc	r25, r1
     f80:	7c f1       	brlt	.+94     	; 0xfe0
     f82:	09 97       	sbiw	r24, 0x09	; 9
     f84:	0c f0       	brlt	.+2      	; 0xf88
     f86:	fd c0       	rjmp	.+506    	; 0x1182
     f88:	36 c0       	rjmp	.+108    	; 0xff6
     f8a:	80 91 f0 01 	lds	r24, 0x01F0
     f8e:	90 91 f1 01 	lds	r25, 0x01F1
     f92:	81 30       	cpi	r24, 0x01	; 1
     f94:	91 05       	cpc	r25, r1
     f96:	99 f0       	breq	.+38     	; 0xfbe
     f98:	81 30       	cpi	r24, 0x01	; 1
     f9a:	91 05       	cpc	r25, r1
     f9c:	18 f0       	brcs	.+6      	; 0xfa4
     f9e:	02 97       	sbiw	r24, 0x02	; 2
     fa0:	49 f0       	breq	.+18     	; 0xfb4
     fa2:	ef c0       	rjmp	.+478    	; 0x1182
     fa4:	86 e0       	ldi	r24, 0x06	; 6
     fa6:	80 93 1d 01 	sts	0x011D, r24
     faa:	00 e0       	ldi	r16, 0x00	; 0
     fac:	10 e0       	ldi	r17, 0x00	; 0
     fae:	40 e0       	ldi	r20, 0x00	; 0
     fb0:	61 e8       	ldi	r22, 0x81	; 129
     fb2:	e4 c0       	rjmp	.+456    	; 0x117c
     fb4:	e1 5f       	subi	r30, 0xF1	; 241
     fb6:	fe 4f       	sbci	r31, 0xFE	; 254
     fb8:	80 81       	ld	r24, Z
     fba:	84 60       	ori	r24, 0x04	; 4
     fbc:	80 83       	st	Z, r24
     fbe:	84 2f       	mov	r24, r20
     fc0:	99 27       	eor	r25, r25
     fc2:	f9 2f       	mov	r31, r25
     fc4:	e8 2f       	mov	r30, r24
     fc6:	ee 0f       	add	r30, r30
     fc8:	ff 1f       	adc	r31, r31
     fca:	e8 0f       	add	r30, r24
     fcc:	f9 1f       	adc	r31, r25
     fce:	e1 5f       	subi	r30, 0xF1	; 241
     fd0:	fe 4f       	sbci	r31, 0xFE	; 254
     fd2:	80 81       	ld	r24, Z
     fd4:	82 60       	ori	r24, 0x02	; 2
     fd6:	80 83       	st	Z, r24
     fd8:	81 e0       	ldi	r24, 0x01	; 1
     fda:	0e 94 f6 05 	call	0xbec
     fde:	d1 c0       	rjmp	.+418    	; 0x1182
     fe0:	e1 5f       	subi	r30, 0xF1	; 241
     fe2:	fe 4f       	sbci	r31, 0xFE	; 254
     fe4:	80 81       	ld	r24, Z
     fe6:	81 ff       	sbrs	r24, 1
     fe8:	06 c0       	rjmp	.+12     	; 0xff6
     fea:	86 95       	lsr	r24
     fec:	86 95       	lsr	r24
     fee:	86 95       	lsr	r24
     ff0:	83 70       	andi	r24, 0x03	; 3
     ff2:	09 f0       	breq	.+2      	; 0xff6
     ff4:	a9 c0       	rjmp	.+338    	; 0x1148
     ff6:	84 2f       	mov	r24, r20
     ff8:	99 27       	eor	r25, r25
     ffa:	f9 2f       	mov	r31, r25
     ffc:	e8 2f       	mov	r30, r24
     ffe:	ee 0f       	add	r30, r30
    1000:	ff 1f       	adc	r31, r31
    1002:	e8 0f       	add	r30, r24
    1004:	f9 1f       	adc	r31, r25
    1006:	e1 5f       	subi	r30, 0xF1	; 241
    1008:	fe 4f       	sbci	r31, 0xFE	; 254
    100a:	80 81       	ld	r24, Z
    100c:	81 ff       	sbrs	r24, 1
    100e:	94 c0       	rjmp	.+296    	; 0x1138
    1010:	57 30       	cpi	r21, 0x07	; 7
    1012:	11 f0       	breq	.+4      	; 0x1018
    1014:	55 30       	cpi	r21, 0x05	; 5
    1016:	29 f4       	brne	.+10     	; 0x1022
    1018:	84 e7       	ldi	r24, 0x74	; 116
    101a:	94 e1       	ldi	r25, 0x14	; 20
    101c:	0e 94 f4 02 	call	0x5e8
    1020:	b0 c0       	rjmp	.+352    	; 0x1182
    1022:	10 92 ef 00 	sts	0x00EF, r1
    1026:	85 2f       	mov	r24, r21
    1028:	0e 94 53 07 	call	0xea6
    102c:	aa c0       	rjmp	.+340    	; 0x1182
    102e:	80 91 18 01 	lds	r24, 0x0118
    1032:	90 91 19 01 	lds	r25, 0x0119
    1036:	90 93 d3 01 	sts	0x01D3, r25
    103a:	80 93 d2 01 	sts	0x01D2, r24
    103e:	80 91 70 00 	lds	r24, 0x0070
    1042:	90 91 71 00 	lds	r25, 0x0071
    1046:	90 93 f1 00 	sts	0x00F1, r25
    104a:	80 93 f0 00 	sts	0x00F0, r24
    104e:	81 e0       	ldi	r24, 0x01	; 1
    1050:	80 93 1d 01 	sts	0x011D, r24
    1054:	44 23       	and	r20, r20
    1056:	11 f0       	breq	.+4      	; 0x105c
    1058:	64 ed       	ldi	r22, 0xD4	; 212
    105a:	01 c0       	rjmp	.+2      	; 0x105e
    105c:	66 ed       	ldi	r22, 0xD6	; 214
    105e:	20 91 f0 01 	lds	r18, 0x01F0
    1062:	30 91 f1 01 	lds	r19, 0x01F1
    1066:	84 2f       	mov	r24, r20
    1068:	99 27       	eor	r25, r25
    106a:	f9 2f       	mov	r31, r25
    106c:	e8 2f       	mov	r30, r24
    106e:	ee 0f       	add	r30, r30
    1070:	ff 1f       	adc	r31, r31
    1072:	e8 0f       	add	r30, r24
    1074:	f9 1f       	adc	r31, r25
    1076:	e1 5f       	subi	r30, 0xF1	; 241
    1078:	fe 4f       	sbci	r31, 0xFE	; 254
    107a:	80 81       	ld	r24, Z
    107c:	81 70       	andi	r24, 0x01	; 1
    107e:	02 2f       	mov	r16, r18
    1080:	13 2f       	mov	r17, r19
    1082:	1e c0       	rjmp	.+60     	; 0x10c0
    1084:	80 91 70 00 	lds	r24, 0x0070
    1088:	90 91 71 00 	lds	r25, 0x0071
    108c:	90 93 f1 00 	sts	0x00F1, r25
    1090:	80 93 f0 00 	sts	0x00F0, r24
    1094:	82 e0       	ldi	r24, 0x02	; 2
    1096:	80 93 1d 01 	sts	0x011D, r24
    109a:	44 23       	and	r20, r20
    109c:	11 f0       	breq	.+4      	; 0x10a2
    109e:	64 ed       	ldi	r22, 0xD4	; 212
    10a0:	01 c0       	rjmp	.+2      	; 0x10a4
    10a2:	66 ed       	ldi	r22, 0xD6	; 214
    10a4:	84 2f       	mov	r24, r20
    10a6:	99 27       	eor	r25, r25
    10a8:	f9 2f       	mov	r31, r25
    10aa:	e8 2f       	mov	r30, r24
    10ac:	ee 0f       	add	r30, r30
    10ae:	ff 1f       	adc	r31, r31
    10b0:	e8 0f       	add	r30, r24
    10b2:	f9 1f       	adc	r31, r25
    10b4:	e1 5f       	subi	r30, 0xF1	; 241
    10b6:	fe 4f       	sbci	r31, 0xFE	; 254
    10b8:	80 81       	ld	r24, Z
    10ba:	81 70       	andi	r24, 0x01	; 1
    10bc:	00 e0       	ldi	r16, 0x00	; 0
    10be:	10 e0       	ldi	r17, 0x00	; 0
    10c0:	20 e0       	ldi	r18, 0x00	; 0
    10c2:	30 e0       	ldi	r19, 0x00	; 0
    10c4:	42 e0       	ldi	r20, 0x02	; 2
    10c6:	5b c0       	rjmp	.+182    	; 0x117e
    10c8:	80 91 18 01 	lds	r24, 0x0118
    10cc:	90 91 19 01 	lds	r25, 0x0119
    10d0:	90 93 d3 01 	sts	0x01D3, r25
    10d4:	80 93 d2 01 	sts	0x01D2, r24
    10d8:	80 91 70 00 	lds	r24, 0x0070
    10dc:	90 91 71 00 	lds	r25, 0x0071
    10e0:	90 93 f1 00 	sts	0x00F1, r25
    10e4:	80 93 f0 00 	sts	0x00F0, r24
    10e8:	83 e0       	ldi	r24, 0x03	; 3
    10ea:	80 93 1d 01 	sts	0x011D, r24
    10ee:	e1 5f       	subi	r30, 0xF1	; 241
    10f0:	fe 4f       	sbci	r31, 0xFE	; 254
    10f2:	80 81       	ld	r24, Z
    10f4:	85 7e       	andi	r24, 0xE5	; 229
    10f6:	80 83       	st	Z, r24
    10f8:	44 23       	and	r20, r20
    10fa:	11 f0       	breq	.+4      	; 0x1100
    10fc:	64 e8       	ldi	r22, 0x84	; 132
    10fe:	01 c0       	rjmp	.+2      	; 0x1102
    1100:	67 e8       	ldi	r22, 0x87	; 135
    1102:	20 91 f0 01 	lds	r18, 0x01F0
    1106:	30 91 f1 01 	lds	r19, 0x01F1
    110a:	84 2f       	mov	r24, r20
    110c:	99 27       	eor	r25, r25
    110e:	f9 2f       	mov	r31, r25
    1110:	e8 2f       	mov	r30, r24
    1112:	ee 0f       	add	r30, r30
    1114:	ff 1f       	adc	r31, r31
    1116:	e8 0f       	add	r30, r24
    1118:	f9 1f       	adc	r31, r25
    111a:	e1 5f       	subi	r30, 0xF1	; 241
    111c:	fe 4f       	sbci	r31, 0xFE	; 254
    111e:	80 81       	ld	r24, Z
    1120:	81 70       	andi	r24, 0x01	; 1
    1122:	02 2f       	mov	r16, r18
    1124:	13 2f       	mov	r17, r19
    1126:	20 e0       	ldi	r18, 0x00	; 0
    1128:	30 e0       	ldi	r19, 0x00	; 0
    112a:	40 e0       	ldi	r20, 0x00	; 0
    112c:	28 c0       	rjmp	.+80     	; 0x117e
    112e:	e1 5f       	subi	r30, 0xF1	; 241
    1130:	fe 4f       	sbci	r31, 0xFE	; 254
    1132:	80 81       	ld	r24, Z
    1134:	81 fd       	sbrc	r24, 1
    1136:	03 c0       	rjmp	.+6      	; 0x113e
    1138:	0e 94 7a 0a 	call	0x14f4
    113c:	22 c0       	rjmp	.+68     	; 0x1182
    113e:	86 95       	lsr	r24
    1140:	86 95       	lsr	r24
    1142:	86 95       	lsr	r24
    1144:	83 70       	andi	r24, 0x03	; 3
    1146:	21 f0       	breq	.+8      	; 0x1150
    1148:	84 2f       	mov	r24, r20
    114a:	0e 94 ac 09 	call	0x1358
    114e:	19 c0       	rjmp	.+50     	; 0x1182
    1150:	80 91 ef 00 	lds	r24, 0x00EF
    1154:	84 30       	cpi	r24, 0x04	; 4
    1156:	19 f4       	brne	.+6      	; 0x115e
    1158:	2d 93       	st	X+, r18
    115a:	3c 93       	st	X, r19
    115c:	e0 ce       	rjmp	.-576    	; 0xf1e
    115e:	85 e0       	ldi	r24, 0x05	; 5
    1160:	80 93 1d 01 	sts	0x011D, r24
    1164:	44 23       	and	r20, r20
    1166:	11 f0       	breq	.+4      	; 0x116c
    1168:	63 e5       	ldi	r22, 0x53	; 83
    116a:	01 c0       	rjmp	.+2      	; 0x116e
    116c:	65 e5       	ldi	r22, 0x55	; 85
    116e:	00 e0       	ldi	r16, 0x00	; 0
    1170:	10 e0       	ldi	r17, 0x00	; 0
    1172:	20 91 dd 00 	lds	r18, 0x00DD
    1176:	30 91 de 00 	lds	r19, 0x00DE
    117a:	40 e0       	ldi	r20, 0x00	; 0
    117c:	81 e0       	ldi	r24, 0x01	; 1
    117e:	0e 94 c4 08 	call	0x1188
    1182:	1f 91       	pop	r17
    1184:	0f 91       	pop	r16
    1186:	08 95       	ret

00001188 <PageEEPROMM$execCommand>:
    1188:	0f 93       	push	r16
    118a:	1f 93       	push	r17
    118c:	78 2f       	mov	r23, r24
    118e:	86 2f       	mov	r24, r22
    1190:	64 2f       	mov	r22, r20
    1192:	51 2f       	mov	r21, r17
    1194:	40 2f       	mov	r20, r16
    1196:	80 93 42 01 	sts	0x0142, r24
    119a:	93 2f       	mov	r25, r19
    119c:	82 2f       	mov	r24, r18
    119e:	88 0f       	add	r24, r24
    11a0:	89 2f       	mov	r24, r25
    11a2:	88 1f       	adc	r24, r24
    11a4:	99 0b       	sbc	r25, r25
    11a6:	91 95       	neg	r25
    11a8:	80 93 43 01 	sts	0x0143, r24
    11ac:	22 0f       	add	r18, r18
    11ae:	85 2f       	mov	r24, r21
    11b0:	99 27       	eor	r25, r25
    11b2:	28 2b       	or	r18, r24
    11b4:	20 93 44 01 	sts	0x0144, r18
    11b8:	40 93 45 01 	sts	0x0145, r20
    11bc:	6c 5f       	subi	r22, 0xFC	; 252
    11be:	60 93 f3 00 	sts	0x00F3, r22
    11c2:	77 23       	and	r23, r23
    11c4:	39 f0       	breq	.+14     	; 0x11d4
    11c6:	80 91 57 01 	lds	r24, 0x0157
    11ca:	88 23       	and	r24, r24
    11cc:	19 f0       	breq	.+6      	; 0x11d4
    11ce:	0e 94 ef 08 	call	0x11de
    11d2:	02 c0       	rjmp	.+4      	; 0x11d8
    11d4:	0e 94 ce 09 	call	0x139c
    11d8:	1f 91       	pop	r17
    11da:	0f 91       	pop	r16
    11dc:	08 95       	ret

000011de <PageEEPROMM$requestFlashStatus>:
    11de:	cf 93       	push	r28
    11e0:	81 e0       	ldi	r24, 0x01	; 1
    11e2:	80 93 e5 00 	sts	0x00E5, r24
    11e6:	8f b7       	in	r24, 0x3f	; 63
    11e8:	f8 94       	cli
    11ea:	28 2f       	mov	r18, r24
    11ec:	33 27       	eor	r19, r19
    11ee:	80 91 37 01 	lds	r24, 0x0137
    11f2:	81 50       	subi	r24, 0x01	; 1
    11f4:	80 93 37 01 	sts	0x0137, r24
    11f8:	15 9a       	sbi	0x02, 5	; 2
    11fa:	1d 98       	cbi	0x03, 5	; 3
    11fc:	2f bf       	out	0x3f, r18	; 63
    11fe:	97 ed       	ldi	r25, 0xD7	; 215
    1200:	80 e0       	ldi	r24, 0x00	; 0
    1202:	2f b7       	in	r18, 0x3f	; 63
    1204:	f8 94       	cli
    1206:	42 2f       	mov	r20, r18
    1208:	55 27       	eor	r21, r21
    120a:	2b b3       	in	r18, 0x1b	; 27
    120c:	27 77       	andi	r18, 0x77	; 119
    120e:	2b bb       	out	0x1b, r18	; 27
    1210:	97 fd       	sbrc	r25, 7
    1212:	df 9a       	sbi	0x1b, 7	; 27
    1214:	db 9a       	sbi	0x1b, 3	; 27
    1216:	ce 99       	sbic	0x19, 6	; 25
    1218:	80 68       	ori	r24, 0x80	; 128
    121a:	2b bb       	out	0x1b, r18	; 27
    121c:	96 fd       	sbrc	r25, 6
    121e:	df 9a       	sbi	0x1b, 7	; 27
    1220:	db 9a       	sbi	0x1b, 3	; 27
    1222:	ce 99       	sbic	0x19, 6	; 25
    1224:	80 64       	ori	r24, 0x40	; 64
    1226:	2b bb       	out	0x1b, r18	; 27
    1228:	95 fd       	sbrc	r25, 5
    122a:	df 9a       	sbi	0x1b, 7	; 27
    122c:	db 9a       	sbi	0x1b, 3	; 27
    122e:	ce 99       	sbic	0x19, 6	; 25
    1230:	80 62       	ori	r24, 0x20	; 32
    1232:	2b bb       	out	0x1b, r18	; 27
    1234:	94 fd       	sbrc	r25, 4
    1236:	df 9a       	sbi	0x1b, 7	; 27
    1238:	db 9a       	sbi	0x1b, 3	; 27
    123a:	ce 99       	sbic	0x19, 6	; 25
    123c:	80 61       	ori	r24, 0x10	; 16
    123e:	2b bb       	out	0x1b, r18	; 27
    1240:	93 fd       	sbrc	r25, 3
    1242:	df 9a       	sbi	0x1b, 7	; 27
    1244:	db 9a       	sbi	0x1b, 3	; 27
    1246:	ce 99       	sbic	0x19, 6	; 25
    1248:	88 60       	ori	r24, 0x08	; 8
    124a:	2b bb       	out	0x1b, r18	; 27
    124c:	92 fd       	sbrc	r25, 2
    124e:	df 9a       	sbi	0x1b, 7	; 27
    1250:	db 9a       	sbi	0x1b, 3	; 27
    1252:	ce 99       	sbic	0x19, 6	; 25
    1254:	84 60       	ori	r24, 0x04	; 4
    1256:	2b bb       	out	0x1b, r18	; 27
    1258:	91 fd       	sbrc	r25, 1
    125a:	df 9a       	sbi	0x1b, 7	; 27
    125c:	db 9a       	sbi	0x1b, 3	; 27
    125e:	ce 99       	sbic	0x19, 6	; 25
    1260:	82 60       	ori	r24, 0x02	; 2
    1262:	2b bb       	out	0x1b, r18	; 27
    1264:	90 fd       	sbrc	r25, 0
    1266:	df 9a       	sbi	0x1b, 7	; 27
    1268:	db 9a       	sbi	0x1b, 3	; 27
    126a:	ce 99       	sbic	0x19, 6	; 25
    126c:	81 60       	ori	r24, 0x01	; 1
    126e:	4f bf       	out	0x3f, r20	; 63
    1270:	db 98       	cbi	0x1b, 3	; 27
    1272:	81 e0       	ldi	r24, 0x01	; 1
    1274:	90 e0       	ldi	r25, 0x00	; 0
    1276:	01 97       	sbiw	r24, 0x01	; 1
    1278:	f1 f7       	brne	.-4      	; 0x1276
    127a:	ce 9b       	sbis	0x19, 6	; 25
    127c:	03 c0       	rjmp	.+6      	; 0x1284
    127e:	80 e0       	ldi	r24, 0x00	; 0
    1280:	90 e0       	ldi	r25, 0x00	; 0
    1282:	06 c0       	rjmp	.+12     	; 0x1290
    1284:	87 e7       	ldi	r24, 0x77	; 119
    1286:	99 e0       	ldi	r25, 0x09	; 9
    1288:	0e 94 f4 02 	call	0x5e8
    128c:	81 e0       	ldi	r24, 0x01	; 1
    128e:	90 e0       	ldi	r25, 0x00	; 0
    1290:	89 2b       	or	r24, r25
    1292:	59 f5       	brne	.+86     	; 0x12ea
    1294:	80 91 1d 01 	lds	r24, 0x011D
    1298:	88 30       	cpi	r24, 0x08	; 8
    129a:	61 f4       	brne	.+24     	; 0x12b4
    129c:	db 9a       	sbi	0x1b, 3	; 27
    129e:	db 98       	cbi	0x1b, 3	; 27
    12a0:	00 00       	nop
    12a2:	00 00       	nop
    12a4:	80 e0       	ldi	r24, 0x00	; 0
    12a6:	90 e0       	ldi	r25, 0x00	; 0
    12a8:	ce 99       	sbic	0x19, 6	; 25
    12aa:	02 c0       	rjmp	.+4      	; 0x12b0
    12ac:	81 e0       	ldi	r24, 0x01	; 1
    12ae:	90 e0       	ldi	r25, 0x00	; 0
    12b0:	80 93 b5 01 	sts	0x01B5, r24
    12b4:	81 e0       	ldi	r24, 0x01	; 1
    12b6:	80 93 e9 00 	sts	0x00E9, r24
    12ba:	db 98       	cbi	0x1b, 3	; 27
    12bc:	8f b7       	in	r24, 0x3f	; 63
    12be:	f8 94       	cli
    12c0:	c8 2f       	mov	r28, r24
    12c2:	80 91 37 01 	lds	r24, 0x0137
    12c6:	8f 5f       	subi	r24, 0xFF	; 255
    12c8:	80 93 37 01 	sts	0x0137, r24
    12cc:	18 16       	cp	r1, r24
    12ce:	3c f4       	brge	.+14     	; 0x12de
    12d0:	15 9a       	sbi	0x02, 5	; 2
    12d2:	1d 9a       	sbi	0x03, 5	; 3
    12d4:	8c e7       	ldi	r24, 0x7C	; 124
    12d6:	94 e1       	ldi	r25, 0x14	; 20
    12d8:	0e 94 f4 02 	call	0x5e8
    12dc:	05 c0       	rjmp	.+10     	; 0x12e8
    12de:	80 91 16 01 	lds	r24, 0x0116
    12e2:	81 60       	ori	r24, 0x01	; 1
    12e4:	80 93 16 01 	sts	0x0116, r24
    12e8:	cf bf       	out	0x3f, r28	; 63
    12ea:	cf 91       	pop	r28
    12ec:	08 95       	ret

000012ee <HPLFlashM$idleWait>:
    12ee:	cf 93       	push	r28
    12f0:	ce 9b       	sbis	0x19, 6	; 25
    12f2:	2c c0       	rjmp	.+88     	; 0x134c
    12f4:	80 91 1d 01 	lds	r24, 0x011D
    12f8:	88 30       	cpi	r24, 0x08	; 8
    12fa:	61 f4       	brne	.+24     	; 0x1314
    12fc:	db 9a       	sbi	0x1b, 3	; 27
    12fe:	db 98       	cbi	0x1b, 3	; 27
    1300:	00 00       	nop
    1302:	00 00       	nop
    1304:	80 e0       	ldi	r24, 0x00	; 0
    1306:	90 e0       	ldi	r25, 0x00	; 0
    1308:	ce 99       	sbic	0x19, 6	; 25
    130a:	02 c0       	rjmp	.+4      	; 0x1310
    130c:	81 e0       	ldi	r24, 0x01	; 1
    130e:	90 e0       	ldi	r25, 0x00	; 0
    1310:	80 93 b5 01 	sts	0x01B5, r24
    1314:	81 e0       	ldi	r24, 0x01	; 1
    1316:	80 93 e9 00 	sts	0x00E9, r24
    131a:	db 98       	cbi	0x1b, 3	; 27
    131c:	8f b7       	in	r24, 0x3f	; 63
    131e:	f8 94       	cli
    1320:	c8 2f       	mov	r28, r24
    1322:	80 91 37 01 	lds	r24, 0x0137
    1326:	8f 5f       	subi	r24, 0xFF	; 255
    1328:	80 93 37 01 	sts	0x0137, r24
    132c:	18 16       	cp	r1, r24
    132e:	3c f4       	brge	.+14     	; 0x133e
    1330:	15 9a       	sbi	0x02, 5	; 2
    1332:	1d 9a       	sbi	0x03, 5	; 3
    1334:	8c e7       	ldi	r24, 0x7C	; 124
    1336:	94 e1       	ldi	r25, 0x14	; 20
    1338:	0e 94 f4 02 	call	0x5e8
    133c:	05 c0       	rjmp	.+10     	; 0x1348
    133e:	80 91 16 01 	lds	r24, 0x0116
    1342:	81 60       	ori	r24, 0x01	; 1
    1344:	80 93 16 01 	sts	0x0116, r24
    1348:	cf bf       	out	0x3f, r28	; 63
    134a:	04 c0       	rjmp	.+8      	; 0x1354
    134c:	87 e7       	ldi	r24, 0x77	; 119
    134e:	99 e0       	ldi	r25, 0x09	; 9
    1350:	0e 94 f4 02 	call	0x5e8
    1354:	cf 91       	pop	r28
    1356:	08 95       	ret

00001358 <PageEEPROMM$checkBuffer>:
    1358:	0f 93       	push	r16
    135a:	1f 93       	push	r17
    135c:	28 2f       	mov	r18, r24
    135e:	87 e0       	ldi	r24, 0x07	; 7
    1360:	80 93 1d 01 	sts	0x011D, r24
    1364:	20 93 df 00 	sts	0x00DF, r18
    1368:	82 2f       	mov	r24, r18
    136a:	99 27       	eor	r25, r25
    136c:	f9 2f       	mov	r31, r25
    136e:	e8 2f       	mov	r30, r24
    1370:	ee 0f       	add	r30, r30
    1372:	ff 1f       	adc	r31, r31
    1374:	e8 0f       	add	r30, r24
    1376:	f9 1f       	adc	r31, r25
    1378:	e3 5f       	subi	r30, 0xF3	; 243
    137a:	fe 4f       	sbci	r31, 0xFE	; 254
    137c:	22 23       	and	r18, r18
    137e:	11 f0       	breq	.+4      	; 0x1384
    1380:	60 e6       	ldi	r22, 0x60	; 96
    1382:	01 c0       	rjmp	.+2      	; 0x1386
    1384:	61 e6       	ldi	r22, 0x61	; 97
    1386:	00 e0       	ldi	r16, 0x00	; 0
    1388:	10 e0       	ldi	r17, 0x00	; 0
    138a:	20 81       	ld	r18, Z
    138c:	31 81       	ldd	r19, Z+1	; 0x01
    138e:	40 e0       	ldi	r20, 0x00	; 0
    1390:	81 e0       	ldi	r24, 0x01	; 1
    1392:	0e 94 c4 08 	call	0x1188
    1396:	1f 91       	pop	r17
    1398:	0f 91       	pop	r16
    139a:	08 95       	ret

0000139c <PageEEPROMM$sendFlashCommand>:
    139c:	cf 93       	push	r28
    139e:	df 93       	push	r29
    13a0:	90 e0       	ldi	r25, 0x00	; 0
    13a2:	69 2f       	mov	r22, r25
    13a4:	a2 e4       	ldi	r26, 0x42	; 66
    13a6:	b1 e0       	ldi	r27, 0x01	; 1
    13a8:	80 91 f3 00 	lds	r24, 0x00F3
    13ac:	48 2f       	mov	r20, r24
    13ae:	55 27       	eor	r21, r21
    13b0:	c0 e0       	ldi	r28, 0x00	; 0
    13b2:	d0 e0       	ldi	r29, 0x00	; 0
    13b4:	79 2f       	mov	r23, r25
    13b6:	8f b7       	in	r24, 0x3f	; 63
    13b8:	f8 94       	cli
    13ba:	28 2f       	mov	r18, r24
    13bc:	33 27       	eor	r19, r19
    13be:	80 91 37 01 	lds	r24, 0x0137
    13c2:	81 50       	subi	r24, 0x01	; 1
    13c4:	80 93 37 01 	sts	0x0137, r24
    13c8:	15 9a       	sbi	0x02, 5	; 2
    13ca:	1d 98       	cbi	0x03, 5	; 3
    13cc:	2f bf       	out	0x3f, r18	; 63
    13ce:	72 30       	cpi	r23, 0x02	; 2
    13d0:	b9 f4       	brne	.+46     	; 0x1400
    13d2:	e0 e6       	ldi	r30, 0x60	; 96
    13d4:	f0 e0       	ldi	r31, 0x00	; 0
    13d6:	9d 27       	eor	r25, r29
    13d8:	99 0f       	add	r25, r25
    13da:	f1 1d       	adc	r31, r1
    13dc:	e9 0f       	add	r30, r25
    13de:	f1 1d       	adc	r31, r1
    13e0:	c8 95       	lpm
    13e2:	3c 2f       	mov	r19, r28
    13e4:	20 2d       	mov	r18, r0
    13e6:	31 96       	adiw	r30, 0x01	; 1
    13e8:	c8 95       	lpm
    13ea:	30 25       	eor	r19, r0
    13ec:	d3 2f       	mov	r29, r19
    13ee:	c2 2f       	mov	r28, r18
    13f0:	41 50       	subi	r20, 0x01	; 1
    13f2:	50 40       	sbci	r21, 0x00	; 0
    13f4:	39 f5       	brne	.+78     	; 0x1444
    13f6:	30 93 ba 01 	sts	0x01BA, r19
    13fa:	20 93 b9 01 	sts	0x01B9, r18
    13fe:	5c c0       	rjmp	.+184    	; 0x14b8
    1400:	77 23       	and	r23, r23
    1402:	79 f4       	brne	.+30     	; 0x1422
    1404:	6d 91       	ld	r22, X+
    1406:	41 50       	subi	r20, 0x01	; 1
    1408:	50 40       	sbci	r21, 0x00	; 0
    140a:	e1 f4       	brne	.+56     	; 0x1444
    140c:	70 91 1d 01 	lds	r23, 0x011D
    1410:	a0 91 d2 01 	lds	r26, 0x01D2
    1414:	b0 91 d3 01 	lds	r27, 0x01D3
    1418:	40 91 f0 00 	lds	r20, 0x00F0
    141c:	50 91 f1 00 	lds	r21, 0x00F1
    1420:	11 c0       	rjmp	.+34     	; 0x1444
    1422:	71 30       	cpi	r23, 0x01	; 1
    1424:	29 f4       	brne	.+10     	; 0x1430
    1426:	9d 93       	st	X+, r25
    1428:	41 50       	subi	r20, 0x01	; 1
    142a:	50 40       	sbci	r21, 0x00	; 0
    142c:	59 f4       	brne	.+22     	; 0x1444
    142e:	44 c0       	rjmp	.+136    	; 0x14b8
    1430:	73 30       	cpi	r23, 0x03	; 3
    1432:	09 f0       	breq	.+2      	; 0x1436
    1434:	41 c0       	rjmp	.+130    	; 0x14b8
    1436:	41 15       	cp	r20, r1
    1438:	51 05       	cpc	r21, r1
    143a:	09 f4       	brne	.+2      	; 0x143e
    143c:	3d c0       	rjmp	.+122    	; 0x14b8
    143e:	6d 91       	ld	r22, X+
    1440:	41 50       	subi	r20, 0x01	; 1
    1442:	50 40       	sbci	r21, 0x00	; 0
    1444:	80 e0       	ldi	r24, 0x00	; 0
    1446:	9f b7       	in	r25, 0x3f	; 63
    1448:	f8 94       	cli
    144a:	29 2f       	mov	r18, r25
    144c:	33 27       	eor	r19, r19
    144e:	9b b3       	in	r25, 0x1b	; 27
    1450:	97 77       	andi	r25, 0x77	; 119
    1452:	9b bb       	out	0x1b, r25	; 27
    1454:	67 fd       	sbrc	r22, 7
    1456:	df 9a       	sbi	0x1b, 7	; 27
    1458:	db 9a       	sbi	0x1b, 3	; 27
    145a:	ce 99       	sbic	0x19, 6	; 25
    145c:	80 68       	ori	r24, 0x80	; 128
    145e:	9b bb       	out	0x1b, r25	; 27
    1460:	66 fd       	sbrc	r22, 6
    1462:	df 9a       	sbi	0x1b, 7	; 27
    1464:	db 9a       	sbi	0x1b, 3	; 27
    1466:	ce 99       	sbic	0x19, 6	; 25
    1468:	80 64       	ori	r24, 0x40	; 64
    146a:	9b bb       	out	0x1b, r25	; 27
    146c:	65 fd       	sbrc	r22, 5
    146e:	df 9a       	sbi	0x1b, 7	; 27
    1470:	db 9a       	sbi	0x1b, 3	; 27
    1472:	ce 99       	sbic	0x19, 6	; 25
    1474:	80 62       	ori	r24, 0x20	; 32
    1476:	9b bb       	out	0x1b, r25	; 27
    1478:	64 fd       	sbrc	r22, 4
    147a:	df 9a       	sbi	0x1b, 7	; 27
    147c:	db 9a       	sbi	0x1b, 3	; 27
    147e:	ce 99       	sbic	0x19, 6	; 25
    1480:	80 61       	ori	r24, 0x10	; 16
    1482:	9b bb       	out	0x1b, r25	; 27
    1484:	63 fd       	sbrc	r22, 3
    1486:	df 9a       	sbi	0x1b, 7	; 27
    1488:	db 9a       	sbi	0x1b, 3	; 27
    148a:	ce 99       	sbic	0x19, 6	; 25
    148c:	88 60       	ori	r24, 0x08	; 8
    148e:	9b bb       	out	0x1b, r25	; 27
    1490:	62 fd       	sbrc	r22, 2
    1492:	df 9a       	sbi	0x1b, 7	; 27
    1494:	db 9a       	sbi	0x1b, 3	; 27
    1496:	ce 99       	sbic	0x19, 6	; 25
    1498:	84 60       	ori	r24, 0x04	; 4
    149a:	9b bb       	out	0x1b, r25	; 27
    149c:	61 fd       	sbrc	r22, 1
    149e:	df 9a       	sbi	0x1b, 7	; 27
    14a0:	db 9a       	sbi	0x1b, 3	; 27
    14a2:	ce 99       	sbic	0x19, 6	; 25
    14a4:	82 60       	ori	r24, 0x02	; 2
    14a6:	9b bb       	out	0x1b, r25	; 27
    14a8:	60 fd       	sbrc	r22, 0
    14aa:	df 9a       	sbi	0x1b, 7	; 27
    14ac:	db 9a       	sbi	0x1b, 3	; 27
    14ae:	ce 99       	sbic	0x19, 6	; 25
    14b0:	81 60       	ori	r24, 0x01	; 1
    14b2:	2f bf       	out	0x3f, r18	; 63
    14b4:	98 2f       	mov	r25, r24
    14b6:	8b cf       	rjmp	.-234    	; 0x13ce
    14b8:	81 e0       	ldi	r24, 0x01	; 1
    14ba:	80 93 e9 00 	sts	0x00E9, r24
    14be:	db 98       	cbi	0x1b, 3	; 27
    14c0:	8f b7       	in	r24, 0x3f	; 63
    14c2:	f8 94       	cli
    14c4:	c8 2f       	mov	r28, r24
    14c6:	80 91 37 01 	lds	r24, 0x0137
    14ca:	8f 5f       	subi	r24, 0xFF	; 255
    14cc:	80 93 37 01 	sts	0x0137, r24
    14d0:	18 16       	cp	r1, r24
    14d2:	3c f4       	brge	.+14     	; 0x14e2
    14d4:	15 9a       	sbi	0x02, 5	; 2
    14d6:	1d 9a       	sbi	0x03, 5	; 3
    14d8:	8c e7       	ldi	r24, 0x7C	; 124
    14da:	94 e1       	ldi	r25, 0x14	; 20
    14dc:	0e 94 f4 02 	call	0x5e8
    14e0:	05 c0       	rjmp	.+10     	; 0x14ec
    14e2:	80 91 16 01 	lds	r24, 0x0116
    14e6:	81 60       	ori	r24, 0x01	; 1
    14e8:	80 93 16 01 	sts	0x0116, r24
    14ec:	cf bf       	out	0x3f, r28	; 63
    14ee:	df 91       	pop	r29
    14f0:	cf 91       	pop	r28
    14f2:	08 95       	ret

000014f4 <PageEEPROMM$flushBuffer>:
    14f4:	0f 93       	push	r16
    14f6:	1f 93       	push	r17
    14f8:	84 e0       	ldi	r24, 0x04	; 4
    14fa:	80 93 1d 01 	sts	0x011D, r24
    14fe:	40 91 d7 00 	lds	r20, 0x00D7
    1502:	24 2f       	mov	r18, r20
    1504:	33 27       	eor	r19, r19
    1506:	93 2f       	mov	r25, r19
    1508:	82 2f       	mov	r24, r18
    150a:	88 0f       	add	r24, r24
    150c:	99 1f       	adc	r25, r25
    150e:	82 0f       	add	r24, r18
    1510:	93 1f       	adc	r25, r19
    1512:	b9 2f       	mov	r27, r25
    1514:	a8 2f       	mov	r26, r24
    1516:	a3 5f       	subi	r26, 0xF3	; 243
    1518:	be 4f       	sbci	r27, 0xFE	; 254
    151a:	f9 2f       	mov	r31, r25
    151c:	e8 2f       	mov	r30, r24
    151e:	e1 5f       	subi	r30, 0xF1	; 241
    1520:	fe 4f       	sbci	r31, 0xFE	; 254
    1522:	80 81       	ld	r24, Z
    1524:	82 ff       	sbrs	r24, 2
    1526:	06 c0       	rjmp	.+12     	; 0x1534
    1528:	44 23       	and	r20, r20
    152a:	11 f0       	breq	.+4      	; 0x1530
    152c:	68 e8       	ldi	r22, 0x88	; 136
    152e:	07 c0       	rjmp	.+14     	; 0x153e
    1530:	69 e8       	ldi	r22, 0x89	; 137
    1532:	05 c0       	rjmp	.+10     	; 0x153e
    1534:	44 23       	and	r20, r20
    1536:	11 f0       	breq	.+4      	; 0x153c
    1538:	63 e8       	ldi	r22, 0x83	; 131
    153a:	01 c0       	rjmp	.+2      	; 0x153e
    153c:	66 e8       	ldi	r22, 0x86	; 134
    153e:	00 e0       	ldi	r16, 0x00	; 0
    1540:	10 e0       	ldi	r17, 0x00	; 0
    1542:	2d 91       	ld	r18, X+
    1544:	3c 91       	ld	r19, X
    1546:	40 e0       	ldi	r20, 0x00	; 0
    1548:	81 e0       	ldi	r24, 0x01	; 1
    154a:	0e 94 c4 08 	call	0x1188
    154e:	1f 91       	pop	r17
    1550:	0f 91       	pop	r16
    1552:	08 95       	ret

00001554 <LoggerM$EEPROMWrite$endWriteDone>:
    1554:	81 30       	cpi	r24, 0x01	; 1
    1556:	91 f4       	brne	.+36     	; 0x157c
    1558:	80 91 c9 01 	lds	r24, 0x01C9
    155c:	90 91 ca 01 	lds	r25, 0x01CA
    1560:	01 96       	adiw	r24, 0x01	; 1
    1562:	90 93 ca 01 	sts	0x01CA, r25
    1566:	80 93 c9 01 	sts	0x01C9, r24
    156a:	80 50       	subi	r24, 0x00	; 0
    156c:	90 48       	sbci	r25, 0x80	; 128
    156e:	31 f4       	brne	.+12     	; 0x157c
    1570:	80 e1       	ldi	r24, 0x10	; 16
    1572:	90 e0       	ldi	r25, 0x00	; 0
    1574:	90 93 ca 01 	sts	0x01CA, r25
    1578:	80 93 c9 01 	sts	0x01C9, r24
    157c:	10 92 ea 01 	sts	0x01EA, r1
    1580:	80 91 d9 00 	lds	r24, 0x00D9
    1584:	88 23       	and	r24, r24
    1586:	11 f0       	breq	.+4      	; 0x158c
    1588:	0e 94 c9 0a 	call	0x1592
    158c:	81 e0       	ldi	r24, 0x01	; 1
    158e:	90 e0       	ldi	r25, 0x00	; 0
    1590:	08 95       	ret

00001592 <AppM$saveId>:
    1592:	0f 93       	push	r16
    1594:	1f 93       	push	r17
    1596:	cf 93       	push	r28
    1598:	df 93       	push	r29
    159a:	80 91 ea 01 	lds	r24, 0x01EA
    159e:	88 23       	and	r24, r24
    15a0:	21 f0       	breq	.+8      	; 0x15aa
    15a2:	81 e0       	ldi	r24, 0x01	; 1
    15a4:	80 93 d9 00 	sts	0x00D9, r24
    15a8:	65 c0       	rjmp	.+202    	; 0x1674
    15aa:	80 93 d9 00 	sts	0x00D9, r24
    15ae:	21 e0       	ldi	r18, 0x01	; 1
    15b0:	20 93 ea 01 	sts	0x01EA, r18
    15b4:	80 e1       	ldi	r24, 0x10	; 16
    15b6:	90 e0       	ldi	r25, 0x00	; 0
    15b8:	90 93 ca 01 	sts	0x01CA, r25
    15bc:	80 93 c9 01 	sts	0x01C9, r24
    15c0:	90 91 41 01 	lds	r25, 0x0141
    15c4:	99 23       	and	r25, r25
    15c6:	19 f0       	breq	.+6      	; 0x15ce
    15c8:	80 e0       	ldi	r24, 0x00	; 0
    15ca:	90 e0       	ldi	r25, 0x00	; 0
    15cc:	09 c0       	rjmp	.+18     	; 0x15e0
    15ce:	82 e0       	ldi	r24, 0x02	; 2
    15d0:	80 93 41 01 	sts	0x0141, r24
    15d4:	20 93 f4 01 	sts	0x01F4, r18
    15d8:	90 93 13 01 	sts	0x0113, r25
    15dc:	81 e0       	ldi	r24, 0x01	; 1
    15de:	90 e0       	ldi	r25, 0x00	; 0
    15e0:	89 2b       	or	r24, r25
    15e2:	19 f4       	brne	.+6      	; 0x15ea
    15e4:	80 e0       	ldi	r24, 0x00	; 0
    15e6:	90 e0       	ldi	r25, 0x00	; 0
    15e8:	40 c0       	rjmp	.+128    	; 0x166a
    15ea:	81 e0       	ldi	r24, 0x01	; 1
    15ec:	80 93 1e 01 	sts	0x011E, r24
    15f0:	60 91 c9 01 	lds	r22, 0x01C9
    15f4:	70 91 ca 01 	lds	r23, 0x01CA
    15f8:	c6 e4       	ldi	r28, 0x46	; 70
    15fa:	d1 e0       	ldi	r29, 0x01	; 1
    15fc:	80 91 41 01 	lds	r24, 0x0141
    1600:	82 30       	cpi	r24, 0x02	; 2
    1602:	f1 f4       	brne	.+60     	; 0x1640
    1604:	90 91 13 01 	lds	r25, 0x0113
    1608:	80 e0       	ldi	r24, 0x00	; 0
    160a:	89 17       	cp	r24, r25
    160c:	c9 f4       	brne	.+50     	; 0x1640
    160e:	97 2f       	mov	r25, r23
    1610:	86 2f       	mov	r24, r22
    1612:	8f 70       	andi	r24, 0x0F	; 15
    1614:	90 70       	andi	r25, 0x00	; 0
    1616:	f4 e0       	ldi	r31, 0x04	; 4
    1618:	88 0f       	add	r24, r24
    161a:	99 1f       	adc	r25, r25
    161c:	fa 95       	dec	r31
    161e:	e1 f7       	brne	.-8      	; 0x1618
    1620:	00 e1       	ldi	r16, 0x10	; 16
    1622:	10 e0       	ldi	r17, 0x00	; 0
    1624:	2c 2f       	mov	r18, r28
    1626:	3d 2f       	mov	r19, r29
    1628:	48 2f       	mov	r20, r24
    162a:	59 2f       	mov	r21, r25
    162c:	e4 e0       	ldi	r30, 0x04	; 4
    162e:	76 95       	lsr	r23
    1630:	67 95       	ror	r22
    1632:	ea 95       	dec	r30
    1634:	e1 f7       	brne	.-8      	; 0x162e
    1636:	83 e0       	ldi	r24, 0x03	; 3
    1638:	0e 94 9a 05 	call	0xb34
    163c:	88 23       	and	r24, r24
    163e:	19 f4       	brne	.+6      	; 0x1646
    1640:	80 e0       	ldi	r24, 0x00	; 0
    1642:	90 e0       	ldi	r25, 0x00	; 0
    1644:	09 c0       	rjmp	.+18     	; 0x1658
    1646:	83 e0       	ldi	r24, 0x03	; 3
    1648:	80 93 41 01 	sts	0x0141, r24
    164c:	d0 93 af 01 	sts	0x01AF, r29
    1650:	c0 93 ae 01 	sts	0x01AE, r28
    1654:	81 e0       	ldi	r24, 0x01	; 1
    1656:	90 e0       	ldi	r25, 0x00	; 0
    1658:	99 27       	eor	r25, r25
    165a:	88 23       	and	r24, r24
    165c:	21 f4       	brne	.+8      	; 0x1666
    165e:	80 93 1e 01 	sts	0x011E, r24
    1662:	0e 94 3e 07 	call	0xe7c
    1666:	81 e0       	ldi	r24, 0x01	; 1
    1668:	90 e0       	ldi	r25, 0x00	; 0
    166a:	99 27       	eor	r25, r25
    166c:	88 23       	and	r24, r24
    166e:	11 f4       	brne	.+4      	; 0x1674
    1670:	80 93 ea 01 	sts	0x01EA, r24
    1674:	df 91       	pop	r29
    1676:	cf 91       	pop	r28
    1678:	1f 91       	pop	r17
    167a:	0f 91       	pop	r16
    167c:	08 95       	ret

0000167e <received>:
    167e:	cf 93       	push	r28
    1680:	df 93       	push	r29
    1682:	d9 2f       	mov	r29, r25
    1684:	c8 2f       	mov	r28, r24
    1686:	20 91 60 00 	lds	r18, 0x0060
    168a:	30 91 61 00 	lds	r19, 0x0061
    168e:	80 91 1b 01 	lds	r24, 0x011B
    1692:	90 91 1c 01 	lds	r25, 0x011C
    1696:	01 96       	adiw	r24, 0x01	; 1
    1698:	90 93 1c 01 	sts	0x011C, r25
    169c:	80 93 1b 01 	sts	0x011B, r24
    16a0:	8a a1       	ldd	r24, Y+34	; 0x22
    16a2:	9b a1       	ldd	r25, Y+35	; 0x23
    16a4:	01 97       	sbiw	r24, 0x01	; 1
    16a6:	09 f0       	breq	.+2      	; 0x16aa
    16a8:	64 c0       	rjmp	.+200    	; 0x1772
    16aa:	9b 81       	ldd	r25, Y+3	; 0x03
    16ac:	80 91 62 00 	lds	r24, 0x0062
    16b0:	98 17       	cp	r25, r24
    16b2:	09 f0       	breq	.+2      	; 0x16b6
    16b4:	5e c0       	rjmp	.+188    	; 0x1772
    16b6:	88 81       	ld	r24, Y
    16b8:	99 81       	ldd	r25, Y+1	; 0x01
    16ba:	4f ef       	ldi	r20, 0xFF	; 255
    16bc:	8f 3f       	cpi	r24, 0xFF	; 255
    16be:	94 07       	cpc	r25, r20
    16c0:	21 f0       	breq	.+8      	; 0x16ca
    16c2:	82 17       	cp	r24, r18
    16c4:	93 07       	cpc	r25, r19
    16c6:	09 f0       	breq	.+2      	; 0x16ca
    16c8:	54 c0       	rjmp	.+168    	; 0x1772
    16ca:	9a 81       	ldd	r25, Y+2	; 0x02
    16cc:	83 e0       	ldi	r24, 0x03	; 3
    16ce:	8c 5f       	subi	r24, 0xFC	; 252
    16d0:	8b 32       	cpi	r24, 0x2B	; 43
    16d2:	e8 f3       	brcs	.-6      	; 0x16ce
    16d4:	89 2f       	mov	r24, r25
    16d6:	99 27       	eor	r25, r25
    16d8:	8a 30       	cpi	r24, 0x0A	; 10
    16da:	91 05       	cpc	r25, r1
    16dc:	51 f0       	breq	.+20     	; 0x16f2
    16de:	8a 30       	cpi	r24, 0x0A	; 10
    16e0:	91 05       	cpc	r25, r1
    16e2:	0c f4       	brge	.+2      	; 0x16e6
    16e4:	46 c0       	rjmp	.+140    	; 0x1772
    16e6:	8b 30       	cpi	r24, 0x0B	; 11
    16e8:	91 05       	cpc	r25, r1
    16ea:	e1 f0       	breq	.+56     	; 0x1724
    16ec:	0c 97       	sbiw	r24, 0x0c	; 12
    16ee:	31 f1       	breq	.+76     	; 0x173c
    16f0:	40 c0       	rjmp	.+128    	; 0x1772
    16f2:	10 92 46 01 	sts	0x0146, r1
    16f6:	0e 94 52 01 	call	0x2a4
    16fa:	8f b7       	in	r24, 0x3f	; 63
    16fc:	f8 94       	cli
    16fe:	28 2f       	mov	r18, r24
    1700:	33 27       	eor	r19, r19
    1702:	da 98       	cbi	0x1b, 2	; 27
    1704:	80 91 d0 01 	lds	r24, 0x01D0
    1708:	81 60       	ori	r24, 0x01	; 1
    170a:	80 93 d0 01 	sts	0x01D0, r24
    170e:	2f bf       	out	0x3f, r18	; 63
    1710:	9f b7       	in	r25, 0x3f	; 63
    1712:	f8 94       	cli
    1714:	29 2f       	mov	r18, r25
    1716:	33 27       	eor	r19, r19
    1718:	d9 9a       	sbi	0x1b, 1	; 27
    171a:	8d 7f       	andi	r24, 0xFD	; 253
    171c:	80 93 d0 01 	sts	0x01D0, r24
    1720:	2f bf       	out	0x3f, r18	; 63
    1722:	09 c0       	rjmp	.+18     	; 0x1736
    1724:	80 91 cc 01 	lds	r24, 0x01CC
    1728:	88 23       	and	r24, r24
    172a:	19 f5       	brne	.+70     	; 0x1772
    172c:	8c 2f       	mov	r24, r28
    172e:	9d 2f       	mov	r25, r29
    1730:	05 96       	adiw	r24, 0x05	; 5
    1732:	0e 94 8d 06 	call	0xd1a
    1736:	0e 94 c9 0a 	call	0x1592
    173a:	1b c0       	rjmp	.+54     	; 0x1772
    173c:	8f b7       	in	r24, 0x3f	; 63
    173e:	f8 94       	cli
    1740:	38 2f       	mov	r19, r24
    1742:	20 91 d0 01 	lds	r18, 0x01D0
    1746:	22 ff       	sbrs	r18, 2
    1748:	06 c0       	rjmp	.+12     	; 0x1756
    174a:	8f b7       	in	r24, 0x3f	; 63
    174c:	f8 94       	cli
    174e:	99 27       	eor	r25, r25
    1750:	d8 9a       	sbi	0x1b, 0	; 27
    1752:	2b 7f       	andi	r18, 0xFB	; 251
    1754:	05 c0       	rjmp	.+10     	; 0x1760
    1756:	8f b7       	in	r24, 0x3f	; 63
    1758:	f8 94       	cli
    175a:	99 27       	eor	r25, r25
    175c:	d8 98       	cbi	0x1b, 0	; 27
    175e:	24 60       	ori	r18, 0x04	; 4
    1760:	20 93 d0 01 	sts	0x01D0, r18
    1764:	8f bf       	out	0x3f, r24	; 63
    1766:	3f bf       	out	0x3f, r19	; 63
    1768:	80 91 d0 00 	lds	r24, 0x00D0
    176c:	8f 5f       	subi	r24, 0xFF	; 255
    176e:	80 93 d0 00 	sts	0x00D0, r24
    1772:	8c 2f       	mov	r24, r28
    1774:	9d 2f       	mov	r25, r29
    1776:	df 91       	pop	r29
    1778:	cf 91       	pop	r28
    177a:	08 95       	ret

0000177c <__vector_9>:
    177c:	1f 92       	push	r1
    177e:	0f 92       	push	r0
    1780:	0f b6       	in	r0, 0x3f	; 63
    1782:	0f 92       	push	r0
    1784:	11 24       	eor	r1, r1
    1786:	bf 92       	push	r11
    1788:	cf 92       	push	r12
    178a:	df 92       	push	r13
    178c:	ef 92       	push	r14
    178e:	ff 92       	push	r15
    1790:	0f 93       	push	r16
    1792:	2f 93       	push	r18
    1794:	3f 93       	push	r19
    1796:	4f 93       	push	r20
    1798:	5f 93       	push	r21
    179a:	6f 93       	push	r22
    179c:	7f 93       	push	r23
    179e:	8f 93       	push	r24
    17a0:	9f 93       	push	r25
    17a2:	af 93       	push	r26
    17a4:	bf 93       	push	r27
    17a6:	cf 93       	push	r28
    17a8:	df 93       	push	r29
    17aa:	ef 93       	push	r30
    17ac:	ff 93       	push	r31
    17ae:	86 b3       	in	r24, 0x16	; 22
    17b0:	28 2f       	mov	r18, r24
    17b2:	33 27       	eor	r19, r19
    17b4:	36 95       	lsr	r19
    17b6:	27 95       	ror	r18
    17b8:	36 95       	lsr	r19
    17ba:	27 95       	ror	r18
    17bc:	21 70       	andi	r18, 0x01	; 1
    17be:	30 70       	andi	r19, 0x00	; 0
    17c0:	92 2f       	mov	r25, r18
    17c2:	8f b7       	in	r24, 0x3f	; 63
    17c4:	f8 94       	cli
    17c6:	b8 2e       	mov	r11, r24
    17c8:	00 91 ed 00 	lds	r16, 0x00ED
    17cc:	00 23       	and	r16, r16
    17ce:	09 f0       	breq	.+2      	; 0x17d2
    17d0:	a6 c0       	rjmp	.+332    	; 0x191e
    17d2:	20 91 de 01 	lds	r18, 0x01DE
    17d6:	30 91 df 01 	lds	r19, 0x01DF
    17da:	22 0f       	add	r18, r18
    17dc:	33 1f       	adc	r19, r19
    17de:	89 2f       	mov	r24, r25
    17e0:	99 27       	eor	r25, r25
    17e2:	81 70       	andi	r24, 0x01	; 1
    17e4:	90 70       	andi	r25, 0x00	; 0
    17e6:	28 2b       	or	r18, r24
    17e8:	39 2b       	or	r19, r25
    17ea:	30 93 df 01 	sts	0x01DF, r19
    17ee:	20 93 de 01 	sts	0x01DE, r18
    17f2:	80 91 08 01 	lds	r24, 0x0108
    17f6:	90 91 09 01 	lds	r25, 0x0109
    17fa:	4f ef       	ldi	r20, 0xFF	; 255
    17fc:	8f 3f       	cpi	r24, 0xFF	; 255
    17fe:	94 07       	cpc	r25, r20
    1800:	09 f4       	brne	.+2      	; 0x1804
    1802:	74 c0       	rjmp	.+232    	; 0x18ec
    1804:	01 97       	sbiw	r24, 0x01	; 1
    1806:	90 93 09 01 	sts	0x0109, r25
    180a:	80 93 08 01 	sts	0x0108, r24
    180e:	01 97       	sbiw	r24, 0x01	; 1
    1810:	09 f0       	breq	.+2      	; 0x1814
    1812:	6c c0       	rjmp	.+216    	; 0x18ec
    1814:	d3 2f       	mov	r29, r19
    1816:	c2 2f       	mov	r28, r18
    1818:	df 70       	andi	r29, 0x0F	; 15
    181a:	20 97       	sbiw	r28, 0x00	; 0
    181c:	09 f0       	breq	.+2      	; 0x1820
    181e:	5d c0       	rjmp	.+186    	; 0x18da
    1820:	8f ef       	ldi	r24, 0xFF	; 255
    1822:	9f ef       	ldi	r25, 0xFF	; 255
    1824:	90 93 09 01 	sts	0x0109, r25
    1828:	80 93 08 01 	sts	0x0108, r24
    182c:	8f b7       	in	r24, 0x3f	; 63
    182e:	f8 94       	cli
    1830:	28 2f       	mov	r18, r24
    1832:	33 27       	eor	r19, r19
    1834:	90 91 e8 00 	lds	r25, 0x00E8
    1838:	91 30       	cpi	r25, 0x01	; 1
    183a:	29 f4       	brne	.+10     	; 0x1846
    183c:	00 93 e8 00 	sts	0x00E8, r16
    1840:	86 e0       	ldi	r24, 0x06	; 6
    1842:	80 93 32 01 	sts	0x0132, r24
    1846:	2f bf       	out	0x3f, r18	; 63
    1848:	91 30       	cpi	r25, 0x01	; 1
    184a:	09 f0       	breq	.+2      	; 0x184e
    184c:	4f c0       	rjmp	.+158    	; 0x18ec
    184e:	8f b7       	in	r24, 0x3f	; 63
    1850:	f8 94       	cli
    1852:	c8 2e       	mov	r12, r24
    1854:	dd 24       	eor	r13, r13
    1856:	e0 91 da 01 	lds	r30, 0x01DA
    185a:	f0 91 db 01 	lds	r31, 0x01DB
    185e:	e0 80       	ld	r14, Z
    1860:	f0 90 63 00 	lds	r15, 0x0063
    1864:	00 93 33 01 	sts	0x0133, r16
    1868:	00 93 f2 00 	sts	0x00F2, r16
    186c:	00 93 3c 01 	sts	0x013C, r16
    1870:	8e 2d       	mov	r24, r14
    1872:	0e 94 5b 0d 	call	0x1ab6
    1876:	00 93 ee 00 	sts	0x00EE, r16
    187a:	e0 91 da 01 	lds	r30, 0x01DA
    187e:	f0 91 db 01 	lds	r31, 0x01DB
    1882:	84 81       	ldd	r24, Z+4	; 0x04
    1884:	8b 5f       	subi	r24, 0xFB	; 251
    1886:	80 93 1f 01 	sts	0x011F, r24
    188a:	cf be       	out	0x3f, r12	; 63
    188c:	8f 2d       	mov	r24, r15
    188e:	0e 94 f7 0d 	call	0x1bee
    1892:	8f b7       	in	r24, 0x3f	; 63
    1894:	80 78       	andi	r24, 0x80	; 128
    1896:	f8 94       	cli
    1898:	4c b5       	in	r20, 0x2c	; 44
    189a:	5d b5       	in	r21, 0x2d	; 45
    189c:	88 23       	and	r24, r24
    189e:	09 f0       	breq	.+2      	; 0x18a2
    18a0:	78 94       	sei
    18a2:	e0 e6       	ldi	r30, 0x60	; 96
    18a4:	f0 e0       	ldi	r31, 0x00	; 0
    18a6:	ed 26       	eor	r14, r29
    18a8:	ee 0c       	add	r14, r14
    18aa:	f1 1d       	adc	r31, r1
    18ac:	ee 0d       	add	r30, r14
    18ae:	f1 1d       	adc	r31, r1
    18b0:	c8 95       	lpm
    18b2:	3c 2f       	mov	r19, r28
    18b4:	20 2d       	mov	r18, r0
    18b6:	31 96       	adiw	r30, 0x01	; 1
    18b8:	c8 95       	lpm
    18ba:	30 25       	eor	r19, r0
    18bc:	8f b7       	in	r24, 0x3f	; 63
    18be:	f8 94       	cli
    18c0:	99 27       	eor	r25, r25
    18c2:	e0 91 da 01 	lds	r30, 0x01DA
    18c6:	f0 91 db 01 	lds	r31, 0x01DB
    18ca:	47 a3       	std	Z+39, r20	; 0x27
    18cc:	50 a7       	std	Z+40, r21	; 0x28
    18ce:	30 93 d4 00 	sts	0x00D4, r19
    18d2:	20 93 d3 00 	sts	0x00D3, r18
    18d6:	8f bf       	out	0x3f, r24	; 63
    18d8:	09 c0       	rjmp	.+18     	; 0x18ec
    18da:	0e 94 c1 10 	call	0x2182
    18de:	8f 71       	andi	r24, 0x1F	; 31
    18e0:	90 70       	andi	r25, 0x00	; 0
    18e2:	4e 96       	adiw	r24, 0x1e	; 30
    18e4:	90 93 09 01 	sts	0x0109, r25
    18e8:	80 93 08 01 	sts	0x0108, r24
    18ec:	80 91 de 01 	lds	r24, 0x01DE
    18f0:	90 91 df 01 	lds	r25, 0x01DF
    18f4:	87 77       	andi	r24, 0x77	; 119
    18f6:	97 70       	andi	r25, 0x07	; 7
    18f8:	87 50       	subi	r24, 0x07	; 7
    18fa:	97 40       	sbci	r25, 0x07	; 7
    18fc:	09 f0       	breq	.+2      	; 0x1900
    18fe:	c1 c0       	rjmp	.+386    	; 0x1a82
    1900:	81 e0       	ldi	r24, 0x01	; 1
    1902:	80 93 ed 00 	sts	0x00ED, r24
    1906:	10 92 e1 01 	sts	0x01E1, r1
    190a:	10 92 e0 01 	sts	0x01E0, r1
    190e:	10 92 df 01 	sts	0x01DF, r1
    1912:	10 92 de 01 	sts	0x01DE, r1
    1916:	8e e1       	ldi	r24, 0x1E	; 30
    1918:	80 93 d8 00 	sts	0x00D8, r24
    191c:	b2 c0       	rjmp	.+356    	; 0x1a82
    191e:	01 30       	cpi	r16, 0x01	; 1
    1920:	09 f0       	breq	.+2      	; 0x1924
    1922:	af c0       	rjmp	.+350    	; 0x1a82
    1924:	80 91 b2 01 	lds	r24, 0x01B2
    1928:	e8 2f       	mov	r30, r24
    192a:	ff 27       	eor	r31, r31
    192c:	ee 0f       	add	r30, r30
    192e:	ff 1f       	adc	r31, r31
    1930:	e2 52       	subi	r30, 0x22	; 34
    1932:	fe 4f       	sbci	r31, 0xFE	; 254
    1934:	40 81       	ld	r20, Z
    1936:	51 81       	ldd	r21, Z+1	; 0x01
    1938:	80 91 d8 00 	lds	r24, 0x00D8
    193c:	81 50       	subi	r24, 0x01	; 1
    193e:	80 93 d8 00 	sts	0x00D8, r24
    1942:	88 23       	and	r24, r24
    1944:	11 f4       	brne	.+4      	; 0x194a
    1946:	80 93 ed 00 	sts	0x00ED, r24
    194a:	80 91 ed 00 	lds	r24, 0x00ED
    194e:	88 23       	and	r24, r24
    1950:	09 f4       	brne	.+2      	; 0x1954
    1952:	97 c0       	rjmp	.+302    	; 0x1a82
    1954:	44 0f       	add	r20, r20
    1956:	55 1f       	adc	r21, r21
    1958:	51 70       	andi	r21, 0x01	; 1
    195a:	21 11       	cpse	r18, r1
    195c:	41 60       	ori	r20, 0x01	; 1
    195e:	81 e0       	ldi	r24, 0x01	; 1
    1960:	45 33       	cpi	r20, 0x35	; 53
    1962:	58 07       	cpc	r21, r24
    1964:	09 f0       	breq	.+2      	; 0x1968
    1966:	7b c0       	rjmp	.+246    	; 0x1a5e
    1968:	87 b7       	in	r24, 0x37	; 55
    196a:	8f 77       	andi	r24, 0x7F	; 127
    196c:	87 bf       	out	0x37, r24	; 55
    196e:	10 92 ed 00 	sts	0x00ED, r1
    1972:	8f b7       	in	r24, 0x3f	; 63
    1974:	f8 94       	cli
    1976:	28 2f       	mov	r18, r24
    1978:	33 27       	eor	r19, r19
    197a:	10 92 ec 00 	sts	0x00EC, r1
    197e:	10 92 74 00 	sts	0x0074, r1
    1982:	82 e0       	ldi	r24, 0x02	; 2
    1984:	80 93 32 01 	sts	0x0132, r24
    1988:	2f bf       	out	0x3f, r18	; 63
    198a:	bc 98       	cbi	0x17, 4	; 23
    198c:	b2 99       	sbic	0x16, 2	; 22
    198e:	fe cf       	rjmp	.-4      	; 0x198c
    1990:	81 e4       	ldi	r24, 0x41	; 65
    1992:	8e bd       	out	0x2e, r24	; 46
    1994:	80 e2       	ldi	r24, 0x20	; 32
    1996:	86 bf       	out	0x36, r24	; 54
    1998:	06 b6       	in	r0, 0x36	; 54
    199a:	05 fe       	sbrs	r0, 5
    199c:	fd cf       	rjmp	.-6      	; 0x1998
    199e:	c6 9a       	sbi	0x18, 6	; 24
    19a0:	c6 98       	cbi	0x18, 6	; 24
    19a2:	8f b7       	in	r24, 0x3f	; 63
    19a4:	80 78       	andi	r24, 0x80	; 128
    19a6:	f8 94       	cli
    19a8:	66 b5       	in	r22, 0x26	; 38
    19aa:	77 b5       	in	r23, 0x27	; 39
    19ac:	88 23       	and	r24, r24
    19ae:	09 f0       	breq	.+2      	; 0x19b2
    19b0:	78 94       	sei
    19b2:	8f b7       	in	r24, 0x3f	; 63
    19b4:	f8 94       	cli
    19b6:	28 2f       	mov	r18, r24
    19b8:	33 27       	eor	r19, r19
    19ba:	90 91 cf 00 	lds	r25, 0x00CF
    19be:	99 23       	and	r25, r25
    19c0:	19 f4       	brne	.+6      	; 0x19c8
    19c2:	83 e0       	ldi	r24, 0x03	; 3
    19c4:	80 93 cf 00 	sts	0x00CF, r24
    19c8:	2f bf       	out	0x3f, r18	; 63
    19ca:	99 23       	and	r25, r25
    19cc:	a1 f5       	brne	.+104    	; 0x1a36
    19ce:	8f b7       	in	r24, 0x3f	; 63
    19d0:	f8 94       	cli
    19d2:	28 2f       	mov	r18, r24
    19d4:	33 27       	eor	r19, r19
    19d6:	80 91 37 01 	lds	r24, 0x0137
    19da:	81 50       	subi	r24, 0x01	; 1
    19dc:	80 93 37 01 	sts	0x0137, r24
    19e0:	15 9a       	sbi	0x02, 5	; 2
    19e2:	1d 98       	cbi	0x03, 5	; 3
    19e4:	2f bf       	out	0x3f, r18	; 63
    19e6:	9d b9       	out	0x0d, r25	; 13
    19e8:	c7 98       	cbi	0x18, 7	; 24
    19ea:	bf 9a       	sbi	0x17, 7	; 23
    19ec:	95 bd       	out	0x25, r25	; 37
    19ee:	81 e0       	ldi	r24, 0x01	; 1
    19f0:	84 bd       	out	0x24, r24	; 36
    19f2:	82 e3       	ldi	r24, 0x32	; 50
    19f4:	83 bd       	out	0x23, r24	; 35
    19f6:	26 2f       	mov	r18, r22
    19f8:	37 2f       	mov	r19, r23
    19fa:	23 58       	subi	r18, 0x83	; 131
    19fc:	3e 4f       	sbci	r19, 0xFE	; 254
    19fe:	8f ef       	ldi	r24, 0xFF	; 255
    1a00:	21 3f       	cpi	r18, 0xF1	; 241
    1a02:	38 07       	cpc	r19, r24
    1a04:	10 f0       	brcs	.+4      	; 0x1a0a
    1a06:	20 ef       	ldi	r18, 0xF0	; 240
    1a08:	3f ef       	ldi	r19, 0xFF	; 255
    1a0a:	89 e1       	ldi	r24, 0x19	; 25
    1a0c:	85 bd       	out	0x25, r24	; 37
    1a0e:	8e e1       	ldi	r24, 0x1E	; 30
    1a10:	84 bd       	out	0x24, r24	; 36
    1a12:	b7 99       	sbic	0x16, 7	; 22
    1a14:	fe cf       	rjmp	.-4      	; 0x1a12
    1a16:	8c b5       	in	r24, 0x2c	; 44
    1a18:	9d b5       	in	r25, 0x2d	; 45
    1a1a:	82 17       	cp	r24, r18
    1a1c:	93 07       	cpc	r25, r19
    1a1e:	30 f4       	brcc	.+12     	; 0x1a2c
    1a20:	14 bc       	out	0x24, r1	; 36
    1a22:	8c b5       	in	r24, 0x2c	; 44
    1a24:	9d b5       	in	r25, 0x2d	; 45
    1a26:	82 17       	cp	r24, r18
    1a28:	93 07       	cpc	r25, r19
    1a2a:	d0 f3       	brcs	.-12     	; 0x1a20
    1a2c:	80 ec       	ldi	r24, 0xC0	; 192
    1a2e:	8d b9       	out	0x0d, r24	; 13
    1a30:	1f b8       	out	0x0f, r1	; 15
    1a32:	c6 9a       	sbi	0x18, 6	; 24
    1a34:	c6 98       	cbi	0x18, 6	; 24
    1a36:	8f b7       	in	r24, 0x3f	; 63
    1a38:	f8 94       	cli
    1a3a:	28 2f       	mov	r18, r24
    1a3c:	33 27       	eor	r19, r19
    1a3e:	82 e2       	ldi	r24, 0x22	; 34
    1a40:	80 93 1f 01 	sts	0x011F, r24
    1a44:	10 92 d4 00 	sts	0x00D4, r1
    1a48:	10 92 d3 00 	sts	0x00D3, r1
    1a4c:	e0 91 3a 01 	lds	r30, 0x013A
    1a50:	f0 91 3b 01 	lds	r31, 0x013B
    1a54:	67 a3       	std	Z+39, r22	; 0x27
    1a56:	70 a7       	std	Z+40, r23	; 0x28
    1a58:	14 a2       	std	Z+36, r1	; 0x24
    1a5a:	15 a2       	std	Z+37, r1	; 0x25
    1a5c:	2f bf       	out	0x3f, r18	; 63
    1a5e:	80 91 ed 00 	lds	r24, 0x00ED
    1a62:	88 23       	and	r24, r24
    1a64:	71 f0       	breq	.+28     	; 0x1a82
    1a66:	80 91 b2 01 	lds	r24, 0x01B2
    1a6a:	e8 2f       	mov	r30, r24
    1a6c:	ff 27       	eor	r31, r31
    1a6e:	ee 0f       	add	r30, r30
    1a70:	ff 1f       	adc	r31, r31
    1a72:	e2 52       	subi	r30, 0x22	; 34
    1a74:	fe 4f       	sbci	r31, 0xFE	; 254
    1a76:	40 83       	st	Z, r20
    1a78:	51 83       	std	Z+1, r21	; 0x01
    1a7a:	91 e0       	ldi	r25, 0x01	; 1
    1a7c:	89 27       	eor	r24, r25
    1a7e:	80 93 b2 01 	sts	0x01B2, r24
    1a82:	bf be       	out	0x3f, r11	; 63
    1a84:	ff 91       	pop	r31
    1a86:	ef 91       	pop	r30
    1a88:	df 91       	pop	r29
    1a8a:	cf 91       	pop	r28
    1a8c:	bf 91       	pop	r27
    1a8e:	af 91       	pop	r26
    1a90:	9f 91       	pop	r25
    1a92:	8f 91       	pop	r24
    1a94:	7f 91       	pop	r23
    1a96:	6f 91       	pop	r22
    1a98:	5f 91       	pop	r21
    1a9a:	4f 91       	pop	r20
    1a9c:	3f 91       	pop	r19
    1a9e:	2f 91       	pop	r18
    1aa0:	0f 91       	pop	r16
    1aa2:	ff 90       	pop	r15
    1aa4:	ef 90       	pop	r14
    1aa6:	df 90       	pop	r13
    1aa8:	cf 90       	pop	r12
    1aaa:	bf 90       	pop	r11
    1aac:	0f 90       	pop	r0
    1aae:	0f be       	out	0x3f, r0	; 63
    1ab0:	0f 90       	pop	r0
    1ab2:	1f 90       	pop	r1
    1ab4:	18 95       	reti

00001ab6 <SecDedEncoding$Code$encode>:
    1ab6:	1f 93       	push	r17
    1ab8:	cf 93       	push	r28
    1aba:	48 2f       	mov	r20, r24
    1abc:	8f b7       	in	r24, 0x3f	; 63
    1abe:	f8 94       	cli
    1ac0:	28 2f       	mov	r18, r24
    1ac2:	33 27       	eor	r19, r19
    1ac4:	90 91 0c 01 	lds	r25, 0x010C
    1ac8:	99 23       	and	r25, r25
    1aca:	29 f4       	brne	.+10     	; 0x1ad6
    1acc:	84 e0       	ldi	r24, 0x04	; 4
    1ace:	80 93 0c 01 	sts	0x010C, r24
    1ad2:	40 93 f6 00 	sts	0x00F6, r20
    1ad6:	2f bf       	out	0x3f, r18	; 63
    1ad8:	99 23       	and	r25, r25
    1ada:	09 f0       	breq	.+2      	; 0x1ade
    1adc:	68 c0       	rjmp	.+208    	; 0x1bae
    1ade:	49 2f       	mov	r20, r25
    1ae0:	8f b7       	in	r24, 0x3f	; 63
    1ae2:	f8 94       	cli
    1ae4:	99 27       	eor	r25, r25
    1ae6:	50 91 f6 00 	lds	r21, 0x00F6
    1aea:	8f bf       	out	0x3f, r24	; 63
    1aec:	25 2f       	mov	r18, r21
    1aee:	33 27       	eor	r19, r19
    1af0:	27 fd       	sbrc	r18, 7
    1af2:	30 95       	com	r19
    1af4:	20 ff       	sbrs	r18, 0
    1af6:	03 c0       	rjmp	.+6      	; 0x1afe
    1af8:	4b e5       	ldi	r20, 0x5B	; 91
    1afa:	11 e0       	ldi	r17, 0x01	; 1
    1afc:	01 c0       	rjmp	.+2      	; 0x1b00
    1afe:	12 e0       	ldi	r17, 0x02	; 2
    1b00:	21 ff       	sbrs	r18, 1
    1b02:	04 c0       	rjmp	.+8      	; 0x1b0c
    1b04:	88 e5       	ldi	r24, 0x58	; 88
    1b06:	48 27       	eor	r20, r24
    1b08:	14 60       	ori	r17, 0x04	; 4
    1b0a:	01 c0       	rjmp	.+2      	; 0x1b0e
    1b0c:	18 60       	ori	r17, 0x08	; 8
    1b0e:	22 ff       	sbrs	r18, 2
    1b10:	04 c0       	rjmp	.+8      	; 0x1b1a
    1b12:	82 e5       	ldi	r24, 0x52	; 82
    1b14:	48 27       	eor	r20, r24
    1b16:	10 61       	ori	r17, 0x10	; 16
    1b18:	01 c0       	rjmp	.+2      	; 0x1b1c
    1b1a:	10 62       	ori	r17, 0x20	; 32
    1b1c:	23 ff       	sbrs	r18, 3
    1b1e:	04 c0       	rjmp	.+8      	; 0x1b28
    1b20:	81 e5       	ldi	r24, 0x51	; 81
    1b22:	48 27       	eor	r20, r24
    1b24:	10 64       	ori	r17, 0x40	; 64
    1b26:	01 c0       	rjmp	.+2      	; 0x1b2a
    1b28:	10 68       	ori	r17, 0x80	; 128
    1b2a:	24 ff       	sbrs	r18, 4
    1b2c:	04 c0       	rjmp	.+8      	; 0x1b36
    1b2e:	8a e4       	ldi	r24, 0x4A	; 74
    1b30:	48 27       	eor	r20, r24
    1b32:	c1 e0       	ldi	r28, 0x01	; 1
    1b34:	01 c0       	rjmp	.+2      	; 0x1b38
    1b36:	c2 e0       	ldi	r28, 0x02	; 2
    1b38:	25 ff       	sbrs	r18, 5
    1b3a:	04 c0       	rjmp	.+8      	; 0x1b44
    1b3c:	89 e4       	ldi	r24, 0x49	; 73
    1b3e:	48 27       	eor	r20, r24
    1b40:	c4 60       	ori	r28, 0x04	; 4
    1b42:	01 c0       	rjmp	.+2      	; 0x1b46
    1b44:	c8 60       	ori	r28, 0x08	; 8
    1b46:	26 ff       	sbrs	r18, 6
    1b48:	04 c0       	rjmp	.+8      	; 0x1b52
    1b4a:	83 e1       	ldi	r24, 0x13	; 19
    1b4c:	48 27       	eor	r20, r24
    1b4e:	c0 61       	ori	r28, 0x10	; 16
    1b50:	01 c0       	rjmp	.+2      	; 0x1b54
    1b52:	c0 62       	ori	r28, 0x20	; 32
    1b54:	57 ff       	sbrs	r21, 7
    1b56:	04 c0       	rjmp	.+8      	; 0x1b60
    1b58:	8b e0       	ldi	r24, 0x0B	; 11
    1b5a:	48 27       	eor	r20, r24
    1b5c:	c0 64       	ori	r28, 0x40	; 64
    1b5e:	01 c0       	rjmp	.+2      	; 0x1b62
    1b60:	c0 68       	ori	r28, 0x80	; 128
    1b62:	46 ff       	sbrs	r20, 6
    1b64:	40 68       	ori	r20, 0x80	; 128
    1b66:	84 2f       	mov	r24, r20
    1b68:	99 27       	eor	r25, r25
    1b6a:	87 fd       	sbrc	r24, 7
    1b6c:	90 95       	com	r25
    1b6e:	80 75       	andi	r24, 0x50	; 80
    1b70:	90 70       	andi	r25, 0x00	; 0
    1b72:	89 2b       	or	r24, r25
    1b74:	09 f4       	brne	.+2      	; 0x1b78
    1b76:	40 62       	ori	r20, 0x20	; 32
    1b78:	84 2f       	mov	r24, r20
    1b7a:	99 27       	eor	r25, r25
    1b7c:	87 fd       	sbrc	r24, 7
    1b7e:	90 95       	com	r25
    1b80:	8a 70       	andi	r24, 0x0A	; 10
    1b82:	90 70       	andi	r25, 0x00	; 0
    1b84:	89 2b       	or	r24, r25
    1b86:	09 f4       	brne	.+2      	; 0x1b8a
    1b88:	44 60       	ori	r20, 0x04	; 4
    1b8a:	8f b7       	in	r24, 0x3f	; 63
    1b8c:	f8 94       	cli
    1b8e:	99 27       	eor	r25, r25
    1b90:	10 92 0c 01 	sts	0x010C, r1
    1b94:	8f bf       	out	0x3f, r24	; 63
    1b96:	84 2f       	mov	r24, r20
    1b98:	0e 94 dc 0d 	call	0x1bb8
    1b9c:	8c 2f       	mov	r24, r28
    1b9e:	0e 94 dc 0d 	call	0x1bb8
    1ba2:	81 2f       	mov	r24, r17
    1ba4:	0e 94 dc 0d 	call	0x1bb8
    1ba8:	81 e0       	ldi	r24, 0x01	; 1
    1baa:	90 e0       	ldi	r25, 0x00	; 0
    1bac:	02 c0       	rjmp	.+4      	; 0x1bb2
    1bae:	80 e0       	ldi	r24, 0x00	; 0
    1bb0:	90 e0       	ldi	r25, 0x00	; 0
    1bb2:	cf 91       	pop	r28
    1bb4:	1f 91       	pop	r17
    1bb6:	08 95       	ret

00001bb8 <MicaHighSpeedRadioM$Code$encodeDone>:
    1bb8:	98 2f       	mov	r25, r24
    1bba:	8f b7       	in	r24, 0x3f	; 63
    1bbc:	f8 94       	cli
    1bbe:	28 2f       	mov	r18, r24
    1bc0:	33 27       	eor	r19, r19
    1bc2:	80 91 f2 00 	lds	r24, 0x00F2
    1bc6:	e8 2f       	mov	r30, r24
    1bc8:	ff 27       	eor	r31, r31
    1bca:	e7 fd       	sbrc	r30, 7
    1bcc:	f0 95       	com	r31
    1bce:	eb 52       	subi	r30, 0x2B	; 43
    1bd0:	fe 4f       	sbci	r31, 0xFE	; 254
    1bd2:	90 83       	st	Z, r25
    1bd4:	8f 5f       	subi	r24, 0xFF	; 255
    1bd6:	83 70       	andi	r24, 0x03	; 3
    1bd8:	80 93 f2 00 	sts	0x00F2, r24
    1bdc:	80 91 3c 01 	lds	r24, 0x013C
    1be0:	8f 5f       	subi	r24, 0xFF	; 255
    1be2:	80 93 3c 01 	sts	0x013C, r24
    1be6:	2f bf       	out	0x3f, r18	; 63
    1be8:	81 e0       	ldi	r24, 0x01	; 1
    1bea:	90 e0       	ldi	r25, 0x00	; 0
    1bec:	08 95       	ret

00001bee <SpiByteFifoC$SpiByteFifo$send>:
    1bee:	0f 93       	push	r16
    1bf0:	1f 93       	push	r17
    1bf2:	cf 93       	push	r28
    1bf4:	18 2f       	mov	r17, r24
    1bf6:	c0 e0       	ldi	r28, 0x00	; 0
    1bf8:	8f b7       	in	r24, 0x3f	; 63
    1bfa:	f8 94       	cli
    1bfc:	08 2f       	mov	r16, r24
    1bfe:	80 91 cf 00 	lds	r24, 0x00CF
    1c02:	82 30       	cpi	r24, 0x02	; 2
    1c04:	31 f4       	brne	.+12     	; 0x1c12
    1c06:	10 93 f2 01 	sts	0x01F2, r17
    1c0a:	81 e0       	ldi	r24, 0x01	; 1
    1c0c:	80 93 cf 00 	sts	0x00CF, r24
    1c10:	26 c0       	rjmp	.+76     	; 0x1c5e
    1c12:	88 23       	and	r24, r24
    1c14:	29 f5       	brne	.+74     	; 0x1c60
    1c16:	82 e0       	ldi	r24, 0x02	; 2
    1c18:	80 93 cf 00 	sts	0x00CF, r24
    1c1c:	8c 2f       	mov	r24, r28
    1c1e:	0e 94 37 0e 	call	0x1c6e
    1c22:	8f b7       	in	r24, 0x3f	; 63
    1c24:	f8 94       	cli
    1c26:	28 2f       	mov	r18, r24
    1c28:	33 27       	eor	r19, r19
    1c2a:	80 91 37 01 	lds	r24, 0x0137
    1c2e:	81 50       	subi	r24, 0x01	; 1
    1c30:	80 93 37 01 	sts	0x0137, r24
    1c34:	15 9a       	sbi	0x02, 5	; 2
    1c36:	1d 98       	cbi	0x03, 5	; 3
    1c38:	2f bf       	out	0x3f, r18	; 63
    1c3a:	c7 98       	cbi	0x18, 7	; 24
    1c3c:	bf 9a       	sbi	0x17, 7	; 23
    1c3e:	80 ec       	ldi	r24, 0xC0	; 192
    1c40:	8d b9       	out	0x0d, r24	; 13
    1c42:	1f b9       	out	0x0f, r17	; 15
    1c44:	97 98       	cbi	0x12, 7	; 18
    1c46:	96 9a       	sbi	0x12, 6	; 18
    1c48:	87 b7       	in	r24, 0x37	; 55
    1c4a:	8f 7b       	andi	r24, 0xBF	; 191
    1c4c:	87 bf       	out	0x37, r24	; 55
    1c4e:	87 b7       	in	r24, 0x37	; 55
    1c50:	8f 77       	andi	r24, 0x7F	; 127
    1c52:	87 bf       	out	0x37, r24	; 55
    1c54:	c4 bd       	out	0x24, r28	; 36
    1c56:	82 e3       	ldi	r24, 0x32	; 50
    1c58:	83 bd       	out	0x23, r24	; 35
    1c5a:	89 e1       	ldi	r24, 0x19	; 25
    1c5c:	85 bd       	out	0x25, r24	; 37
    1c5e:	c1 e0       	ldi	r28, 0x01	; 1
    1c60:	0f bf       	out	0x3f, r16	; 63
    1c62:	8c 2f       	mov	r24, r28
    1c64:	99 27       	eor	r25, r25
    1c66:	cf 91       	pop	r28
    1c68:	1f 91       	pop	r17
    1c6a:	0f 91       	pop	r16
    1c6c:	08 95       	ret

00001c6e <MicaHighSpeedRadioM$SpiByteFifo$dataReady>:
    1c6e:	0f 93       	push	r16
    1c70:	1f 93       	push	r17
    1c72:	cf 93       	push	r28
    1c74:	c8 2f       	mov	r28, r24
    1c76:	8f b7       	in	r24, 0x3f	; 63
    1c78:	f8 94       	cli
    1c7a:	08 2f       	mov	r16, r24
    1c7c:	e0 91 32 01 	lds	r30, 0x0132
    1c80:	e6 30       	cpi	r30, 0x06	; 6
    1c82:	d1 f4       	brne	.+52     	; 0x1cb8
    1c84:	80 91 e3 00 	lds	r24, 0x00E3
    1c88:	e8 2f       	mov	r30, r24
    1c8a:	ff 27       	eor	r31, r31
    1c8c:	e7 fd       	sbrc	r30, 7
    1c8e:	f0 95       	com	r31
    1c90:	ed 59       	subi	r30, 0x9D	; 157
    1c92:	ff 4f       	sbci	r31, 0xFF	; 255
    1c94:	80 81       	ld	r24, Z
    1c96:	0e 94 f7 0d 	call	0x1bee
    1c9a:	80 91 e3 00 	lds	r24, 0x00E3
    1c9e:	8f 5f       	subi	r24, 0xFF	; 255
    1ca0:	80 93 e3 00 	sts	0x00E3, r24
    1ca4:	8c 30       	cpi	r24, 0x0C	; 12
    1ca6:	09 f0       	breq	.+2      	; 0x1caa
    1ca8:	22 c2       	rjmp	.+1092   	; 0x20ee
    1caa:	83 e0       	ldi	r24, 0x03	; 3
    1cac:	80 93 32 01 	sts	0x0132, r24
    1cb0:	81 e0       	ldi	r24, 0x01	; 1
    1cb2:	80 93 e3 00 	sts	0x00E3, r24
    1cb6:	1b c2       	rjmp	.+1078   	; 0x20ee
    1cb8:	e3 30       	cpi	r30, 0x03	; 3
    1cba:	09 f0       	breq	.+2      	; 0x1cbe
    1cbc:	65 c0       	rjmp	.+202    	; 0x1d88
    1cbe:	80 91 33 01 	lds	r24, 0x0133
    1cc2:	e8 2f       	mov	r30, r24
    1cc4:	ff 27       	eor	r31, r31
    1cc6:	e7 fd       	sbrc	r30, 7
    1cc8:	f0 95       	com	r31
    1cca:	eb 52       	subi	r30, 0x2B	; 43
    1ccc:	fe 4f       	sbci	r31, 0xFE	; 254
    1cce:	80 81       	ld	r24, Z
    1cd0:	0e 94 f7 0d 	call	0x1bee
    1cd4:	90 91 33 01 	lds	r25, 0x0133
    1cd8:	9f 5f       	subi	r25, 0xFF	; 255
    1cda:	93 70       	andi	r25, 0x03	; 3
    1cdc:	90 93 33 01 	sts	0x0133, r25
    1ce0:	80 91 3c 01 	lds	r24, 0x013C
    1ce4:	81 50       	subi	r24, 0x01	; 1
    1ce6:	80 93 3c 01 	sts	0x013C, r24
    1cea:	82 30       	cpi	r24, 0x02	; 2
    1cec:	0c f0       	brlt	.+2      	; 0x1cf0
    1cee:	ff c1       	rjmp	.+1022   	; 0x20ee
    1cf0:	80 91 e3 00 	lds	r24, 0x00E3
    1cf4:	84 32       	cpi	r24, 0x24	; 36
    1cf6:	0c f0       	brlt	.+2      	; 0x1cfa
    1cf8:	3c c0       	rjmp	.+120    	; 0x1d72
    1cfa:	99 27       	eor	r25, r25
    1cfc:	87 fd       	sbrc	r24, 7
    1cfe:	90 95       	com	r25
    1d00:	e0 91 da 01 	lds	r30, 0x01DA
    1d04:	f0 91 db 01 	lds	r31, 0x01DB
    1d08:	e8 0f       	add	r30, r24
    1d0a:	f9 1f       	adc	r31, r25
    1d0c:	c0 81       	ld	r28, Z
    1d0e:	8c 2f       	mov	r24, r28
    1d10:	0e 94 5b 0d 	call	0x1ab6
    1d14:	30 91 e3 00 	lds	r19, 0x00E3
    1d18:	3f 5f       	subi	r19, 0xFF	; 255
    1d1a:	30 93 e3 00 	sts	0x00E3, r19
    1d1e:	40 91 1f 01 	lds	r20, 0x011F
    1d22:	43 17       	cp	r20, r19
    1d24:	ac f0       	brlt	.+42     	; 0x1d50
    1d26:	80 91 d3 00 	lds	r24, 0x00D3
    1d2a:	90 91 d4 00 	lds	r25, 0x00D4
    1d2e:	e0 e6       	ldi	r30, 0x60	; 96
    1d30:	f0 e0       	ldi	r31, 0x00	; 0
    1d32:	c9 27       	eor	r28, r25
    1d34:	cc 0f       	add	r28, r28
    1d36:	f1 1d       	adc	r31, r1
    1d38:	ec 0f       	add	r30, r28
    1d3a:	f1 1d       	adc	r31, r1
    1d3c:	c8 95       	lpm
    1d3e:	98 2f       	mov	r25, r24
    1d40:	80 2d       	mov	r24, r0
    1d42:	31 96       	adiw	r30, 0x01	; 1
    1d44:	c8 95       	lpm
    1d46:	90 25       	eor	r25, r0
    1d48:	90 93 d4 00 	sts	0x00D4, r25
    1d4c:	80 93 d3 00 	sts	0x00D3, r24
    1d50:	34 17       	cp	r19, r20
    1d52:	09 f0       	breq	.+2      	; 0x1d56
    1d54:	cc c1       	rjmp	.+920    	; 0x20ee
    1d56:	82 e2       	ldi	r24, 0x22	; 34
    1d58:	80 93 e3 00 	sts	0x00E3, r24
    1d5c:	e0 91 da 01 	lds	r30, 0x01DA
    1d60:	f0 91 db 01 	lds	r31, 0x01DB
    1d64:	80 91 d3 00 	lds	r24, 0x00D3
    1d68:	90 91 d4 00 	lds	r25, 0x00D4
    1d6c:	82 a3       	std	Z+34, r24	; 0x22
    1d6e:	93 a3       	std	Z+35, r25	; 0x23
    1d70:	be c1       	rjmp	.+892    	; 0x20ee
    1d72:	80 91 f2 00 	lds	r24, 0x00F2
    1d76:	98 17       	cp	r25, r24
    1d78:	09 f0       	breq	.+2      	; 0x1d7c
    1d7a:	b9 c1       	rjmp	.+882    	; 0x20ee
    1d7c:	85 e0       	ldi	r24, 0x05	; 5
    1d7e:	80 93 32 01 	sts	0x0132, r24
    1d82:	10 92 e3 00 	sts	0x00E3, r1
    1d86:	b3 c1       	rjmp	.+870    	; 0x20ee
    1d88:	e5 30       	cpi	r30, 0x05	; 5
    1d8a:	e9 f4       	brne	.+58     	; 0x1dc6
    1d8c:	80 91 e3 00 	lds	r24, 0x00E3
    1d90:	8f 5f       	subi	r24, 0xFF	; 255
    1d92:	80 93 e3 00 	sts	0x00E3, r24
    1d96:	83 30       	cpi	r24, 0x03	; 3
    1d98:	91 f4       	brne	.+36     	; 0x1dbe
    1d9a:	84 e0       	ldi	r24, 0x04	; 4
    1d9c:	80 93 32 01 	sts	0x0132, r24
    1da0:	8f b7       	in	r24, 0x3f	; 63
    1da2:	f8 94       	cli
    1da4:	28 2f       	mov	r18, r24
    1da6:	33 27       	eor	r19, r19
    1da8:	94 b5       	in	r25, 0x24	; 36
    1daa:	95 31       	cpi	r25, 0x15	; 21
    1dac:	08 f0       	brcs	.+2      	; 0x1db0
    1dae:	94 51       	subi	r25, 0x14	; 20
    1db0:	94 bd       	out	0x24, r25	; 36
    1db2:	2f bf       	out	0x3f, r18	; 63
    1db4:	81 e0       	ldi	r24, 0x01	; 1
    1db6:	80 93 e3 00 	sts	0x00E3, r24
    1dba:	80 e0       	ldi	r24, 0x00	; 0
    1dbc:	01 c0       	rjmp	.+2      	; 0x1dc0
    1dbe:	8f ef       	ldi	r24, 0xFF	; 255
    1dc0:	0e 94 f7 0d 	call	0x1bee
    1dc4:	94 c1       	rjmp	.+808    	; 0x20ee
    1dc6:	e4 30       	cpi	r30, 0x04	; 4
    1dc8:	39 f5       	brne	.+78     	; 0x1e18
    1dca:	cf 77       	andi	r28, 0x7F	; 127
    1dcc:	80 e0       	ldi	r24, 0x00	; 0
    1dce:	0e 94 f7 0d 	call	0x1bee
    1dd2:	20 91 e3 00 	lds	r18, 0x00E3
    1dd6:	21 30       	cpi	r18, 0x01	; 1
    1dd8:	41 f4       	brne	.+16     	; 0x1dea
    1dda:	8f b7       	in	r24, 0x3f	; 63
    1ddc:	f8 94       	cli
    1dde:	99 27       	eor	r25, r25
    1de0:	c3 98       	cbi	0x18, 3	; 24
    1de2:	bb 98       	cbi	0x17, 3	; 23
    1de4:	97 9a       	sbi	0x12, 7	; 18
    1de6:	96 9a       	sbi	0x12, 6	; 18
    1de8:	8f bf       	out	0x3f, r24	; 63
    1dea:	82 2f       	mov	r24, r18
    1dec:	8f 5f       	subi	r24, 0xFF	; 255
    1dee:	80 93 e3 00 	sts	0x00E3, r24
    1df2:	86 30       	cpi	r24, 0x06	; 6
    1df4:	09 f0       	breq	.+2      	; 0x1df8
    1df6:	7b c1       	rjmp	.+758    	; 0x20ee
    1df8:	e0 91 da 01 	lds	r30, 0x01DA
    1dfc:	f0 91 db 01 	lds	r31, 0x01DB
    1e00:	80 e0       	ldi	r24, 0x00	; 0
    1e02:	c5 35       	cpi	r28, 0x55	; 85
    1e04:	09 f4       	brne	.+2      	; 0x1e08
    1e06:	81 e0       	ldi	r24, 0x01	; 1
    1e08:	86 a3       	std	Z+38, r24	; 0x26
    1e0a:	10 92 32 01 	sts	0x0132, r1
    1e0e:	0e 94 7e 10 	call	0x20fc
    1e12:	8c e8       	ldi	r24, 0x8C	; 140
    1e14:	95 e1       	ldi	r25, 0x15	; 21
    1e16:	62 c1       	rjmp	.+708    	; 0x20dc
    1e18:	e2 30       	cpi	r30, 0x02	; 2
    1e1a:	09 f0       	breq	.+2      	; 0x1e1e
    1e1c:	4f c1       	rjmp	.+670    	; 0x20bc
    1e1e:	8f b7       	in	r24, 0x3f	; 63
    1e20:	f8 94       	cli
    1e22:	18 2f       	mov	r17, r24
    1e24:	50 91 0c 01 	lds	r21, 0x010C
    1e28:	55 23       	and	r21, r21
    1e2a:	31 f4       	brne	.+12     	; 0x1e38
    1e2c:	83 e0       	ldi	r24, 0x03	; 3
    1e2e:	80 93 0c 01 	sts	0x010C, r24
    1e32:	c0 93 f6 00 	sts	0x00F6, r28
    1e36:	40 c1       	rjmp	.+640    	; 0x20b8
    1e38:	53 30       	cpi	r21, 0x03	; 3
    1e3a:	29 f4       	brne	.+10     	; 0x1e46
    1e3c:	e0 93 0c 01 	sts	0x010C, r30
    1e40:	c0 93 e9 01 	sts	0x01E9, r28
    1e44:	39 c1       	rjmp	.+626    	; 0x20b8
    1e46:	52 30       	cpi	r21, 0x02	; 2
    1e48:	09 f0       	breq	.+2      	; 0x1e4c
    1e4a:	36 c1       	rjmp	.+620    	; 0x20b8
    1e4c:	f1 e0       	ldi	r31, 0x01	; 1
    1e4e:	f0 93 0c 01 	sts	0x010C, r31
    1e52:	c0 93 e8 01 	sts	0x01E8, r28
    1e56:	60 e0       	ldi	r22, 0x00	; 0
    1e58:	70 e0       	ldi	r23, 0x00	; 0
    1e5a:	8f b7       	in	r24, 0x3f	; 63
    1e5c:	f8 94       	cli
    1e5e:	99 27       	eor	r25, r25
    1e60:	40 91 f6 00 	lds	r20, 0x00F6
    1e64:	20 91 e9 01 	lds	r18, 0x01E9
    1e68:	8f bf       	out	0x3f, r24	; 63
    1e6a:	8c 2f       	mov	r24, r28
    1e6c:	99 27       	eor	r25, r25
    1e6e:	87 fd       	sbrc	r24, 7
    1e70:	90 95       	com	r25
    1e72:	80 fd       	sbrc	r24, 0
    1e74:	61 e0       	ldi	r22, 0x01	; 1
    1e76:	82 fd       	sbrc	r24, 2
    1e78:	62 60       	ori	r22, 0x02	; 2
    1e7a:	84 fd       	sbrc	r24, 4
    1e7c:	64 60       	ori	r22, 0x04	; 4
    1e7e:	86 fd       	sbrc	r24, 6
    1e80:	68 60       	ori	r22, 0x08	; 8
    1e82:	82 2f       	mov	r24, r18
    1e84:	99 27       	eor	r25, r25
    1e86:	87 fd       	sbrc	r24, 7
    1e88:	90 95       	com	r25
    1e8a:	80 fd       	sbrc	r24, 0
    1e8c:	60 61       	ori	r22, 0x10	; 16
    1e8e:	82 fd       	sbrc	r24, 2
    1e90:	60 62       	ori	r22, 0x20	; 32
    1e92:	84 fd       	sbrc	r24, 4
    1e94:	60 64       	ori	r22, 0x40	; 64
    1e96:	86 fd       	sbrc	r24, 6
    1e98:	60 68       	ori	r22, 0x80	; 128
    1e9a:	24 2f       	mov	r18, r20
    1e9c:	33 27       	eor	r19, r19
    1e9e:	27 fd       	sbrc	r18, 7
    1ea0:	30 95       	com	r19
    1ea2:	93 2f       	mov	r25, r19
    1ea4:	82 2f       	mov	r24, r18
    1ea6:	88 71       	andi	r24, 0x18	; 24
    1ea8:	90 70       	andi	r25, 0x00	; 0
    1eaa:	95 95       	asr	r25
    1eac:	87 95       	ror	r24
    1eae:	43 70       	andi	r20, 0x03	; 3
    1eb0:	48 2b       	or	r20, r24
    1eb2:	20 74       	andi	r18, 0x40	; 64
    1eb4:	30 70       	andi	r19, 0x00	; 0
    1eb6:	35 95       	asr	r19
    1eb8:	27 95       	ror	r18
    1eba:	35 95       	asr	r19
    1ebc:	27 95       	ror	r18
    1ebe:	42 2b       	or	r20, r18
    1ec0:	95 e0       	ldi	r25, 0x05	; 5
    1ec2:	66 0f       	add	r22, r22
    1ec4:	77 1f       	adc	r23, r23
    1ec6:	9a 95       	dec	r25
    1ec8:	e1 f7       	brne	.-8      	; 0x1ec2
    1eca:	84 2f       	mov	r24, r20
    1ecc:	99 27       	eor	r25, r25
    1ece:	87 fd       	sbrc	r24, 7
    1ed0:	90 95       	com	r25
    1ed2:	68 2b       	or	r22, r24
    1ed4:	79 2b       	or	r23, r25
    1ed6:	40 e0       	ldi	r20, 0x00	; 0
    1ed8:	60 fd       	sbrc	r22, 0
    1eda:	4f 2f       	mov	r20, r31
    1edc:	61 fd       	sbrc	r22, 1
    1ede:	45 27       	eor	r20, r21
    1ee0:	62 ff       	sbrs	r22, 2
    1ee2:	02 c0       	rjmp	.+4      	; 0x1ee8
    1ee4:	84 e0       	ldi	r24, 0x04	; 4
    1ee6:	48 27       	eor	r20, r24
    1ee8:	63 ff       	sbrs	r22, 3
    1eea:	02 c0       	rjmp	.+4      	; 0x1ef0
    1eec:	88 e0       	ldi	r24, 0x08	; 8
    1eee:	48 27       	eor	r20, r24
    1ef0:	64 ff       	sbrs	r22, 4
    1ef2:	02 c0       	rjmp	.+4      	; 0x1ef8
    1ef4:	80 e1       	ldi	r24, 0x10	; 16
    1ef6:	48 27       	eor	r20, r24
    1ef8:	65 ff       	sbrs	r22, 5
    1efa:	02 c0       	rjmp	.+4      	; 0x1f00
    1efc:	8f e1       	ldi	r24, 0x1F	; 31
    1efe:	48 27       	eor	r20, r24
    1f00:	66 ff       	sbrs	r22, 6
    1f02:	02 c0       	rjmp	.+4      	; 0x1f08
    1f04:	8c e1       	ldi	r24, 0x1C	; 28
    1f06:	48 27       	eor	r20, r24
    1f08:	86 2f       	mov	r24, r22
    1f0a:	80 78       	andi	r24, 0x80	; 128
    1f0c:	11 f0       	breq	.+4      	; 0x1f12
    1f0e:	8a e1       	ldi	r24, 0x1A	; 26
    1f10:	48 27       	eor	r20, r24
    1f12:	70 ff       	sbrs	r23, 0
    1f14:	02 c0       	rjmp	.+4      	; 0x1f1a
    1f16:	89 e1       	ldi	r24, 0x19	; 25
    1f18:	48 27       	eor	r20, r24
    1f1a:	71 ff       	sbrs	r23, 1
    1f1c:	02 c0       	rjmp	.+4      	; 0x1f22
    1f1e:	86 e1       	ldi	r24, 0x16	; 22
    1f20:	48 27       	eor	r20, r24
    1f22:	72 ff       	sbrs	r23, 2
    1f24:	02 c0       	rjmp	.+4      	; 0x1f2a
    1f26:	85 e1       	ldi	r24, 0x15	; 21
    1f28:	48 27       	eor	r20, r24
    1f2a:	73 ff       	sbrs	r23, 3
    1f2c:	02 c0       	rjmp	.+4      	; 0x1f32
    1f2e:	8b e0       	ldi	r24, 0x0B	; 11
    1f30:	48 27       	eor	r20, r24
    1f32:	74 ff       	sbrs	r23, 4
    1f34:	02 c0       	rjmp	.+4      	; 0x1f3a
    1f36:	87 e0       	ldi	r24, 0x07	; 7
    1f38:	48 27       	eor	r20, r24
    1f3a:	44 23       	and	r20, r20
    1f3c:	09 f4       	brne	.+2      	; 0x1f40
    1f3e:	42 c0       	rjmp	.+132    	; 0x1fc4
    1f40:	41 30       	cpi	r20, 0x01	; 1
    1f42:	19 f4       	brne	.+6      	; 0x1f4a
    1f44:	81 e0       	ldi	r24, 0x01	; 1
    1f46:	90 e0       	ldi	r25, 0x00	; 0
    1f48:	3b c0       	rjmp	.+118    	; 0x1fc0
    1f4a:	42 30       	cpi	r20, 0x02	; 2
    1f4c:	19 f4       	brne	.+6      	; 0x1f54
    1f4e:	82 e0       	ldi	r24, 0x02	; 2
    1f50:	90 e0       	ldi	r25, 0x00	; 0
    1f52:	36 c0       	rjmp	.+108    	; 0x1fc0
    1f54:	44 30       	cpi	r20, 0x04	; 4
    1f56:	19 f4       	brne	.+6      	; 0x1f5e
    1f58:	84 e0       	ldi	r24, 0x04	; 4
    1f5a:	90 e0       	ldi	r25, 0x00	; 0
    1f5c:	31 c0       	rjmp	.+98     	; 0x1fc0
    1f5e:	48 30       	cpi	r20, 0x08	; 8
    1f60:	19 f4       	brne	.+6      	; 0x1f68
    1f62:	88 e0       	ldi	r24, 0x08	; 8
    1f64:	90 e0       	ldi	r25, 0x00	; 0
    1f66:	2c c0       	rjmp	.+88     	; 0x1fc0
    1f68:	40 31       	cpi	r20, 0x10	; 16
    1f6a:	19 f4       	brne	.+6      	; 0x1f72
    1f6c:	80 e1       	ldi	r24, 0x10	; 16
    1f6e:	90 e0       	ldi	r25, 0x00	; 0
    1f70:	27 c0       	rjmp	.+78     	; 0x1fc0
    1f72:	4f 31       	cpi	r20, 0x1F	; 31
    1f74:	19 f4       	brne	.+6      	; 0x1f7c
    1f76:	80 e2       	ldi	r24, 0x20	; 32
    1f78:	90 e0       	ldi	r25, 0x00	; 0
    1f7a:	22 c0       	rjmp	.+68     	; 0x1fc0
    1f7c:	4c 31       	cpi	r20, 0x1C	; 28
    1f7e:	19 f4       	brne	.+6      	; 0x1f86
    1f80:	80 e4       	ldi	r24, 0x40	; 64
    1f82:	90 e0       	ldi	r25, 0x00	; 0
    1f84:	1d c0       	rjmp	.+58     	; 0x1fc0
    1f86:	4a 31       	cpi	r20, 0x1A	; 26
    1f88:	19 f4       	brne	.+6      	; 0x1f90
    1f8a:	80 e8       	ldi	r24, 0x80	; 128
    1f8c:	90 e0       	ldi	r25, 0x00	; 0
    1f8e:	18 c0       	rjmp	.+48     	; 0x1fc0
    1f90:	49 31       	cpi	r20, 0x19	; 25
    1f92:	19 f4       	brne	.+6      	; 0x1f9a
    1f94:	80 e0       	ldi	r24, 0x00	; 0
    1f96:	91 e0       	ldi	r25, 0x01	; 1
    1f98:	13 c0       	rjmp	.+38     	; 0x1fc0
    1f9a:	46 31       	cpi	r20, 0x16	; 22
    1f9c:	19 f4       	brne	.+6      	; 0x1fa4
    1f9e:	80 e0       	ldi	r24, 0x00	; 0
    1fa0:	92 e0       	ldi	r25, 0x02	; 2
    1fa2:	0e c0       	rjmp	.+28     	; 0x1fc0
    1fa4:	45 31       	cpi	r20, 0x15	; 21
    1fa6:	19 f4       	brne	.+6      	; 0x1fae
    1fa8:	80 e0       	ldi	r24, 0x00	; 0
    1faa:	94 e0       	ldi	r25, 0x04	; 4
    1fac:	09 c0       	rjmp	.+18     	; 0x1fc0
    1fae:	4b 30       	cpi	r20, 0x0B	; 11
    1fb0:	19 f4       	brne	.+6      	; 0x1fb8
    1fb2:	80 e0       	ldi	r24, 0x00	; 0
    1fb4:	98 e0       	ldi	r25, 0x08	; 8
    1fb6:	04 c0       	rjmp	.+8      	; 0x1fc0
    1fb8:	47 30       	cpi	r20, 0x07	; 7
    1fba:	21 f4       	brne	.+8      	; 0x1fc4
    1fbc:	80 e0       	ldi	r24, 0x00	; 0
    1fbe:	90 e1       	ldi	r25, 0x10	; 16
    1fc0:	68 27       	eor	r22, r24
    1fc2:	79 27       	eor	r23, r25
    1fc4:	8f b7       	in	r24, 0x3f	; 63
    1fc6:	f8 94       	cli
    1fc8:	99 27       	eor	r25, r25
    1fca:	10 92 0c 01 	sts	0x010C, r1
    1fce:	8f bf       	out	0x3f, r24	; 63
    1fd0:	46 2f       	mov	r20, r22
    1fd2:	57 2f       	mov	r21, r23
    1fd4:	85 e0       	ldi	r24, 0x05	; 5
    1fd6:	55 95       	asr	r21
    1fd8:	47 95       	ror	r20
    1fda:	8a 95       	dec	r24
    1fdc:	e1 f7       	brne	.-8      	; 0x1fd6
    1fde:	34 2f       	mov	r19, r20
    1fe0:	8f b7       	in	r24, 0x3f	; 63
    1fe2:	f8 94       	cli
    1fe4:	c8 2f       	mov	r28, r24
    1fe6:	ee 23       	and	r30, r30
    1fe8:	09 f4       	brne	.+2      	; 0x1fec
    1fea:	65 c0       	rjmp	.+202    	; 0x20b6
    1fec:	e2 30       	cpi	r30, 0x02	; 2
    1fee:	09 f0       	breq	.+2      	; 0x1ff2
    1ff0:	62 c0       	rjmp	.+196    	; 0x20b6
    1ff2:	80 91 74 00 	lds	r24, 0x0074
    1ff6:	99 27       	eor	r25, r25
    1ff8:	87 fd       	sbrc	r24, 7
    1ffa:	90 95       	com	r25
    1ffc:	e0 91 3a 01 	lds	r30, 0x013A
    2000:	f0 91 3b 01 	lds	r31, 0x013B
    2004:	e8 0f       	add	r30, r24
    2006:	f9 1f       	adc	r31, r25
    2008:	40 83       	st	Z, r20
    200a:	40 91 74 00 	lds	r20, 0x0074
    200e:	4f 5f       	subi	r20, 0xFF	; 255
    2010:	40 93 74 00 	sts	0x0074, r20
    2014:	44 32       	cpi	r20, 0x24	; 36
    2016:	3c f1       	brlt	.+78     	; 0x2066
    2018:	e0 91 3a 01 	lds	r30, 0x013A
    201c:	f0 91 3b 01 	lds	r31, 0x013B
    2020:	20 91 d3 00 	lds	r18, 0x00D3
    2024:	30 91 d4 00 	lds	r19, 0x00D4
    2028:	82 a1       	ldd	r24, Z+34	; 0x22
    202a:	93 a1       	ldd	r25, Z+35	; 0x23
    202c:	28 17       	cp	r18, r24
    202e:	39 07       	cpc	r19, r25
    2030:	a1 f4       	brne	.+40     	; 0x205a
    2032:	81 e0       	ldi	r24, 0x01	; 1
    2034:	90 e0       	ldi	r25, 0x00	; 0
    2036:	82 a3       	std	Z+34, r24	; 0x22
    2038:	93 a3       	std	Z+35, r25	; 0x23
    203a:	20 81       	ld	r18, Z
    203c:	31 81       	ldd	r19, Z+1	; 0x01
    203e:	80 91 60 00 	lds	r24, 0x0060
    2042:	90 91 61 00 	lds	r25, 0x0061
    2046:	28 17       	cp	r18, r24
    2048:	39 07       	cpc	r19, r25
    204a:	19 f0       	breq	.+6      	; 0x2052
    204c:	2f 5f       	subi	r18, 0xFF	; 255
    204e:	3f 4f       	sbci	r19, 0xFF	; 255
    2050:	31 f4       	brne	.+12     	; 0x205e
    2052:	85 e5       	ldi	r24, 0x55	; 85
    2054:	0e 94 f7 0d 	call	0x1bee
    2058:	02 c0       	rjmp	.+4      	; 0x205e
    205a:	12 a2       	std	Z+34, r1	; 0x22
    205c:	13 a2       	std	Z+35, r1	; 0x23
    205e:	88 e0       	ldi	r24, 0x08	; 8
    2060:	80 93 32 01 	sts	0x0132, r24
    2064:	28 c0       	rjmp	.+80     	; 0x20b6
    2066:	43 32       	cpi	r20, 0x23	; 35
    2068:	34 f5       	brge	.+76     	; 0x20b6
    206a:	80 91 d3 00 	lds	r24, 0x00D3
    206e:	90 91 d4 00 	lds	r25, 0x00D4
    2072:	e0 e6       	ldi	r30, 0x60	; 96
    2074:	f0 e0       	ldi	r31, 0x00	; 0
    2076:	23 2f       	mov	r18, r19
    2078:	29 27       	eor	r18, r25
    207a:	22 0f       	add	r18, r18
    207c:	f1 1d       	adc	r31, r1
    207e:	e2 0f       	add	r30, r18
    2080:	f1 1d       	adc	r31, r1
    2082:	c8 95       	lpm
    2084:	98 2f       	mov	r25, r24
    2086:	80 2d       	mov	r24, r0
    2088:	31 96       	adiw	r30, 0x01	; 1
    208a:	c8 95       	lpm
    208c:	90 25       	eor	r25, r0
    208e:	90 93 d4 00 	sts	0x00D4, r25
    2092:	80 93 d3 00 	sts	0x00D3, r24
    2096:	45 30       	cpi	r20, 0x05	; 5
    2098:	29 f4       	brne	.+10     	; 0x20a4
    209a:	3d 31       	cpi	r19, 0x1D	; 29
    209c:	18 f4       	brcc	.+6      	; 0x20a4
    209e:	3b 5f       	subi	r19, 0xFB	; 251
    20a0:	30 93 1f 01 	sts	0x011F, r19
    20a4:	90 91 74 00 	lds	r25, 0x0074
    20a8:	80 91 1f 01 	lds	r24, 0x011F
    20ac:	98 17       	cp	r25, r24
    20ae:	19 f4       	brne	.+6      	; 0x20b6
    20b0:	82 e2       	ldi	r24, 0x22	; 34
    20b2:	80 93 74 00 	sts	0x0074, r24
    20b6:	cf bf       	out	0x3f, r28	; 63
    20b8:	1f bf       	out	0x3f, r17	; 63
    20ba:	19 c0       	rjmp	.+50     	; 0x20ee
    20bc:	e8 30       	cpi	r30, 0x08	; 8
    20be:	b9 f4       	brne	.+46     	; 0x20ee
    20c0:	80 91 ec 00 	lds	r24, 0x00EC
    20c4:	8f 5f       	subi	r24, 0xFF	; 255
    20c6:	80 93 ec 00 	sts	0x00EC, r24
    20ca:	86 30       	cpi	r24, 0x06	; 6
    20cc:	50 f0       	brcs	.+20     	; 0x20e2
    20ce:	87 e0       	ldi	r24, 0x07	; 7
    20d0:	80 93 32 01 	sts	0x0132, r24
    20d4:	0e 94 7e 10 	call	0x20fc
    20d8:	8f e6       	ldi	r24, 0x6F	; 111
    20da:	95 e1       	ldi	r25, 0x15	; 21
    20dc:	0e 94 f4 02 	call	0x5e8
    20e0:	06 c0       	rjmp	.+12     	; 0x20ee
    20e2:	8f b7       	in	r24, 0x3f	; 63
    20e4:	f8 94       	cli
    20e6:	99 27       	eor	r25, r25
    20e8:	97 98       	cbi	0x12, 7	; 18
    20ea:	96 9a       	sbi	0x12, 6	; 18
    20ec:	8f bf       	out	0x3f, r24	; 63
    20ee:	0f bf       	out	0x3f, r16	; 63
    20f0:	81 e0       	ldi	r24, 0x01	; 1
    20f2:	90 e0       	ldi	r25, 0x00	; 0
    20f4:	cf 91       	pop	r28
    20f6:	1f 91       	pop	r17
    20f8:	0f 91       	pop	r16
    20fa:	08 95       	ret

000020fc <SpiByteFifoC$SpiByteFifo$idle>:
    20fc:	1f 93       	push	r17
    20fe:	cf 93       	push	r28
    2100:	8f b7       	in	r24, 0x3f	; 63
    2102:	f8 94       	cli
    2104:	18 2f       	mov	r17, r24
    2106:	1d b8       	out	0x0d, r1	; 13
    2108:	1f b8       	out	0x0f, r1	; 15
    210a:	15 bc       	out	0x25, r1	; 37
    210c:	10 92 f2 01 	sts	0x01F2, r1
    2110:	8f b7       	in	r24, 0x3f	; 63
    2112:	f8 94       	cli
    2114:	c8 2f       	mov	r28, r24
    2116:	80 91 37 01 	lds	r24, 0x0137
    211a:	8f 5f       	subi	r24, 0xFF	; 255
    211c:	80 93 37 01 	sts	0x0137, r24
    2120:	90 91 16 01 	lds	r25, 0x0116
    2124:	18 16       	cp	r1, r24
    2126:	4c f4       	brge	.+18     	; 0x213a
    2128:	15 9a       	sbi	0x02, 5	; 2
    212a:	1d 9a       	sbi	0x03, 5	; 3
    212c:	99 23       	and	r25, r25
    212e:	39 f0       	breq	.+14     	; 0x213e
    2130:	8c e7       	ldi	r24, 0x7C	; 124
    2132:	94 e1       	ldi	r25, 0x14	; 20
    2134:	0e 94 f4 02 	call	0x5e8
    2138:	02 c0       	rjmp	.+4      	; 0x213e
    213a:	90 93 16 01 	sts	0x0116, r25
    213e:	cf bf       	out	0x3f, r28	; 63
    2140:	bb 9a       	sbi	0x17, 3	; 23
    2142:	c3 98       	cbi	0x18, 3	; 24
    2144:	97 98       	cbi	0x12, 7	; 18
    2146:	96 98       	cbi	0x12, 6	; 18
    2148:	10 92 cf 00 	sts	0x00CF, r1
    214c:	10 92 f2 01 	sts	0x01F2, r1
    2150:	1f bf       	out	0x3f, r17	; 63
    2152:	81 e0       	ldi	r24, 0x01	; 1
    2154:	90 e0       	ldi	r25, 0x00	; 0
    2156:	cf 91       	pop	r28
    2158:	1f 91       	pop	r17
    215a:	08 95       	ret

0000215c <AMStandard$reportSendDone>:
    215c:	f9 2f       	mov	r31, r25
    215e:	e8 2f       	mov	r30, r24
    2160:	10 92 e3 01 	sts	0x01E3, r1
    2164:	82 81       	ldd	r24, Z+2	; 0x02
    2166:	8c 30       	cpi	r24, 0x0C	; 12
    2168:	49 f4       	brne	.+18     	; 0x217c
    216a:	80 91 34 01 	lds	r24, 0x0134
    216e:	88 23       	and	r24, r24
    2170:	29 f0       	breq	.+10     	; 0x217c
    2172:	e3 58       	subi	r30, 0x83	; 131
    2174:	f1 40       	sbci	r31, 0x01	; 1
    2176:	11 f4       	brne	.+4      	; 0x217c
    2178:	10 92 34 01 	sts	0x0134, r1
    217c:	81 e0       	ldi	r24, 0x01	; 1
    217e:	90 e0       	ldi	r25, 0x00	; 0
    2180:	08 95       	ret

00002182 <RandomLFSR$Random$rand>:
    2182:	8f b7       	in	r24, 0x3f	; 63
    2184:	f8 94       	cli
    2186:	48 2f       	mov	r20, r24
    2188:	55 27       	eor	r21, r21
    218a:	20 91 c7 01 	lds	r18, 0x01C7
    218e:	30 91 c8 01 	lds	r19, 0x01C8
    2192:	83 2f       	mov	r24, r19
    2194:	88 1f       	adc	r24, r24
    2196:	88 27       	eor	r24, r24
    2198:	88 1f       	adc	r24, r24
    219a:	22 0f       	add	r18, r18
    219c:	33 1f       	adc	r19, r19
    219e:	88 23       	and	r24, r24
    21a0:	21 f0       	breq	.+8      	; 0x21aa
    21a2:	8b e0       	ldi	r24, 0x0B	; 11
    21a4:	90 e1       	ldi	r25, 0x10	; 16
    21a6:	28 27       	eor	r18, r24
    21a8:	39 27       	eor	r19, r25
    21aa:	2f 5f       	subi	r18, 0xFF	; 255
    21ac:	3f 4f       	sbci	r19, 0xFF	; 255
    21ae:	30 93 c8 01 	sts	0x01C8, r19
    21b2:	20 93 c7 01 	sts	0x01C7, r18
    21b6:	80 91 e1 00 	lds	r24, 0x00E1
    21ba:	90 91 e2 00 	lds	r25, 0x00E2
    21be:	28 27       	eor	r18, r24
    21c0:	39 27       	eor	r19, r25
    21c2:	4f bf       	out	0x3f, r20	; 63
    21c4:	93 2f       	mov	r25, r19
    21c6:	82 2f       	mov	r24, r18
    21c8:	08 95       	ret

000021ca <FramerM$ByteComm$rxByteReady>:
    21ca:	38 2f       	mov	r19, r24
    21cc:	80 91 d1 01 	lds	r24, 0x01D1
    21d0:	99 27       	eor	r25, r25
    21d2:	82 30       	cpi	r24, 0x02	; 2
    21d4:	91 05       	cpc	r25, r1
    21d6:	09 f4       	brne	.+2      	; 0x21da
    21d8:	6d c0       	rjmp	.+218    	; 0x22b4
    21da:	83 30       	cpi	r24, 0x03	; 3
    21dc:	91 05       	cpc	r25, r1
    21de:	2c f4       	brge	.+10     	; 0x21ea
    21e0:	00 97       	sbiw	r24, 0x00	; 0
    21e2:	59 f0       	breq	.+22     	; 0x21fa
    21e4:	01 97       	sbiw	r24, 0x01	; 1
    21e6:	89 f1       	breq	.+98     	; 0x224a
    21e8:	c0 c1       	rjmp	.+896    	; 0x256a
    21ea:	83 30       	cpi	r24, 0x03	; 3
    21ec:	91 05       	cpc	r25, r1
    21ee:	09 f4       	brne	.+2      	; 0x21f2
    21f0:	a0 c0       	rjmp	.+320    	; 0x2332
    21f2:	04 97       	sbiw	r24, 0x04	; 4
    21f4:	09 f4       	brne	.+2      	; 0x21f8
    21f6:	61 c1       	rjmp	.+706    	; 0x24ba
    21f8:	b8 c1       	rjmp	.+880    	; 0x256a
    21fa:	3e 37       	cpi	r19, 0x7E	; 126
    21fc:	09 f0       	breq	.+2      	; 0x2200
    21fe:	b7 c1       	rjmp	.+878    	; 0x256e
    2200:	80 91 b0 01 	lds	r24, 0x01B0
    2204:	99 27       	eor	r25, r25
    2206:	f9 2f       	mov	r31, r25
    2208:	e8 2f       	mov	r30, r24
    220a:	ee 0f       	add	r30, r30
    220c:	ff 1f       	adc	r31, r31
    220e:	ee 0f       	add	r30, r30
    2210:	ff 1f       	adc	r31, r31
    2212:	e8 0f       	add	r30, r24
    2214:	f9 1f       	adc	r31, r25
    2216:	e8 0f       	add	r30, r24
    2218:	f9 1f       	adc	r31, r25
    221a:	e5 54       	subi	r30, 0x45	; 69
    221c:	fe 4f       	sbci	r31, 0xFE	; 254
    221e:	82 81       	ldd	r24, Z+2	; 0x02
    2220:	93 81       	ldd	r25, Z+3	; 0x03
    2222:	00 97       	sbiw	r24, 0x00	; 0
    2224:	09 f0       	breq	.+2      	; 0x2228
    2226:	a3 c1       	rjmp	.+838    	; 0x256e
    2228:	11 82       	std	Z+1, r1	; 0x01
    222a:	90 93 0b 01 	sts	0x010B, r25
    222e:	80 93 0a 01 	sts	0x010A, r24
    2232:	90 93 e7 00 	sts	0x00E7, r25
    2236:	80 93 e6 00 	sts	0x00E6, r24
    223a:	84 81       	ldd	r24, Z+4	; 0x04
    223c:	95 81       	ldd	r25, Z+5	; 0x05
    223e:	90 93 cf 01 	sts	0x01CF, r25
    2242:	80 93 ce 01 	sts	0x01CE, r24
    2246:	81 e0       	ldi	r24, 0x01	; 1
    2248:	8d c1       	rjmp	.+794    	; 0x2564
    224a:	3e 37       	cpi	r19, 0x7E	; 126
    224c:	09 f4       	brne	.+2      	; 0x2250
    224e:	8f c1       	rjmp	.+798    	; 0x256e
    2250:	80 91 b0 01 	lds	r24, 0x01B0
    2254:	99 27       	eor	r25, r25
    2256:	f9 2f       	mov	r31, r25
    2258:	e8 2f       	mov	r30, r24
    225a:	ee 0f       	add	r30, r30
    225c:	ff 1f       	adc	r31, r31
    225e:	ee 0f       	add	r30, r30
    2260:	ff 1f       	adc	r31, r31
    2262:	e8 0f       	add	r30, r24
    2264:	f9 1f       	adc	r31, r25
    2266:	e8 0f       	add	r30, r24
    2268:	f9 1f       	adc	r31, r25
    226a:	e5 54       	subi	r30, 0x45	; 69
    226c:	fe 4f       	sbci	r31, 0xFE	; 254
    226e:	30 83       	st	Z, r19
    2270:	80 91 0a 01 	lds	r24, 0x010A
    2274:	90 91 0b 01 	lds	r25, 0x010B
    2278:	e0 e6       	ldi	r30, 0x60	; 96
    227a:	f0 e0       	ldi	r31, 0x00	; 0
    227c:	23 2f       	mov	r18, r19
    227e:	29 27       	eor	r18, r25
    2280:	22 0f       	add	r18, r18
    2282:	f1 1d       	adc	r31, r1
    2284:	e2 0f       	add	r30, r18
    2286:	f1 1d       	adc	r31, r1
    2288:	c8 95       	lpm
    228a:	98 2f       	mov	r25, r24
    228c:	80 2d       	mov	r24, r0
    228e:	31 96       	adiw	r30, 0x01	; 1
    2290:	c8 95       	lpm
    2292:	90 25       	eor	r25, r0
    2294:	90 93 0b 01 	sts	0x010B, r25
    2298:	80 93 0a 01 	sts	0x010A, r24
    229c:	83 2f       	mov	r24, r19
    229e:	99 27       	eor	r25, r25
    22a0:	81 34       	cpi	r24, 0x41	; 65
    22a2:	91 05       	cpc	r25, r1
    22a4:	29 f0       	breq	.+10     	; 0x22b0
    22a6:	82 34       	cpi	r24, 0x42	; 66
    22a8:	91 05       	cpc	r25, r1
    22aa:	09 f4       	brne	.+2      	; 0x22ae
    22ac:	5a c1       	rjmp	.+692    	; 0x2562
    22ae:	5d c1       	rjmp	.+698    	; 0x256a
    22b0:	82 e0       	ldi	r24, 0x02	; 2
    22b2:	58 c1       	rjmp	.+688    	; 0x2564
    22b4:	3e 37       	cpi	r19, 0x7E	; 126
    22b6:	09 f4       	brne	.+2      	; 0x22ba
    22b8:	58 c1       	rjmp	.+688    	; 0x256a
    22ba:	60 91 b0 01 	lds	r22, 0x01B0
    22be:	3d 37       	cpi	r19, 0x7D	; 125
    22c0:	89 f4       	brne	.+34     	; 0x22e4
    22c2:	86 2f       	mov	r24, r22
    22c4:	99 27       	eor	r25, r25
    22c6:	f9 2f       	mov	r31, r25
    22c8:	e8 2f       	mov	r30, r24
    22ca:	ee 0f       	add	r30, r30
    22cc:	ff 1f       	adc	r31, r31
    22ce:	ee 0f       	add	r30, r30
    22d0:	ff 1f       	adc	r31, r31
    22d2:	e8 0f       	add	r30, r24
    22d4:	f9 1f       	adc	r31, r25
    22d6:	e8 0f       	add	r30, r24
    22d8:	f9 1f       	adc	r31, r25
    22da:	e5 54       	subi	r30, 0x45	; 69
    22dc:	fe 4f       	sbci	r31, 0xFE	; 254
    22de:	80 e2       	ldi	r24, 0x20	; 32
    22e0:	81 83       	std	Z+1, r24	; 0x01
    22e2:	45 c1       	rjmp	.+650    	; 0x256e
    22e4:	86 2f       	mov	r24, r22
    22e6:	99 27       	eor	r25, r25
    22e8:	f9 2f       	mov	r31, r25
    22ea:	e8 2f       	mov	r30, r24
    22ec:	ee 0f       	add	r30, r30
    22ee:	ff 1f       	adc	r31, r31
    22f0:	ee 0f       	add	r30, r30
    22f2:	ff 1f       	adc	r31, r31
    22f4:	e8 0f       	add	r30, r24
    22f6:	f9 1f       	adc	r31, r25
    22f8:	e8 0f       	add	r30, r24
    22fa:	f9 1f       	adc	r31, r25
    22fc:	e5 54       	subi	r30, 0x45	; 69
    22fe:	fe 4f       	sbci	r31, 0xFE	; 254
    2300:	21 81       	ldd	r18, Z+1	; 0x01
    2302:	23 27       	eor	r18, r19
    2304:	21 83       	std	Z+1, r18	; 0x01
    2306:	80 91 0a 01 	lds	r24, 0x010A
    230a:	90 91 0b 01 	lds	r25, 0x010B
    230e:	e0 e6       	ldi	r30, 0x60	; 96
    2310:	f0 e0       	ldi	r31, 0x00	; 0
    2312:	29 27       	eor	r18, r25
    2314:	22 0f       	add	r18, r18
    2316:	f1 1d       	adc	r31, r1
    2318:	e2 0f       	add	r30, r18
    231a:	f1 1d       	adc	r31, r1
    231c:	c8 95       	lpm
    231e:	98 2f       	mov	r25, r24
    2320:	80 2d       	mov	r24, r0
    2322:	31 96       	adiw	r30, 0x01	; 1
    2324:	c8 95       	lpm
    2326:	90 25       	eor	r25, r0
    2328:	90 93 0b 01 	sts	0x010B, r25
    232c:	80 93 0a 01 	sts	0x010A, r24
    2330:	18 c1       	rjmp	.+560    	; 0x2562
    2332:	40 91 e6 00 	lds	r20, 0x00E6
    2336:	50 91 e7 00 	lds	r21, 0x00E7
    233a:	4c 32       	cpi	r20, 0x2C	; 44
    233c:	51 05       	cpc	r21, r1
    233e:	08 f0       	brcs	.+2      	; 0x2342
    2340:	be c0       	rjmp	.+380    	; 0x24be
    2342:	3d 37       	cpi	r19, 0x7D	; 125
    2344:	11 f4       	brne	.+4      	; 0x234a
    2346:	84 e0       	ldi	r24, 0x04	; 4
    2348:	0d c1       	rjmp	.+538    	; 0x2564
    234a:	3e 37       	cpi	r19, 0x7E	; 126
    234c:	09 f0       	breq	.+2      	; 0x2350
    234e:	83 c0       	rjmp	.+262    	; 0x2456
    2350:	42 30       	cpi	r20, 0x02	; 2
    2352:	51 05       	cpc	r21, r1
    2354:	08 f4       	brcc	.+2      	; 0x2358
    2356:	62 c0       	rjmp	.+196    	; 0x241c
    2358:	e0 91 ce 01 	lds	r30, 0x01CE
    235c:	f0 91 cf 01 	lds	r31, 0x01CF
    2360:	e4 0f       	add	r30, r20
    2362:	f5 1f       	adc	r31, r21
    2364:	82 91       	ld	r24, -Z
    2366:	99 27       	eor	r25, r25
    2368:	38 2f       	mov	r19, r24
    236a:	22 27       	eor	r18, r18
    236c:	82 91       	ld	r24, -Z
    236e:	99 27       	eor	r25, r25
    2370:	28 2b       	or	r18, r24
    2372:	39 2b       	or	r19, r25
    2374:	80 91 0a 01 	lds	r24, 0x010A
    2378:	90 91 0b 01 	lds	r25, 0x010B
    237c:	60 91 b0 01 	lds	r22, 0x01B0
    2380:	28 17       	cp	r18, r24
    2382:	39 07       	cpc	r19, r25
    2384:	e9 f4       	brne	.+58     	; 0x23c0
    2386:	86 2f       	mov	r24, r22
    2388:	99 27       	eor	r25, r25
    238a:	f9 2f       	mov	r31, r25
    238c:	e8 2f       	mov	r30, r24
    238e:	ee 0f       	add	r30, r30
    2390:	ff 1f       	adc	r31, r31
    2392:	ee 0f       	add	r30, r30
    2394:	ff 1f       	adc	r31, r31
    2396:	e8 0f       	add	r30, r24
    2398:	f9 1f       	adc	r31, r25
    239a:	e8 0f       	add	r30, r24
    239c:	f9 1f       	adc	r31, r25
    239e:	e5 54       	subi	r30, 0x45	; 69
    23a0:	fe 4f       	sbci	r31, 0xFE	; 254
    23a2:	42 50       	subi	r20, 0x02	; 2
    23a4:	50 40       	sbci	r21, 0x00	; 0
    23a6:	42 83       	std	Z+2, r20	; 0x02
    23a8:	53 83       	std	Z+3, r21	; 0x03
    23aa:	81 ee       	ldi	r24, 0xE1	; 225
    23ac:	95 e1       	ldi	r25, 0x15	; 21
    23ae:	0e 94 f4 02 	call	0x5e8
    23b2:	80 91 b0 01 	lds	r24, 0x01B0
    23b6:	8f 5f       	subi	r24, 0xFF	; 255
    23b8:	81 70       	andi	r24, 0x01	; 1
    23ba:	80 93 b0 01 	sts	0x01B0, r24
    23be:	11 c0       	rjmp	.+34     	; 0x23e2
    23c0:	86 2f       	mov	r24, r22
    23c2:	99 27       	eor	r25, r25
    23c4:	f9 2f       	mov	r31, r25
    23c6:	e8 2f       	mov	r30, r24
    23c8:	ee 0f       	add	r30, r30
    23ca:	ff 1f       	adc	r31, r31
    23cc:	ee 0f       	add	r30, r30
    23ce:	ff 1f       	adc	r31, r31
    23d0:	e8 0f       	add	r30, r24
    23d2:	f9 1f       	adc	r31, r25
    23d4:	e8 0f       	add	r30, r24
    23d6:	f9 1f       	adc	r31, r25
    23d8:	e5 54       	subi	r30, 0x45	; 69
    23da:	fe 4f       	sbci	r31, 0xFE	; 254
    23dc:	12 82       	std	Z+2, r1	; 0x02
    23de:	13 82       	std	Z+3, r1	; 0x03
    23e0:	11 82       	std	Z+1, r1	; 0x01
    23e2:	80 91 b0 01 	lds	r24, 0x01B0
    23e6:	99 27       	eor	r25, r25
    23e8:	f9 2f       	mov	r31, r25
    23ea:	e8 2f       	mov	r30, r24
    23ec:	ee 0f       	add	r30, r30
    23ee:	ff 1f       	adc	r31, r31
    23f0:	ee 0f       	add	r30, r30
    23f2:	ff 1f       	adc	r31, r31
    23f4:	e8 0f       	add	r30, r24
    23f6:	f9 1f       	adc	r31, r25
    23f8:	e8 0f       	add	r30, r24
    23fa:	f9 1f       	adc	r31, r25
    23fc:	e5 54       	subi	r30, 0x45	; 69
    23fe:	fe 4f       	sbci	r31, 0xFE	; 254
    2400:	82 81       	ldd	r24, Z+2	; 0x02
    2402:	93 81       	ldd	r25, Z+3	; 0x03
    2404:	89 2b       	or	r24, r25
    2406:	e1 f4       	brne	.+56     	; 0x2440
    2408:	84 81       	ldd	r24, Z+4	; 0x04
    240a:	95 81       	ldd	r25, Z+5	; 0x05
    240c:	90 93 cf 01 	sts	0x01CF, r25
    2410:	80 93 ce 01 	sts	0x01CE, r24
    2414:	81 e0       	ldi	r24, 0x01	; 1
    2416:	80 93 d1 01 	sts	0x01D1, r24
    241a:	14 c0       	rjmp	.+40     	; 0x2444
    241c:	80 91 b0 01 	lds	r24, 0x01B0
    2420:	99 27       	eor	r25, r25
    2422:	f9 2f       	mov	r31, r25
    2424:	e8 2f       	mov	r30, r24
    2426:	ee 0f       	add	r30, r30
    2428:	ff 1f       	adc	r31, r31
    242a:	ee 0f       	add	r30, r30
    242c:	ff 1f       	adc	r31, r31
    242e:	e8 0f       	add	r30, r24
    2430:	f9 1f       	adc	r31, r25
    2432:	e8 0f       	add	r30, r24
    2434:	f9 1f       	adc	r31, r25
    2436:	e5 54       	subi	r30, 0x45	; 69
    2438:	fe 4f       	sbci	r31, 0xFE	; 254
    243a:	12 82       	std	Z+2, r1	; 0x02
    243c:	13 82       	std	Z+3, r1	; 0x03
    243e:	11 82       	std	Z+1, r1	; 0x01
    2440:	10 92 d1 01 	sts	0x01D1, r1
    2444:	10 92 0b 01 	sts	0x010B, r1
    2448:	10 92 0a 01 	sts	0x010A, r1
    244c:	10 92 e7 00 	sts	0x00E7, r1
    2450:	10 92 e6 00 	sts	0x00E6, r1
    2454:	8c c0       	rjmp	.+280    	; 0x256e
    2456:	e0 91 ce 01 	lds	r30, 0x01CE
    245a:	f0 91 cf 01 	lds	r31, 0x01CF
    245e:	e4 0f       	add	r30, r20
    2460:	f5 1f       	adc	r31, r21
    2462:	30 83       	st	Z, r19
    2464:	40 91 e6 00 	lds	r20, 0x00E6
    2468:	50 91 e7 00 	lds	r21, 0x00E7
    246c:	42 30       	cpi	r20, 0x02	; 2
    246e:	51 05       	cpc	r21, r1
    2470:	e8 f0       	brcs	.+58     	; 0x24ac
    2472:	20 91 0a 01 	lds	r18, 0x010A
    2476:	30 91 0b 01 	lds	r19, 0x010B
    247a:	e0 91 ce 01 	lds	r30, 0x01CE
    247e:	f0 91 cf 01 	lds	r31, 0x01CF
    2482:	e4 0f       	add	r30, r20
    2484:	f5 1f       	adc	r31, r21
    2486:	32 97       	sbiw	r30, 0x02	; 2
    2488:	80 81       	ld	r24, Z
    248a:	e0 e6       	ldi	r30, 0x60	; 96
    248c:	f0 e0       	ldi	r31, 0x00	; 0
    248e:	83 27       	eor	r24, r19
    2490:	88 0f       	add	r24, r24
    2492:	f1 1d       	adc	r31, r1
    2494:	e8 0f       	add	r30, r24
    2496:	f1 1d       	adc	r31, r1
    2498:	c8 95       	lpm
    249a:	32 2f       	mov	r19, r18
    249c:	20 2d       	mov	r18, r0
    249e:	31 96       	adiw	r30, 0x01	; 1
    24a0:	c8 95       	lpm
    24a2:	30 25       	eor	r19, r0
    24a4:	30 93 0b 01 	sts	0x010B, r19
    24a8:	20 93 0a 01 	sts	0x010A, r18
    24ac:	4f 5f       	subi	r20, 0xFF	; 255
    24ae:	5f 4f       	sbci	r21, 0xFF	; 255
    24b0:	50 93 e7 00 	sts	0x00E7, r21
    24b4:	40 93 e6 00 	sts	0x00E6, r20
    24b8:	5a c0       	rjmp	.+180    	; 0x256e
    24ba:	3e 37       	cpi	r19, 0x7E	; 126
    24bc:	d9 f4       	brne	.+54     	; 0x24f4
    24be:	10 92 0b 01 	sts	0x010B, r1
    24c2:	10 92 0a 01 	sts	0x010A, r1
    24c6:	10 92 e7 00 	sts	0x00E7, r1
    24ca:	10 92 e6 00 	sts	0x00E6, r1
    24ce:	80 91 b0 01 	lds	r24, 0x01B0
    24d2:	99 27       	eor	r25, r25
    24d4:	f9 2f       	mov	r31, r25
    24d6:	e8 2f       	mov	r30, r24
    24d8:	ee 0f       	add	r30, r30
    24da:	ff 1f       	adc	r31, r31
    24dc:	ee 0f       	add	r30, r30
    24de:	ff 1f       	adc	r31, r31
    24e0:	e8 0f       	add	r30, r24
    24e2:	f9 1f       	adc	r31, r25
    24e4:	e8 0f       	add	r30, r24
    24e6:	f9 1f       	adc	r31, r25
    24e8:	e5 54       	subi	r30, 0x45	; 69
    24ea:	fe 4f       	sbci	r31, 0xFE	; 254
    24ec:	12 82       	std	Z+2, r1	; 0x02
    24ee:	13 82       	std	Z+3, r1	; 0x03
    24f0:	11 82       	std	Z+1, r1	; 0x01
    24f2:	3b c0       	rjmp	.+118    	; 0x256a
    24f4:	80 e2       	ldi	r24, 0x20	; 32
    24f6:	83 27       	eor	r24, r19
    24f8:	e0 91 ce 01 	lds	r30, 0x01CE
    24fc:	f0 91 cf 01 	lds	r31, 0x01CF
    2500:	20 91 e6 00 	lds	r18, 0x00E6
    2504:	30 91 e7 00 	lds	r19, 0x00E7
    2508:	e2 0f       	add	r30, r18
    250a:	f3 1f       	adc	r31, r19
    250c:	80 83       	st	Z, r24
    250e:	40 91 e6 00 	lds	r20, 0x00E6
    2512:	50 91 e7 00 	lds	r21, 0x00E7
    2516:	42 30       	cpi	r20, 0x02	; 2
    2518:	51 05       	cpc	r21, r1
    251a:	e8 f0       	brcs	.+58     	; 0x2556
    251c:	20 91 0a 01 	lds	r18, 0x010A
    2520:	30 91 0b 01 	lds	r19, 0x010B
    2524:	e0 91 ce 01 	lds	r30, 0x01CE
    2528:	f0 91 cf 01 	lds	r31, 0x01CF
    252c:	e4 0f       	add	r30, r20
    252e:	f5 1f       	adc	r31, r21
    2530:	32 97       	sbiw	r30, 0x02	; 2
    2532:	80 81       	ld	r24, Z
    2534:	e0 e6       	ldi	r30, 0x60	; 96
    2536:	f0 e0       	ldi	r31, 0x00	; 0
    2538:	83 27       	eor	r24, r19
    253a:	88 0f       	add	r24, r24
    253c:	f1 1d       	adc	r31, r1
    253e:	e8 0f       	add	r30, r24
    2540:	f1 1d       	adc	r31, r1
    2542:	c8 95       	lpm
    2544:	32 2f       	mov	r19, r18
    2546:	20 2d       	mov	r18, r0
    2548:	31 96       	adiw	r30, 0x01	; 1
    254a:	c8 95       	lpm
    254c:	30 25       	eor	r19, r0
    254e:	30 93 0b 01 	sts	0x010B, r19
    2552:	20 93 0a 01 	sts	0x010A, r18
    2556:	4f 5f       	subi	r20, 0xFF	; 255
    2558:	5f 4f       	sbci	r21, 0xFF	; 255
    255a:	50 93 e7 00 	sts	0x00E7, r21
    255e:	40 93 e6 00 	sts	0x00E6, r20
    2562:	83 e0       	ldi	r24, 0x03	; 3
    2564:	80 93 d1 01 	sts	0x01D1, r24
    2568:	02 c0       	rjmp	.+4      	; 0x256e
    256a:	10 92 d1 01 	sts	0x01D1, r1
    256e:	81 e0       	ldi	r24, 0x01	; 1
    2570:	90 e0       	ldi	r25, 0x00	; 0
    2572:	08 95       	ret

00002574 <FramerM$StartTx>:
    2574:	cf 93       	push	r28
    2576:	c1 e0       	ldi	r28, 0x01	; 1
    2578:	20 e0       	ldi	r18, 0x00	; 0
    257a:	8f b7       	in	r24, 0x3f	; 63
    257c:	f8 94       	cli
    257e:	38 2f       	mov	r19, r24
    2580:	80 91 d4 01 	lds	r24, 0x01D4
    2584:	88 23       	and	r24, r24
    2586:	91 f5       	brne	.+100    	; 0x25ec
    2588:	80 91 f3 01 	lds	r24, 0x01F3
    258c:	99 27       	eor	r25, r25
    258e:	81 ff       	sbrs	r24, 1
    2590:	08 c0       	rjmp	.+16     	; 0x25a2
    2592:	81 eb       	ldi	r24, 0xB1	; 177
    2594:	91 e0       	ldi	r25, 0x01	; 1
    2596:	90 93 15 01 	sts	0x0115, r25
    259a:	80 93 14 01 	sts	0x0114, r24
    259e:	80 e4       	ldi	r24, 0x40	; 64
    25a0:	1a c0       	rjmp	.+52     	; 0x25d6
    25a2:	82 ff       	sbrs	r24, 2
    25a4:	0f c0       	rjmp	.+30     	; 0x25c4
    25a6:	e0 91 cd 00 	lds	r30, 0x00CD
    25aa:	f0 91 ce 00 	lds	r31, 0x00CE
    25ae:	f0 93 15 01 	sts	0x0115, r31
    25b2:	e0 93 14 01 	sts	0x0114, r30
    25b6:	82 e4       	ldi	r24, 0x42	; 66
    25b8:	80 93 d2 00 	sts	0x00D2, r24
    25bc:	84 81       	ldd	r24, Z+4	; 0x04
    25be:	99 27       	eor	r25, r25
    25c0:	05 96       	adiw	r24, 0x05	; 5
    25c2:	0d c0       	rjmp	.+26     	; 0x25de
    25c4:	83 ff       	sbrs	r24, 3
    25c6:	12 c0       	rjmp	.+36     	; 0x25ec
    25c8:	8a ed       	ldi	r24, 0xDA	; 218
    25ca:	90 e0       	ldi	r25, 0x00	; 0
    25cc:	90 93 15 01 	sts	0x0115, r25
    25d0:	80 93 14 01 	sts	0x0114, r24
    25d4:	8f ef       	ldi	r24, 0xFF	; 255
    25d6:	80 93 d2 00 	sts	0x00D2, r24
    25da:	81 e0       	ldi	r24, 0x01	; 1
    25dc:	90 e0       	ldi	r25, 0x00	; 0
    25de:	90 93 dc 00 	sts	0x00DC, r25
    25e2:	80 93 db 00 	sts	0x00DB, r24
    25e6:	2c 2f       	mov	r18, r28
    25e8:	c0 93 d4 01 	sts	0x01D4, r28
    25ec:	3f bf       	out	0x3f, r19	; 63
    25ee:	22 23       	and	r18, r18
    25f0:	f1 f0       	breq	.+60     	; 0x262e
    25f2:	8f b7       	in	r24, 0x3f	; 63
    25f4:	f8 94       	cli
    25f6:	99 27       	eor	r25, r25
    25f8:	10 92 73 00 	sts	0x0073, r1
    25fc:	10 92 72 00 	sts	0x0072, r1
    2600:	10 92 36 01 	sts	0x0136, r1
    2604:	10 92 35 01 	sts	0x0135, r1
    2608:	8f bf       	out	0x3f, r24	; 63
    260a:	8e e7       	ldi	r24, 0x7E	; 126
    260c:	0e 94 1b 13 	call	0x2636
    2610:	c8 2f       	mov	r28, r24
    2612:	81 30       	cpi	r24, 0x01	; 1
    2614:	61 f0       	breq	.+24     	; 0x262e
    2616:	8f b7       	in	r24, 0x3f	; 63
    2618:	f8 94       	cli
    261a:	28 2f       	mov	r18, r24
    261c:	33 27       	eor	r19, r19
    261e:	88 e0       	ldi	r24, 0x08	; 8
    2620:	80 93 d4 01 	sts	0x01D4, r24
    2624:	2f bf       	out	0x3f, r18	; 63
    2626:	80 e3       	ldi	r24, 0x30	; 48
    2628:	93 e1       	ldi	r25, 0x13	; 19
    262a:	0e 94 f4 02 	call	0x5e8
    262e:	8c 2f       	mov	r24, r28
    2630:	99 27       	eor	r25, r25
    2632:	cf 91       	pop	r28
    2634:	08 95       	ret

00002636 <UARTM$ByteComm$txByte>:
    2636:	48 2f       	mov	r20, r24
    2638:	8f b7       	in	r24, 0x3f	; 63
    263a:	f8 94       	cli
    263c:	28 2f       	mov	r18, r24
    263e:	33 27       	eor	r19, r19
    2640:	90 91 56 01 	lds	r25, 0x0156
    2644:	81 e0       	ldi	r24, 0x01	; 1
    2646:	80 93 56 01 	sts	0x0156, r24
    264a:	2f bf       	out	0x3f, r18	; 63
    264c:	99 23       	and	r25, r25
    264e:	19 f0       	breq	.+6      	; 0x2656
    2650:	80 e0       	ldi	r24, 0x00	; 0
    2652:	90 e0       	ldi	r25, 0x00	; 0
    2654:	08 95       	ret
    2656:	5e 9a       	sbi	0x0b, 6	; 11
    2658:	4c b9       	out	0x0c, r20	; 12
    265a:	81 e0       	ldi	r24, 0x01	; 1
    265c:	90 e0       	ldi	r25, 0x00	; 0
    265e:	08 95       	ret

00002660 <FramerM$PacketSent>:
    2660:	61 e0       	ldi	r22, 0x01	; 1
    2662:	8f b7       	in	r24, 0x3f	; 63
    2664:	f8 94       	cli
    2666:	28 2f       	mov	r18, r24
    2668:	33 27       	eor	r19, r19
    266a:	80 91 d4 01 	lds	r24, 0x01D4
    266e:	88 30       	cpi	r24, 0x08	; 8
    2670:	19 f4       	brne	.+6      	; 0x2678
    2672:	60 e0       	ldi	r22, 0x00	; 0
    2674:	60 93 d4 01 	sts	0x01D4, r22
    2678:	2f bf       	out	0x3f, r18	; 63
    267a:	80 91 d2 00 	lds	r24, 0x00D2
    267e:	90 91 f3 01 	lds	r25, 0x01F3
    2682:	80 34       	cpi	r24, 0x40	; 64
    2684:	51 f4       	brne	.+20     	; 0x269a
    2686:	8f b7       	in	r24, 0x3f	; 63
    2688:	f8 94       	cli
    268a:	28 2f       	mov	r18, r24
    268c:	33 27       	eor	r19, r19
    268e:	82 e0       	ldi	r24, 0x02	; 2
    2690:	98 27       	eor	r25, r24
    2692:	90 93 f3 01 	sts	0x01F3, r25
    2696:	2f bf       	out	0x3f, r18	; 63
    2698:	17 c0       	rjmp	.+46     	; 0x26c8
    269a:	8f b7       	in	r24, 0x3f	; 63
    269c:	f8 94       	cli
    269e:	28 2f       	mov	r18, r24
    26a0:	33 27       	eor	r19, r19
    26a2:	84 e0       	ldi	r24, 0x04	; 4
    26a4:	98 27       	eor	r25, r24
    26a6:	90 93 f3 01 	sts	0x01F3, r25
    26aa:	2f bf       	out	0x3f, r18	; 63
    26ac:	80 91 cd 00 	lds	r24, 0x00CD
    26b0:	90 91 ce 00 	lds	r25, 0x00CE
    26b4:	0e 94 ae 10 	call	0x215c
    26b8:	8f b7       	in	r24, 0x3f	; 63
    26ba:	f8 94       	cli
    26bc:	99 27       	eor	r25, r25
    26be:	10 92 ce 00 	sts	0x00CE, r1
    26c2:	10 92 cd 00 	sts	0x00CD, r1
    26c6:	8f bf       	out	0x3f, r24	; 63
    26c8:	0e 94 ba 12 	call	0x2574
    26cc:	08 95       	ret

000026ce <UARTM$HPLUART$putDone>:
    26ce:	8f b7       	in	r24, 0x3f	; 63
    26d0:	f8 94       	cli
    26d2:	99 27       	eor	r25, r25
    26d4:	20 91 56 01 	lds	r18, 0x0156
    26d8:	10 92 56 01 	sts	0x0156, r1
    26dc:	8f bf       	out	0x3f, r24	; 63
    26de:	22 23       	and	r18, r18
    26e0:	09 f4       	brne	.+2      	; 0x26e4
    26e2:	a4 c0       	rjmp	.+328    	; 0x282c
    26e4:	80 91 d4 01 	lds	r24, 0x01D4
    26e8:	87 30       	cpi	r24, 0x07	; 7
    26ea:	31 f4       	brne	.+12     	; 0x26f8
    26ec:	10 92 d4 01 	sts	0x01D4, r1
    26f0:	80 e3       	ldi	r24, 0x30	; 48
    26f2:	93 e1       	ldi	r25, 0x13	; 19
    26f4:	0e 94 f4 02 	call	0x5e8
    26f8:	21 e0       	ldi	r18, 0x01	; 1
    26fa:	80 91 d4 01 	lds	r24, 0x01D4
    26fe:	99 27       	eor	r25, r25
    2700:	84 30       	cpi	r24, 0x04	; 4
    2702:	91 05       	cpc	r25, r1
    2704:	09 f4       	brne	.+2      	; 0x2708
    2706:	6e c0       	rjmp	.+220    	; 0x27e4
    2708:	85 30       	cpi	r24, 0x05	; 5
    270a:	91 05       	cpc	r25, r1
    270c:	54 f4       	brge	.+20     	; 0x2722
    270e:	82 30       	cpi	r24, 0x02	; 2
    2710:	91 05       	cpc	r25, r1
    2712:	61 f1       	breq	.+88     	; 0x276c
    2714:	83 30       	cpi	r24, 0x03	; 3
    2716:	91 05       	cpc	r25, r1
    2718:	0c f0       	brlt	.+2      	; 0x271c
    271a:	58 c0       	rjmp	.+176    	; 0x27cc
    271c:	01 97       	sbiw	r24, 0x01	; 1
    271e:	49 f0       	breq	.+18     	; 0x2732
    2720:	7c c0       	rjmp	.+248    	; 0x281a
    2722:	86 30       	cpi	r24, 0x06	; 6
    2724:	91 05       	cpc	r25, r1
    2726:	09 f4       	brne	.+2      	; 0x272a
    2728:	71 c0       	rjmp	.+226    	; 0x280c
    272a:	06 97       	sbiw	r24, 0x06	; 6
    272c:	0c f4       	brge	.+2      	; 0x2730
    272e:	63 c0       	rjmp	.+198    	; 0x27f6
    2730:	74 c0       	rjmp	.+232    	; 0x281a
    2732:	82 e0       	ldi	r24, 0x02	; 2
    2734:	80 93 d4 01 	sts	0x01D4, r24
    2738:	20 91 72 00 	lds	r18, 0x0072
    273c:	30 91 73 00 	lds	r19, 0x0073
    2740:	80 91 d2 00 	lds	r24, 0x00D2
    2744:	e0 e6       	ldi	r30, 0x60	; 96
    2746:	f0 e0       	ldi	r31, 0x00	; 0
    2748:	83 27       	eor	r24, r19
    274a:	88 0f       	add	r24, r24
    274c:	f1 1d       	adc	r31, r1
    274e:	e8 0f       	add	r30, r24
    2750:	f1 1d       	adc	r31, r1
    2752:	c8 95       	lpm
    2754:	32 2f       	mov	r19, r18
    2756:	20 2d       	mov	r18, r0
    2758:	31 96       	adiw	r30, 0x01	; 1
    275a:	c8 95       	lpm
    275c:	30 25       	eor	r19, r0
    275e:	30 93 73 00 	sts	0x0073, r19
    2762:	20 93 72 00 	sts	0x0072, r18
    2766:	80 91 d2 00 	lds	r24, 0x00D2
    276a:	54 c0       	rjmp	.+168    	; 0x2814
    276c:	e0 91 14 01 	lds	r30, 0x0114
    2770:	f0 91 15 01 	lds	r31, 0x0115
    2774:	20 91 35 01 	lds	r18, 0x0135
    2778:	30 91 36 01 	lds	r19, 0x0136
    277c:	e2 0f       	add	r30, r18
    277e:	f3 1f       	adc	r31, r19
    2780:	50 81       	ld	r21, Z
    2782:	80 91 72 00 	lds	r24, 0x0072
    2786:	90 91 73 00 	lds	r25, 0x0073
    278a:	e0 e6       	ldi	r30, 0x60	; 96
    278c:	f0 e0       	ldi	r31, 0x00	; 0
    278e:	45 2f       	mov	r20, r21
    2790:	49 27       	eor	r20, r25
    2792:	44 0f       	add	r20, r20
    2794:	f1 1d       	adc	r31, r1
    2796:	e4 0f       	add	r30, r20
    2798:	f1 1d       	adc	r31, r1
    279a:	c8 95       	lpm
    279c:	98 2f       	mov	r25, r24
    279e:	80 2d       	mov	r24, r0
    27a0:	31 96       	adiw	r30, 0x01	; 1
    27a2:	c8 95       	lpm
    27a4:	90 25       	eor	r25, r0
    27a6:	90 93 73 00 	sts	0x0073, r25
    27aa:	80 93 72 00 	sts	0x0072, r24
    27ae:	2f 5f       	subi	r18, 0xFF	; 255
    27b0:	3f 4f       	sbci	r19, 0xFF	; 255
    27b2:	30 93 36 01 	sts	0x0136, r19
    27b6:	20 93 35 01 	sts	0x0135, r18
    27ba:	80 91 db 00 	lds	r24, 0x00DB
    27be:	90 91 dc 00 	lds	r25, 0x00DC
    27c2:	28 17       	cp	r18, r24
    27c4:	39 07       	cpc	r19, r25
    27c6:	98 f0       	brcs	.+38     	; 0x27ee
    27c8:	84 e0       	ldi	r24, 0x04	; 4
    27ca:	0f c0       	rjmp	.+30     	; 0x27ea
    27cc:	80 91 e2 01 	lds	r24, 0x01E2
    27d0:	90 e2       	ldi	r25, 0x20	; 32
    27d2:	89 27       	eor	r24, r25
    27d4:	0e 94 1b 13 	call	0x2636
    27d8:	28 2f       	mov	r18, r24
    27da:	80 91 cb 01 	lds	r24, 0x01CB
    27de:	80 93 d4 01 	sts	0x01D4, r24
    27e2:	1b c0       	rjmp	.+54     	; 0x281a
    27e4:	50 91 72 00 	lds	r21, 0x0072
    27e8:	85 e0       	ldi	r24, 0x05	; 5
    27ea:	80 93 d4 01 	sts	0x01D4, r24
    27ee:	85 2f       	mov	r24, r21
    27f0:	0e 94 19 14 	call	0x2832
    27f4:	11 c0       	rjmp	.+34     	; 0x2818
    27f6:	80 91 72 00 	lds	r24, 0x0072
    27fa:	90 91 73 00 	lds	r25, 0x0073
    27fe:	29 2f       	mov	r18, r25
    2800:	33 27       	eor	r19, r19
    2802:	86 e0       	ldi	r24, 0x06	; 6
    2804:	80 93 d4 01 	sts	0x01D4, r24
    2808:	82 2f       	mov	r24, r18
    280a:	f2 cf       	rjmp	.-28     	; 0x27f0
    280c:	87 e0       	ldi	r24, 0x07	; 7
    280e:	80 93 d4 01 	sts	0x01D4, r24
    2812:	8e e7       	ldi	r24, 0x7E	; 126
    2814:	0e 94 1b 13 	call	0x2636
    2818:	28 2f       	mov	r18, r24
    281a:	21 30       	cpi	r18, 0x01	; 1
    281c:	39 f0       	breq	.+14     	; 0x282c
    281e:	88 e0       	ldi	r24, 0x08	; 8
    2820:	80 93 d4 01 	sts	0x01D4, r24
    2824:	80 e3       	ldi	r24, 0x30	; 48
    2826:	93 e1       	ldi	r25, 0x13	; 19
    2828:	0e 94 f4 02 	call	0x5e8
    282c:	81 e0       	ldi	r24, 0x01	; 1
    282e:	90 e0       	ldi	r25, 0x00	; 0
    2830:	08 95       	ret

00002832 <FramerM$TxArbitraryByte>:
    2832:	98 2f       	mov	r25, r24
    2834:	8d 57       	subi	r24, 0x7D	; 125
    2836:	82 30       	cpi	r24, 0x02	; 2
    2838:	78 f4       	brcc	.+30     	; 0x2858
    283a:	8f b7       	in	r24, 0x3f	; 63
    283c:	f8 94       	cli
    283e:	28 2f       	mov	r18, r24
    2840:	33 27       	eor	r19, r19
    2842:	80 91 d4 01 	lds	r24, 0x01D4
    2846:	80 93 cb 01 	sts	0x01CB, r24
    284a:	83 e0       	ldi	r24, 0x03	; 3
    284c:	80 93 d4 01 	sts	0x01D4, r24
    2850:	90 93 e2 01 	sts	0x01E2, r25
    2854:	2f bf       	out	0x3f, r18	; 63
    2856:	9d e7       	ldi	r25, 0x7D	; 125
    2858:	89 2f       	mov	r24, r25
    285a:	0e 94 1b 13 	call	0x2636
    285e:	99 27       	eor	r25, r25
    2860:	08 95       	ret

00002862 <__vector_15>:
    2862:	78 94       	sei
    2864:	1f 92       	push	r1
    2866:	0f 92       	push	r0
    2868:	0f b6       	in	r0, 0x3f	; 63
    286a:	0f 92       	push	r0
    286c:	11 24       	eor	r1, r1
    286e:	2f 93       	push	r18
    2870:	3f 93       	push	r19
    2872:	4f 93       	push	r20
    2874:	5f 93       	push	r21
    2876:	6f 93       	push	r22
    2878:	7f 93       	push	r23
    287a:	8f 93       	push	r24
    287c:	9f 93       	push	r25
    287e:	af 93       	push	r26
    2880:	bf 93       	push	r27
    2882:	ef 93       	push	r30
    2884:	ff 93       	push	r31
    2886:	8f b7       	in	r24, 0x3f	; 63
    2888:	f8 94       	cli
    288a:	28 2f       	mov	r18, r24
    288c:	33 27       	eor	r19, r19
    288e:	80 91 f5 00 	lds	r24, 0x00F5
    2892:	88 23       	and	r24, r24
    2894:	69 f0       	breq	.+26     	; 0x28b0
    2896:	80 91 38 01 	lds	r24, 0x0138
    289a:	80 93 cd 01 	sts	0x01CD, r24
    289e:	88 60       	ori	r24, 0x08	; 8
    28a0:	80 93 38 01 	sts	0x0138, r24
    28a4:	83 bf       	out	0x33, r24	; 51
    28a6:	80 91 07 01 	lds	r24, 0x0107
    28aa:	81 bf       	out	0x31, r24	; 49
    28ac:	10 92 f5 00 	sts	0x00F5, r1
    28b0:	2f bf       	out	0x3f, r18	; 63
    28b2:	80 e6       	ldi	r24, 0x60	; 96
    28b4:	96 e1       	ldi	r25, 0x16	; 22
    28b6:	0e 94 f4 02 	call	0x5e8
    28ba:	ff 91       	pop	r31
    28bc:	ef 91       	pop	r30
    28be:	bf 91       	pop	r27
    28c0:	af 91       	pop	r26
    28c2:	9f 91       	pop	r25
    28c4:	8f 91       	pop	r24
    28c6:	7f 91       	pop	r23
    28c8:	6f 91       	pop	r22
    28ca:	5f 91       	pop	r21
    28cc:	4f 91       	pop	r20
    28ce:	3f 91       	pop	r19
    28d0:	2f 91       	pop	r18
    28d2:	0f 90       	pop	r0
    28d4:	0f be       	out	0x3f, r0	; 63
    28d6:	0f 90       	pop	r0
    28d8:	1f 90       	pop	r1
    28da:	18 95       	reti

000028dc <__nesc_atomic_end>:
    28dc:	8f bf       	out	0x3f, r24	; 63
    28de:	08 95       	ret

000028e0 <__nesc_atomic_start>:
    28e0:	8f b7       	in	r24, 0x3f	; 63
    28e2:	f8 94       	cli
    28e4:	99 27       	eor	r25, r25
    28e6:	08 95       	ret

000028e8 <PageEEPROMM$taskSuccess>:
    28e8:	81 e0       	ldi	r24, 0x01	; 1
    28ea:	0e 94 f6 05 	call	0xbec
    28ee:	08 95       	ret

000028f0 <PageEEPROMM$taskFail>:
    28f0:	80 e0       	ldi	r24, 0x00	; 0
    28f2:	0e 94 f6 05 	call	0xbec
    28f6:	08 95       	ret

000028f8 <SlavePinM$signalHighTask>:
    28f8:	8f b7       	in	r24, 0x3f	; 63
    28fa:	f8 94       	cli
    28fc:	99 27       	eor	r25, r25
    28fe:	10 92 16 01 	sts	0x0116, r1
    2902:	8f bf       	out	0x3f, r24	; 63
    2904:	41 e0       	ldi	r20, 0x01	; 1
    2906:	50 e0       	ldi	r21, 0x00	; 0
    2908:	80 91 e9 00 	lds	r24, 0x00E9
    290c:	88 23       	and	r24, r24
    290e:	09 f4       	brne	.+2      	; 0x2912
    2910:	e5 c0       	rjmp	.+458    	; 0x2adc
    2912:	10 92 e9 00 	sts	0x00E9, r1
    2916:	80 91 e5 00 	lds	r24, 0x00E5
    291a:	20 91 1d 01 	lds	r18, 0x011D
    291e:	88 23       	and	r24, r24
    2920:	09 f4       	brne	.+2      	; 0x2924
    2922:	4b c0       	rjmp	.+150    	; 0x29ba
    2924:	90 91 12 01 	lds	r25, 0x0112
    2928:	89 2f       	mov	r24, r25
    292a:	8e 7f       	andi	r24, 0xFE	; 254
    292c:	80 93 12 01 	sts	0x0112, r24
    2930:	30 91 0f 01 	lds	r19, 0x010F
    2934:	83 2f       	mov	r24, r19
    2936:	8e 7f       	andi	r24, 0xFE	; 254
    2938:	80 93 0f 01 	sts	0x010F, r24
    293c:	10 92 57 01 	sts	0x0157, r1
    2940:	10 92 e5 00 	sts	0x00E5, r1
    2944:	28 30       	cpi	r18, 0x08	; 8
    2946:	41 f5       	brne	.+80     	; 0x2998
    2948:	20 91 b5 01 	lds	r18, 0x01B5
    294c:	80 91 df 00 	lds	r24, 0x00DF
    2950:	22 23       	and	r18, r18
    2952:	61 f0       	breq	.+24     	; 0x296c
    2954:	99 27       	eor	r25, r25
    2956:	f9 2f       	mov	r31, r25
    2958:	e8 2f       	mov	r30, r24
    295a:	ee 0f       	add	r30, r30
    295c:	ff 1f       	adc	r31, r31
    295e:	e8 0f       	add	r30, r24
    2960:	f9 1f       	adc	r31, r25
    2962:	e1 5f       	subi	r30, 0xF1	; 241
    2964:	fe 4f       	sbci	r31, 0xFE	; 254
    2966:	80 81       	ld	r24, Z
    2968:	87 7e       	andi	r24, 0xE7	; 231
    296a:	97 c0       	rjmp	.+302    	; 0x2a9a
    296c:	99 27       	eor	r25, r25
    296e:	f9 2f       	mov	r31, r25
    2970:	e8 2f       	mov	r30, r24
    2972:	ee 0f       	add	r30, r30
    2974:	ff 1f       	adc	r31, r31
    2976:	e8 0f       	add	r30, r24
    2978:	f9 1f       	adc	r31, r25
    297a:	e1 5f       	subi	r30, 0xF1	; 241
    297c:	fe 4f       	sbci	r31, 0xFE	; 254
    297e:	90 81       	ld	r25, Z
    2980:	89 2f       	mov	r24, r25
    2982:	86 95       	lsr	r24
    2984:	86 95       	lsr	r24
    2986:	86 95       	lsr	r24
    2988:	83 70       	andi	r24, 0x03	; 3
    298a:	82 30       	cpi	r24, 0x02	; 2
    298c:	10 f4       	brcc	.+4      	; 0x2992
    298e:	9d 7f       	andi	r25, 0xFD	; 253
    2990:	4a c0       	rjmp	.+148    	; 0x2a26
    2992:	40 93 b7 01 	sts	0x01B7, r20
    2996:	26 c0       	rjmp	.+76     	; 0x29e4
    2998:	38 71       	andi	r19, 0x18	; 24
    299a:	11 f4       	brne	.+4      	; 0x29a0
    299c:	98 71       	andi	r25, 0x18	; 24
    299e:	51 f0       	breq	.+20     	; 0x29b4
    29a0:	27 50       	subi	r18, 0x07	; 7
    29a2:	22 30       	cpi	r18, 0x02	; 2
    29a4:	38 f0       	brcs	.+14     	; 0x29b4
    29a6:	80 e0       	ldi	r24, 0x00	; 0
    29a8:	33 23       	and	r19, r19
    29aa:	09 f4       	brne	.+2      	; 0x29ae
    29ac:	81 e0       	ldi	r24, 0x01	; 1
    29ae:	0e 94 ac 09 	call	0x1358
    29b2:	08 95       	ret
    29b4:	0e 94 ce 09 	call	0x139c
    29b8:	08 95       	ret
    29ba:	82 2f       	mov	r24, r18
    29bc:	99 27       	eor	r25, r25
    29be:	84 30       	cpi	r24, 0x04	; 4
    29c0:	91 05       	cpc	r25, r1
    29c2:	b1 f0       	breq	.+44     	; 0x29f0
    29c4:	85 30       	cpi	r24, 0x05	; 5
    29c6:	91 05       	cpc	r25, r1
    29c8:	1c f4       	brge	.+6      	; 0x29d0
    29ca:	01 97       	sbiw	r24, 0x01	; 1
    29cc:	5c f0       	brlt	.+22     	; 0x29e4
    29ce:	0c c0       	rjmp	.+24     	; 0x29e8
    29d0:	86 30       	cpi	r24, 0x06	; 6
    29d2:	91 05       	cpc	r25, r1
    29d4:	09 f4       	brne	.+2      	; 0x29d8
    29d6:	63 c0       	rjmp	.+198    	; 0x2a9e
    29d8:	86 30       	cpi	r24, 0x06	; 6
    29da:	91 05       	cpc	r25, r1
    29dc:	0c f4       	brge	.+2      	; 0x29e0
    29de:	41 c0       	rjmp	.+130    	; 0x2a62
    29e0:	07 97       	sbiw	r24, 0x07	; 7
    29e2:	29 f1       	breq	.+74     	; 0x2a2e
    29e4:	80 e0       	ldi	r24, 0x00	; 0
    29e6:	01 c0       	rjmp	.+2      	; 0x29ea
    29e8:	81 e0       	ldi	r24, 0x01	; 1
    29ea:	0e 94 f6 05 	call	0xbec
    29ee:	08 95       	ret
    29f0:	40 93 57 01 	sts	0x0157, r20
    29f4:	80 91 d7 00 	lds	r24, 0x00D7
    29f8:	99 27       	eor	r25, r25
    29fa:	f9 2f       	mov	r31, r25
    29fc:	e8 2f       	mov	r30, r24
    29fe:	ee 0f       	add	r30, r30
    2a00:	ff 1f       	adc	r31, r31
    2a02:	e8 0f       	add	r30, r24
    2a04:	f9 1f       	adc	r31, r25
    2a06:	e1 5f       	subi	r30, 0xF1	; 241
    2a08:	fe 4f       	sbci	r31, 0xFE	; 254
    2a0a:	90 81       	ld	r25, Z
    2a0c:	93 60       	ori	r25, 0x03	; 3
    2a0e:	89 2f       	mov	r24, r25
    2a10:	86 95       	lsr	r24
    2a12:	86 95       	lsr	r24
    2a14:	86 95       	lsr	r24
    2a16:	83 70       	andi	r24, 0x03	; 3
    2a18:	8f 5f       	subi	r24, 0xFF	; 255
    2a1a:	83 70       	andi	r24, 0x03	; 3
    2a1c:	88 0f       	add	r24, r24
    2a1e:	88 0f       	add	r24, r24
    2a20:	88 0f       	add	r24, r24
    2a22:	93 7e       	andi	r25, 0xE3	; 227
    2a24:	98 2b       	or	r25, r24
    2a26:	90 83       	st	Z, r25
    2a28:	0e 94 8d 07 	call	0xf1a
    2a2c:	08 95       	ret
    2a2e:	88 e0       	ldi	r24, 0x08	; 8
    2a30:	80 93 1d 01 	sts	0x011D, r24
    2a34:	40 93 57 01 	sts	0x0157, r20
    2a38:	80 91 df 00 	lds	r24, 0x00DF
    2a3c:	99 27       	eor	r25, r25
    2a3e:	f9 2f       	mov	r31, r25
    2a40:	e8 2f       	mov	r30, r24
    2a42:	ee 0f       	add	r30, r30
    2a44:	ff 1f       	adc	r31, r31
    2a46:	e8 0f       	add	r30, r24
    2a48:	f9 1f       	adc	r31, r25
    2a4a:	e1 5f       	subi	r30, 0xF1	; 241
    2a4c:	fe 4f       	sbci	r31, 0xFE	; 254
    2a4e:	80 81       	ld	r24, Z
    2a50:	81 60       	ori	r24, 0x01	; 1
    2a52:	80 83       	st	Z, r24
    2a54:	8a e0       	ldi	r24, 0x0A	; 10
    2a56:	90 e0       	ldi	r25, 0x00	; 0
    2a58:	01 97       	sbiw	r24, 0x01	; 1
    2a5a:	f1 f7       	brne	.-4      	; 0x2a58
    2a5c:	0e 94 ef 08 	call	0x11de
    2a60:	08 95       	ret
    2a62:	40 93 57 01 	sts	0x0157, r20
    2a66:	80 91 d7 00 	lds	r24, 0x00D7
    2a6a:	99 27       	eor	r25, r25
    2a6c:	28 2f       	mov	r18, r24
    2a6e:	39 2f       	mov	r19, r25
    2a70:	22 0f       	add	r18, r18
    2a72:	33 1f       	adc	r19, r19
    2a74:	28 0f       	add	r18, r24
    2a76:	39 1f       	adc	r19, r25
    2a78:	f3 2f       	mov	r31, r19
    2a7a:	e2 2f       	mov	r30, r18
    2a7c:	e3 5f       	subi	r30, 0xF3	; 243
    2a7e:	fe 4f       	sbci	r31, 0xFE	; 254
    2a80:	80 91 dd 00 	lds	r24, 0x00DD
    2a84:	90 91 de 00 	lds	r25, 0x00DE
    2a88:	80 83       	st	Z, r24
    2a8a:	91 83       	std	Z+1, r25	; 0x01
    2a8c:	f3 2f       	mov	r31, r19
    2a8e:	e2 2f       	mov	r30, r18
    2a90:	e1 5f       	subi	r30, 0xF1	; 241
    2a92:	fe 4f       	sbci	r31, 0xFE	; 254
    2a94:	80 81       	ld	r24, Z
    2a96:	83 60       	ori	r24, 0x03	; 3
    2a98:	8b 7f       	andi	r24, 0xFB	; 251
    2a9a:	80 83       	st	Z, r24
    2a9c:	c5 cf       	rjmp	.-118    	; 0x2a28
    2a9e:	40 93 57 01 	sts	0x0157, r20
    2aa2:	80 91 d7 00 	lds	r24, 0x00D7
    2aa6:	99 27       	eor	r25, r25
    2aa8:	28 2f       	mov	r18, r24
    2aaa:	39 2f       	mov	r19, r25
    2aac:	22 0f       	add	r18, r18
    2aae:	33 1f       	adc	r19, r19
    2ab0:	28 0f       	add	r18, r24
    2ab2:	39 1f       	adc	r19, r25
    2ab4:	f3 2f       	mov	r31, r19
    2ab6:	e2 2f       	mov	r30, r18
    2ab8:	e3 5f       	subi	r30, 0xF3	; 243
    2aba:	fe 4f       	sbci	r31, 0xFE	; 254
    2abc:	80 91 dd 00 	lds	r24, 0x00DD
    2ac0:	90 91 de 00 	lds	r25, 0x00DE
    2ac4:	80 83       	st	Z, r24
    2ac6:	91 83       	std	Z+1, r25	; 0x01
    2ac8:	f3 2f       	mov	r31, r19
    2aca:	e2 2f       	mov	r30, r18
    2acc:	e1 5f       	subi	r30, 0xF1	; 241
    2ace:	fe 4f       	sbci	r31, 0xFE	; 254
    2ad0:	80 81       	ld	r24, Z
    2ad2:	86 60       	ori	r24, 0x06	; 6
    2ad4:	80 83       	st	Z, r24
    2ad6:	84 2f       	mov	r24, r20
    2ad8:	0e 94 f6 05 	call	0xbec
    2adc:	08 95       	ret

00002ade <MicaHighSpeedRadioM$packetReceived>:
    2ade:	20 91 3a 01 	lds	r18, 0x013A
    2ae2:	30 91 3b 01 	lds	r19, 0x013B
    2ae6:	8f b7       	in	r24, 0x3f	; 63
    2ae8:	f8 94       	cli
    2aea:	99 27       	eor	r25, r25
    2aec:	10 92 32 01 	sts	0x0132, r1
    2af0:	8f bf       	out	0x3f, r24	; 63
    2af2:	93 2f       	mov	r25, r19
    2af4:	82 2f       	mov	r24, r18
    2af6:	0e 94 3f 0b 	call	0x167e
    2afa:	28 2f       	mov	r18, r24
    2afc:	39 2f       	mov	r19, r25
    2afe:	89 2b       	or	r24, r25
    2b00:	41 f0       	breq	.+16     	; 0x2b12
    2b02:	8f b7       	in	r24, 0x3f	; 63
    2b04:	f8 94       	cli
    2b06:	99 27       	eor	r25, r25
    2b08:	30 93 3b 01 	sts	0x013B, r19
    2b0c:	20 93 3a 01 	sts	0x013A, r18
    2b10:	8f bf       	out	0x3f, r24	; 63
    2b12:	0e 94 7a 05 	call	0xaf4
    2b16:	08 95       	ret

00002b18 <MicaHighSpeedRadioM$packetSent>:
    2b18:	0f 93       	push	r16
    2b1a:	1f 93       	push	r17
    2b1c:	8f b7       	in	r24, 0x3f	; 63
    2b1e:	f8 94       	cli
    2b20:	99 27       	eor	r25, r25
    2b22:	10 92 e8 00 	sts	0x00E8, r1
    2b26:	10 92 32 01 	sts	0x0132, r1
    2b2a:	00 91 da 01 	lds	r16, 0x01DA
    2b2e:	10 91 db 01 	lds	r17, 0x01DB
    2b32:	8f bf       	out	0x3f, r24	; 63
    2b34:	0e 94 7a 05 	call	0xaf4
    2b38:	61 e0       	ldi	r22, 0x01	; 1
    2b3a:	91 2f       	mov	r25, r17
    2b3c:	80 2f       	mov	r24, r16
    2b3e:	0e 94 ae 10 	call	0x215c
    2b42:	1f 91       	pop	r17
    2b44:	0f 91       	pop	r16
    2b46:	08 95       	ret

00002b48 <HPLPowerManagementM$doAdjustment>:
    2b48:	87 b7       	in	r24, 0x37	; 55
    2b4a:	28 2f       	mov	r18, r24
    2b4c:	33 27       	eor	r19, r19
    2b4e:	2c 7f       	andi	r18, 0xFC	; 252
    2b50:	21 15       	cp	r18, r1
    2b52:	31 05       	cpc	r19, r1
    2b54:	19 f0       	breq	.+6      	; 0x2b5c
    2b56:	80 e0       	ldi	r24, 0x00	; 0
    2b58:	90 e0       	ldi	r25, 0x00	; 0
    2b5a:	1a c0       	rjmp	.+52     	; 0x2b90
    2b5c:	6f 99       	sbic	0x0d, 7	; 13
    2b5e:	10 c0       	rjmp	.+32     	; 0x2b80
    2b60:	8a b1       	in	r24, 0x0a	; 10
    2b62:	80 7c       	andi	r24, 0xC0	; 192
    2b64:	69 f4       	brne	.+26     	; 0x2b80
    2b66:	37 99       	sbic	0x06, 7	; 6
    2b68:	11 c0       	rjmp	.+34     	; 0x2b8c
    2b6a:	87 b7       	in	r24, 0x37	; 55
    2b6c:	99 27       	eor	r25, r25
    2b6e:	83 70       	andi	r24, 0x03	; 3
    2b70:	90 70       	andi	r25, 0x00	; 0
    2b72:	89 2b       	or	r24, r25
    2b74:	59 f0       	breq	.+22     	; 0x2b8c
    2b76:	81 b7       	in	r24, 0x31	; 49
    2b78:	92 b7       	in	r25, 0x32	; 50
    2b7a:	89 1b       	sub	r24, r25
    2b7c:	80 31       	cpi	r24, 0x10	; 16
    2b7e:	18 f4       	brcc	.+6      	; 0x2b86
    2b80:	93 2f       	mov	r25, r19
    2b82:	82 2f       	mov	r24, r18
    2b84:	05 c0       	rjmp	.+10     	; 0x2b90
    2b86:	88 e1       	ldi	r24, 0x18	; 24
    2b88:	90 e0       	ldi	r25, 0x00	; 0
    2b8a:	02 c0       	rjmp	.+4      	; 0x2b90
    2b8c:	88 e0       	ldi	r24, 0x08	; 8
    2b8e:	90 e0       	ldi	r25, 0x00	; 0
    2b90:	38 2f       	mov	r19, r24
    2b92:	25 b7       	in	r18, 0x35	; 53
    2b94:	23 7e       	andi	r18, 0xE3	; 227
    2b96:	88 31       	cpi	r24, 0x18	; 24
    2b98:	71 f4       	brne	.+28     	; 0x2bb6
    2b9a:	80 b7       	in	r24, 0x30	; 48
    2b9c:	99 27       	eor	r25, r25
    2b9e:	87 70       	andi	r24, 0x07	; 7
    2ba0:	90 70       	andi	r25, 0x00	; 0
    2ba2:	89 2b       	or	r24, r25
    2ba4:	39 f0       	breq	.+14     	; 0x2bb4
    2ba6:	00 00       	nop
    2ba8:	80 b7       	in	r24, 0x30	; 48
    2baa:	99 27       	eor	r25, r25
    2bac:	87 70       	andi	r24, 0x07	; 7
    2bae:	90 70       	andi	r25, 0x00	; 0
    2bb0:	89 2b       	or	r24, r25
    2bb2:	c9 f7       	brne	.-14     	; 0x2ba6
    2bb4:	23 7e       	andi	r18, 0xE3	; 227
    2bb6:	23 2b       	or	r18, r19
    2bb8:	25 bf       	out	0x35, r18	; 53
    2bba:	85 b7       	in	r24, 0x35	; 53
    2bbc:	80 62       	ori	r24, 0x20	; 32
    2bbe:	85 bf       	out	0x35, r24	; 53
    2bc0:	08 95       	ret

00002bc2 <FramerM$PacketRcvd>:
    2bc2:	0f 93       	push	r16
    2bc4:	1f 93       	push	r17
    2bc6:	cf 93       	push	r28
    2bc8:	df 93       	push	r29
    2bca:	80 91 d9 01 	lds	r24, 0x01D9
    2bce:	99 27       	eor	r25, r25
    2bd0:	08 2f       	mov	r16, r24
    2bd2:	19 2f       	mov	r17, r25
    2bd4:	00 0f       	add	r16, r16
    2bd6:	11 1f       	adc	r17, r17
    2bd8:	00 0f       	add	r16, r16
    2bda:	11 1f       	adc	r17, r17
    2bdc:	08 0f       	add	r16, r24
    2bde:	19 1f       	adc	r17, r25
    2be0:	08 0f       	add	r16, r24
    2be2:	19 1f       	adc	r17, r25
    2be4:	05 54       	subi	r16, 0x45	; 69
    2be6:	1e 4f       	sbci	r17, 0xFE	; 254
    2be8:	f1 2f       	mov	r31, r17
    2bea:	e0 2f       	mov	r30, r16
    2bec:	c4 81       	ldd	r28, Z+4	; 0x04
    2bee:	d5 81       	ldd	r29, Z+5	; 0x05
    2bf0:	82 81       	ldd	r24, Z+2	; 0x02
    2bf2:	93 81       	ldd	r25, Z+3	; 0x03
    2bf4:	05 97       	sbiw	r24, 0x05	; 5
    2bf6:	98 f1       	brcs	.+102    	; 0x2c5e
    2bf8:	20 81       	ld	r18, Z
    2bfa:	82 2f       	mov	r24, r18
    2bfc:	99 27       	eor	r25, r25
    2bfe:	81 34       	cpi	r24, 0x41	; 65
    2c00:	91 05       	cpc	r25, r1
    2c02:	59 f0       	breq	.+22     	; 0x2c1a
    2c04:	82 34       	cpi	r24, 0x42	; 66
    2c06:	91 05       	cpc	r25, r1
    2c08:	24 f4       	brge	.+8      	; 0x2c12
    2c0a:	80 34       	cpi	r24, 0x40	; 64
    2c0c:	91 05       	cpc	r25, r1
    2c0e:	39 f1       	breq	.+78     	; 0x2c5e
    2c10:	20 c0       	rjmp	.+64     	; 0x2c52
    2c12:	82 34       	cpi	r24, 0x42	; 66
    2c14:	91 05       	cpc	r25, r1
    2c16:	79 f0       	breq	.+30     	; 0x2c36
    2c18:	1c c0       	rjmp	.+56     	; 0x2c52
    2c1a:	81 e0       	ldi	r24, 0x01	; 1
    2c1c:	90 e0       	ldi	r25, 0x00	; 0
    2c1e:	8a a3       	std	Y+34, r24	; 0x22
    2c20:	9b a3       	std	Y+35, r25	; 0x23
    2c22:	f1 2f       	mov	r31, r17
    2c24:	e0 2f       	mov	r30, r16
    2c26:	81 81       	ldd	r24, Z+1	; 0x01
    2c28:	80 93 b6 01 	sts	0x01B6, r24
    2c2c:	8a e4       	ldi	r24, 0x4A	; 74
    2c2e:	96 e1       	ldi	r25, 0x16	; 22
    2c30:	0e 94 f4 02 	call	0x5e8
    2c34:	04 c0       	rjmp	.+8      	; 0x2c3e
    2c36:	81 e0       	ldi	r24, 0x01	; 1
    2c38:	90 e0       	ldi	r25, 0x00	; 0
    2c3a:	8a a3       	std	Y+34, r24	; 0x22
    2c3c:	9b a3       	std	Y+35, r25	; 0x23
    2c3e:	80 91 62 00 	lds	r24, 0x0062
    2c42:	8b 83       	std	Y+3, r24	; 0x03
    2c44:	8c 2f       	mov	r24, r28
    2c46:	9d 2f       	mov	r25, r29
    2c48:	0e 94 3f 0b 	call	0x167e
    2c4c:	d9 2f       	mov	r29, r25
    2c4e:	c8 2f       	mov	r28, r24
    2c50:	06 c0       	rjmp	.+12     	; 0x2c5e
    2c52:	20 93 da 00 	sts	0x00DA, r18
    2c56:	80 e1       	ldi	r24, 0x10	; 16
    2c58:	97 e1       	ldi	r25, 0x17	; 23
    2c5a:	0e 94 f4 02 	call	0x5e8
    2c5e:	8f b7       	in	r24, 0x3f	; 63
    2c60:	f8 94       	cli
    2c62:	28 2f       	mov	r18, r24
    2c64:	33 27       	eor	r19, r19
    2c66:	20 97       	sbiw	r28, 0x00	; 0
    2c68:	21 f0       	breq	.+8      	; 0x2c72
    2c6a:	f1 2f       	mov	r31, r17
    2c6c:	e0 2f       	mov	r30, r16
    2c6e:	c4 83       	std	Z+4, r28	; 0x04
    2c70:	d5 83       	std	Z+5, r29	; 0x05
    2c72:	f1 2f       	mov	r31, r17
    2c74:	e0 2f       	mov	r30, r16
    2c76:	12 82       	std	Z+2, r1	; 0x02
    2c78:	13 82       	std	Z+3, r1	; 0x03
    2c7a:	11 82       	std	Z+1, r1	; 0x01
    2c7c:	80 91 d9 01 	lds	r24, 0x01D9
    2c80:	8f 5f       	subi	r24, 0xFF	; 255
    2c82:	81 70       	andi	r24, 0x01	; 1
    2c84:	80 93 d9 01 	sts	0x01D9, r24
    2c88:	2f bf       	out	0x3f, r18	; 63
    2c8a:	df 91       	pop	r29
    2c8c:	cf 91       	pop	r28
    2c8e:	1f 91       	pop	r17
    2c90:	0f 91       	pop	r16
    2c92:	08 95       	ret

00002c94 <FramerAckM$SendAckTask>:
    2c94:	20 91 b6 01 	lds	r18, 0x01B6
    2c98:	31 e0       	ldi	r19, 0x01	; 1
    2c9a:	8f b7       	in	r24, 0x3f	; 63
    2c9c:	f8 94       	cli
    2c9e:	90 91 f3 01 	lds	r25, 0x01F3
    2ca2:	91 fd       	sbrc	r25, 1
    2ca4:	06 c0       	rjmp	.+12     	; 0x2cb2
    2ca6:	92 60       	ori	r25, 0x02	; 2
    2ca8:	90 93 f3 01 	sts	0x01F3, r25
    2cac:	20 93 b1 01 	sts	0x01B1, r18
    2cb0:	01 c0       	rjmp	.+2      	; 0x2cb4
    2cb2:	30 e0       	ldi	r19, 0x00	; 0
    2cb4:	8f bf       	out	0x3f, r24	; 63
    2cb6:	31 30       	cpi	r19, 0x01	; 1
    2cb8:	11 f4       	brne	.+4      	; 0x2cbe
    2cba:	0e 94 ba 12 	call	0x2574
    2cbe:	08 95       	ret

00002cc0 <TimerM$HandleFire>:
    2cc0:	8f 92       	push	r8
    2cc2:	9f 92       	push	r9
    2cc4:	af 92       	push	r10
    2cc6:	bf 92       	push	r11
    2cc8:	df 92       	push	r13
    2cca:	ef 92       	push	r14
    2ccc:	ff 92       	push	r15
    2cce:	0f 93       	push	r16
    2cd0:	1f 93       	push	r17
    2cd2:	cf 93       	push	r28
    2cd4:	df 93       	push	r29
    2cd6:	81 e0       	ldi	r24, 0x01	; 1
    2cd8:	80 93 3d 01 	sts	0x013D, r24
    2cdc:	80 91 e4 01 	lds	r24, 0x01E4
    2ce0:	90 91 e5 01 	lds	r25, 0x01E5
    2ce4:	a0 91 e6 01 	lds	r26, 0x01E6
    2ce8:	b0 91 e7 01 	lds	r27, 0x01E7
    2cec:	00 97       	sbiw	r24, 0x00	; 0
    2cee:	a1 05       	cpc	r26, r1
    2cf0:	b1 05       	cpc	r27, r1
    2cf2:	09 f4       	brne	.+2      	; 0x2cf6
    2cf4:	87 c0       	rjmp	.+270    	; 0x2e04
    2cf6:	dd 24       	eor	r13, r13
    2cf8:	00 e2       	ldi	r16, 0x20	; 32
    2cfa:	11 e0       	ldi	r17, 0x01	; 1
    2cfc:	ee 24       	eor	r14, r14
    2cfe:	ff 24       	eor	r15, r15
    2d00:	61 e0       	ldi	r22, 0x01	; 1
    2d02:	70 e0       	ldi	r23, 0x00	; 0
    2d04:	0e 2c       	mov	r0, r14
    2d06:	02 c0       	rjmp	.+4      	; 0x2d0c
    2d08:	66 0f       	add	r22, r22
    2d0a:	77 1f       	adc	r23, r23
    2d0c:	0a 94       	dec	r0
    2d0e:	e2 f7       	brpl	.-8      	; 0x2d08
    2d10:	86 2f       	mov	r24, r22
    2d12:	97 2f       	mov	r25, r23
    2d14:	aa 27       	eor	r26, r26
    2d16:	97 fd       	sbrc	r25, 7
    2d18:	a0 95       	com	r26
    2d1a:	ba 2f       	mov	r27, r26
    2d1c:	80 90 e4 01 	lds	r8, 0x01E4
    2d20:	90 90 e5 01 	lds	r9, 0x01E5
    2d24:	a0 90 e6 01 	lds	r10, 0x01E6
    2d28:	b0 90 e7 01 	lds	r11, 0x01E7
    2d2c:	88 21       	and	r24, r8
    2d2e:	99 21       	and	r25, r9
    2d30:	aa 21       	and	r26, r10
    2d32:	bb 21       	and	r27, r11
    2d34:	00 97       	sbiw	r24, 0x00	; 0
    2d36:	a1 05       	cpc	r26, r1
    2d38:	b1 05       	cpc	r27, r1
    2d3a:	09 f4       	brne	.+2      	; 0x2d3e
    2d3c:	59 c0       	rjmp	.+178    	; 0x2df0
    2d3e:	80 91 b8 01 	lds	r24, 0x01B8
    2d42:	99 27       	eor	r25, r25
    2d44:	01 96       	adiw	r24, 0x01	; 1
    2d46:	aa 27       	eor	r26, r26
    2d48:	97 fd       	sbrc	r25, 7
    2d4a:	a0 95       	com	r26
    2d4c:	ba 2f       	mov	r27, r26
    2d4e:	f1 2f       	mov	r31, r17
    2d50:	e0 2f       	mov	r30, r16
    2d52:	25 81       	ldd	r18, Z+5	; 0x05
    2d54:	36 81       	ldd	r19, Z+6	; 0x06
    2d56:	47 81       	ldd	r20, Z+7	; 0x07
    2d58:	50 85       	ldd	r21, Z+8	; 0x08
    2d5a:	28 1b       	sub	r18, r24
    2d5c:	39 0b       	sbc	r19, r25
    2d5e:	4a 0b       	sbc	r20, r26
    2d60:	5b 0b       	sbc	r21, r27
    2d62:	25 83       	std	Z+5, r18	; 0x05
    2d64:	36 83       	std	Z+6, r19	; 0x06
    2d66:	47 83       	std	Z+7, r20	; 0x07
    2d68:	50 87       	std	Z+8, r21	; 0x08
    2d6a:	23 30       	cpi	r18, 0x03	; 3
    2d6c:	31 05       	cpc	r19, r1
    2d6e:	41 05       	cpc	r20, r1
    2d70:	51 05       	cpc	r21, r1
    2d72:	f4 f5       	brge	.+124    	; 0x2df0
    2d74:	80 81       	ld	r24, Z
    2d76:	88 23       	and	r24, r24
    2d78:	69 f4       	brne	.+26     	; 0x2d94
    2d7a:	81 81       	ldd	r24, Z+1	; 0x01
    2d7c:	92 81       	ldd	r25, Z+2	; 0x02
    2d7e:	a3 81       	ldd	r26, Z+3	; 0x03
    2d80:	b4 81       	ldd	r27, Z+4	; 0x04
    2d82:	28 0f       	add	r18, r24
    2d84:	39 1f       	adc	r19, r25
    2d86:	4a 1f       	adc	r20, r26
    2d88:	5b 1f       	adc	r21, r27
    2d8a:	25 83       	std	Z+5, r18	; 0x05
    2d8c:	36 83       	std	Z+6, r19	; 0x06
    2d8e:	47 83       	std	Z+7, r20	; 0x07
    2d90:	50 87       	std	Z+8, r21	; 0x08
    2d92:	14 c0       	rjmp	.+40     	; 0x2dbc
    2d94:	97 2f       	mov	r25, r23
    2d96:	86 2f       	mov	r24, r22
    2d98:	80 95       	com	r24
    2d9a:	90 95       	com	r25
    2d9c:	aa 27       	eor	r26, r26
    2d9e:	97 fd       	sbrc	r25, 7
    2da0:	a0 95       	com	r26
    2da2:	ba 2f       	mov	r27, r26
    2da4:	88 22       	and	r8, r24
    2da6:	99 22       	and	r9, r25
    2da8:	aa 22       	and	r10, r26
    2daa:	bb 22       	and	r11, r27
    2dac:	80 92 e4 01 	sts	0x01E4, r8
    2db0:	90 92 e5 01 	sts	0x01E5, r9
    2db4:	a0 92 e6 01 	sts	0x01E6, r10
    2db8:	b0 92 e7 01 	sts	0x01E7, r11
    2dbc:	80 91 eb 01 	lds	r24, 0x01EB
    2dc0:	81 30       	cpi	r24, 0x01	; 1
    2dc2:	19 f4       	brne	.+6      	; 0x2dca
    2dc4:	8f ef       	ldi	r24, 0xFF	; 255
    2dc6:	80 93 eb 01 	sts	0x01EB, r24
    2dca:	90 91 eb 01 	lds	r25, 0x01EB
    2dce:	9f 5f       	subi	r25, 0xFF	; 255
    2dd0:	90 93 eb 01 	sts	0x01EB, r25
    2dd4:	80 91 f4 00 	lds	r24, 0x00F4
    2dd8:	8f 5f       	subi	r24, 0xFF	; 255
    2dda:	80 93 f4 00 	sts	0x00F4, r24
    2dde:	e9 2f       	mov	r30, r25
    2de0:	ff 27       	eor	r31, r31
    2de2:	eb 52       	subi	r30, 0x2B	; 43
    2de4:	ff 4f       	sbci	r31, 0xFF	; 255
    2de6:	d0 82       	st	Z, r13
    2de8:	8d e1       	ldi	r24, 0x1D	; 29
    2dea:	97 e1       	ldi	r25, 0x17	; 23
    2dec:	0e 94 f4 02 	call	0x5e8
    2df0:	d3 94       	inc	r13
    2df2:	08 94       	sec
    2df4:	e1 1c       	adc	r14, r1
    2df6:	f1 1c       	adc	r15, r1
    2df8:	07 5f       	subi	r16, 0xF7	; 247
    2dfa:	1f 4f       	sbci	r17, 0xFF	; 255
    2dfc:	f1 e0       	ldi	r31, 0x01	; 1
    2dfe:	fd 15       	cp	r31, r13
    2e00:	08 f0       	brcs	.+2      	; 0x2e04
    2e02:	7e cf       	rjmp	.-260    	; 0x2d00
    2e04:	0e 94 ee 01 	call	0x3dc
    2e08:	df 91       	pop	r29
    2e0a:	cf 91       	pop	r28
    2e0c:	1f 91       	pop	r17
    2e0e:	0f 91       	pop	r16
    2e10:	ff 90       	pop	r15
    2e12:	ef 90       	pop	r14
    2e14:	df 90       	pop	r13
    2e16:	bf 90       	pop	r11
    2e18:	af 90       	pop	r10
    2e1a:	9f 90       	pop	r9
    2e1c:	8f 90       	pop	r8
    2e1e:	08 95       	ret

00002e20 <FramerM$PacketUnknown>:
    2e20:	8f b7       	in	r24, 0x3f	; 63
    2e22:	f8 94       	cli
    2e24:	28 2f       	mov	r18, r24
    2e26:	33 27       	eor	r19, r19
    2e28:	80 91 f3 01 	lds	r24, 0x01F3
    2e2c:	88 60       	ori	r24, 0x08	; 8
    2e2e:	80 93 f3 01 	sts	0x01F3, r24
    2e32:	2f bf       	out	0x3f, r18	; 63
    2e34:	0e 94 ba 12 	call	0x2574
    2e38:	08 95       	ret

00002e3a <TimerM$signalOneTimer>:
    2e3a:	0f 93       	push	r16
    2e3c:	1f 93       	push	r17
    2e3e:	cf 93       	push	r28
    2e40:	df 93       	push	r29
    2e42:	90 91 f4 00 	lds	r25, 0x00F4
    2e46:	99 23       	and	r25, r25
    2e48:	19 f4       	brne	.+6      	; 0x2e50
    2e4a:	82 e0       	ldi	r24, 0x02	; 2
    2e4c:	90 e0       	ldi	r25, 0x00	; 0
    2e4e:	15 c0       	rjmp	.+42     	; 0x2e7a
    2e50:	80 91 d1 00 	lds	r24, 0x00D1
    2e54:	81 30       	cpi	r24, 0x01	; 1
    2e56:	19 f4       	brne	.+6      	; 0x2e5e
    2e58:	8f ef       	ldi	r24, 0xFF	; 255
    2e5a:	80 93 d1 00 	sts	0x00D1, r24
    2e5e:	80 91 d1 00 	lds	r24, 0x00D1
    2e62:	8f 5f       	subi	r24, 0xFF	; 255
    2e64:	80 93 d1 00 	sts	0x00D1, r24
    2e68:	91 50       	subi	r25, 0x01	; 1
    2e6a:	90 93 f4 00 	sts	0x00F4, r25
    2e6e:	e8 2f       	mov	r30, r24
    2e70:	ff 27       	eor	r31, r31
    2e72:	eb 52       	subi	r30, 0x2B	; 43
    2e74:	ff 4f       	sbci	r31, 0xFF	; 255
    2e76:	80 81       	ld	r24, Z
    2e78:	99 27       	eor	r25, r25
    2e7a:	82 30       	cpi	r24, 0x02	; 2
    2e7c:	08 f0       	brcs	.+2      	; 0x2e80
    2e7e:	a2 c0       	rjmp	.+324    	; 0x2fc4
    2e80:	c8 2f       	mov	r28, r24
    2e82:	dd 27       	eor	r29, r29
    2e84:	20 97       	sbiw	r28, 0x00	; 0
    2e86:	21 f0       	breq	.+8      	; 0x2e90
    2e88:	21 97       	sbiw	r28, 0x01	; 1
    2e8a:	09 f4       	brne	.+2      	; 0x2e8e
    2e8c:	8f c0       	rjmp	.+286    	; 0x2fac
    2e8e:	9a c0       	rjmp	.+308    	; 0x2fc4
    2e90:	0e 94 cc 02 	call	0x598
    2e94:	80 91 e4 00 	lds	r24, 0x00E4
    2e98:	8f 5f       	subi	r24, 0xFF	; 255
    2e9a:	80 93 e4 00 	sts	0x00E4, r24
    2e9e:	99 27       	eor	r25, r25
    2ea0:	38 2f       	mov	r19, r24
    2ea2:	22 27       	eor	r18, r18
    2ea4:	80 91 3e 01 	lds	r24, 0x013E
    2ea8:	90 91 3f 01 	lds	r25, 0x013F
    2eac:	28 17       	cp	r18, r24
    2eae:	39 07       	cpc	r19, r25
    2eb0:	08 f4       	brcc	.+2      	; 0x2eb4
    2eb2:	88 c0       	rjmp	.+272    	; 0x2fc4
    2eb4:	0e 94 4e 02 	call	0x49c
    2eb8:	10 92 e4 00 	sts	0x00E4, r1
    2ebc:	80 91 cc 01 	lds	r24, 0x01CC
    2ec0:	88 23       	and	r24, r24
    2ec2:	09 f4       	brne	.+2      	; 0x2ec6
    2ec4:	7f c0       	rjmp	.+254    	; 0x2fc4
    2ec6:	80 91 34 01 	lds	r24, 0x0134
    2eca:	88 23       	and	r24, r24
    2ecc:	09 f0       	breq	.+2      	; 0x2ed0
    2ece:	7a c0       	rjmp	.+244    	; 0x2fc4
    2ed0:	80 91 ee 01 	lds	r24, 0x01EE
    2ed4:	90 91 ef 01 	lds	r25, 0x01EF
    2ed8:	90 93 89 01 	sts	0x0189, r25
    2edc:	80 93 88 01 	sts	0x0188, r24
    2ee0:	01 96       	adiw	r24, 0x01	; 1
    2ee2:	90 93 ef 01 	sts	0x01EF, r25
    2ee6:	80 93 ee 01 	sts	0x01EE, r24
    2eea:	80 91 3e 01 	lds	r24, 0x013E
    2eee:	90 91 3f 01 	lds	r25, 0x013F
    2ef2:	90 93 8b 01 	sts	0x018B, r25
    2ef6:	80 93 8a 01 	sts	0x018A, r24
    2efa:	80 91 cb 00 	lds	r24, 0x00CB
    2efe:	90 91 cc 00 	lds	r25, 0x00CC
    2f02:	90 93 9c 01 	sts	0x019C, r25
    2f06:	80 93 9b 01 	sts	0x019B, r24
    2f0a:	10 91 e3 01 	lds	r17, 0x01E3
    2f0e:	11 23       	and	r17, r17
    2f10:	51 f5       	brne	.+84     	; 0x2f66
    2f12:	01 e0       	ldi	r16, 0x01	; 1
    2f14:	00 93 e3 01 	sts	0x01E3, r16
    2f18:	87 ee       	ldi	r24, 0xE7	; 231
    2f1a:	97 e1       	ldi	r25, 0x17	; 23
    2f1c:	0e 94 f4 02 	call	0x5e8
    2f20:	88 23       	and	r24, r24
    2f22:	19 f4       	brne	.+6      	; 0x2f2a
    2f24:	10 93 e3 01 	sts	0x01E3, r17
    2f28:	1e c0       	rjmp	.+60     	; 0x2f66
    2f2a:	83 e8       	ldi	r24, 0x83	; 131
    2f2c:	91 e0       	ldi	r25, 0x01	; 1
    2f2e:	90 93 eb 00 	sts	0x00EB, r25
    2f32:	80 93 ea 00 	sts	0x00EA, r24
    2f36:	85 e1       	ldi	r24, 0x15	; 21
    2f38:	80 93 87 01 	sts	0x0187, r24
    2f3c:	8f ef       	ldi	r24, 0xFF	; 255
    2f3e:	9f ef       	ldi	r25, 0xFF	; 255
    2f40:	90 93 84 01 	sts	0x0184, r25
    2f44:	80 93 83 01 	sts	0x0183, r24
    2f48:	8c e0       	ldi	r24, 0x0C	; 12
    2f4a:	80 93 85 01 	sts	0x0185, r24
    2f4e:	80 91 62 00 	lds	r24, 0x0062
    2f52:	80 93 86 01 	sts	0x0186, r24
    2f56:	80 2f       	mov	r24, r16
    2f58:	8e 5f       	subi	r24, 0xFE	; 254
    2f5a:	8c 5f       	subi	r24, 0xFC	; 252
    2f5c:	8b 32       	cpi	r24, 0x2B	; 43
    2f5e:	e8 f3       	brcs	.-6      	; 0x2f5a
    2f60:	81 e0       	ldi	r24, 0x01	; 1
    2f62:	90 e0       	ldi	r25, 0x00	; 0
    2f64:	02 c0       	rjmp	.+4      	; 0x2f6a
    2f66:	8c 2f       	mov	r24, r28
    2f68:	9d 2f       	mov	r25, r29
    2f6a:	88 23       	and	r24, r24
    2f6c:	59 f1       	breq	.+86     	; 0x2fc4
    2f6e:	80 91 d0 00 	lds	r24, 0x00D0
    2f72:	8f 5f       	subi	r24, 0xFF	; 255
    2f74:	80 93 d0 00 	sts	0x00D0, r24
    2f78:	8f b7       	in	r24, 0x3f	; 63
    2f7a:	f8 94       	cli
    2f7c:	38 2f       	mov	r19, r24
    2f7e:	20 91 d0 01 	lds	r18, 0x01D0
    2f82:	21 ff       	sbrs	r18, 1
    2f84:	06 c0       	rjmp	.+12     	; 0x2f92
    2f86:	8f b7       	in	r24, 0x3f	; 63
    2f88:	f8 94       	cli
    2f8a:	99 27       	eor	r25, r25
    2f8c:	d9 9a       	sbi	0x1b, 1	; 27
    2f8e:	2d 7f       	andi	r18, 0xFD	; 253
    2f90:	05 c0       	rjmp	.+10     	; 0x2f9c
    2f92:	8f b7       	in	r24, 0x3f	; 63
    2f94:	f8 94       	cli
    2f96:	99 27       	eor	r25, r25
    2f98:	d9 98       	cbi	0x1b, 1	; 27
    2f9a:	22 60       	ori	r18, 0x02	; 2
    2f9c:	20 93 d0 01 	sts	0x01D0, r18
    2fa0:	8f bf       	out	0x3f, r24	; 63
    2fa2:	3f bf       	out	0x3f, r19	; 63
    2fa4:	81 e0       	ldi	r24, 0x01	; 1
    2fa6:	80 93 34 01 	sts	0x0134, r24
    2faa:	0c c0       	rjmp	.+24     	; 0x2fc4
    2fac:	80 91 1b 01 	lds	r24, 0x011B
    2fb0:	90 91 1c 01 	lds	r25, 0x011C
    2fb4:	90 93 dd 01 	sts	0x01DD, r25
    2fb8:	80 93 dc 01 	sts	0x01DC, r24
    2fbc:	10 92 1c 01 	sts	0x011C, r1
    2fc0:	10 92 1b 01 	sts	0x011B, r1
    2fc4:	df 91       	pop	r29
    2fc6:	cf 91       	pop	r28
    2fc8:	1f 91       	pop	r17
    2fca:	0f 91       	pop	r16
    2fcc:	08 95       	ret

00002fce <AMStandard$sendTask>:
    2fce:	cf 93       	push	r28
    2fd0:	df 93       	push	r29
    2fd2:	e0 91 ea 00 	lds	r30, 0x00EA
    2fd6:	f0 91 eb 00 	lds	r31, 0x00EB
    2fda:	80 81       	ld	r24, Z
    2fdc:	91 81       	ldd	r25, Z+1	; 0x01
    2fde:	8e 37       	cpi	r24, 0x7E	; 126
    2fe0:	91 05       	cpc	r25, r1
    2fe2:	b1 f4       	brne	.+44     	; 0x3010
    2fe4:	61 e0       	ldi	r22, 0x01	; 1
    2fe6:	8f b7       	in	r24, 0x3f	; 63
    2fe8:	f8 94       	cli
    2fea:	90 91 f3 01 	lds	r25, 0x01F3
    2fee:	92 fd       	sbrc	r25, 2
    2ff0:	08 c0       	rjmp	.+16     	; 0x3002
    2ff2:	94 60       	ori	r25, 0x04	; 4
    2ff4:	90 93 f3 01 	sts	0x01F3, r25
    2ff8:	f0 93 ce 00 	sts	0x00CE, r31
    2ffc:	e0 93 cd 00 	sts	0x00CD, r30
    3000:	01 c0       	rjmp	.+2      	; 0x3004
    3002:	60 e0       	ldi	r22, 0x00	; 0
    3004:	8f bf       	out	0x3f, r24	; 63
    3006:	61 30       	cpi	r22, 0x01	; 1
    3008:	c9 f5       	brne	.+114    	; 0x307c
    300a:	0e 94 ba 12 	call	0x2574
    300e:	35 c0       	rjmp	.+106    	; 0x307a
    3010:	8f b7       	in	r24, 0x3f	; 63
    3012:	f8 94       	cli
    3014:	28 2f       	mov	r18, r24
    3016:	33 27       	eor	r19, r19
    3018:	90 91 e8 00 	lds	r25, 0x00E8
    301c:	99 23       	and	r25, r25
    301e:	49 f4       	brne	.+18     	; 0x3032
    3020:	81 e0       	ldi	r24, 0x01	; 1
    3022:	80 93 e8 00 	sts	0x00E8, r24
    3026:	f0 93 db 01 	sts	0x01DB, r31
    302a:	e0 93 da 01 	sts	0x01DA, r30
    302e:	80 93 e3 00 	sts	0x00E3, r24
    3032:	2f bf       	out	0x3f, r18	; 63
    3034:	99 23       	and	r25, r25
    3036:	f9 f4       	brne	.+62     	; 0x3076
    3038:	8f b7       	in	r24, 0x3f	; 63
    303a:	f8 94       	cli
    303c:	c8 2f       	mov	r28, r24
    303e:	dd 27       	eor	r29, r29
    3040:	8f ef       	ldi	r24, 0xFF	; 255
    3042:	90 e0       	ldi	r25, 0x00	; 0
    3044:	90 93 df 01 	sts	0x01DF, r25
    3048:	80 93 de 01 	sts	0x01DE, r24
    304c:	80 91 08 01 	lds	r24, 0x0108
    3050:	90 91 09 01 	lds	r25, 0x0109
    3054:	8f 5f       	subi	r24, 0xFF	; 255
    3056:	9f 4f       	sbci	r25, 0xFF	; 255
    3058:	51 f4       	brne	.+20     	; 0x306e
    305a:	0e 94 c1 10 	call	0x2182
    305e:	8f 72       	andi	r24, 0x2F	; 47
    3060:	90 70       	andi	r25, 0x00	; 0
    3062:	80 5b       	subi	r24, 0xB0	; 176
    3064:	9f 4f       	sbci	r25, 0xFF	; 255
    3066:	90 93 09 01 	sts	0x0109, r25
    306a:	80 93 08 01 	sts	0x0108, r24
    306e:	cf bf       	out	0x3f, r28	; 63
    3070:	81 e0       	ldi	r24, 0x01	; 1
    3072:	90 e0       	ldi	r25, 0x00	; 0
    3074:	02 c0       	rjmp	.+4      	; 0x307a
    3076:	80 e0       	ldi	r24, 0x00	; 0
    3078:	90 e0       	ldi	r25, 0x00	; 0
    307a:	68 2f       	mov	r22, r24
    307c:	66 23       	and	r22, r22
    307e:	31 f4       	brne	.+12     	; 0x308c
    3080:	80 91 ea 00 	lds	r24, 0x00EA
    3084:	90 91 eb 00 	lds	r25, 0x00EB
    3088:	0e 94 ae 10 	call	0x215c
    308c:	df 91       	pop	r29
    308e:	cf 91       	pop	r28
    3090:	08 95       	ret

00003092 <__mulhi3>:
    3092:	55 27       	eor	r21, r21
    3094:	00 24       	eor	r0, r0

00003096 <__mulhi3_loop>:
    3096:	80 ff       	sbrs	r24, 0
    3098:	02 c0       	rjmp	.+4      	; 0x309e
    309a:	06 0e       	add	r0, r22
    309c:	57 1f       	adc	r21, r23

0000309e <__mulhi3_skip1>:
    309e:	66 0f       	add	r22, r22
    30a0:	77 1f       	adc	r23, r23
    30a2:	61 15       	cp	r22, r1
    30a4:	71 05       	cpc	r23, r1
    30a6:	21 f0       	breq	.+8      	; 0x30b0
    30a8:	96 95       	lsr	r25
    30aa:	87 95       	ror	r24
    30ac:	00 97       	sbiw	r24, 0x00	; 0
    30ae:	99 f7       	brne	.-26     	; 0x3096

000030b0 <__mulhi3_exit>:
    30b0:	95 2f       	mov	r25, r21
    30b2:	80 2d       	mov	r24, r0
    30b4:	08 95       	ret

000030b6 <__mulsi3>:
    30b6:	ff 27       	eor	r31, r31
    30b8:	ee 27       	eor	r30, r30
    30ba:	bb 27       	eor	r27, r27
    30bc:	aa 27       	eor	r26, r26

000030be <__mulsi3_loop>:
    30be:	60 ff       	sbrs	r22, 0
    30c0:	04 c0       	rjmp	.+8      	; 0x30ca
    30c2:	a2 0f       	add	r26, r18
    30c4:	b3 1f       	adc	r27, r19
    30c6:	e4 1f       	adc	r30, r20
    30c8:	f5 1f       	adc	r31, r21

000030ca <__mulsi3_skip1>:
    30ca:	22 0f       	add	r18, r18
    30cc:	33 1f       	adc	r19, r19
    30ce:	44 1f       	adc	r20, r20
    30d0:	55 1f       	adc	r21, r21
    30d2:	96 95       	lsr	r25
    30d4:	87 95       	ror	r24
    30d6:	77 95       	ror	r23
    30d8:	67 95       	ror	r22
    30da:	89 f7       	brne	.-30     	; 0x30be
    30dc:	00 97       	sbiw	r24, 0x00	; 0
    30de:	76 07       	cpc	r23, r22
    30e0:	71 f7       	brne	.-36     	; 0x30be

000030e2 <__mulsi3_exit>:
    30e2:	9f 2f       	mov	r25, r31
    30e4:	8e 2f       	mov	r24, r30
    30e6:	7b 2f       	mov	r23, r27
    30e8:	6a 2f       	mov	r22, r26
    30ea:	08 95       	ret

000030ec <__udivmodsi4>:
    30ec:	a1 e2       	ldi	r26, 0x21	; 33
    30ee:	1a 2e       	mov	r1, r26
    30f0:	aa 1b       	sub	r26, r26
    30f2:	bb 1b       	sub	r27, r27
    30f4:	ea 2f       	mov	r30, r26
    30f6:	fb 2f       	mov	r31, r27
    30f8:	0d c0       	rjmp	.+26     	; 0x3114

000030fa <__udivmodsi4_loop>:
    30fa:	aa 1f       	adc	r26, r26
    30fc:	bb 1f       	adc	r27, r27
    30fe:	ee 1f       	adc	r30, r30
    3100:	ff 1f       	adc	r31, r31
    3102:	a2 17       	cp	r26, r18
    3104:	b3 07       	cpc	r27, r19
    3106:	e4 07       	cpc	r30, r20
    3108:	f5 07       	cpc	r31, r21
    310a:	20 f0       	brcs	.+8      	; 0x3114
    310c:	a2 1b       	sub	r26, r18
    310e:	b3 0b       	sbc	r27, r19
    3110:	e4 0b       	sbc	r30, r20
    3112:	f5 0b       	sbc	r31, r21

00003114 <__udivmodsi4_ep>:
    3114:	66 1f       	adc	r22, r22
    3116:	77 1f       	adc	r23, r23
    3118:	88 1f       	adc	r24, r24
    311a:	99 1f       	adc	r25, r25
    311c:	1a 94       	dec	r1
    311e:	69 f7       	brne	.-38     	; 0x30fa
    3120:	60 95       	com	r22
    3122:	70 95       	com	r23
    3124:	80 95       	com	r24
    3126:	90 95       	com	r25
    3128:	26 2f       	mov	r18, r22
    312a:	37 2f       	mov	r19, r23
    312c:	48 2f       	mov	r20, r24
    312e:	59 2f       	mov	r21, r25
    3130:	6a 2f       	mov	r22, r26
    3132:	7b 2f       	mov	r23, r27
    3134:	8e 2f       	mov	r24, r30
    3136:	9f 2f       	mov	r25, r31
    3138:	08 95       	ret
