
main.exe:     file format elf32-avr

Disassembly of section .text:

00000000 <__vectors>:
       0:	0c 94 30 01 	jmp	0x260
       4:	0c 94 50 01 	jmp	0x2a0
       8:	0c 94 50 01 	jmp	0x2a0
       c:	0c 94 50 01 	jmp	0x2a0
      10:	0c 94 50 01 	jmp	0x2a0
      14:	0c 94 50 01 	jmp	0x2a0
      18:	0c 94 50 01 	jmp	0x2a0
      1c:	0c 94 50 01 	jmp	0x2a0
      20:	0c 94 50 01 	jmp	0x2a0
      24:	0c 94 6a 07 	jmp	0xed4
      28:	0c 94 50 01 	jmp	0x2a0
      2c:	0c 94 50 01 	jmp	0x2a0
      30:	0c 94 50 01 	jmp	0x2a0
      34:	0c 94 50 01 	jmp	0x2a0
      38:	0c 94 50 01 	jmp	0x2a0
      3c:	0c 94 f0 04 	jmp	0x9e0
      40:	0c 94 50 01 	jmp	0x2a0
      44:	0c 94 d9 01 	jmp	0x3b2
      48:	0c 94 04 02 	jmp	0x408
      4c:	0c 94 50 01 	jmp	0x2a0
      50:	0c 94 2e 02 	jmp	0x45c
      54:	0c 94 b2 01 	jmp	0x364
      58:	0c 94 50 01 	jmp	0x2a0
      5c:	0c 94 50 01 	jmp	0x2a0

00000060 <__ctors_end>:
      60:	00 00       	nop
      62:	21 10       	cpse	r2, r1
      64:	42 20       	and	r4, r2
      66:	63 30       	cpi	r22, 0x03	; 3
      68:	84 40       	sbci	r24, 0x04	; 4
      6a:	a5 50       	subi	r26, 0x05	; 5
      6c:	c6 60       	ori	r28, 0x06	; 6
      6e:	e7 70       	andi	r30, 0x07	; 7
      70:	08 81       	ld	r16, Y
      72:	29 91       	ld	r18, Y+
      74:	4a a1       	ldd	r20, Y+34	; 0x22
      76:	6b b1       	in	r22, 0x0b	; 11
      78:	8c c1       	rjmp	.+792    	; 0x392
      7a:	ad d1       	rcall	.+858    	; 0x3d6
      7c:	ce e1       	ldi	r28, 0x1E	; 30
      7e:	ef f1       	brie	.+122    	; 0xfa
      80:	31 12       	cpse	r3, r17
      82:	10 02       	muls	r17, r16
      84:	73 32       	cpi	r23, 0x23	; 35
      86:	52 22       	and	r5, r18
      88:	b5 52       	subi	r27, 0x25	; 37
      8a:	94 42       	sbci	r25, 0x24	; 36
      8c:	f7 72       	andi	r31, 0x27	; 39
      8e:	d6 62       	ori	r29, 0x26	; 38
      90:	39 93       	st	Y+, r19
      92:	18 83       	st	Y, r17
      94:	7b b3       	in	r23, 0x1b	; 27
      96:	5a a3       	std	Y+34, r21	; 0x22
      98:	bd d3       	rcall	.+1914   	; 0x814
      9a:	9c c3       	rjmp	.+1848   	; 0x7d4
      9c:	ff f3       	brie	.-2      	; 0x9c
      9e:	de e3       	ldi	r29, 0x3E	; 62
      a0:	62 24       	eor	r6, r2
      a2:	43 34       	cpi	r20, 0x43	; 67
      a4:	20 04       	cpc	r2, r0
      a6:	01 14       	cp	r0, r1
      a8:	e6 64       	ori	r30, 0x46	; 70
      aa:	c7 74       	andi	r28, 0x47	; 71
      ac:	a4 44       	sbci	r26, 0x44	; 68
      ae:	85 54       	subi	r24, 0x45	; 69
      b0:	6a a5       	ldd	r22, Y+42	; 0x2a
      b2:	4b b5       	in	r20, 0x2b	; 43
      b4:	28 85       	ldd	r18, Y+8	; 0x08
      b6:	09 95       	icall
      b8:	ee e5       	ldi	r30, 0x5E	; 94
      ba:	cf f5       	brid	.+114    	; 0x12e
      bc:	ac c5       	rjmp	.+2904   	; 0xc16
      be:	8d d5       	rcall	.+2842   	; 0xbda
      c0:	53 36       	cpi	r21, 0x63	; 99
      c2:	72 26       	eor	r7, r18
      c4:	11 16       	cp	r1, r17
      c6:	30 06       	cpc	r3, r16
      c8:	d7 76       	andi	r29, 0x67	; 103
      ca:	f6 66       	ori	r31, 0x66	; 102
      cc:	95 56       	subi	r25, 0x65	; 101
      ce:	b4 46       	sbci	r27, 0x64	; 100
      d0:	5b b7       	in	r21, 0x3b	; 59
      d2:	7a a7       	std	Y+42, r23	; 0x2a
      d4:	19 97       	sbiw	r26, 0x09	; 9
      d6:	38 87       	std	Y+8, r19	; 0x08
      d8:	df f7       	brid	.-10     	; 0xd0
      da:	fe e7       	ldi	r31, 0x7E	; 126
      dc:	9d d7       	rcall	.+3898   	; 0x1018
      de:	bc c7       	rjmp	.+3960   	; 0x1058
      e0:	c4 48       	sbci	r28, 0x84	; 132
      e2:	e5 58       	subi	r30, 0x85	; 133
      e4:	86 68       	ori	r24, 0x86	; 134
      e6:	a7 78       	andi	r26, 0x87	; 135
      e8:	40 08       	sbc	r4, r0
      ea:	61 18       	sub	r6, r1
      ec:	02 28       	or	r0, r2
      ee:	23 38       	cpi	r18, 0x83	; 131
      f0:	cc c9       	rjmp	.-3176   	; 0xfffff48a
      f2:	ed d9       	rcall	.-3110   	; 0xfffff4ce
      f4:	8e e9       	ldi	r24, 0x9E	; 158
      f6:	af f9       	.word	0xf9af	; ????
      f8:	48 89       	ldd	r20, Y+16	; 0x10
      fa:	69 99       	sbic	0x0d, 1	; 13
      fc:	0a a9       	ldd	r16, Y+50	; 0x32
      fe:	2b b9       	out	0x0b, r18	; 11
     100:	f5 5a       	subi	r31, 0xA5	; 165
     102:	d4 4a       	sbci	r29, 0xA4	; 164
     104:	b7 7a       	andi	r27, 0xA7	; 167
     106:	96 6a       	ori	r25, 0xA6	; 166
     108:	71 1a       	sub	r7, r17
     10a:	50 0a       	sbc	r5, r16
     10c:	33 3a       	cpi	r19, 0xA3	; 163
     10e:	12 2a       	or	r1, r18
     110:	fd db       	rcall	.-2054   	; 0xfffff90c
     112:	dc cb       	rjmp	.-2120   	; 0xfffff8cc
     114:	bf fb       	.word	0xfbbf	; ????
     116:	9e eb       	ldi	r25, 0xBE	; 190
     118:	79 9b       	sbis	0x0f, 1	; 15
     11a:	58 8b       	std	Y+16, r21	; 0x10
     11c:	3b bb       	out	0x1b, r19	; 27
     11e:	1a ab       	std	Y+50, r17	; 0x32
     120:	a6 6c       	ori	r26, 0xC6	; 198
     122:	87 7c       	andi	r24, 0xC7	; 199
     124:	e4 4c       	sbci	r30, 0xC4	; 196
     126:	c5 5c       	subi	r28, 0xC5	; 197
     128:	22 2c       	mov	r2, r2
     12a:	03 3c       	cpi	r16, 0xC3	; 195
     12c:	60 0c       	add	r6, r0
     12e:	41 1c       	adc	r4, r1
     130:	ae ed       	ldi	r26, 0xDE	; 222
     132:	8f fd       	.word	0xfd8f	; ????
     134:	ec cd       	rjmp	.-1064   	; 0xfffffd0e
     136:	cd dd       	rcall	.-1126   	; 0xfffffcd2
     138:	2a ad       	ldd	r18, Y+58	; 0x3a
     13a:	0b bd       	out	0x2b, r16	; 43
     13c:	68 8d       	ldd	r22, Y+24	; 0x18
     13e:	49 9d       	mul	r20, r9
     140:	97 7e       	andi	r25, 0xE7	; 231
     142:	b6 6e       	ori	r27, 0xE6	; 230
     144:	d5 5e       	subi	r29, 0xE5	; 229
     146:	f4 4e       	sbci	r31, 0xE4	; 228
     148:	13 3e       	cpi	r17, 0xE3	; 227
     14a:	32 2e       	mov	r3, r18
     14c:	51 1e       	adc	r5, r17
     14e:	70 0e       	add	r7, r16
     150:	9f ff       	.word	0xff9f	; ????
     152:	be ef       	ldi	r27, 0xFE	; 254
     154:	dd df       	rcall	.-70     	; 0x110
     156:	fc cf       	rjmp	.-8      	; 0x150
     158:	1b bf       	out	0x3b, r17	; 59
     15a:	3a af       	std	Y+58, r19	; 0x3a
     15c:	59 9f       	mul	r21, r25
     15e:	78 8f       	std	Y+24, r23	; 0x18
     160:	88 91       	.word	0x9188	; ????
     162:	a9 81       	ldd	r26, Y+1	; 0x01
     164:	ca b1       	in	r28, 0x0a	; 10
     166:	eb a1       	ldd	r30, Y+35	; 0x23
     168:	0c d1       	rcall	.+536    	; 0x382
     16a:	2d c1       	rjmp	.+602    	; 0x3c6
     16c:	4e f1       	brts	.+82     	; 0x1c0
     16e:	6f e1       	ldi	r22, 0x1F	; 31
     170:	80 10       	cpse	r8, r0
     172:	a1 00       	.word	0x00a1	; ????
     174:	c2 30       	cpi	r28, 0x02	; 2
     176:	e3 20       	and	r14, r3
     178:	04 50       	subi	r16, 0x04	; 4
     17a:	25 40       	sbci	r18, 0x05	; 5
     17c:	46 70       	andi	r20, 0x06	; 6
     17e:	67 60       	ori	r22, 0x07	; 7
     180:	b9 83       	std	Y+1, r27	; 0x01
     182:	98 93       	.word	0x9398	; ????
     184:	fb a3       	std	Y+35, r31	; 0x23
     186:	da b3       	in	r29, 0x1a	; 26
     188:	3d c3       	rjmp	.+1658   	; 0x804
     18a:	1c d3       	rcall	.+1592   	; 0x7c4
     18c:	7f e3       	ldi	r23, 0x3F	; 63
     18e:	5e f3       	brts	.-42     	; 0x166
     190:	b1 02       	muls	r27, r17
     192:	90 12       	cpse	r9, r16
     194:	f3 22       	and	r15, r19
     196:	d2 32       	cpi	r29, 0x22	; 34
     198:	35 42       	sbci	r19, 0x25	; 37
     19a:	14 52       	subi	r17, 0x24	; 36
     19c:	77 62       	ori	r23, 0x27	; 39
     19e:	56 72       	andi	r21, 0x26	; 38
     1a0:	ea b5       	in	r30, 0x2a	; 42
     1a2:	cb a5       	ldd	r28, Y+43	; 0x2b
     1a4:	a8 95       	wdr
     1a6:	89 85       	ldd	r24, Y+9	; 0x09
     1a8:	6e f5       	brtc	.+90     	; 0x204
     1aa:	4f e5       	ldi	r20, 0x5F	; 95
     1ac:	2c d5       	rcall	.+2648   	; 0xc06
     1ae:	0d c5       	rjmp	.+2586   	; 0xbca
     1b0:	e2 34       	cpi	r30, 0x42	; 66
     1b2:	c3 24       	eor	r12, r3
     1b4:	a0 14       	cp	r10, r0
     1b6:	81 04       	cpc	r8, r1
     1b8:	66 74       	andi	r22, 0x46	; 70
     1ba:	47 64       	ori	r20, 0x47	; 71
     1bc:	24 54       	subi	r18, 0x44	; 68
     1be:	05 44       	sbci	r16, 0x45	; 69
     1c0:	db a7       	std	Y+43, r29	; 0x2b
     1c2:	fa b7       	in	r31, 0x3a	; 58
     1c4:	99 87       	std	Y+9, r25	; 0x09
     1c6:	b8 97       	sbiw	r30, 0x28	; 40
     1c8:	5f e7       	ldi	r21, 0x7F	; 127
     1ca:	7e f7       	brtc	.-34     	; 0x1aa
     1cc:	1d c7       	rjmp	.+3642   	; 0x1008
     1ce:	3c d7       	rcall	.+3704   	; 0x1048
     1d0:	d3 26       	eor	r13, r19
     1d2:	f2 36       	cpi	r31, 0x62	; 98
     1d4:	91 06       	cpc	r9, r17
     1d6:	b0 16       	cp	r11, r16
     1d8:	57 66       	ori	r21, 0x67	; 103
     1da:	76 76       	andi	r23, 0x66	; 102
     1dc:	15 46       	sbci	r17, 0x65	; 101
     1de:	34 56       	subi	r19, 0x64	; 100
     1e0:	4c d9       	rcall	.-3432   	; 0xfffff47a
     1e2:	6d c9       	rjmp	.-3366   	; 0xfffff4be
     1e4:	0e f9       	.word	0xf90e	; ????
     1e6:	2f e9       	ldi	r18, 0x9F	; 159
     1e8:	c8 99       	sbic	0x19, 0	; 25
     1ea:	e9 89       	ldd	r30, Y+17	; 0x11
     1ec:	8a b9       	out	0x0a, r24	; 10
     1ee:	ab a9       	ldd	r26, Y+51	; 0x33
     1f0:	44 58       	subi	r20, 0x84	; 132
     1f2:	65 48       	sbci	r22, 0x85	; 133
     1f4:	06 78       	andi	r16, 0x86	; 134
     1f6:	27 68       	ori	r18, 0x87	; 135
     1f8:	c0 18       	sub	r12, r0
     1fa:	e1 08       	sbc	r14, r1
     1fc:	82 38       	cpi	r24, 0x82	; 130
     1fe:	a3 28       	or	r10, r3
     200:	7d cb       	rjmp	.-2310   	; 0xfffff8fc
     202:	5c db       	rcall	.-2376   	; 0xfffff8bc
     204:	3f eb       	ldi	r19, 0xBF	; 191
     206:	1e fb       	.word	0xfb1e	; ????
     208:	f9 8b       	std	Y+17, r31	; 0x11
     20a:	d8 9b       	sbis	0x1b, 0	; 27
     20c:	bb ab       	std	Y+51, r27	; 0x33
     20e:	9a bb       	out	0x1a, r25	; 26
     210:	75 4a       	sbci	r23, 0xA5	; 165
     212:	54 5a       	subi	r21, 0xA4	; 164
     214:	37 6a       	ori	r19, 0xA7	; 167
     216:	16 7a       	andi	r17, 0xA6	; 166
     218:	f1 0a       	sbc	r15, r17
     21a:	d0 1a       	sub	r13, r16
     21c:	b3 2a       	or	r11, r19
     21e:	92 3a       	cpi	r25, 0xA2	; 162
     220:	2e fd       	.word	0xfd2e	; ????
     222:	0f ed       	ldi	r16, 0xDF	; 223
     224:	6c dd       	rcall	.-1320   	; 0xfffffcfe
     226:	4d cd       	rjmp	.-1382   	; 0xfffffcc2
     228:	aa bd       	out	0x2a, r26	; 42
     22a:	8b ad       	ldd	r24, Y+59	; 0x3b
     22c:	e8 9d       	mul	r30, r8
     22e:	c9 8d       	ldd	r28, Y+25	; 0x19
     230:	26 7c       	andi	r18, 0xC6	; 198
     232:	07 6c       	ori	r16, 0xC7	; 199
     234:	64 5c       	subi	r22, 0xC4	; 196
     236:	45 4c       	sbci	r20, 0xC5	; 197
     238:	a2 3c       	cpi	r26, 0xC2	; 194
     23a:	83 2c       	mov	r8, r3
     23c:	e0 1c       	adc	r14, r0
     23e:	c1 0c       	add	r12, r1
     240:	1f ef       	ldi	r17, 0xFF	; 255
     242:	3e ff       	.word	0xff3e	; ????
     244:	5d cf       	rjmp	.-326    	; 0x100
     246:	7c df       	rcall	.-264    	; 0x140
     248:	9b af       	std	Y+59, r25	; 0x3b
     24a:	ba bf       	out	0x3a, r27	; 58
     24c:	d9 8f       	std	Y+25, r29	; 0x19
     24e:	f8 9f       	mul	r31, r24
     250:	17 6e       	ori	r17, 0xE7	; 231
     252:	36 7e       	andi	r19, 0xE6	; 230
     254:	55 4e       	sbci	r21, 0xE5	; 229
     256:	74 5e       	subi	r23, 0xE4	; 228
     258:	93 2e       	mov	r9, r19
     25a:	b2 3e       	cpi	r27, 0xE2	; 226
     25c:	d1 0e       	add	r13, r17
     25e:	f0 1e       	adc	r15, r16

00000260 <__init>:
     260:	11 24       	eor	r1, r1
     262:	1f be       	out	0x3f, r1	; 63
     264:	cf ef       	ldi	r28, 0xFF	; 255
     266:	df e0       	ldi	r29, 0x0F	; 15
     268:	de bf       	out	0x3e, r29	; 62
     26a:	cd bf       	out	0x3d, r28	; 61

0000026c <__do_copy_data>:
     26c:	10 e0       	ldi	r17, 0x00	; 0
     26e:	a0 e6       	ldi	r26, 0x60	; 96
     270:	b0 e0       	ldi	r27, 0x00	; 0
     272:	ee e1       	ldi	r30, 0x1E	; 30
     274:	f4 e2       	ldi	r31, 0x24	; 36
     276:	0f ef       	ldi	r16, 0xFF	; 255

00000278 <.__do_copy_data_carry>:
     278:	03 95       	inc	r16
     27a:	0b bf       	out	0x3b, r16	; 59
     27c:	04 c0       	rjmp	.+8      	; 0x286

0000027e <.__do_copy_data_loop>:
     27e:	d8 95       	elpm
     280:	0d 92       	st	X+, r0
     282:	31 96       	adiw	r30, 0x01	; 1
     284:	c8 f3       	brcs	.-14     	; 0x278

00000286 <.__do_copy_data_start>:
     286:	a0 37       	cpi	r26, 0x70	; 112
     288:	b1 07       	cpc	r27, r17
     28a:	c9 f7       	brne	.-14     	; 0x27e

0000028c <__do_clear_bss>:
     28c:	11 e0       	ldi	r17, 0x01	; 1
     28e:	a0 e7       	ldi	r26, 0x70	; 112
     290:	b0 e0       	ldi	r27, 0x00	; 0
     292:	01 c0       	rjmp	.+2      	; 0x296

00000294 <.do_clear_bss_loop>:
     294:	1d 92       	st	X+, r1

00000296 <.do_clear_bss_start>:
     296:	ae 3e       	cpi	r26, 0xEE	; 238
     298:	b1 07       	cpc	r27, r17
     29a:	e1 f7       	brne	.-8      	; 0x294
     29c:	0c 94 7c 02 	jmp	0x4f8

000002a0 <__bad_interrupt>:
     2a0:	0c 94 00 00 	jmp	0x0

000002a4 <TimerM$adjustInterval>:
     2a4:	af 92       	push	r10
     2a6:	bf 92       	push	r11
     2a8:	cf 92       	push	r12
     2aa:	df 92       	push	r13
     2ac:	ef 92       	push	r14
     2ae:	ff 92       	push	r15
     2b0:	0f 93       	push	r16
     2b2:	1f 93       	push	r17
     2b4:	cf 93       	push	r28
     2b6:	df 93       	push	r29
     2b8:	86 ee       	ldi	r24, 0xE6	; 230
     2ba:	f8 2e       	mov	r15, r24
     2bc:	a0 90 e0 01 	lds	r10, 0x01E0
     2c0:	b0 90 e1 01 	lds	r11, 0x01E1
     2c4:	c0 90 e2 01 	lds	r12, 0x01E2
     2c8:	d0 90 e3 01 	lds	r13, 0x01E3
     2cc:	a1 14       	cp	r10, r1
     2ce:	b1 04       	cpc	r11, r1
     2d0:	c1 04       	cpc	r12, r1
     2d2:	d1 04       	cpc	r13, r1
     2d4:	89 f1       	breq	.+98     	; 0x338
     2d6:	ee 24       	eor	r14, r14
     2d8:	6b e5       	ldi	r22, 0x5B	; 91
     2da:	71 e0       	ldi	r23, 0x01	; 1
     2dc:	00 e0       	ldi	r16, 0x00	; 0
     2de:	10 e0       	ldi	r17, 0x00	; 0
     2e0:	81 e0       	ldi	r24, 0x01	; 1
     2e2:	90 e0       	ldi	r25, 0x00	; 0
     2e4:	00 2e       	mov	r0, r16
     2e6:	02 c0       	rjmp	.+4      	; 0x2ec
     2e8:	88 0f       	add	r24, r24
     2ea:	99 1f       	adc	r25, r25
     2ec:	0a 94       	dec	r0
     2ee:	e2 f7       	brpl	.-8      	; 0x2e8
     2f0:	aa 27       	eor	r26, r26
     2f2:	97 fd       	sbrc	r25, 7
     2f4:	a0 95       	com	r26
     2f6:	ba 2f       	mov	r27, r26
     2f8:	8a 21       	and	r24, r10
     2fa:	9b 21       	and	r25, r11
     2fc:	ac 21       	and	r26, r12
     2fe:	bd 21       	and	r27, r13
     300:	00 97       	sbiw	r24, 0x00	; 0
     302:	a1 05       	cpc	r26, r1
     304:	b1 05       	cpc	r27, r1
     306:	81 f0       	breq	.+32     	; 0x328
     308:	2f 2d       	mov	r18, r15
     30a:	33 27       	eor	r19, r19
     30c:	44 27       	eor	r20, r20
     30e:	55 27       	eor	r21, r21
     310:	f7 2f       	mov	r31, r23
     312:	e6 2f       	mov	r30, r22
     314:	85 81       	ldd	r24, Z+5	; 0x05
     316:	96 81       	ldd	r25, Z+6	; 0x06
     318:	a7 81       	ldd	r26, Z+7	; 0x07
     31a:	b0 85       	ldd	r27, Z+8	; 0x08
     31c:	82 17       	cp	r24, r18
     31e:	93 07       	cpc	r25, r19
     320:	a4 07       	cpc	r26, r20
     322:	b5 07       	cpc	r27, r21
     324:	0c f4       	brge	.+2      	; 0x328
     326:	f5 80       	ldd	r15, Z+5	; 0x05
     328:	e3 94       	inc	r14
     32a:	0f 5f       	subi	r16, 0xFF	; 255
     32c:	1f 4f       	sbci	r17, 0xFF	; 255
     32e:	67 5f       	subi	r22, 0xF7	; 247
     330:	7f 4f       	sbci	r23, 0xFF	; 255
     332:	f1 e0       	ldi	r31, 0x01	; 1
     334:	fe 15       	cp	r31, r14
     336:	a0 f6       	brcc	.-88     	; 0x2e0
     338:	8f b7       	in	r24, 0x3f	; 63
     33a:	f8 94       	cli
     33c:	99 27       	eor	r25, r25
     33e:	f0 92 b6 01 	sts	0x01B6, r15
     342:	f1 be       	out	0x31, r15	; 49
     344:	10 92 81 01 	sts	0x0181, r1
     348:	8f bf       	out	0x3f, r24	; 63
     34a:	0e 94 de 04 	call	0x9bc
     34e:	df 91       	pop	r29
     350:	cf 91       	pop	r28
     352:	1f 91       	pop	r17
     354:	0f 91       	pop	r16
     356:	ff 90       	pop	r15
     358:	ef 90       	pop	r14
     35a:	df 90       	pop	r13
     35c:	cf 90       	pop	r12
     35e:	bf 90       	pop	r11
     360:	af 90       	pop	r10
     362:	08 95       	ret

00000364 <__vector_21>:
     364:	1f 92       	push	r1
     366:	0f 92       	push	r0
     368:	0f b6       	in	r0, 0x3f	; 63
     36a:	0f 92       	push	r0
     36c:	11 24       	eor	r1, r1
     36e:	2f 93       	push	r18
     370:	3f 93       	push	r19
     372:	4f 93       	push	r20
     374:	5f 93       	push	r21
     376:	6f 93       	push	r22
     378:	7f 93       	push	r23
     37a:	8f 93       	push	r24
     37c:	9f 93       	push	r25
     37e:	af 93       	push	r26
     380:	bf 93       	push	r27
     382:	ef 93       	push	r30
     384:	ff 93       	push	r31
     386:	84 b1       	in	r24, 0x04	; 4
     388:	95 b1       	in	r25, 0x05	; 5
     38a:	78 94       	sei
     38c:	0e 94 43 05 	call	0xa86
     390:	ff 91       	pop	r31
     392:	ef 91       	pop	r30
     394:	bf 91       	pop	r27
     396:	af 91       	pop	r26
     398:	9f 91       	pop	r25
     39a:	8f 91       	pop	r24
     39c:	7f 91       	pop	r23
     39e:	6f 91       	pop	r22
     3a0:	5f 91       	pop	r21
     3a2:	4f 91       	pop	r20
     3a4:	3f 91       	pop	r19
     3a6:	2f 91       	pop	r18
     3a8:	0f 90       	pop	r0
     3aa:	0f be       	out	0x3f, r0	; 63
     3ac:	0f 90       	pop	r0
     3ae:	1f 90       	pop	r1
     3b0:	18 95       	reti

000003b2 <__vector_17>:
     3b2:	1f 92       	push	r1
     3b4:	0f 92       	push	r0
     3b6:	0f b6       	in	r0, 0x3f	; 63
     3b8:	0f 92       	push	r0
     3ba:	11 24       	eor	r1, r1
     3bc:	2f 93       	push	r18
     3be:	3f 93       	push	r19
     3c0:	4f 93       	push	r20
     3c2:	5f 93       	push	r21
     3c4:	6f 93       	push	r22
     3c6:	7f 93       	push	r23
     3c8:	8f 93       	push	r24
     3ca:	9f 93       	push	r25
     3cc:	af 93       	push	r26
     3ce:	bf 93       	push	r27
     3d0:	ef 93       	push	r30
     3d2:	ff 93       	push	r31
     3d4:	8f b1       	in	r24, 0x0f	; 15
     3d6:	90 91 e9 01 	lds	r25, 0x01E9
     3da:	9f b9       	out	0x0f, r25	; 15
     3dc:	92 e0       	ldi	r25, 0x02	; 2
     3de:	90 93 cb 00 	sts	0x00CB, r25
     3e2:	0e 94 e3 09 	call	0x13c6
     3e6:	ff 91       	pop	r31
     3e8:	ef 91       	pop	r30
     3ea:	bf 91       	pop	r27
     3ec:	af 91       	pop	r26
     3ee:	9f 91       	pop	r25
     3f0:	8f 91       	pop	r24
     3f2:	7f 91       	pop	r23
     3f4:	6f 91       	pop	r22
     3f6:	5f 91       	pop	r21
     3f8:	4f 91       	pop	r20
     3fa:	3f 91       	pop	r19
     3fc:	2f 91       	pop	r18
     3fe:	0f 90       	pop	r0
     400:	0f be       	out	0x3f, r0	; 63
     402:	0f 90       	pop	r0
     404:	1f 90       	pop	r1
     406:	18 95       	reti

00000408 <__vector_18>:
     408:	1f 92       	push	r1
     40a:	0f 92       	push	r0
     40c:	0f b6       	in	r0, 0x3f	; 63
     40e:	0f 92       	push	r0
     410:	11 24       	eor	r1, r1
     412:	2f 93       	push	r18
     414:	3f 93       	push	r19
     416:	4f 93       	push	r20
     418:	5f 93       	push	r21
     41a:	6f 93       	push	r22
     41c:	7f 93       	push	r23
     41e:	8f 93       	push	r24
     420:	9f 93       	push	r25
     422:	af 93       	push	r26
     424:	bf 93       	push	r27
     426:	ef 93       	push	r30
     428:	ff 93       	push	r31
     42a:	5f 9b       	sbis	0x0b, 7	; 11
     42c:	06 c0       	rjmp	.+12     	; 0x43a
     42e:	8c b1       	in	r24, 0x0c	; 12
     430:	40 e0       	ldi	r20, 0x00	; 0
     432:	50 e0       	ldi	r21, 0x00	; 0
     434:	60 e0       	ldi	r22, 0x00	; 0
     436:	0e 94 5a 0c 	call	0x18b4
     43a:	ff 91       	pop	r31
     43c:	ef 91       	pop	r30
     43e:	bf 91       	pop	r27
     440:	af 91       	pop	r26
     442:	9f 91       	pop	r25
     444:	8f 91       	pop	r24
     446:	7f 91       	pop	r23
     448:	6f 91       	pop	r22
     44a:	5f 91       	pop	r21
     44c:	4f 91       	pop	r20
     44e:	3f 91       	pop	r19
     450:	2f 91       	pop	r18
     452:	0f 90       	pop	r0
     454:	0f be       	out	0x3f, r0	; 63
     456:	0f 90       	pop	r0
     458:	1f 90       	pop	r1
     45a:	18 95       	reti

0000045c <__vector_20>:
     45c:	78 94       	sei
     45e:	1f 92       	push	r1
     460:	0f 92       	push	r0
     462:	0f b6       	in	r0, 0x3f	; 63
     464:	0f 92       	push	r0
     466:	11 24       	eor	r1, r1
     468:	2f 93       	push	r18
     46a:	3f 93       	push	r19
     46c:	4f 93       	push	r20
     46e:	5f 93       	push	r21
     470:	6f 93       	push	r22
     472:	7f 93       	push	r23
     474:	8f 93       	push	r24
     476:	9f 93       	push	r25
     478:	af 93       	push	r26
     47a:	bf 93       	push	r27
     47c:	ef 93       	push	r30
     47e:	ff 93       	push	r31
     480:	0e 94 2f 0e 	call	0x1c5e
     484:	ff 91       	pop	r31
     486:	ef 91       	pop	r30
     488:	bf 91       	pop	r27
     48a:	af 91       	pop	r26
     48c:	9f 91       	pop	r25
     48e:	8f 91       	pop	r24
     490:	7f 91       	pop	r23
     492:	6f 91       	pop	r22
     494:	5f 91       	pop	r21
     496:	4f 91       	pop	r20
     498:	3f 91       	pop	r19
     49a:	2f 91       	pop	r18
     49c:	0f 90       	pop	r0
     49e:	0f be       	out	0x3f, r0	; 63
     4a0:	0f 90       	pop	r0
     4a2:	1f 90       	pop	r1
     4a4:	18 95       	reti

000004a6 <TOS_post>:
     4a6:	48 2f       	mov	r20, r24
     4a8:	59 2f       	mov	r21, r25
     4aa:	8f b7       	in	r24, 0x3f	; 63
     4ac:	f8 94       	cli
     4ae:	28 2f       	mov	r18, r24
     4b0:	33 27       	eor	r19, r19
     4b2:	e0 91 73 01 	lds	r30, 0x0173
     4b6:	80 91 73 01 	lds	r24, 0x0173
     4ba:	8f 5f       	subi	r24, 0xFF	; 255
     4bc:	80 93 73 01 	sts	0x0173, r24
     4c0:	80 91 73 01 	lds	r24, 0x0173
     4c4:	87 70       	andi	r24, 0x07	; 7
     4c6:	80 93 73 01 	sts	0x0173, r24
     4ca:	90 91 73 01 	lds	r25, 0x0173
     4ce:	80 91 55 01 	lds	r24, 0x0155
     4d2:	98 17       	cp	r25, r24
     4d4:	59 f0       	breq	.+22     	; 0x4ec
     4d6:	2f bf       	out	0x3f, r18	; 63
     4d8:	ff 27       	eor	r31, r31
     4da:	ee 0f       	add	r30, r30
     4dc:	ff 1f       	adc	r31, r31
     4de:	e4 5c       	subi	r30, 0xC4	; 196
     4e0:	fe 4f       	sbci	r31, 0xFE	; 254
     4e2:	40 83       	st	Z, r20
     4e4:	51 83       	std	Z+1, r21	; 0x01
     4e6:	81 e0       	ldi	r24, 0x01	; 1
     4e8:	90 e0       	ldi	r25, 0x00	; 0
     4ea:	08 95       	ret
     4ec:	e0 93 73 01 	sts	0x0173, r30
     4f0:	2f bf       	out	0x3f, r18	; 63
     4f2:	80 e0       	ldi	r24, 0x00	; 0
     4f4:	90 e0       	ldi	r25, 0x00	; 0
     4f6:	08 95       	ret

000004f8 <main>:
     4f8:	cf ef       	ldi	r28, 0xFF	; 255
     4fa:	df e0       	ldi	r29, 0x0F	; 15
     4fc:	de bf       	out	0x3e, r29	; 62
     4fe:	cd bf       	out	0x3d, r28	; 61
     500:	1a ba       	out	0x1a, r1	; 26
     502:	17 ba       	out	0x17, r1	; 23
     504:	11 ba       	out	0x11, r1	; 17
     506:	82 e0       	ldi	r24, 0x02	; 2
     508:	82 b9       	out	0x02, r24	; 2
     50a:	83 b9       	out	0x03, r24	; 3
     50c:	d2 9a       	sbi	0x1a, 2	; 26
     50e:	d0 9a       	sbi	0x1a, 0	; 26
     510:	d1 9a       	sbi	0x1a, 1	; 26
     512:	8d 9a       	sbi	0x11, 5	; 17
     514:	17 9a       	sbi	0x02, 7	; 2
     516:	8f 9a       	sbi	0x11, 7	; 17
     518:	8e 9a       	sbi	0x11, 6	; 17
     51a:	bb 9a       	sbi	0x17, 3	; 23
     51c:	1f 9a       	sbi	0x03, 7	; 3
     51e:	b8 98       	cbi	0x17, 0	; 23
     520:	da 9a       	sbi	0x1b, 2	; 27
     522:	d8 9a       	sbi	0x1b, 0	; 27
     524:	d9 9a       	sbi	0x1b, 1	; 27
     526:	14 9a       	sbi	0x02, 4	; 2
     528:	1c 9a       	sbi	0x03, 4	; 3
     52a:	15 98       	cbi	0x02, 5	; 2
     52c:	1d 9a       	sbi	0x03, 5	; 3
     52e:	80 e0       	ldi	r24, 0x00	; 0
     530:	d9 9a       	sbi	0x1b, 1	; 27
     532:	95 98       	cbi	0x12, 5	; 18
     534:	da 9a       	sbi	0x1b, 2	; 27
     536:	da 98       	cbi	0x1b, 2	; 27
     538:	95 9a       	sbi	0x12, 5	; 18
     53a:	8f 5f       	subi	r24, 0xFF	; 255
     53c:	87 39       	cpi	r24, 0x97	; 151
     53e:	c0 f3       	brcs	.-16     	; 0x530
     540:	80 e0       	ldi	r24, 0x00	; 0
     542:	d9 98       	cbi	0x1b, 1	; 27
     544:	95 98       	cbi	0x12, 5	; 18
     546:	da 9a       	sbi	0x1b, 2	; 27
     548:	da 98       	cbi	0x1b, 2	; 27
     54a:	95 9a       	sbi	0x12, 5	; 18
     54c:	8f 5f       	subi	r24, 0xFF	; 255
     54e:	8a 30       	cpi	r24, 0x0A	; 10
     550:	c0 f3       	brcs	.-16     	; 0x542
     552:	d9 9a       	sbi	0x1b, 1	; 27
     554:	da 9a       	sbi	0x1b, 2	; 27
     556:	8a e0       	ldi	r24, 0x0A	; 10
     558:	80 93 d6 00 	sts	0x00D6, r24
     55c:	10 92 73 01 	sts	0x0173, r1
     560:	10 92 55 01 	sts	0x0155, r1
     564:	8f b7       	in	r24, 0x3f	; 63
     566:	f8 94       	cli
     568:	99 27       	eor	r25, r25
     56a:	10 92 c9 01 	sts	0x01C9, r1
     56e:	da 9a       	sbi	0x1b, 2	; 27
     570:	d8 9a       	sbi	0x1b, 0	; 27
     572:	d9 9a       	sbi	0x1b, 1	; 27
     574:	8f bf       	out	0x3f, r24	; 63
     576:	8f b7       	in	r24, 0x3f	; 63
     578:	f8 94       	cli
     57a:	99 27       	eor	r25, r25
     57c:	d8 9a       	sbi	0x1b, 0	; 27
     57e:	8f bf       	out	0x3f, r24	; 63
     580:	8f b7       	in	r24, 0x3f	; 63
     582:	f8 94       	cli
     584:	99 27       	eor	r25, r25
     586:	da 9a       	sbi	0x1b, 2	; 27
     588:	8f bf       	out	0x3f, r24	; 63
     58a:	8f b7       	in	r24, 0x3f	; 63
     58c:	f8 94       	cli
     58e:	99 27       	eor	r25, r25
     590:	d9 9a       	sbi	0x1b, 1	; 27
     592:	8f bf       	out	0x3f, r24	; 63
     594:	91 e0       	ldi	r25, 0x01	; 1
     596:	f9 2e       	mov	r15, r25
     598:	8f b7       	in	r24, 0x3f	; 63
     59a:	f8 94       	cli
     59c:	08 2f       	mov	r16, r24
     59e:	11 27       	eor	r17, r17
     5a0:	0e 94 c1 03 	call	0x782
     5a4:	f0 92 78 01 	sts	0x0178, r15
     5a8:	0f bf       	out	0x3f, r16	; 63
     5aa:	8f b7       	in	r24, 0x3f	; 63
     5ac:	f8 94       	cli
     5ae:	28 2f       	mov	r18, r24
     5b0:	33 27       	eor	r19, r19
     5b2:	81 e0       	ldi	r24, 0x01	; 1
     5b4:	90 e0       	ldi	r25, 0x00	; 0
     5b6:	90 93 b5 01 	sts	0x01B5, r25
     5ba:	80 93 b4 01 	sts	0x01B4, r24
     5be:	2f bf       	out	0x3f, r18	; 63
     5c0:	8f b7       	in	r24, 0x3f	; 63
     5c2:	f8 94       	cli
     5c4:	99 27       	eor	r25, r25
     5c6:	10 92 ed 01 	sts	0x01ED, r1
     5ca:	10 92 ec 01 	sts	0x01EC, r1
     5ce:	10 92 cb 01 	sts	0x01CB, r1
     5d2:	10 92 ca 01 	sts	0x01CA, r1
     5d6:	10 92 57 01 	sts	0x0157, r1
     5da:	10 92 56 01 	sts	0x0156, r1
     5de:	8f bf       	out	0x3f, r24	; 63
     5e0:	0e 94 c1 03 	call	0x782
     5e4:	84 e0       	ldi	r24, 0x04	; 4
     5e6:	86 b9       	out	0x06, r24	; 6
     5e8:	36 98       	cbi	0x06, 6	; 6
     5ea:	34 9a       	sbi	0x06, 4	; 6
     5ec:	33 9a       	sbi	0x06, 3	; 6
     5ee:	37 98       	cbi	0x06, 7	; 6
     5f0:	0e 94 d6 03 	call	0x7ac
     5f4:	0e 94 05 04 	call	0x80a
     5f8:	8f b7       	in	r24, 0x3f	; 63
     5fa:	f8 94       	cli
     5fc:	99 27       	eor	r25, r25
     5fe:	10 92 83 01 	sts	0x0183, r1
     602:	8f bf       	out	0x3f, r24	; 63
     604:	8f b7       	in	r24, 0x3f	; 63
     606:	f8 94       	cli
     608:	28 2f       	mov	r18, r24
     60a:	33 27       	eor	r19, r19
     60c:	84 e8       	ldi	r24, 0x84	; 132
     60e:	91 e0       	ldi	r25, 0x01	; 1
     610:	90 93 75 01 	sts	0x0175, r25
     614:	80 93 74 01 	sts	0x0174, r24
     618:	10 92 32 01 	sts	0x0132, r1
     61c:	10 92 6d 01 	sts	0x016D, r1
     620:	2f bf       	out	0x3f, r18	; 63
     622:	8f b7       	in	r24, 0x3f	; 63
     624:	f8 94       	cli
     626:	28 2f       	mov	r18, r24
     628:	33 27       	eor	r19, r19
     62a:	8f ef       	ldi	r24, 0xFF	; 255
     62c:	9f ef       	ldi	r25, 0xFF	; 255
     62e:	90 93 4e 01 	sts	0x014E, r25
     632:	80 93 4d 01 	sts	0x014D, r24
     636:	2f bf       	out	0x3f, r18	; 63
     638:	0e 94 4b 04 	call	0x896
     63c:	8f b7       	in	r24, 0x3f	; 63
     63e:	f8 94       	cli
     640:	e8 2f       	mov	r30, r24
     642:	ff 27       	eor	r31, r31
     644:	20 91 60 00 	lds	r18, 0x0060
     648:	30 91 61 00 	lds	r19, 0x0061
     64c:	93 2f       	mov	r25, r19
     64e:	82 2f       	mov	r24, r18
     650:	61 e5       	ldi	r22, 0x51	; 81
     652:	77 e3       	ldi	r23, 0x37	; 55
     654:	0e 94 fd 11 	call	0x23fa
     658:	8f 5a       	subi	r24, 0xAF	; 175
     65a:	98 4c       	sbci	r25, 0xC8	; 200
     65c:	90 93 c4 01 	sts	0x01C4, r25
     660:	80 93 c3 01 	sts	0x01C3, r24
     664:	90 93 e8 01 	sts	0x01E8, r25
     668:	80 93 e7 01 	sts	0x01E7, r24
     66c:	93 2f       	mov	r25, r19
     66e:	82 2f       	mov	r24, r18
     670:	65 e8       	ldi	r22, 0x85	; 133
     672:	7f e0       	ldi	r23, 0x0F	; 15
     674:	0e 94 fd 11 	call	0x23fa
     678:	8b 57       	subi	r24, 0x7B	; 123
     67a:	90 4f       	sbci	r25, 0xF0	; 240
     67c:	90 93 d8 00 	sts	0x00D8, r25
     680:	80 93 d7 00 	sts	0x00D7, r24
     684:	ef bf       	out	0x3f, r30	; 63
     686:	10 92 df 01 	sts	0x01DF, r1
     68a:	10 92 d8 01 	sts	0x01D8, r1
     68e:	10 92 d7 01 	sts	0x01D7, r1
     692:	10 92 59 01 	sts	0x0159, r1
     696:	10 92 58 01 	sts	0x0158, r1
     69a:	8f b7       	in	r24, 0x3f	; 63
     69c:	f8 94       	cli
     69e:	99 27       	eor	r25, r25
     6a0:	10 92 de 01 	sts	0x01DE, r1
     6a4:	10 92 b3 01 	sts	0x01B3, r1
     6a8:	10 92 cf 01 	sts	0x01CF, r1
     6ac:	10 92 ce 01 	sts	0x01CE, r1
     6b0:	8f bf       	out	0x3f, r24	; 63
     6b2:	0e 94 d6 03 	call	0x7ac
     6b6:	8f b7       	in	r24, 0x3f	; 63
     6b8:	f8 94       	cli
     6ba:	99 27       	eor	r25, r25
     6bc:	91 9a       	sbi	0x12, 1	; 18
     6be:	89 9a       	sbi	0x11, 1	; 17
     6c0:	8f bf       	out	0x3f, r24	; 63
     6c2:	2d e7       	ldi	r18, 0x7D	; 125
     6c4:	30 e0       	ldi	r19, 0x00	; 0
     6c6:	40 e0       	ldi	r20, 0x00	; 0
     6c8:	50 e0       	ldi	r21, 0x00	; 0
     6ca:	60 e0       	ldi	r22, 0x00	; 0
     6cc:	86 2f       	mov	r24, r22
     6ce:	0e 94 6b 04 	call	0x8d6
     6d2:	0e 94 05 04 	call	0x80a
     6d6:	8c e0       	ldi	r24, 0x0C	; 12
     6d8:	89 b9       	out	0x09, r24	; 9
     6da:	8c b1       	in	r24, 0x0c	; 12
     6dc:	88 ed       	ldi	r24, 0xD8	; 216
     6de:	8a b9       	out	0x0a, r24	; 10
     6e0:	18 9a       	sbi	0x03, 0	; 3
     6e2:	8f b7       	in	r24, 0x3f	; 63
     6e4:	f8 94       	cli
     6e6:	c8 2f       	mov	r28, r24
     6e8:	dd 27       	eor	r29, r29
     6ea:	80 91 6d 01 	lds	r24, 0x016D
     6ee:	89 30       	cpi	r24, 0x09	; 9
     6f0:	41 f4       	brne	.+16     	; 0x702
     6f2:	10 92 6d 01 	sts	0x016D, r1
     6f6:	10 92 32 01 	sts	0x0132, r1
     6fa:	0e 94 de 04 	call	0x9bc
     6fe:	0e 94 4b 04 	call	0x896
     702:	cf bf       	out	0x3f, r28	; 63
     704:	28 ee       	ldi	r18, 0xE8	; 232
     706:	33 e0       	ldi	r19, 0x03	; 3
     708:	40 e0       	ldi	r20, 0x00	; 0
     70a:	50 e0       	ldi	r21, 0x00	; 0
     70c:	60 e0       	ldi	r22, 0x00	; 0
     70e:	8f 2d       	mov	r24, r15
     710:	0e 94 6b 04 	call	0x8d6
     714:	10 92 df 01 	sts	0x01DF, r1
     718:	0e 94 de 04 	call	0x9bc
     71c:	78 94       	sei
     71e:	90 91 55 01 	lds	r25, 0x0155
     722:	80 91 73 01 	lds	r24, 0x0173
     726:	98 17       	cp	r25, r24
     728:	19 f4       	brne	.+6      	; 0x730
     72a:	80 e0       	ldi	r24, 0x00	; 0
     72c:	90 e0       	ldi	r25, 0x00	; 0
     72e:	20 c0       	rjmp	.+64     	; 0x770
     730:	8f b7       	in	r24, 0x3f	; 63
     732:	f8 94       	cli
     734:	28 2f       	mov	r18, r24
     736:	33 27       	eor	r19, r19
     738:	90 91 55 01 	lds	r25, 0x0155
     73c:	80 91 55 01 	lds	r24, 0x0155
     740:	8f 5f       	subi	r24, 0xFF	; 255
     742:	80 93 55 01 	sts	0x0155, r24
     746:	80 91 55 01 	lds	r24, 0x0155
     74a:	87 70       	andi	r24, 0x07	; 7
     74c:	80 93 55 01 	sts	0x0155, r24
     750:	e9 2f       	mov	r30, r25
     752:	ff 27       	eor	r31, r31
     754:	ee 0f       	add	r30, r30
     756:	ff 1f       	adc	r31, r31
     758:	e4 5c       	subi	r30, 0xC4	; 196
     75a:	fe 4f       	sbci	r31, 0xFE	; 254
     75c:	80 81       	ld	r24, Z
     75e:	91 81       	ldd	r25, Z+1	; 0x01
     760:	10 82       	st	Z, r1
     762:	11 82       	std	Z+1, r1	; 0x01
     764:	2f bf       	out	0x3f, r18	; 63
     766:	e8 2f       	mov	r30, r24
     768:	f9 2f       	mov	r31, r25
     76a:	09 95       	icall
     76c:	81 e0       	ldi	r24, 0x01	; 1
     76e:	90 e0       	ldi	r25, 0x00	; 0
     770:	88 23       	and	r24, r24
     772:	a9 f6       	brne	.-86     	; 0x71e
     774:	85 b7       	in	r24, 0x35	; 53
     776:	80 62       	ori	r24, 0x20	; 32
     778:	85 bf       	out	0x35, r24	; 53
     77a:	88 95       	sleep
     77c:	00 00       	nop
     77e:	00 00       	nop
     780:	ce cf       	rjmp	.-100    	; 0x71e

00000782 <HPLADCC$init_portmap>:
     782:	8f b7       	in	r24, 0x3f	; 63
     784:	f8 94       	cli
     786:	28 2f       	mov	r18, r24
     788:	80 91 eb 01 	lds	r24, 0x01EB
     78c:	88 23       	and	r24, r24
     78e:	61 f4       	brne	.+24     	; 0x7a8
     790:	80 e0       	ldi	r24, 0x00	; 0
     792:	90 e0       	ldi	r25, 0x00	; 0
     794:	e7 e7       	ldi	r30, 0x77	; 119
     796:	f1 e0       	ldi	r31, 0x01	; 1
     798:	81 93       	st	Z+, r24
     79a:	01 96       	adiw	r24, 0x01	; 1
     79c:	8a 30       	cpi	r24, 0x0A	; 10
     79e:	91 05       	cpc	r25, r1
     7a0:	dc f3       	brlt	.-10     	; 0x798
     7a2:	81 e0       	ldi	r24, 0x01	; 1
     7a4:	80 93 eb 01 	sts	0x01EB, r24
     7a8:	2f bf       	out	0x3f, r18	; 63
     7aa:	08 95       	ret

000007ac <TimerM$StdControl$init>:
     7ac:	10 92 e0 01 	sts	0x01E0, r1
     7b0:	10 92 e1 01 	sts	0x01E1, r1
     7b4:	10 92 e2 01 	sts	0x01E2, r1
     7b8:	10 92 e3 01 	sts	0x01E3, r1
     7bc:	10 92 81 01 	sts	0x0181, r1
     7c0:	8f ef       	ldi	r24, 0xFF	; 255
     7c2:	80 93 e6 01 	sts	0x01E6, r24
     7c6:	80 93 cc 00 	sts	0x00CC, r24
     7ca:	10 92 39 01 	sts	0x0139, r1
     7ce:	83 e0       	ldi	r24, 0x03	; 3
     7d0:	80 93 82 01 	sts	0x0182, r24
     7d4:	96 ee       	ldi	r25, 0xE6	; 230
     7d6:	90 93 b6 01 	sts	0x01B6, r25
     7da:	8f b7       	in	r24, 0x3f	; 63
     7dc:	f8 94       	cli
     7de:	28 2f       	mov	r18, r24
     7e0:	33 27       	eor	r19, r19
     7e2:	87 b7       	in	r24, 0x37	; 55
     7e4:	8e 7f       	andi	r24, 0xFE	; 254
     7e6:	87 bf       	out	0x37, r24	; 55
     7e8:	87 b7       	in	r24, 0x37	; 55
     7ea:	8d 7f       	andi	r24, 0xFD	; 253
     7ec:	87 bf       	out	0x37, r24	; 55
     7ee:	80 b7       	in	r24, 0x30	; 48
     7f0:	88 60       	ori	r24, 0x08	; 8
     7f2:	80 bf       	out	0x30, r24	; 48
     7f4:	8b e0       	ldi	r24, 0x0B	; 11
     7f6:	83 bf       	out	0x33, r24	; 51
     7f8:	12 be       	out	0x32, r1	; 50
     7fa:	91 bf       	out	0x31, r25	; 49
     7fc:	87 b7       	in	r24, 0x37	; 55
     7fe:	82 60       	ori	r24, 0x02	; 2
     800:	87 bf       	out	0x37, r24	; 55
     802:	2f bf       	out	0x3f, r18	; 63
     804:	81 e0       	ldi	r24, 0x01	; 1
     806:	90 e0       	ldi	r25, 0x00	; 0
     808:	08 95       	ret

0000080a <FramerM$HDLCInitialize>:
     80a:	8f b7       	in	r24, 0x3f	; 63
     80c:	f8 94       	cli
     80e:	68 2f       	mov	r22, r24
     810:	80 e0       	ldi	r24, 0x00	; 0
     812:	90 e0       	ldi	r25, 0x00	; 0
     814:	43 e7       	ldi	r20, 0x73	; 115
     816:	50 e0       	ldi	r21, 0x00	; 0
     818:	28 2f       	mov	r18, r24
     81a:	39 2f       	mov	r19, r25
     81c:	f3 2f       	mov	r31, r19
     81e:	e2 2f       	mov	r30, r18
     820:	e8 0f       	add	r30, r24
     822:	f9 1f       	adc	r31, r25
     824:	e9 54       	subi	r30, 0x49	; 73
     826:	fe 4f       	sbci	r31, 0xFE	; 254
     828:	44 83       	std	Z+4, r20	; 0x04
     82a:	55 83       	std	Z+5, r21	; 0x05
     82c:	12 82       	std	Z+2, r1	; 0x02
     82e:	13 82       	std	Z+3, r1	; 0x03
     830:	11 82       	std	Z+1, r1	; 0x01
     832:	01 96       	adiw	r24, 0x01	; 1
     834:	2b 5f       	subi	r18, 0xFB	; 251
     836:	3f 4f       	sbci	r19, 0xFF	; 255
     838:	45 5d       	subi	r20, 0xD5	; 213
     83a:	5f 4f       	sbci	r21, 0xFF	; 255
     83c:	82 30       	cpi	r24, 0x02	; 2
     83e:	91 05       	cpc	r25, r1
     840:	6c f3       	brlt	.-38     	; 0x81c
     842:	10 92 cd 01 	sts	0x01CD, r1
     846:	10 92 70 01 	sts	0x0170, r1
     84a:	10 92 6f 01 	sts	0x016F, r1
     84e:	10 92 d5 00 	sts	0x00D5, r1
     852:	10 92 d4 00 	sts	0x00D4, r1
     856:	10 92 71 00 	sts	0x0071, r1
     85a:	10 92 70 00 	sts	0x0070, r1
     85e:	10 92 ca 00 	sts	0x00CA, r1
     862:	10 92 c9 00 	sts	0x00C9, r1
     866:	10 92 cc 01 	sts	0x01CC, r1
     86a:	10 92 af 01 	sts	0x01AF, r1
     86e:	10 92 d4 01 	sts	0x01D4, r1
     872:	10 92 31 01 	sts	0x0131, r1
     876:	10 92 30 01 	sts	0x0130, r1
     87a:	10 92 50 01 	sts	0x0150, r1
     87e:	10 92 4f 01 	sts	0x014F, r1
     882:	80 91 bb 01 	lds	r24, 0x01BB
     886:	90 91 bc 01 	lds	r25, 0x01BC
     88a:	90 93 c8 01 	sts	0x01C8, r25
     88e:	80 93 c7 01 	sts	0x01C7, r24
     892:	6f bf       	out	0x3f, r22	; 63
     894:	08 95       	ret

00000896 <ChannelMonC$ChannelMon$startSymbolSearch>:
     896:	8f b7       	in	r24, 0x3f	; 63
     898:	f8 94       	cli
     89a:	28 2f       	mov	r18, r24
     89c:	33 27       	eor	r19, r19
     89e:	10 92 36 01 	sts	0x0136, r1
     8a2:	97 9a       	sbi	0x12, 7	; 18
     8a4:	96 9a       	sbi	0x12, 6	; 18
     8a6:	c3 98       	cbi	0x18, 3	; 24
     8a8:	9f e7       	ldi	r25, 0x7F	; 127
     8aa:	87 b7       	in	r24, 0x37	; 55
     8ac:	89 23       	and	r24, r25
     8ae:	87 bf       	out	0x37, r24	; 55
     8b0:	87 b7       	in	r24, 0x37	; 55
     8b2:	8f 7b       	andi	r24, 0xBF	; 191
     8b4:	87 bf       	out	0x37, r24	; 55
     8b6:	87 b7       	in	r24, 0x37	; 55
     8b8:	89 23       	and	r24, r25
     8ba:	87 bf       	out	0x37, r24	; 55
     8bc:	89 e0       	ldi	r24, 0x09	; 9
     8be:	85 bd       	out	0x25, r24	; 37
     8c0:	88 ec       	ldi	r24, 0xC8	; 200
     8c2:	83 bd       	out	0x23, r24	; 35
     8c4:	87 b7       	in	r24, 0x37	; 55
     8c6:	80 68       	ori	r24, 0x80	; 128
     8c8:	87 bf       	out	0x37, r24	; 55
     8ca:	14 bc       	out	0x24, r1	; 36
     8cc:	be 9a       	sbi	0x17, 6	; 23
     8ce:	2f bf       	out	0x3f, r18	; 63
     8d0:	81 e0       	ldi	r24, 0x01	; 1
     8d2:	90 e0       	ldi	r25, 0x00	; 0
     8d4:	08 95       	ret

000008d6 <TimerM$Timer$start>:
     8d6:	cf 92       	push	r12
     8d8:	df 92       	push	r13
     8da:	ef 92       	push	r14
     8dc:	ff 92       	push	r15
     8de:	0f 93       	push	r16
     8e0:	1f 93       	push	r17
     8e2:	cf 93       	push	r28
     8e4:	df 93       	push	r29
     8e6:	e2 2e       	mov	r14, r18
     8e8:	f3 2e       	mov	r15, r19
     8ea:	04 2f       	mov	r16, r20
     8ec:	15 2f       	mov	r17, r21
     8ee:	82 30       	cpi	r24, 0x02	; 2
     8f0:	10 f4       	brcc	.+4      	; 0x8f6
     8f2:	62 30       	cpi	r22, 0x02	; 2
     8f4:	1c f0       	brlt	.+6      	; 0x8fc
     8f6:	80 e0       	ldi	r24, 0x00	; 0
     8f8:	90 e0       	ldi	r25, 0x00	; 0
     8fa:	57 c0       	rjmp	.+174    	; 0x9aa
     8fc:	28 2f       	mov	r18, r24
     8fe:	33 27       	eor	r19, r19
     900:	f3 2f       	mov	r31, r19
     902:	e2 2f       	mov	r30, r18
     904:	43 e0       	ldi	r20, 0x03	; 3
     906:	ee 0f       	add	r30, r30
     908:	ff 1f       	adc	r31, r31
     90a:	4a 95       	dec	r20
     90c:	e1 f7       	brne	.-8      	; 0x906
     90e:	e2 0f       	add	r30, r18
     910:	f3 1f       	adc	r31, r19
     912:	e5 5a       	subi	r30, 0xA5	; 165
     914:	fe 4f       	sbci	r31, 0xFE	; 254
     916:	e1 82       	std	Z+1, r14	; 0x01
     918:	f2 82       	std	Z+2, r15	; 0x02
     91a:	03 83       	std	Z+3, r16	; 0x03
     91c:	14 83       	std	Z+4, r17	; 0x04
     91e:	60 83       	st	Z, r22
     920:	8f b7       	in	r24, 0x3f	; 63
     922:	f8 94       	cli
     924:	c8 2f       	mov	r28, r24
     926:	dd 27       	eor	r29, r29
     928:	82 b7       	in	r24, 0x32	; 50
     92a:	e8 0e       	add	r14, r24
     92c:	f1 1c       	adc	r15, r1
     92e:	01 1d       	adc	r16, r1
     930:	11 1d       	adc	r17, r1
     932:	e5 82       	std	Z+5, r14	; 0x05
     934:	f6 82       	std	Z+6, r15	; 0x06
     936:	07 83       	std	Z+7, r16	; 0x07
     938:	10 87       	std	Z+8, r17	; 0x08
     93a:	31 e0       	ldi	r19, 0x01	; 1
     93c:	c3 2e       	mov	r12, r19
     93e:	d1 2c       	mov	r13, r1
     940:	9d 2d       	mov	r25, r13
     942:	8c 2d       	mov	r24, r12
     944:	02 c0       	rjmp	.+4      	; 0x94a
     946:	88 0f       	add	r24, r24
     948:	99 1f       	adc	r25, r25
     94a:	2a 95       	dec	r18
     94c:	e2 f7       	brpl	.-8      	; 0x946
     94e:	28 2f       	mov	r18, r24
     950:	39 2f       	mov	r19, r25
     952:	44 27       	eor	r20, r20
     954:	37 fd       	sbrc	r19, 7
     956:	40 95       	com	r20
     958:	54 2f       	mov	r21, r20
     95a:	80 91 e0 01 	lds	r24, 0x01E0
     95e:	90 91 e1 01 	lds	r25, 0x01E1
     962:	a0 91 e2 01 	lds	r26, 0x01E2
     966:	b0 91 e3 01 	lds	r27, 0x01E3
     96a:	82 2b       	or	r24, r18
     96c:	93 2b       	or	r25, r19
     96e:	a4 2b       	or	r26, r20
     970:	b5 2b       	or	r27, r21
     972:	80 93 e0 01 	sts	0x01E0, r24
     976:	90 93 e1 01 	sts	0x01E1, r25
     97a:	a0 93 e2 01 	sts	0x01E2, r26
     97e:	b0 93 e3 01 	sts	0x01E3, r27
     982:	80 91 b6 01 	lds	r24, 0x01B6
     986:	99 27       	eor	r25, r25
     988:	aa 27       	eor	r26, r26
     98a:	bb 27       	eor	r27, r27
     98c:	e8 16       	cp	r14, r24
     98e:	f9 06       	cpc	r15, r25
     990:	0a 07       	cpc	r16, r26
     992:	1b 07       	cpc	r17, r27
     994:	38 f4       	brcc	.+14     	; 0x9a4
     996:	e0 92 b6 01 	sts	0x01B6, r14
     99a:	e1 be       	out	0x31, r14	; 49
     99c:	10 92 81 01 	sts	0x0181, r1
     9a0:	0e 94 de 04 	call	0x9bc
     9a4:	cf bf       	out	0x3f, r28	; 63
     9a6:	9d 2d       	mov	r25, r13
     9a8:	8c 2d       	mov	r24, r12
     9aa:	df 91       	pop	r29
     9ac:	cf 91       	pop	r28
     9ae:	1f 91       	pop	r17
     9b0:	0f 91       	pop	r16
     9b2:	ff 90       	pop	r15
     9b4:	ef 90       	pop	r14
     9b6:	df 90       	pop	r13
     9b8:	cf 90       	pop	r12
     9ba:	08 95       	ret

000009bc <HPLPowerManagementM$PowerManagement$adjustPower>:
     9bc:	80 91 63 00 	lds	r24, 0x0063
     9c0:	88 23       	and	r24, r24
     9c2:	29 f4       	brne	.+10     	; 0x9ce
     9c4:	8c e2       	ldi	r24, 0x2C	; 44
     9c6:	90 e1       	ldi	r25, 0x10	; 16
     9c8:	0e 94 53 02 	call	0x4a6
     9cc:	06 c0       	rjmp	.+12     	; 0x9da
     9ce:	85 b7       	in	r24, 0x35	; 53
     9d0:	83 7e       	andi	r24, 0xE3	; 227
     9d2:	85 bf       	out	0x35, r24	; 53
     9d4:	85 b7       	in	r24, 0x35	; 53
     9d6:	80 62       	ori	r24, 0x20	; 32
     9d8:	85 bf       	out	0x35, r24	; 53
     9da:	80 e0       	ldi	r24, 0x00	; 0
     9dc:	90 e0       	ldi	r25, 0x00	; 0
     9de:	08 95       	ret

000009e0 <__vector_15>:
     9e0:	78 94       	sei
     9e2:	1f 92       	push	r1
     9e4:	0f 92       	push	r0
     9e6:	0f b6       	in	r0, 0x3f	; 63
     9e8:	0f 92       	push	r0
     9ea:	11 24       	eor	r1, r1
     9ec:	2f 93       	push	r18
     9ee:	3f 93       	push	r19
     9f0:	4f 93       	push	r20
     9f2:	5f 93       	push	r21
     9f4:	6f 93       	push	r22
     9f6:	7f 93       	push	r23
     9f8:	8f 93       	push	r24
     9fa:	9f 93       	push	r25
     9fc:	af 93       	push	r26
     9fe:	bf 93       	push	r27
     a00:	ef 93       	push	r30
     a02:	ff 93       	push	r31
     a04:	8f b7       	in	r24, 0x3f	; 63
     a06:	f8 94       	cli
     a08:	28 2f       	mov	r18, r24
     a0a:	33 27       	eor	r19, r19
     a0c:	80 91 3a 01 	lds	r24, 0x013A
     a10:	88 23       	and	r24, r24
     a12:	69 f0       	breq	.+26     	; 0xa2e
     a14:	80 91 72 01 	lds	r24, 0x0172
     a18:	80 93 c6 01 	sts	0x01C6, r24
     a1c:	88 60       	ori	r24, 0x08	; 8
     a1e:	80 93 72 01 	sts	0x0172, r24
     a22:	83 bf       	out	0x33, r24	; 51
     a24:	80 91 4c 01 	lds	r24, 0x014C
     a28:	81 bf       	out	0x31, r24	; 49
     a2a:	10 92 3a 01 	sts	0x013A, r1
     a2e:	2f bf       	out	0x3f, r18	; 63
     a30:	8c e7       	ldi	r24, 0x7C	; 124
     a32:	9f e0       	ldi	r25, 0x0F	; 15
     a34:	0e 94 53 02 	call	0x4a6
     a38:	ff 91       	pop	r31
     a3a:	ef 91       	pop	r30
     a3c:	bf 91       	pop	r27
     a3e:	af 91       	pop	r26
     a40:	9f 91       	pop	r25
     a42:	8f 91       	pop	r24
     a44:	7f 91       	pop	r23
     a46:	6f 91       	pop	r22
     a48:	5f 91       	pop	r21
     a4a:	4f 91       	pop	r20
     a4c:	3f 91       	pop	r19
     a4e:	2f 91       	pop	r18
     a50:	0f 90       	pop	r0
     a52:	0f be       	out	0x3f, r0	; 63
     a54:	0f 90       	pop	r0
     a56:	1f 90       	pop	r1
     a58:	18 95       	reti

00000a5a <HPLADCC$ADC$samplePort>:
     a5a:	98 2f       	mov	r25, r24
     a5c:	8f b7       	in	r24, 0x3f	; 63
     a5e:	f8 94       	cli
     a60:	28 2f       	mov	r18, r24
     a62:	e9 2f       	mov	r30, r25
     a64:	ff 27       	eor	r31, r31
     a66:	e9 58       	subi	r30, 0x89	; 137
     a68:	fe 4f       	sbci	r31, 0xFE	; 254
     a6a:	80 81       	ld	r24, Z
     a6c:	87 b9       	out	0x07, r24	; 7
     a6e:	80 81       	ld	r24, Z
     a70:	88 30       	cpi	r24, 0x08	; 8
     a72:	19 f4       	brne	.+6      	; 0xa7a
     a74:	98 30       	cpi	r25, 0x08	; 8
     a76:	09 f4       	brne	.+2      	; 0xa7a
     a78:	aa 9a       	sbi	0x15, 2	; 21
     a7a:	37 9a       	sbi	0x06, 7	; 6
     a7c:	36 9a       	sbi	0x06, 6	; 6
     a7e:	2f bf       	out	0x3f, r18	; 63
     a80:	81 e0       	ldi	r24, 0x01	; 1
     a82:	90 e0       	ldi	r25, 0x00	; 0
     a84:	08 95       	ret

00000a86 <ADCM$HPLADC$dataReady>:
     a86:	ff 92       	push	r15
     a88:	0f 93       	push	r16
     a8a:	1f 93       	push	r17
     a8c:	cf 93       	push	r28
     a8e:	df 93       	push	r29
     a90:	08 2f       	mov	r16, r24
     a92:	19 2f       	mov	r17, r25
     a94:	8f b7       	in	r24, 0x3f	; 63
     a96:	f8 94       	cli
     a98:	f8 2e       	mov	r15, r24
     a9a:	80 91 ec 01 	lds	r24, 0x01EC
     a9e:	c8 2f       	mov	r28, r24
     aa0:	dd 27       	eor	r29, r29
     aa2:	21 e0       	ldi	r18, 0x01	; 1
     aa4:	30 e0       	ldi	r19, 0x00	; 0
     aa6:	0c 2e       	mov	r0, r28
     aa8:	02 c0       	rjmp	.+4      	; 0xaae
     aaa:	22 0f       	add	r18, r18
     aac:	33 1f       	adc	r19, r19
     aae:	0a 94       	dec	r0
     ab0:	e2 f7       	brpl	.-8      	; 0xaaa
     ab2:	80 91 ca 01 	lds	r24, 0x01CA
     ab6:	90 91 cb 01 	lds	r25, 0x01CB
     aba:	82 23       	and	r24, r18
     abc:	93 23       	and	r25, r19
     abe:	89 2b       	or	r24, r25
     ac0:	69 f4       	brne	.+26     	; 0xadc
     ac2:	37 98       	cbi	0x06, 7	; 6
     ac4:	20 95       	com	r18
     ac6:	30 95       	com	r19
     ac8:	80 91 56 01 	lds	r24, 0x0156
     acc:	90 91 57 01 	lds	r25, 0x0157
     ad0:	82 23       	and	r24, r18
     ad2:	93 23       	and	r25, r19
     ad4:	90 93 57 01 	sts	0x0157, r25
     ad8:	80 93 56 01 	sts	0x0156, r24
     adc:	40 91 56 01 	lds	r20, 0x0156
     ae0:	50 91 57 01 	lds	r21, 0x0157
     ae4:	41 15       	cp	r20, r1
     ae6:	51 05       	cpc	r21, r1
     ae8:	21 f1       	breq	.+72     	; 0xb32
     aea:	20 91 ec 01 	lds	r18, 0x01EC
     aee:	30 91 ed 01 	lds	r19, 0x01ED
     af2:	2f 5f       	subi	r18, 0xFF	; 255
     af4:	3f 4f       	sbci	r19, 0xFF	; 255
     af6:	2c 30       	cpi	r18, 0x0C	; 12
     af8:	31 05       	cpc	r19, r1
     afa:	19 f0       	breq	.+6      	; 0xb02
     afc:	93 2f       	mov	r25, r19
     afe:	82 2f       	mov	r24, r18
     b00:	02 c0       	rjmp	.+4      	; 0xb06
     b02:	80 e0       	ldi	r24, 0x00	; 0
     b04:	90 e0       	ldi	r25, 0x00	; 0
     b06:	28 2f       	mov	r18, r24
     b08:	39 2f       	mov	r19, r25
     b0a:	81 e0       	ldi	r24, 0x01	; 1
     b0c:	90 e0       	ldi	r25, 0x00	; 0
     b0e:	02 2e       	mov	r0, r18
     b10:	02 c0       	rjmp	.+4      	; 0xb16
     b12:	88 0f       	add	r24, r24
     b14:	99 1f       	adc	r25, r25
     b16:	0a 94       	dec	r0
     b18:	e2 f7       	brpl	.-8      	; 0xb12
     b1a:	84 23       	and	r24, r20
     b1c:	95 23       	and	r25, r21
     b1e:	89 2b       	or	r24, r25
     b20:	41 f3       	breq	.-48     	; 0xaf2
     b22:	30 93 ed 01 	sts	0x01ED, r19
     b26:	20 93 ec 01 	sts	0x01EC, r18
     b2a:	80 91 ec 01 	lds	r24, 0x01EC
     b2e:	0e 94 2d 05 	call	0xa5a
     b32:	ff be       	out	0x3f, r15	; 63
     b34:	c1 30       	cpi	r28, 0x01	; 1
     b36:	d1 05       	cpc	r29, r1
     b38:	21 f0       	breq	.+8      	; 0xb42
     b3a:	c2 30       	cpi	r28, 0x02	; 2
     b3c:	d1 05       	cpc	r29, r1
     b3e:	79 f1       	breq	.+94     	; 0xb9e
     b40:	4b c0       	rjmp	.+150    	; 0xbd8
     b42:	8f b7       	in	r24, 0x3f	; 63
     b44:	f8 94       	cli
     b46:	28 2f       	mov	r18, r24
     b48:	33 27       	eor	r19, r19
     b4a:	40 91 b4 01 	lds	r20, 0x01B4
     b4e:	80 91 b4 01 	lds	r24, 0x01B4
     b52:	90 91 b5 01 	lds	r25, 0x01B5
     b56:	02 97       	sbiw	r24, 0x02	; 2
     b58:	21 f4       	brne	.+8      	; 0xb62
     b5a:	d0 93 b5 01 	sts	0x01B5, r29
     b5e:	c0 93 b4 01 	sts	0x01B4, r28
     b62:	2f bf       	out	0x3f, r18	; 63
     b64:	42 30       	cpi	r20, 0x02	; 2
     b66:	29 f4       	brne	.+10     	; 0xb72
     b68:	91 2f       	mov	r25, r17
     b6a:	80 2f       	mov	r24, r16
     b6c:	0e 94 17 06 	call	0xc2e
     b70:	14 c0       	rjmp	.+40     	; 0xb9a
     b72:	43 30       	cpi	r20, 0x03	; 3
     b74:	71 f5       	brne	.+92     	; 0xbd2
     b76:	91 2f       	mov	r25, r17
     b78:	80 2f       	mov	r24, r16
     b7a:	0e 94 17 06 	call	0xc2e
     b7e:	28 2f       	mov	r18, r24
     b80:	33 27       	eor	r19, r19
     b82:	21 15       	cp	r18, r1
     b84:	31 05       	cpc	r19, r1
     b86:	41 f4       	brne	.+16     	; 0xb98
     b88:	8f b7       	in	r24, 0x3f	; 63
     b8a:	f8 94       	cli
     b8c:	99 27       	eor	r25, r25
     b8e:	d0 93 b5 01 	sts	0x01B5, r29
     b92:	c0 93 b4 01 	sts	0x01B4, r28
     b96:	8f bf       	out	0x3f, r24	; 63
     b98:	82 2f       	mov	r24, r18
     b9a:	99 27       	eor	r25, r25
     b9c:	1e c0       	rjmp	.+60     	; 0xbda
     b9e:	8f b7       	in	r24, 0x3f	; 63
     ba0:	f8 94       	cli
     ba2:	28 2f       	mov	r18, r24
     ba4:	33 27       	eor	r19, r19
     ba6:	40 91 b4 01 	lds	r20, 0x01B4
     baa:	80 91 b4 01 	lds	r24, 0x01B4
     bae:	90 91 b5 01 	lds	r25, 0x01B5
     bb2:	02 97       	sbiw	r24, 0x02	; 2
     bb4:	31 f4       	brne	.+12     	; 0xbc2
     bb6:	81 e0       	ldi	r24, 0x01	; 1
     bb8:	90 e0       	ldi	r25, 0x00	; 0
     bba:	90 93 b5 01 	sts	0x01B5, r25
     bbe:	80 93 b4 01 	sts	0x01B4, r24
     bc2:	2f bf       	out	0x3f, r18	; 63
     bc4:	42 30       	cpi	r20, 0x02	; 2
     bc6:	11 f0       	breq	.+4      	; 0xbcc
     bc8:	43 30       	cpi	r20, 0x03	; 3
     bca:	19 f4       	brne	.+6      	; 0xbd2
     bcc:	81 e0       	ldi	r24, 0x01	; 1
     bce:	90 e0       	ldi	r25, 0x00	; 0
     bd0:	04 c0       	rjmp	.+8      	; 0xbda
     bd2:	80 e0       	ldi	r24, 0x00	; 0
     bd4:	90 e0       	ldi	r25, 0x00	; 0
     bd6:	01 c0       	rjmp	.+2      	; 0xbda
     bd8:	80 e0       	ldi	r24, 0x00	; 0
     bda:	99 27       	eor	r25, r25
     bdc:	2f b7       	in	r18, 0x3f	; 63
     bde:	f8 94       	cli
     be0:	88 23       	and	r24, r24
     be2:	e1 f4       	brne	.+56     	; 0xc1c
     be4:	61 e0       	ldi	r22, 0x01	; 1
     be6:	70 e0       	ldi	r23, 0x00	; 0
     be8:	02 c0       	rjmp	.+4      	; 0xbee
     bea:	66 0f       	add	r22, r22
     bec:	77 1f       	adc	r23, r23
     bee:	ca 95       	dec	r28
     bf0:	e2 f7       	brpl	.-8      	; 0xbea
     bf2:	40 91 ca 01 	lds	r20, 0x01CA
     bf6:	50 91 cb 01 	lds	r21, 0x01CB
     bfa:	95 2f       	mov	r25, r21
     bfc:	84 2f       	mov	r24, r20
     bfe:	86 23       	and	r24, r22
     c00:	97 23       	and	r25, r23
     c02:	89 2b       	or	r24, r25
     c04:	59 f0       	breq	.+22     	; 0xc1c
     c06:	37 98       	cbi	0x06, 7	; 6
     c08:	97 2f       	mov	r25, r23
     c0a:	86 2f       	mov	r24, r22
     c0c:	80 95       	com	r24
     c0e:	90 95       	com	r25
     c10:	48 23       	and	r20, r24
     c12:	59 23       	and	r21, r25
     c14:	50 93 cb 01 	sts	0x01CB, r21
     c18:	40 93 ca 01 	sts	0x01CA, r20
     c1c:	2f bf       	out	0x3f, r18	; 63
     c1e:	81 e0       	ldi	r24, 0x01	; 1
     c20:	90 e0       	ldi	r25, 0x00	; 0
     c22:	df 91       	pop	r29
     c24:	cf 91       	pop	r28
     c26:	1f 91       	pop	r17
     c28:	0f 91       	pop	r16
     c2a:	ff 90       	pop	r15
     c2c:	08 95       	ret

00000c2e <OscilloscopeM$ADC$dataReady>:
     c2e:	0f 93       	push	r16
     c30:	1f 93       	push	r17
     c32:	cf 93       	push	r28
     c34:	df 93       	push	r29
     c36:	d9 2f       	mov	r29, r25
     c38:	c8 2f       	mov	r28, r24
     c3a:	8f b7       	in	r24, 0x3f	; 63
     c3c:	f8 94       	cli
     c3e:	08 2f       	mov	r16, r24
     c40:	11 27       	eor	r17, r17
     c42:	80 91 de 01 	lds	r24, 0x01DE
     c46:	99 27       	eor	r25, r25
     c48:	6b e2       	ldi	r22, 0x2B	; 43
     c4a:	70 e0       	ldi	r23, 0x00	; 0
     c4c:	0e 94 fd 11 	call	0x23fa
     c50:	81 52       	subi	r24, 0x21	; 33
     c52:	9f 4f       	sbci	r25, 0xFF	; 255
     c54:	20 91 b3 01 	lds	r18, 0x01B3
     c58:	e2 2f       	mov	r30, r18
     c5a:	ff 27       	eor	r31, r31
     c5c:	ee 0f       	add	r30, r30
     c5e:	ff 1f       	adc	r31, r31
     c60:	e8 0f       	add	r30, r24
     c62:	f9 1f       	adc	r31, r25
     c64:	c6 83       	std	Z+6, r28	; 0x06
     c66:	d7 83       	std	Z+7, r29	; 0x07
     c68:	2f 5f       	subi	r18, 0xFF	; 255
     c6a:	20 93 b3 01 	sts	0x01B3, r18
     c6e:	80 91 ce 01 	lds	r24, 0x01CE
     c72:	90 91 cf 01 	lds	r25, 0x01CF
     c76:	01 96       	adiw	r24, 0x01	; 1
     c78:	90 93 cf 01 	sts	0x01CF, r25
     c7c:	80 93 ce 01 	sts	0x01CE, r24
     c80:	2a 30       	cpi	r18, 0x0A	; 10
     c82:	21 f4       	brne	.+8      	; 0xc8c
     c84:	8f ef       	ldi	r24, 0xFF	; 255
     c86:	9e e0       	ldi	r25, 0x0E	; 14
     c88:	0e 94 53 02 	call	0x4a6
     c8c:	0f bf       	out	0x3f, r16	; 63
     c8e:	20 91 c9 01 	lds	r18, 0x01C9
     c92:	c1 50       	subi	r28, 0x01	; 1
     c94:	d3 40       	sbci	r29, 0x03	; 3
     c96:	30 f0       	brcs	.+12     	; 0xca4
     c98:	8f b7       	in	r24, 0x3f	; 63
     c9a:	f8 94       	cli
     c9c:	99 27       	eor	r25, r25
     c9e:	da 98       	cbi	0x1b, 2	; 27
     ca0:	21 60       	ori	r18, 0x01	; 1
     ca2:	05 c0       	rjmp	.+10     	; 0xcae
     ca4:	8f b7       	in	r24, 0x3f	; 63
     ca6:	f8 94       	cli
     ca8:	99 27       	eor	r25, r25
     caa:	da 9a       	sbi	0x1b, 2	; 27
     cac:	2e 7f       	andi	r18, 0xFE	; 254
     cae:	20 93 c9 01 	sts	0x01C9, r18
     cb2:	8f bf       	out	0x3f, r24	; 63
     cb4:	81 e0       	ldi	r24, 0x01	; 1
     cb6:	90 e0       	ldi	r25, 0x00	; 0
     cb8:	df 91       	pop	r29
     cba:	cf 91       	pop	r28
     cbc:	1f 91       	pop	r17
     cbe:	0f 91       	pop	r16
     cc0:	08 95       	ret

00000cc2 <FramerM$StartTx>:
     cc2:	cf 93       	push	r28
     cc4:	c1 e0       	ldi	r28, 0x01	; 1
     cc6:	20 e0       	ldi	r18, 0x00	; 0
     cc8:	8f b7       	in	r24, 0x3f	; 63
     cca:	f8 94       	cli
     ccc:	38 2f       	mov	r19, r24
     cce:	80 91 cd 01 	lds	r24, 0x01CD
     cd2:	88 23       	and	r24, r24
     cd4:	91 f5       	brne	.+100    	; 0xd3a
     cd6:	80 91 ea 01 	lds	r24, 0x01EA
     cda:	99 27       	eor	r25, r25
     cdc:	81 ff       	sbrs	r24, 1
     cde:	08 c0       	rjmp	.+16     	; 0xcf0
     ce0:	80 eb       	ldi	r24, 0xB0	; 176
     ce2:	91 e0       	ldi	r25, 0x01	; 1
     ce4:	90 93 53 01 	sts	0x0153, r25
     ce8:	80 93 52 01 	sts	0x0152, r24
     cec:	80 e4       	ldi	r24, 0x40	; 64
     cee:	1a c0       	rjmp	.+52     	; 0xd24
     cf0:	82 ff       	sbrs	r24, 2
     cf2:	0f c0       	rjmp	.+30     	; 0xd12
     cf4:	e0 91 c9 00 	lds	r30, 0x00C9
     cf8:	f0 91 ca 00 	lds	r31, 0x00CA
     cfc:	f0 93 53 01 	sts	0x0153, r31
     d00:	e0 93 52 01 	sts	0x0152, r30
     d04:	82 e4       	ldi	r24, 0x42	; 66
     d06:	80 93 cd 00 	sts	0x00CD, r24
     d0a:	84 81       	ldd	r24, Z+4	; 0x04
     d0c:	99 27       	eor	r25, r25
     d0e:	05 96       	adiw	r24, 0x05	; 5
     d10:	0d c0       	rjmp	.+26     	; 0xd2c
     d12:	83 ff       	sbrs	r24, 3
     d14:	12 c0       	rjmp	.+36     	; 0xd3a
     d16:	83 ed       	ldi	r24, 0xD3	; 211
     d18:	90 e0       	ldi	r25, 0x00	; 0
     d1a:	90 93 53 01 	sts	0x0153, r25
     d1e:	80 93 52 01 	sts	0x0152, r24
     d22:	8f ef       	ldi	r24, 0xFF	; 255
     d24:	80 93 cd 00 	sts	0x00CD, r24
     d28:	81 e0       	ldi	r24, 0x01	; 1
     d2a:	90 e0       	ldi	r25, 0x00	; 0
     d2c:	90 93 d5 00 	sts	0x00D5, r25
     d30:	80 93 d4 00 	sts	0x00D4, r24
     d34:	2c 2f       	mov	r18, r28
     d36:	c0 93 cd 01 	sts	0x01CD, r28
     d3a:	3f bf       	out	0x3f, r19	; 63
     d3c:	22 23       	and	r18, r18
     d3e:	f1 f0       	breq	.+60     	; 0xd7c
     d40:	8f b7       	in	r24, 0x3f	; 63
     d42:	f8 94       	cli
     d44:	99 27       	eor	r25, r25
     d46:	10 92 71 00 	sts	0x0071, r1
     d4a:	10 92 70 00 	sts	0x0070, r1
     d4e:	10 92 70 01 	sts	0x0170, r1
     d52:	10 92 6f 01 	sts	0x016F, r1
     d56:	8f bf       	out	0x3f, r24	; 63
     d58:	8e e7       	ldi	r24, 0x7E	; 126
     d5a:	0e 94 c2 06 	call	0xd84
     d5e:	c8 2f       	mov	r28, r24
     d60:	81 30       	cpi	r24, 0x01	; 1
     d62:	61 f0       	breq	.+24     	; 0xd7c
     d64:	8f b7       	in	r24, 0x3f	; 63
     d66:	f8 94       	cli
     d68:	28 2f       	mov	r18, r24
     d6a:	33 27       	eor	r19, r19
     d6c:	88 e0       	ldi	r24, 0x08	; 8
     d6e:	80 93 cd 01 	sts	0x01CD, r24
     d72:	2f bf       	out	0x3f, r18	; 63
     d74:	87 ed       	ldi	r24, 0xD7	; 215
     d76:	96 e0       	ldi	r25, 0x06	; 6
     d78:	0e 94 53 02 	call	0x4a6
     d7c:	8c 2f       	mov	r24, r28
     d7e:	99 27       	eor	r25, r25
     d80:	cf 91       	pop	r28
     d82:	08 95       	ret

00000d84 <UARTM$ByteComm$txByte>:
     d84:	48 2f       	mov	r20, r24
     d86:	8f b7       	in	r24, 0x3f	; 63
     d88:	f8 94       	cli
     d8a:	28 2f       	mov	r18, r24
     d8c:	33 27       	eor	r19, r19
     d8e:	90 91 83 01 	lds	r25, 0x0183
     d92:	81 e0       	ldi	r24, 0x01	; 1
     d94:	80 93 83 01 	sts	0x0183, r24
     d98:	2f bf       	out	0x3f, r18	; 63
     d9a:	99 23       	and	r25, r25
     d9c:	19 f0       	breq	.+6      	; 0xda4
     d9e:	80 e0       	ldi	r24, 0x00	; 0
     da0:	90 e0       	ldi	r25, 0x00	; 0
     da2:	08 95       	ret
     da4:	5e 9a       	sbi	0x0b, 6	; 11
     da6:	4c b9       	out	0x0c, r20	; 12
     da8:	81 e0       	ldi	r24, 0x01	; 1
     daa:	90 e0       	ldi	r25, 0x00	; 0
     dac:	08 95       	ret

00000dae <FramerM$PacketSent>:
     dae:	61 e0       	ldi	r22, 0x01	; 1
     db0:	8f b7       	in	r24, 0x3f	; 63
     db2:	f8 94       	cli
     db4:	28 2f       	mov	r18, r24
     db6:	33 27       	eor	r19, r19
     db8:	80 91 cd 01 	lds	r24, 0x01CD
     dbc:	88 30       	cpi	r24, 0x08	; 8
     dbe:	19 f4       	brne	.+6      	; 0xdc6
     dc0:	60 e0       	ldi	r22, 0x00	; 0
     dc2:	60 93 cd 01 	sts	0x01CD, r22
     dc6:	2f bf       	out	0x3f, r18	; 63
     dc8:	80 91 cd 00 	lds	r24, 0x00CD
     dcc:	90 91 ea 01 	lds	r25, 0x01EA
     dd0:	80 34       	cpi	r24, 0x40	; 64
     dd2:	51 f4       	brne	.+20     	; 0xde8
     dd4:	8f b7       	in	r24, 0x3f	; 63
     dd6:	f8 94       	cli
     dd8:	28 2f       	mov	r18, r24
     dda:	33 27       	eor	r19, r19
     ddc:	82 e0       	ldi	r24, 0x02	; 2
     dde:	98 27       	eor	r25, r24
     de0:	90 93 ea 01 	sts	0x01EA, r25
     de4:	2f bf       	out	0x3f, r18	; 63
     de6:	17 c0       	rjmp	.+46     	; 0xe16
     de8:	8f b7       	in	r24, 0x3f	; 63
     dea:	f8 94       	cli
     dec:	28 2f       	mov	r18, r24
     dee:	33 27       	eor	r19, r19
     df0:	84 e0       	ldi	r24, 0x04	; 4
     df2:	98 27       	eor	r25, r24
     df4:	90 93 ea 01 	sts	0x01EA, r25
     df8:	2f bf       	out	0x3f, r18	; 63
     dfa:	80 91 c9 00 	lds	r24, 0x00C9
     dfe:	90 91 ca 00 	lds	r25, 0x00CA
     e02:	0e 94 0e 07 	call	0xe1c
     e06:	8f b7       	in	r24, 0x3f	; 63
     e08:	f8 94       	cli
     e0a:	99 27       	eor	r25, r25
     e0c:	10 92 ca 00 	sts	0x00CA, r1
     e10:	10 92 c9 00 	sts	0x00C9, r1
     e14:	8f bf       	out	0x3f, r24	; 63
     e16:	0e 94 61 06 	call	0xcc2
     e1a:	08 95       	ret

00000e1c <AMStandard$reportSendDone>:
     e1c:	10 92 df 01 	sts	0x01DF, r1
     e20:	81 e0       	ldi	r24, 0x01	; 1
     e22:	90 e0       	ldi	r25, 0x00	; 0
     e24:	08 95       	ret

00000e26 <RandomLFSR$Random$rand>:
     e26:	8f b7       	in	r24, 0x3f	; 63
     e28:	f8 94       	cli
     e2a:	48 2f       	mov	r20, r24
     e2c:	55 27       	eor	r21, r21
     e2e:	20 91 c3 01 	lds	r18, 0x01C3
     e32:	30 91 c4 01 	lds	r19, 0x01C4
     e36:	83 2f       	mov	r24, r19
     e38:	88 1f       	adc	r24, r24
     e3a:	88 27       	eor	r24, r24
     e3c:	88 1f       	adc	r24, r24
     e3e:	22 0f       	add	r18, r18
     e40:	33 1f       	adc	r19, r19
     e42:	88 23       	and	r24, r24
     e44:	21 f0       	breq	.+8      	; 0xe4e
     e46:	8b e0       	ldi	r24, 0x0B	; 11
     e48:	90 e1       	ldi	r25, 0x10	; 16
     e4a:	28 27       	eor	r18, r24
     e4c:	39 27       	eor	r19, r25
     e4e:	2f 5f       	subi	r18, 0xFF	; 255
     e50:	3f 4f       	sbci	r19, 0xFF	; 255
     e52:	30 93 c4 01 	sts	0x01C4, r19
     e56:	20 93 c3 01 	sts	0x01C3, r18
     e5a:	80 91 d7 00 	lds	r24, 0x00D7
     e5e:	90 91 d8 00 	lds	r25, 0x00D8
     e62:	28 27       	eor	r18, r24
     e64:	39 27       	eor	r19, r25
     e66:	4f bf       	out	0x3f, r20	; 63
     e68:	93 2f       	mov	r25, r19
     e6a:	82 2f       	mov	r24, r18
     e6c:	08 95       	ret

00000e6e <received>:
     e6e:	f9 2f       	mov	r31, r25
     e70:	e8 2f       	mov	r30, r24
     e72:	20 91 60 00 	lds	r18, 0x0060
     e76:	30 91 61 00 	lds	r19, 0x0061
     e7a:	80 91 58 01 	lds	r24, 0x0158
     e7e:	90 91 59 01 	lds	r25, 0x0159
     e82:	01 96       	adiw	r24, 0x01	; 1
     e84:	90 93 59 01 	sts	0x0159, r25
     e88:	80 93 58 01 	sts	0x0158, r24
     e8c:	82 a1       	ldd	r24, Z+34	; 0x22
     e8e:	93 a1       	ldd	r25, Z+35	; 0x23
     e90:	01 97       	sbiw	r24, 0x01	; 1
     e92:	e9 f4       	brne	.+58     	; 0xece
     e94:	93 81       	ldd	r25, Z+3	; 0x03
     e96:	80 91 62 00 	lds	r24, 0x0062
     e9a:	98 17       	cp	r25, r24
     e9c:	c1 f4       	brne	.+48     	; 0xece
     e9e:	80 81       	ld	r24, Z
     ea0:	91 81       	ldd	r25, Z+1	; 0x01
     ea2:	4f ef       	ldi	r20, 0xFF	; 255
     ea4:	8f 3f       	cpi	r24, 0xFF	; 255
     ea6:	94 07       	cpc	r25, r20
     ea8:	19 f0       	breq	.+6      	; 0xeb0
     eaa:	82 17       	cp	r24, r18
     eac:	93 07       	cpc	r25, r19
     eae:	79 f4       	brne	.+30     	; 0xece
     eb0:	92 81       	ldd	r25, Z+2	; 0x02
     eb2:	83 e0       	ldi	r24, 0x03	; 3
     eb4:	8c 5f       	subi	r24, 0xFC	; 252
     eb6:	8b 32       	cpi	r24, 0x2B	; 43
     eb8:	e8 f3       	brcs	.-6      	; 0xeb4
     eba:	90 32       	cpi	r25, 0x20	; 32
     ebc:	41 f4       	brne	.+16     	; 0xece
     ebe:	8f b7       	in	r24, 0x3f	; 63
     ec0:	f8 94       	cli
     ec2:	99 27       	eor	r25, r25
     ec4:	10 92 cf 01 	sts	0x01CF, r1
     ec8:	10 92 ce 01 	sts	0x01CE, r1
     ecc:	8f bf       	out	0x3f, r24	; 63
     ece:	8e 2f       	mov	r24, r30
     ed0:	9f 2f       	mov	r25, r31
     ed2:	08 95       	ret

00000ed4 <__vector_9>:
     ed4:	1f 92       	push	r1
     ed6:	0f 92       	push	r0
     ed8:	0f b6       	in	r0, 0x3f	; 63
     eda:	0f 92       	push	r0
     edc:	11 24       	eor	r1, r1
     ede:	bf 92       	push	r11
     ee0:	cf 92       	push	r12
     ee2:	df 92       	push	r13
     ee4:	ef 92       	push	r14
     ee6:	ff 92       	push	r15
     ee8:	0f 93       	push	r16
     eea:	2f 93       	push	r18
     eec:	3f 93       	push	r19
     eee:	4f 93       	push	r20
     ef0:	5f 93       	push	r21
     ef2:	6f 93       	push	r22
     ef4:	7f 93       	push	r23
     ef6:	8f 93       	push	r24
     ef8:	9f 93       	push	r25
     efa:	af 93       	push	r26
     efc:	bf 93       	push	r27
     efe:	cf 93       	push	r28
     f00:	df 93       	push	r29
     f02:	ef 93       	push	r30
     f04:	ff 93       	push	r31
     f06:	86 b3       	in	r24, 0x16	; 22
     f08:	28 2f       	mov	r18, r24
     f0a:	33 27       	eor	r19, r19
     f0c:	36 95       	lsr	r19
     f0e:	27 95       	ror	r18
     f10:	36 95       	lsr	r19
     f12:	27 95       	ror	r18
     f14:	21 70       	andi	r18, 0x01	; 1
     f16:	30 70       	andi	r19, 0x00	; 0
     f18:	92 2f       	mov	r25, r18
     f1a:	8f b7       	in	r24, 0x3f	; 63
     f1c:	f8 94       	cli
     f1e:	b8 2e       	mov	r11, r24
     f20:	00 91 36 01 	lds	r16, 0x0136
     f24:	00 23       	and	r16, r16
     f26:	09 f0       	breq	.+2      	; 0xf2a
     f28:	a6 c0       	rjmp	.+332    	; 0x1076
     f2a:	20 91 d9 01 	lds	r18, 0x01D9
     f2e:	30 91 da 01 	lds	r19, 0x01DA
     f32:	22 0f       	add	r18, r18
     f34:	33 1f       	adc	r19, r19
     f36:	89 2f       	mov	r24, r25
     f38:	99 27       	eor	r25, r25
     f3a:	81 70       	andi	r24, 0x01	; 1
     f3c:	90 70       	andi	r25, 0x00	; 0
     f3e:	28 2b       	or	r18, r24
     f40:	39 2b       	or	r19, r25
     f42:	30 93 da 01 	sts	0x01DA, r19
     f46:	20 93 d9 01 	sts	0x01D9, r18
     f4a:	80 91 4d 01 	lds	r24, 0x014D
     f4e:	90 91 4e 01 	lds	r25, 0x014E
     f52:	4f ef       	ldi	r20, 0xFF	; 255
     f54:	8f 3f       	cpi	r24, 0xFF	; 255
     f56:	94 07       	cpc	r25, r20
     f58:	09 f4       	brne	.+2      	; 0xf5c
     f5a:	74 c0       	rjmp	.+232    	; 0x1044
     f5c:	01 97       	sbiw	r24, 0x01	; 1
     f5e:	90 93 4e 01 	sts	0x014E, r25
     f62:	80 93 4d 01 	sts	0x014D, r24
     f66:	01 97       	sbiw	r24, 0x01	; 1
     f68:	09 f0       	breq	.+2      	; 0xf6c
     f6a:	6c c0       	rjmp	.+216    	; 0x1044
     f6c:	d3 2f       	mov	r29, r19
     f6e:	c2 2f       	mov	r28, r18
     f70:	df 70       	andi	r29, 0x0F	; 15
     f72:	20 97       	sbiw	r28, 0x00	; 0
     f74:	09 f0       	breq	.+2      	; 0xf78
     f76:	5d c0       	rjmp	.+186    	; 0x1032
     f78:	8f ef       	ldi	r24, 0xFF	; 255
     f7a:	9f ef       	ldi	r25, 0xFF	; 255
     f7c:	90 93 4e 01 	sts	0x014E, r25
     f80:	80 93 4d 01 	sts	0x014D, r24
     f84:	8f b7       	in	r24, 0x3f	; 63
     f86:	f8 94       	cli
     f88:	28 2f       	mov	r18, r24
     f8a:	33 27       	eor	r19, r19
     f8c:	90 91 32 01 	lds	r25, 0x0132
     f90:	91 30       	cpi	r25, 0x01	; 1
     f92:	29 f4       	brne	.+10     	; 0xf9e
     f94:	00 93 32 01 	sts	0x0132, r16
     f98:	86 e0       	ldi	r24, 0x06	; 6
     f9a:	80 93 6d 01 	sts	0x016D, r24
     f9e:	2f bf       	out	0x3f, r18	; 63
     fa0:	91 30       	cpi	r25, 0x01	; 1
     fa2:	09 f0       	breq	.+2      	; 0xfa6
     fa4:	4f c0       	rjmp	.+158    	; 0x1044
     fa6:	8f b7       	in	r24, 0x3f	; 63
     fa8:	f8 94       	cli
     faa:	c8 2e       	mov	r12, r24
     fac:	dd 24       	eor	r13, r13
     fae:	e0 91 d5 01 	lds	r30, 0x01D5
     fb2:	f0 91 d6 01 	lds	r31, 0x01D6
     fb6:	e0 80       	ld	r14, Z
     fb8:	f0 90 64 00 	lds	r15, 0x0064
     fbc:	00 93 6e 01 	sts	0x016E, r16
     fc0:	00 93 38 01 	sts	0x0138, r16
     fc4:	00 93 76 01 	sts	0x0176, r16
     fc8:	8e 2d       	mov	r24, r14
     fca:	0e 94 07 09 	call	0x120e
     fce:	00 93 37 01 	sts	0x0137, r16
     fd2:	e0 91 d5 01 	lds	r30, 0x01D5
     fd6:	f0 91 d6 01 	lds	r31, 0x01D6
     fda:	84 81       	ldd	r24, Z+4	; 0x04
     fdc:	8b 5f       	subi	r24, 0xFB	; 251
     fde:	80 93 5a 01 	sts	0x015A, r24
     fe2:	cf be       	out	0x3f, r12	; 63
     fe4:	8f 2d       	mov	r24, r15
     fe6:	0e 94 a3 09 	call	0x1346
     fea:	8f b7       	in	r24, 0x3f	; 63
     fec:	80 78       	andi	r24, 0x80	; 128
     fee:	f8 94       	cli
     ff0:	4c b5       	in	r20, 0x2c	; 44
     ff2:	5d b5       	in	r21, 0x2d	; 45
     ff4:	88 23       	and	r24, r24
     ff6:	09 f0       	breq	.+2      	; 0xffa
     ff8:	78 94       	sei
     ffa:	e0 e6       	ldi	r30, 0x60	; 96
     ffc:	f0 e0       	ldi	r31, 0x00	; 0
     ffe:	ed 26       	eor	r14, r29
    1000:	ee 0c       	add	r14, r14
    1002:	f1 1d       	adc	r31, r1
    1004:	ee 0d       	add	r30, r14
    1006:	f1 1d       	adc	r31, r1
    1008:	c8 95       	lpm
    100a:	3c 2f       	mov	r19, r28
    100c:	20 2d       	mov	r18, r0
    100e:	31 96       	adiw	r30, 0x01	; 1
    1010:	c8 95       	lpm
    1012:	30 25       	eor	r19, r0
    1014:	8f b7       	in	r24, 0x3f	; 63
    1016:	f8 94       	cli
    1018:	99 27       	eor	r25, r25
    101a:	e0 91 d5 01 	lds	r30, 0x01D5
    101e:	f0 91 d6 01 	lds	r31, 0x01D6
    1022:	47 a3       	std	Z+39, r20	; 0x27
    1024:	50 a7       	std	Z+40, r21	; 0x28
    1026:	30 93 cf 00 	sts	0x00CF, r19
    102a:	20 93 ce 00 	sts	0x00CE, r18
    102e:	8f bf       	out	0x3f, r24	; 63
    1030:	09 c0       	rjmp	.+18     	; 0x1044
    1032:	0e 94 13 07 	call	0xe26
    1036:	8f 71       	andi	r24, 0x1F	; 31
    1038:	90 70       	andi	r25, 0x00	; 0
    103a:	4e 96       	adiw	r24, 0x1e	; 30
    103c:	90 93 4e 01 	sts	0x014E, r25
    1040:	80 93 4d 01 	sts	0x014D, r24
    1044:	80 91 d9 01 	lds	r24, 0x01D9
    1048:	90 91 da 01 	lds	r25, 0x01DA
    104c:	87 77       	andi	r24, 0x77	; 119
    104e:	97 70       	andi	r25, 0x07	; 7
    1050:	87 50       	subi	r24, 0x07	; 7
    1052:	97 40       	sbci	r25, 0x07	; 7
    1054:	09 f0       	breq	.+2      	; 0x1058
    1056:	c1 c0       	rjmp	.+386    	; 0x11da
    1058:	81 e0       	ldi	r24, 0x01	; 1
    105a:	80 93 36 01 	sts	0x0136, r24
    105e:	10 92 dc 01 	sts	0x01DC, r1
    1062:	10 92 db 01 	sts	0x01DB, r1
    1066:	10 92 da 01 	sts	0x01DA, r1
    106a:	10 92 d9 01 	sts	0x01D9, r1
    106e:	8e e1       	ldi	r24, 0x1E	; 30
    1070:	80 93 d2 00 	sts	0x00D2, r24
    1074:	b2 c0       	rjmp	.+356    	; 0x11da
    1076:	01 30       	cpi	r16, 0x01	; 1
    1078:	09 f0       	breq	.+2      	; 0x107c
    107a:	af c0       	rjmp	.+350    	; 0x11da
    107c:	80 91 b1 01 	lds	r24, 0x01B1
    1080:	e8 2f       	mov	r30, r24
    1082:	ff 27       	eor	r31, r31
    1084:	ee 0f       	add	r30, r30
    1086:	ff 1f       	adc	r31, r31
    1088:	e7 52       	subi	r30, 0x27	; 39
    108a:	fe 4f       	sbci	r31, 0xFE	; 254
    108c:	40 81       	ld	r20, Z
    108e:	51 81       	ldd	r21, Z+1	; 0x01
    1090:	80 91 d2 00 	lds	r24, 0x00D2
    1094:	81 50       	subi	r24, 0x01	; 1
    1096:	80 93 d2 00 	sts	0x00D2, r24
    109a:	88 23       	and	r24, r24
    109c:	11 f4       	brne	.+4      	; 0x10a2
    109e:	80 93 36 01 	sts	0x0136, r24
    10a2:	80 91 36 01 	lds	r24, 0x0136
    10a6:	88 23       	and	r24, r24
    10a8:	09 f4       	brne	.+2      	; 0x10ac
    10aa:	97 c0       	rjmp	.+302    	; 0x11da
    10ac:	44 0f       	add	r20, r20
    10ae:	55 1f       	adc	r21, r21
    10b0:	51 70       	andi	r21, 0x01	; 1
    10b2:	21 11       	cpse	r18, r1
    10b4:	41 60       	ori	r20, 0x01	; 1
    10b6:	81 e0       	ldi	r24, 0x01	; 1
    10b8:	45 33       	cpi	r20, 0x35	; 53
    10ba:	58 07       	cpc	r21, r24
    10bc:	09 f0       	breq	.+2      	; 0x10c0
    10be:	7b c0       	rjmp	.+246    	; 0x11b6
    10c0:	87 b7       	in	r24, 0x37	; 55
    10c2:	8f 77       	andi	r24, 0x7F	; 127
    10c4:	87 bf       	out	0x37, r24	; 55
    10c6:	10 92 36 01 	sts	0x0136, r1
    10ca:	8f b7       	in	r24, 0x3f	; 63
    10cc:	f8 94       	cli
    10ce:	28 2f       	mov	r18, r24
    10d0:	33 27       	eor	r19, r19
    10d2:	10 92 35 01 	sts	0x0135, r1
    10d6:	10 92 72 00 	sts	0x0072, r1
    10da:	82 e0       	ldi	r24, 0x02	; 2
    10dc:	80 93 6d 01 	sts	0x016D, r24
    10e0:	2f bf       	out	0x3f, r18	; 63
    10e2:	bc 98       	cbi	0x17, 4	; 23
    10e4:	b2 99       	sbic	0x16, 2	; 22
    10e6:	fe cf       	rjmp	.-4      	; 0x10e4
    10e8:	81 e4       	ldi	r24, 0x41	; 65
    10ea:	8e bd       	out	0x2e, r24	; 46
    10ec:	80 e2       	ldi	r24, 0x20	; 32
    10ee:	86 bf       	out	0x36, r24	; 54
    10f0:	06 b6       	in	r0, 0x36	; 54
    10f2:	05 fe       	sbrs	r0, 5
    10f4:	fd cf       	rjmp	.-6      	; 0x10f0
    10f6:	c6 9a       	sbi	0x18, 6	; 24
    10f8:	c6 98       	cbi	0x18, 6	; 24
    10fa:	8f b7       	in	r24, 0x3f	; 63
    10fc:	80 78       	andi	r24, 0x80	; 128
    10fe:	f8 94       	cli
    1100:	66 b5       	in	r22, 0x26	; 38
    1102:	77 b5       	in	r23, 0x27	; 39
    1104:	88 23       	and	r24, r24
    1106:	09 f0       	breq	.+2      	; 0x110a
    1108:	78 94       	sei
    110a:	8f b7       	in	r24, 0x3f	; 63
    110c:	f8 94       	cli
    110e:	28 2f       	mov	r18, r24
    1110:	33 27       	eor	r19, r19
    1112:	90 91 cb 00 	lds	r25, 0x00CB
    1116:	99 23       	and	r25, r25
    1118:	19 f4       	brne	.+6      	; 0x1120
    111a:	83 e0       	ldi	r24, 0x03	; 3
    111c:	80 93 cb 00 	sts	0x00CB, r24
    1120:	2f bf       	out	0x3f, r18	; 63
    1122:	99 23       	and	r25, r25
    1124:	a1 f5       	brne	.+104    	; 0x118e
    1126:	8f b7       	in	r24, 0x3f	; 63
    1128:	f8 94       	cli
    112a:	28 2f       	mov	r18, r24
    112c:	33 27       	eor	r19, r19
    112e:	80 91 71 01 	lds	r24, 0x0171
    1132:	81 50       	subi	r24, 0x01	; 1
    1134:	80 93 71 01 	sts	0x0171, r24
    1138:	15 9a       	sbi	0x02, 5	; 2
    113a:	1d 98       	cbi	0x03, 5	; 3
    113c:	2f bf       	out	0x3f, r18	; 63
    113e:	9d b9       	out	0x0d, r25	; 13
    1140:	c7 98       	cbi	0x18, 7	; 24
    1142:	bf 9a       	sbi	0x17, 7	; 23
    1144:	95 bd       	out	0x25, r25	; 37
    1146:	81 e0       	ldi	r24, 0x01	; 1
    1148:	84 bd       	out	0x24, r24	; 36
    114a:	82 e3       	ldi	r24, 0x32	; 50
    114c:	83 bd       	out	0x23, r24	; 35
    114e:	26 2f       	mov	r18, r22
    1150:	37 2f       	mov	r19, r23
    1152:	23 58       	subi	r18, 0x83	; 131
    1154:	3e 4f       	sbci	r19, 0xFE	; 254
    1156:	8f ef       	ldi	r24, 0xFF	; 255
    1158:	21 3f       	cpi	r18, 0xF1	; 241
    115a:	38 07       	cpc	r19, r24
    115c:	10 f0       	brcs	.+4      	; 0x1162
    115e:	20 ef       	ldi	r18, 0xF0	; 240
    1160:	3f ef       	ldi	r19, 0xFF	; 255
    1162:	89 e1       	ldi	r24, 0x19	; 25
    1164:	85 bd       	out	0x25, r24	; 37
    1166:	8e e1       	ldi	r24, 0x1E	; 30
    1168:	84 bd       	out	0x24, r24	; 36
    116a:	b7 99       	sbic	0x16, 7	; 22
    116c:	fe cf       	rjmp	.-4      	; 0x116a
    116e:	8c b5       	in	r24, 0x2c	; 44
    1170:	9d b5       	in	r25, 0x2d	; 45
    1172:	82 17       	cp	r24, r18
    1174:	93 07       	cpc	r25, r19
    1176:	30 f4       	brcc	.+12     	; 0x1184
    1178:	14 bc       	out	0x24, r1	; 36
    117a:	8c b5       	in	r24, 0x2c	; 44
    117c:	9d b5       	in	r25, 0x2d	; 45
    117e:	82 17       	cp	r24, r18
    1180:	93 07       	cpc	r25, r19
    1182:	d0 f3       	brcs	.-12     	; 0x1178
    1184:	80 ec       	ldi	r24, 0xC0	; 192
    1186:	8d b9       	out	0x0d, r24	; 13
    1188:	1f b8       	out	0x0f, r1	; 15
    118a:	c6 9a       	sbi	0x18, 6	; 24
    118c:	c6 98       	cbi	0x18, 6	; 24
    118e:	8f b7       	in	r24, 0x3f	; 63
    1190:	f8 94       	cli
    1192:	28 2f       	mov	r18, r24
    1194:	33 27       	eor	r19, r19
    1196:	82 e2       	ldi	r24, 0x22	; 34
    1198:	80 93 5a 01 	sts	0x015A, r24
    119c:	10 92 cf 00 	sts	0x00CF, r1
    11a0:	10 92 ce 00 	sts	0x00CE, r1
    11a4:	e0 91 74 01 	lds	r30, 0x0174
    11a8:	f0 91 75 01 	lds	r31, 0x0175
    11ac:	67 a3       	std	Z+39, r22	; 0x27
    11ae:	70 a7       	std	Z+40, r23	; 0x28
    11b0:	14 a2       	std	Z+36, r1	; 0x24
    11b2:	15 a2       	std	Z+37, r1	; 0x25
    11b4:	2f bf       	out	0x3f, r18	; 63
    11b6:	80 91 36 01 	lds	r24, 0x0136
    11ba:	88 23       	and	r24, r24
    11bc:	71 f0       	breq	.+28     	; 0x11da
    11be:	80 91 b1 01 	lds	r24, 0x01B1
    11c2:	e8 2f       	mov	r30, r24
    11c4:	ff 27       	eor	r31, r31
    11c6:	ee 0f       	add	r30, r30
    11c8:	ff 1f       	adc	r31, r31
    11ca:	e7 52       	subi	r30, 0x27	; 39
    11cc:	fe 4f       	sbci	r31, 0xFE	; 254
    11ce:	40 83       	st	Z, r20
    11d0:	51 83       	std	Z+1, r21	; 0x01
    11d2:	91 e0       	ldi	r25, 0x01	; 1
    11d4:	89 27       	eor	r24, r25
    11d6:	80 93 b1 01 	sts	0x01B1, r24
    11da:	bf be       	out	0x3f, r11	; 63
    11dc:	ff 91       	pop	r31
    11de:	ef 91       	pop	r30
    11e0:	df 91       	pop	r29
    11e2:	cf 91       	pop	r28
    11e4:	bf 91       	pop	r27
    11e6:	af 91       	pop	r26
    11e8:	9f 91       	pop	r25
    11ea:	8f 91       	pop	r24
    11ec:	7f 91       	pop	r23
    11ee:	6f 91       	pop	r22
    11f0:	5f 91       	pop	r21
    11f2:	4f 91       	pop	r20
    11f4:	3f 91       	pop	r19
    11f6:	2f 91       	pop	r18
    11f8:	0f 91       	pop	r16
    11fa:	ff 90       	pop	r15
    11fc:	ef 90       	pop	r14
    11fe:	df 90       	pop	r13
    1200:	cf 90       	pop	r12
    1202:	bf 90       	pop	r11
    1204:	0f 90       	pop	r0
    1206:	0f be       	out	0x3f, r0	; 63
    1208:	0f 90       	pop	r0
    120a:	1f 90       	pop	r1
    120c:	18 95       	reti

0000120e <SecDedEncoding$Code$encode>:
    120e:	1f 93       	push	r17
    1210:	cf 93       	push	r28
    1212:	48 2f       	mov	r20, r24
    1214:	8f b7       	in	r24, 0x3f	; 63
    1216:	f8 94       	cli
    1218:	28 2f       	mov	r18, r24
    121a:	33 27       	eor	r19, r19
    121c:	90 91 51 01 	lds	r25, 0x0151
    1220:	99 23       	and	r25, r25
    1222:	29 f4       	brne	.+10     	; 0x122e
    1224:	84 e0       	ldi	r24, 0x04	; 4
    1226:	80 93 51 01 	sts	0x0151, r24
    122a:	40 93 3b 01 	sts	0x013B, r20
    122e:	2f bf       	out	0x3f, r18	; 63
    1230:	99 23       	and	r25, r25
    1232:	09 f0       	breq	.+2      	; 0x1236
    1234:	68 c0       	rjmp	.+208    	; 0x1306
    1236:	49 2f       	mov	r20, r25
    1238:	8f b7       	in	r24, 0x3f	; 63
    123a:	f8 94       	cli
    123c:	99 27       	eor	r25, r25
    123e:	50 91 3b 01 	lds	r21, 0x013B
    1242:	8f bf       	out	0x3f, r24	; 63
    1244:	25 2f       	mov	r18, r21
    1246:	33 27       	eor	r19, r19
    1248:	27 fd       	sbrc	r18, 7
    124a:	30 95       	com	r19
    124c:	20 ff       	sbrs	r18, 0
    124e:	03 c0       	rjmp	.+6      	; 0x1256
    1250:	4b e5       	ldi	r20, 0x5B	; 91
    1252:	11 e0       	ldi	r17, 0x01	; 1
    1254:	01 c0       	rjmp	.+2      	; 0x1258
    1256:	12 e0       	ldi	r17, 0x02	; 2
    1258:	21 ff       	sbrs	r18, 1
    125a:	04 c0       	rjmp	.+8      	; 0x1264
    125c:	88 e5       	ldi	r24, 0x58	; 88
    125e:	48 27       	eor	r20, r24
    1260:	14 60       	ori	r17, 0x04	; 4
    1262:	01 c0       	rjmp	.+2      	; 0x1266
    1264:	18 60       	ori	r17, 0x08	; 8
    1266:	22 ff       	sbrs	r18, 2
    1268:	04 c0       	rjmp	.+8      	; 0x1272
    126a:	82 e5       	ldi	r24, 0x52	; 82
    126c:	48 27       	eor	r20, r24
    126e:	10 61       	ori	r17, 0x10	; 16
    1270:	01 c0       	rjmp	.+2      	; 0x1274
    1272:	10 62       	ori	r17, 0x20	; 32
    1274:	23 ff       	sbrs	r18, 3
    1276:	04 c0       	rjmp	.+8      	; 0x1280
    1278:	81 e5       	ldi	r24, 0x51	; 81
    127a:	48 27       	eor	r20, r24
    127c:	10 64       	ori	r17, 0x40	; 64
    127e:	01 c0       	rjmp	.+2      	; 0x1282
    1280:	10 68       	ori	r17, 0x80	; 128
    1282:	24 ff       	sbrs	r18, 4
    1284:	04 c0       	rjmp	.+8      	; 0x128e
    1286:	8a e4       	ldi	r24, 0x4A	; 74
    1288:	48 27       	eor	r20, r24
    128a:	c1 e0       	ldi	r28, 0x01	; 1
    128c:	01 c0       	rjmp	.+2      	; 0x1290
    128e:	c2 e0       	ldi	r28, 0x02	; 2
    1290:	25 ff       	sbrs	r18, 5
    1292:	04 c0       	rjmp	.+8      	; 0x129c
    1294:	89 e4       	ldi	r24, 0x49	; 73
    1296:	48 27       	eor	r20, r24
    1298:	c4 60       	ori	r28, 0x04	; 4
    129a:	01 c0       	rjmp	.+2      	; 0x129e
    129c:	c8 60       	ori	r28, 0x08	; 8
    129e:	26 ff       	sbrs	r18, 6
    12a0:	04 c0       	rjmp	.+8      	; 0x12aa
    12a2:	83 e1       	ldi	r24, 0x13	; 19
    12a4:	48 27       	eor	r20, r24
    12a6:	c0 61       	ori	r28, 0x10	; 16
    12a8:	01 c0       	rjmp	.+2      	; 0x12ac
    12aa:	c0 62       	ori	r28, 0x20	; 32
    12ac:	57 ff       	sbrs	r21, 7
    12ae:	04 c0       	rjmp	.+8      	; 0x12b8
    12b0:	8b e0       	ldi	r24, 0x0B	; 11
    12b2:	48 27       	eor	r20, r24
    12b4:	c0 64       	ori	r28, 0x40	; 64
    12b6:	01 c0       	rjmp	.+2      	; 0x12ba
    12b8:	c0 68       	ori	r28, 0x80	; 128
    12ba:	46 ff       	sbrs	r20, 6
    12bc:	40 68       	ori	r20, 0x80	; 128
    12be:	84 2f       	mov	r24, r20
    12c0:	99 27       	eor	r25, r25
    12c2:	87 fd       	sbrc	r24, 7
    12c4:	90 95       	com	r25
    12c6:	80 75       	andi	r24, 0x50	; 80
    12c8:	90 70       	andi	r25, 0x00	; 0
    12ca:	89 2b       	or	r24, r25
    12cc:	09 f4       	brne	.+2      	; 0x12d0
    12ce:	40 62       	ori	r20, 0x20	; 32
    12d0:	84 2f       	mov	r24, r20
    12d2:	99 27       	eor	r25, r25
    12d4:	87 fd       	sbrc	r24, 7
    12d6:	90 95       	com	r25
    12d8:	8a 70       	andi	r24, 0x0A	; 10
    12da:	90 70       	andi	r25, 0x00	; 0
    12dc:	89 2b       	or	r24, r25
    12de:	09 f4       	brne	.+2      	; 0x12e2
    12e0:	44 60       	ori	r20, 0x04	; 4
    12e2:	8f b7       	in	r24, 0x3f	; 63
    12e4:	f8 94       	cli
    12e6:	99 27       	eor	r25, r25
    12e8:	10 92 51 01 	sts	0x0151, r1
    12ec:	8f bf       	out	0x3f, r24	; 63
    12ee:	84 2f       	mov	r24, r20
    12f0:	0e 94 88 09 	call	0x1310
    12f4:	8c 2f       	mov	r24, r28
    12f6:	0e 94 88 09 	call	0x1310
    12fa:	81 2f       	mov	r24, r17
    12fc:	0e 94 88 09 	call	0x1310
    1300:	81 e0       	ldi	r24, 0x01	; 1
    1302:	90 e0       	ldi	r25, 0x00	; 0
    1304:	02 c0       	rjmp	.+4      	; 0x130a
    1306:	80 e0       	ldi	r24, 0x00	; 0
    1308:	90 e0       	ldi	r25, 0x00	; 0
    130a:	cf 91       	pop	r28
    130c:	1f 91       	pop	r17
    130e:	08 95       	ret

00001310 <MicaHighSpeedRadioM$Code$encodeDone>:
    1310:	98 2f       	mov	r25, r24
    1312:	8f b7       	in	r24, 0x3f	; 63
    1314:	f8 94       	cli
    1316:	28 2f       	mov	r18, r24
    1318:	33 27       	eor	r19, r19
    131a:	80 91 38 01 	lds	r24, 0x0138
    131e:	e8 2f       	mov	r30, r24
    1320:	ff 27       	eor	r31, r31
    1322:	e7 fd       	sbrc	r30, 7
    1324:	f0 95       	com	r31
    1326:	e0 53       	subi	r30, 0x30	; 48
    1328:	fe 4f       	sbci	r31, 0xFE	; 254
    132a:	90 83       	st	Z, r25
    132c:	8f 5f       	subi	r24, 0xFF	; 255
    132e:	83 70       	andi	r24, 0x03	; 3
    1330:	80 93 38 01 	sts	0x0138, r24
    1334:	80 91 76 01 	lds	r24, 0x0176
    1338:	8f 5f       	subi	r24, 0xFF	; 255
    133a:	80 93 76 01 	sts	0x0176, r24
    133e:	2f bf       	out	0x3f, r18	; 63
    1340:	81 e0       	ldi	r24, 0x01	; 1
    1342:	90 e0       	ldi	r25, 0x00	; 0
    1344:	08 95       	ret

00001346 <SpiByteFifoC$SpiByteFifo$send>:
    1346:	0f 93       	push	r16
    1348:	1f 93       	push	r17
    134a:	cf 93       	push	r28
    134c:	18 2f       	mov	r17, r24
    134e:	c0 e0       	ldi	r28, 0x00	; 0
    1350:	8f b7       	in	r24, 0x3f	; 63
    1352:	f8 94       	cli
    1354:	08 2f       	mov	r16, r24
    1356:	80 91 cb 00 	lds	r24, 0x00CB
    135a:	82 30       	cpi	r24, 0x02	; 2
    135c:	31 f4       	brne	.+12     	; 0x136a
    135e:	10 93 e9 01 	sts	0x01E9, r17
    1362:	81 e0       	ldi	r24, 0x01	; 1
    1364:	80 93 cb 00 	sts	0x00CB, r24
    1368:	26 c0       	rjmp	.+76     	; 0x13b6
    136a:	88 23       	and	r24, r24
    136c:	29 f5       	brne	.+74     	; 0x13b8
    136e:	82 e0       	ldi	r24, 0x02	; 2
    1370:	80 93 cb 00 	sts	0x00CB, r24
    1374:	8c 2f       	mov	r24, r28
    1376:	0e 94 e3 09 	call	0x13c6
    137a:	8f b7       	in	r24, 0x3f	; 63
    137c:	f8 94       	cli
    137e:	28 2f       	mov	r18, r24
    1380:	33 27       	eor	r19, r19
    1382:	80 91 71 01 	lds	r24, 0x0171
    1386:	81 50       	subi	r24, 0x01	; 1
    1388:	80 93 71 01 	sts	0x0171, r24
    138c:	15 9a       	sbi	0x02, 5	; 2
    138e:	1d 98       	cbi	0x03, 5	; 3
    1390:	2f bf       	out	0x3f, r18	; 63
    1392:	c7 98       	cbi	0x18, 7	; 24
    1394:	bf 9a       	sbi	0x17, 7	; 23
    1396:	80 ec       	ldi	r24, 0xC0	; 192
    1398:	8d b9       	out	0x0d, r24	; 13
    139a:	1f b9       	out	0x0f, r17	; 15
    139c:	97 98       	cbi	0x12, 7	; 18
    139e:	96 9a       	sbi	0x12, 6	; 18
    13a0:	87 b7       	in	r24, 0x37	; 55
    13a2:	8f 7b       	andi	r24, 0xBF	; 191
    13a4:	87 bf       	out	0x37, r24	; 55
    13a6:	87 b7       	in	r24, 0x37	; 55
    13a8:	8f 77       	andi	r24, 0x7F	; 127
    13aa:	87 bf       	out	0x37, r24	; 55
    13ac:	c4 bd       	out	0x24, r28	; 36
    13ae:	82 e3       	ldi	r24, 0x32	; 50
    13b0:	83 bd       	out	0x23, r24	; 35
    13b2:	89 e1       	ldi	r24, 0x19	; 25
    13b4:	85 bd       	out	0x25, r24	; 37
    13b6:	c1 e0       	ldi	r28, 0x01	; 1
    13b8:	0f bf       	out	0x3f, r16	; 63
    13ba:	8c 2f       	mov	r24, r28
    13bc:	99 27       	eor	r25, r25
    13be:	cf 91       	pop	r28
    13c0:	1f 91       	pop	r17
    13c2:	0f 91       	pop	r16
    13c4:	08 95       	ret

000013c6 <MicaHighSpeedRadioM$SpiByteFifo$dataReady>:
    13c6:	0f 93       	push	r16
    13c8:	1f 93       	push	r17
    13ca:	cf 93       	push	r28
    13cc:	c8 2f       	mov	r28, r24
    13ce:	8f b7       	in	r24, 0x3f	; 63
    13d0:	f8 94       	cli
    13d2:	08 2f       	mov	r16, r24
    13d4:	e0 91 6d 01 	lds	r30, 0x016D
    13d8:	e6 30       	cpi	r30, 0x06	; 6
    13da:	d1 f4       	brne	.+52     	; 0x1410
    13dc:	80 91 d9 00 	lds	r24, 0x00D9
    13e0:	e8 2f       	mov	r30, r24
    13e2:	ff 27       	eor	r31, r31
    13e4:	e7 fd       	sbrc	r30, 7
    13e6:	f0 95       	com	r31
    13e8:	ec 59       	subi	r30, 0x9C	; 156
    13ea:	ff 4f       	sbci	r31, 0xFF	; 255
    13ec:	80 81       	ld	r24, Z
    13ee:	0e 94 a3 09 	call	0x1346
    13f2:	80 91 d9 00 	lds	r24, 0x00D9
    13f6:	8f 5f       	subi	r24, 0xFF	; 255
    13f8:	80 93 d9 00 	sts	0x00D9, r24
    13fc:	8c 30       	cpi	r24, 0x0C	; 12
    13fe:	09 f0       	breq	.+2      	; 0x1402
    1400:	22 c2       	rjmp	.+1092   	; 0x1846
    1402:	83 e0       	ldi	r24, 0x03	; 3
    1404:	80 93 6d 01 	sts	0x016D, r24
    1408:	81 e0       	ldi	r24, 0x01	; 1
    140a:	80 93 d9 00 	sts	0x00D9, r24
    140e:	1b c2       	rjmp	.+1078   	; 0x1846
    1410:	e3 30       	cpi	r30, 0x03	; 3
    1412:	09 f0       	breq	.+2      	; 0x1416
    1414:	65 c0       	rjmp	.+202    	; 0x14e0
    1416:	80 91 6e 01 	lds	r24, 0x016E
    141a:	e8 2f       	mov	r30, r24
    141c:	ff 27       	eor	r31, r31
    141e:	e7 fd       	sbrc	r30, 7
    1420:	f0 95       	com	r31
    1422:	e0 53       	subi	r30, 0x30	; 48
    1424:	fe 4f       	sbci	r31, 0xFE	; 254
    1426:	80 81       	ld	r24, Z
    1428:	0e 94 a3 09 	call	0x1346
    142c:	90 91 6e 01 	lds	r25, 0x016E
    1430:	9f 5f       	subi	r25, 0xFF	; 255
    1432:	93 70       	andi	r25, 0x03	; 3
    1434:	90 93 6e 01 	sts	0x016E, r25
    1438:	80 91 76 01 	lds	r24, 0x0176
    143c:	81 50       	subi	r24, 0x01	; 1
    143e:	80 93 76 01 	sts	0x0176, r24
    1442:	82 30       	cpi	r24, 0x02	; 2
    1444:	0c f0       	brlt	.+2      	; 0x1448
    1446:	ff c1       	rjmp	.+1022   	; 0x1846
    1448:	80 91 d9 00 	lds	r24, 0x00D9
    144c:	84 32       	cpi	r24, 0x24	; 36
    144e:	0c f0       	brlt	.+2      	; 0x1452
    1450:	3c c0       	rjmp	.+120    	; 0x14ca
    1452:	99 27       	eor	r25, r25
    1454:	87 fd       	sbrc	r24, 7
    1456:	90 95       	com	r25
    1458:	e0 91 d5 01 	lds	r30, 0x01D5
    145c:	f0 91 d6 01 	lds	r31, 0x01D6
    1460:	e8 0f       	add	r30, r24
    1462:	f9 1f       	adc	r31, r25
    1464:	c0 81       	ld	r28, Z
    1466:	8c 2f       	mov	r24, r28
    1468:	0e 94 07 09 	call	0x120e
    146c:	30 91 d9 00 	lds	r19, 0x00D9
    1470:	3f 5f       	subi	r19, 0xFF	; 255
    1472:	30 93 d9 00 	sts	0x00D9, r19
    1476:	40 91 5a 01 	lds	r20, 0x015A
    147a:	43 17       	cp	r20, r19
    147c:	ac f0       	brlt	.+42     	; 0x14a8
    147e:	80 91 ce 00 	lds	r24, 0x00CE
    1482:	90 91 cf 00 	lds	r25, 0x00CF
    1486:	e0 e6       	ldi	r30, 0x60	; 96
    1488:	f0 e0       	ldi	r31, 0x00	; 0
    148a:	c9 27       	eor	r28, r25
    148c:	cc 0f       	add	r28, r28
    148e:	f1 1d       	adc	r31, r1
    1490:	ec 0f       	add	r30, r28
    1492:	f1 1d       	adc	r31, r1
    1494:	c8 95       	lpm
    1496:	98 2f       	mov	r25, r24
    1498:	80 2d       	mov	r24, r0
    149a:	31 96       	adiw	r30, 0x01	; 1
    149c:	c8 95       	lpm
    149e:	90 25       	eor	r25, r0
    14a0:	90 93 cf 00 	sts	0x00CF, r25
    14a4:	80 93 ce 00 	sts	0x00CE, r24
    14a8:	34 17       	cp	r19, r20
    14aa:	09 f0       	breq	.+2      	; 0x14ae
    14ac:	cc c1       	rjmp	.+920    	; 0x1846
    14ae:	82 e2       	ldi	r24, 0x22	; 34
    14b0:	80 93 d9 00 	sts	0x00D9, r24
    14b4:	e0 91 d5 01 	lds	r30, 0x01D5
    14b8:	f0 91 d6 01 	lds	r31, 0x01D6
    14bc:	80 91 ce 00 	lds	r24, 0x00CE
    14c0:	90 91 cf 00 	lds	r25, 0x00CF
    14c4:	82 a3       	std	Z+34, r24	; 0x22
    14c6:	93 a3       	std	Z+35, r25	; 0x23
    14c8:	be c1       	rjmp	.+892    	; 0x1846
    14ca:	80 91 38 01 	lds	r24, 0x0138
    14ce:	98 17       	cp	r25, r24
    14d0:	09 f0       	breq	.+2      	; 0x14d4
    14d2:	b9 c1       	rjmp	.+882    	; 0x1846
    14d4:	85 e0       	ldi	r24, 0x05	; 5
    14d6:	80 93 6d 01 	sts	0x016D, r24
    14da:	10 92 d9 00 	sts	0x00D9, r1
    14de:	b3 c1       	rjmp	.+870    	; 0x1846
    14e0:	e5 30       	cpi	r30, 0x05	; 5
    14e2:	e9 f4       	brne	.+58     	; 0x151e
    14e4:	80 91 d9 00 	lds	r24, 0x00D9
    14e8:	8f 5f       	subi	r24, 0xFF	; 255
    14ea:	80 93 d9 00 	sts	0x00D9, r24
    14ee:	83 30       	cpi	r24, 0x03	; 3
    14f0:	91 f4       	brne	.+36     	; 0x1516
    14f2:	84 e0       	ldi	r24, 0x04	; 4
    14f4:	80 93 6d 01 	sts	0x016D, r24
    14f8:	8f b7       	in	r24, 0x3f	; 63
    14fa:	f8 94       	cli
    14fc:	28 2f       	mov	r18, r24
    14fe:	33 27       	eor	r19, r19
    1500:	94 b5       	in	r25, 0x24	; 36
    1502:	95 31       	cpi	r25, 0x15	; 21
    1504:	08 f0       	brcs	.+2      	; 0x1508
    1506:	94 51       	subi	r25, 0x14	; 20
    1508:	94 bd       	out	0x24, r25	; 36
    150a:	2f bf       	out	0x3f, r18	; 63
    150c:	81 e0       	ldi	r24, 0x01	; 1
    150e:	80 93 d9 00 	sts	0x00D9, r24
    1512:	80 e0       	ldi	r24, 0x00	; 0
    1514:	01 c0       	rjmp	.+2      	; 0x1518
    1516:	8f ef       	ldi	r24, 0xFF	; 255
    1518:	0e 94 a3 09 	call	0x1346
    151c:	94 c1       	rjmp	.+808    	; 0x1846
    151e:	e4 30       	cpi	r30, 0x04	; 4
    1520:	39 f5       	brne	.+78     	; 0x1570
    1522:	cf 77       	andi	r28, 0x7F	; 127
    1524:	80 e0       	ldi	r24, 0x00	; 0
    1526:	0e 94 a3 09 	call	0x1346
    152a:	20 91 d9 00 	lds	r18, 0x00D9
    152e:	21 30       	cpi	r18, 0x01	; 1
    1530:	41 f4       	brne	.+16     	; 0x1542
    1532:	8f b7       	in	r24, 0x3f	; 63
    1534:	f8 94       	cli
    1536:	99 27       	eor	r25, r25
    1538:	c3 98       	cbi	0x18, 3	; 24
    153a:	bb 98       	cbi	0x17, 3	; 23
    153c:	97 9a       	sbi	0x12, 7	; 18
    153e:	96 9a       	sbi	0x12, 6	; 18
    1540:	8f bf       	out	0x3f, r24	; 63
    1542:	82 2f       	mov	r24, r18
    1544:	8f 5f       	subi	r24, 0xFF	; 255
    1546:	80 93 d9 00 	sts	0x00D9, r24
    154a:	86 30       	cpi	r24, 0x06	; 6
    154c:	09 f0       	breq	.+2      	; 0x1550
    154e:	7b c1       	rjmp	.+758    	; 0x1846
    1550:	e0 91 d5 01 	lds	r30, 0x01D5
    1554:	f0 91 d6 01 	lds	r31, 0x01D6
    1558:	80 e0       	ldi	r24, 0x00	; 0
    155a:	c5 35       	cpi	r28, 0x55	; 85
    155c:	09 f4       	brne	.+2      	; 0x1560
    155e:	81 e0       	ldi	r24, 0x01	; 1
    1560:	86 a3       	std	Z+38, r24	; 0x26
    1562:	10 92 6d 01 	sts	0x016D, r1
    1566:	0e 94 2a 0c 	call	0x1854
    156a:	8f ee       	ldi	r24, 0xEF	; 239
    156c:	90 e1       	ldi	r25, 0x10	; 16
    156e:	62 c1       	rjmp	.+708    	; 0x1834
    1570:	e2 30       	cpi	r30, 0x02	; 2
    1572:	09 f0       	breq	.+2      	; 0x1576
    1574:	4f c1       	rjmp	.+670    	; 0x1814
    1576:	8f b7       	in	r24, 0x3f	; 63
    1578:	f8 94       	cli
    157a:	18 2f       	mov	r17, r24
    157c:	50 91 51 01 	lds	r21, 0x0151
    1580:	55 23       	and	r21, r21
    1582:	31 f4       	brne	.+12     	; 0x1590
    1584:	83 e0       	ldi	r24, 0x03	; 3
    1586:	80 93 51 01 	sts	0x0151, r24
    158a:	c0 93 3b 01 	sts	0x013B, r28
    158e:	40 c1       	rjmp	.+640    	; 0x1810
    1590:	53 30       	cpi	r21, 0x03	; 3
    1592:	29 f4       	brne	.+10     	; 0x159e
    1594:	e0 93 51 01 	sts	0x0151, r30
    1598:	c0 93 e5 01 	sts	0x01E5, r28
    159c:	39 c1       	rjmp	.+626    	; 0x1810
    159e:	52 30       	cpi	r21, 0x02	; 2
    15a0:	09 f0       	breq	.+2      	; 0x15a4
    15a2:	36 c1       	rjmp	.+620    	; 0x1810
    15a4:	f1 e0       	ldi	r31, 0x01	; 1
    15a6:	f0 93 51 01 	sts	0x0151, r31
    15aa:	c0 93 e4 01 	sts	0x01E4, r28
    15ae:	60 e0       	ldi	r22, 0x00	; 0
    15b0:	70 e0       	ldi	r23, 0x00	; 0
    15b2:	8f b7       	in	r24, 0x3f	; 63
    15b4:	f8 94       	cli
    15b6:	99 27       	eor	r25, r25
    15b8:	40 91 3b 01 	lds	r20, 0x013B
    15bc:	20 91 e5 01 	lds	r18, 0x01E5
    15c0:	8f bf       	out	0x3f, r24	; 63
    15c2:	8c 2f       	mov	r24, r28
    15c4:	99 27       	eor	r25, r25
    15c6:	87 fd       	sbrc	r24, 7
    15c8:	90 95       	com	r25
    15ca:	80 fd       	sbrc	r24, 0
    15cc:	61 e0       	ldi	r22, 0x01	; 1
    15ce:	82 fd       	sbrc	r24, 2
    15d0:	62 60       	ori	r22, 0x02	; 2
    15d2:	84 fd       	sbrc	r24, 4
    15d4:	64 60       	ori	r22, 0x04	; 4
    15d6:	86 fd       	sbrc	r24, 6
    15d8:	68 60       	ori	r22, 0x08	; 8
    15da:	82 2f       	mov	r24, r18
    15dc:	99 27       	eor	r25, r25
    15de:	87 fd       	sbrc	r24, 7
    15e0:	90 95       	com	r25
    15e2:	80 fd       	sbrc	r24, 0
    15e4:	60 61       	ori	r22, 0x10	; 16
    15e6:	82 fd       	sbrc	r24, 2
    15e8:	60 62       	ori	r22, 0x20	; 32
    15ea:	84 fd       	sbrc	r24, 4
    15ec:	60 64       	ori	r22, 0x40	; 64
    15ee:	86 fd       	sbrc	r24, 6
    15f0:	60 68       	ori	r22, 0x80	; 128
    15f2:	24 2f       	mov	r18, r20
    15f4:	33 27       	eor	r19, r19
    15f6:	27 fd       	sbrc	r18, 7
    15f8:	30 95       	com	r19
    15fa:	93 2f       	mov	r25, r19
    15fc:	82 2f       	mov	r24, r18
    15fe:	88 71       	andi	r24, 0x18	; 24
    1600:	90 70       	andi	r25, 0x00	; 0
    1602:	95 95       	asr	r25
    1604:	87 95       	ror	r24
    1606:	43 70       	andi	r20, 0x03	; 3
    1608:	48 2b       	or	r20, r24
    160a:	20 74       	andi	r18, 0x40	; 64
    160c:	30 70       	andi	r19, 0x00	; 0
    160e:	35 95       	asr	r19
    1610:	27 95       	ror	r18
    1612:	35 95       	asr	r19
    1614:	27 95       	ror	r18
    1616:	42 2b       	or	r20, r18
    1618:	a5 e0       	ldi	r26, 0x05	; 5
    161a:	66 0f       	add	r22, r22
    161c:	77 1f       	adc	r23, r23
    161e:	aa 95       	dec	r26
    1620:	e1 f7       	brne	.-8      	; 0x161a
    1622:	84 2f       	mov	r24, r20
    1624:	99 27       	eor	r25, r25
    1626:	87 fd       	sbrc	r24, 7
    1628:	90 95       	com	r25
    162a:	68 2b       	or	r22, r24
    162c:	79 2b       	or	r23, r25
    162e:	40 e0       	ldi	r20, 0x00	; 0
    1630:	60 fd       	sbrc	r22, 0
    1632:	4f 2f       	mov	r20, r31
    1634:	61 fd       	sbrc	r22, 1
    1636:	45 27       	eor	r20, r21
    1638:	62 ff       	sbrs	r22, 2
    163a:	02 c0       	rjmp	.+4      	; 0x1640
    163c:	84 e0       	ldi	r24, 0x04	; 4
    163e:	48 27       	eor	r20, r24
    1640:	63 ff       	sbrs	r22, 3
    1642:	02 c0       	rjmp	.+4      	; 0x1648
    1644:	88 e0       	ldi	r24, 0x08	; 8
    1646:	48 27       	eor	r20, r24
    1648:	64 ff       	sbrs	r22, 4
    164a:	02 c0       	rjmp	.+4      	; 0x1650
    164c:	80 e1       	ldi	r24, 0x10	; 16
    164e:	48 27       	eor	r20, r24
    1650:	65 ff       	sbrs	r22, 5
    1652:	02 c0       	rjmp	.+4      	; 0x1658
    1654:	8f e1       	ldi	r24, 0x1F	; 31
    1656:	48 27       	eor	r20, r24
    1658:	66 ff       	sbrs	r22, 6
    165a:	02 c0       	rjmp	.+4      	; 0x1660
    165c:	8c e1       	ldi	r24, 0x1C	; 28
    165e:	48 27       	eor	r20, r24
    1660:	86 2f       	mov	r24, r22
    1662:	80 78       	andi	r24, 0x80	; 128
    1664:	11 f0       	breq	.+4      	; 0x166a
    1666:	8a e1       	ldi	r24, 0x1A	; 26
    1668:	48 27       	eor	r20, r24
    166a:	70 ff       	sbrs	r23, 0
    166c:	02 c0       	rjmp	.+4      	; 0x1672
    166e:	89 e1       	ldi	r24, 0x19	; 25
    1670:	48 27       	eor	r20, r24
    1672:	71 ff       	sbrs	r23, 1
    1674:	02 c0       	rjmp	.+4      	; 0x167a
    1676:	86 e1       	ldi	r24, 0x16	; 22
    1678:	48 27       	eor	r20, r24
    167a:	72 ff       	sbrs	r23, 2
    167c:	02 c0       	rjmp	.+4      	; 0x1682
    167e:	85 e1       	ldi	r24, 0x15	; 21
    1680:	48 27       	eor	r20, r24
    1682:	73 ff       	sbrs	r23, 3
    1684:	02 c0       	rjmp	.+4      	; 0x168a
    1686:	8b e0       	ldi	r24, 0x0B	; 11
    1688:	48 27       	eor	r20, r24
    168a:	74 ff       	sbrs	r23, 4
    168c:	02 c0       	rjmp	.+4      	; 0x1692
    168e:	87 e0       	ldi	r24, 0x07	; 7
    1690:	48 27       	eor	r20, r24
    1692:	44 23       	and	r20, r20
    1694:	09 f4       	brne	.+2      	; 0x1698
    1696:	42 c0       	rjmp	.+132    	; 0x171c
    1698:	41 30       	cpi	r20, 0x01	; 1
    169a:	19 f4       	brne	.+6      	; 0x16a2
    169c:	81 e0       	ldi	r24, 0x01	; 1
    169e:	90 e0       	ldi	r25, 0x00	; 0
    16a0:	3b c0       	rjmp	.+118    	; 0x1718
    16a2:	42 30       	cpi	r20, 0x02	; 2
    16a4:	19 f4       	brne	.+6      	; 0x16ac
    16a6:	82 e0       	ldi	r24, 0x02	; 2
    16a8:	90 e0       	ldi	r25, 0x00	; 0
    16aa:	36 c0       	rjmp	.+108    	; 0x1718
    16ac:	44 30       	cpi	r20, 0x04	; 4
    16ae:	19 f4       	brne	.+6      	; 0x16b6
    16b0:	84 e0       	ldi	r24, 0x04	; 4
    16b2:	90 e0       	ldi	r25, 0x00	; 0
    16b4:	31 c0       	rjmp	.+98     	; 0x1718
    16b6:	48 30       	cpi	r20, 0x08	; 8
    16b8:	19 f4       	brne	.+6      	; 0x16c0
    16ba:	88 e0       	ldi	r24, 0x08	; 8
    16bc:	90 e0       	ldi	r25, 0x00	; 0
    16be:	2c c0       	rjmp	.+88     	; 0x1718
    16c0:	40 31       	cpi	r20, 0x10	; 16
    16c2:	19 f4       	brne	.+6      	; 0x16ca
    16c4:	80 e1       	ldi	r24, 0x10	; 16
    16c6:	90 e0       	ldi	r25, 0x00	; 0
    16c8:	27 c0       	rjmp	.+78     	; 0x1718
    16ca:	4f 31       	cpi	r20, 0x1F	; 31
    16cc:	19 f4       	brne	.+6      	; 0x16d4
    16ce:	80 e2       	ldi	r24, 0x20	; 32
    16d0:	90 e0       	ldi	r25, 0x00	; 0
    16d2:	22 c0       	rjmp	.+68     	; 0x1718
    16d4:	4c 31       	cpi	r20, 0x1C	; 28
    16d6:	19 f4       	brne	.+6      	; 0x16de
    16d8:	80 e4       	ldi	r24, 0x40	; 64
    16da:	90 e0       	ldi	r25, 0x00	; 0
    16dc:	1d c0       	rjmp	.+58     	; 0x1718
    16de:	4a 31       	cpi	r20, 0x1A	; 26
    16e0:	19 f4       	brne	.+6      	; 0x16e8
    16e2:	80 e8       	ldi	r24, 0x80	; 128
    16e4:	90 e0       	ldi	r25, 0x00	; 0
    16e6:	18 c0       	rjmp	.+48     	; 0x1718
    16e8:	49 31       	cpi	r20, 0x19	; 25
    16ea:	19 f4       	brne	.+6      	; 0x16f2
    16ec:	80 e0       	ldi	r24, 0x00	; 0
    16ee:	91 e0       	ldi	r25, 0x01	; 1
    16f0:	13 c0       	rjmp	.+38     	; 0x1718
    16f2:	46 31       	cpi	r20, 0x16	; 22
    16f4:	19 f4       	brne	.+6      	; 0x16fc
    16f6:	80 e0       	ldi	r24, 0x00	; 0
    16f8:	92 e0       	ldi	r25, 0x02	; 2
    16fa:	0e c0       	rjmp	.+28     	; 0x1718
    16fc:	45 31       	cpi	r20, 0x15	; 21
    16fe:	19 f4       	brne	.+6      	; 0x1706
    1700:	80 e0       	ldi	r24, 0x00	; 0
    1702:	94 e0       	ldi	r25, 0x04	; 4
    1704:	09 c0       	rjmp	.+18     	; 0x1718
    1706:	4b 30       	cpi	r20, 0x0B	; 11
    1708:	19 f4       	brne	.+6      	; 0x1710
    170a:	80 e0       	ldi	r24, 0x00	; 0
    170c:	98 e0       	ldi	r25, 0x08	; 8
    170e:	04 c0       	rjmp	.+8      	; 0x1718
    1710:	47 30       	cpi	r20, 0x07	; 7
    1712:	21 f4       	brne	.+8      	; 0x171c
    1714:	80 e0       	ldi	r24, 0x00	; 0
    1716:	90 e1       	ldi	r25, 0x10	; 16
    1718:	68 27       	eor	r22, r24
    171a:	79 27       	eor	r23, r25
    171c:	8f b7       	in	r24, 0x3f	; 63
    171e:	f8 94       	cli
    1720:	99 27       	eor	r25, r25
    1722:	10 92 51 01 	sts	0x0151, r1
    1726:	8f bf       	out	0x3f, r24	; 63
    1728:	46 2f       	mov	r20, r22
    172a:	57 2f       	mov	r21, r23
    172c:	f5 e0       	ldi	r31, 0x05	; 5
    172e:	55 95       	asr	r21
    1730:	47 95       	ror	r20
    1732:	fa 95       	dec	r31
    1734:	e1 f7       	brne	.-8      	; 0x172e
    1736:	34 2f       	mov	r19, r20
    1738:	8f b7       	in	r24, 0x3f	; 63
    173a:	f8 94       	cli
    173c:	c8 2f       	mov	r28, r24
    173e:	ee 23       	and	r30, r30
    1740:	09 f4       	brne	.+2      	; 0x1744
    1742:	65 c0       	rjmp	.+202    	; 0x180e
    1744:	e2 30       	cpi	r30, 0x02	; 2
    1746:	09 f0       	breq	.+2      	; 0x174a
    1748:	62 c0       	rjmp	.+196    	; 0x180e
    174a:	80 91 72 00 	lds	r24, 0x0072
    174e:	99 27       	eor	r25, r25
    1750:	87 fd       	sbrc	r24, 7
    1752:	90 95       	com	r25
    1754:	e0 91 74 01 	lds	r30, 0x0174
    1758:	f0 91 75 01 	lds	r31, 0x0175
    175c:	e8 0f       	add	r30, r24
    175e:	f9 1f       	adc	r31, r25
    1760:	40 83       	st	Z, r20
    1762:	40 91 72 00 	lds	r20, 0x0072
    1766:	4f 5f       	subi	r20, 0xFF	; 255
    1768:	40 93 72 00 	sts	0x0072, r20
    176c:	44 32       	cpi	r20, 0x24	; 36
    176e:	3c f1       	brlt	.+78     	; 0x17be
    1770:	e0 91 74 01 	lds	r30, 0x0174
    1774:	f0 91 75 01 	lds	r31, 0x0175
    1778:	20 91 ce 00 	lds	r18, 0x00CE
    177c:	30 91 cf 00 	lds	r19, 0x00CF
    1780:	82 a1       	ldd	r24, Z+34	; 0x22
    1782:	93 a1       	ldd	r25, Z+35	; 0x23
    1784:	28 17       	cp	r18, r24
    1786:	39 07       	cpc	r19, r25
    1788:	a1 f4       	brne	.+40     	; 0x17b2
    178a:	81 e0       	ldi	r24, 0x01	; 1
    178c:	90 e0       	ldi	r25, 0x00	; 0
    178e:	82 a3       	std	Z+34, r24	; 0x22
    1790:	93 a3       	std	Z+35, r25	; 0x23
    1792:	20 81       	ld	r18, Z
    1794:	31 81       	ldd	r19, Z+1	; 0x01
    1796:	80 91 60 00 	lds	r24, 0x0060
    179a:	90 91 61 00 	lds	r25, 0x0061
    179e:	28 17       	cp	r18, r24
    17a0:	39 07       	cpc	r19, r25
    17a2:	19 f0       	breq	.+6      	; 0x17aa
    17a4:	2f 5f       	subi	r18, 0xFF	; 255
    17a6:	3f 4f       	sbci	r19, 0xFF	; 255
    17a8:	31 f4       	brne	.+12     	; 0x17b6
    17aa:	85 e5       	ldi	r24, 0x55	; 85
    17ac:	0e 94 a3 09 	call	0x1346
    17b0:	02 c0       	rjmp	.+4      	; 0x17b6
    17b2:	12 a2       	std	Z+34, r1	; 0x22
    17b4:	13 a2       	std	Z+35, r1	; 0x23
    17b6:	88 e0       	ldi	r24, 0x08	; 8
    17b8:	80 93 6d 01 	sts	0x016D, r24
    17bc:	28 c0       	rjmp	.+80     	; 0x180e
    17be:	43 32       	cpi	r20, 0x23	; 35
    17c0:	34 f5       	brge	.+76     	; 0x180e
    17c2:	80 91 ce 00 	lds	r24, 0x00CE
    17c6:	90 91 cf 00 	lds	r25, 0x00CF
    17ca:	e0 e6       	ldi	r30, 0x60	; 96
    17cc:	f0 e0       	ldi	r31, 0x00	; 0
    17ce:	23 2f       	mov	r18, r19
    17d0:	29 27       	eor	r18, r25
    17d2:	22 0f       	add	r18, r18
    17d4:	f1 1d       	adc	r31, r1
    17d6:	e2 0f       	add	r30, r18
    17d8:	f1 1d       	adc	r31, r1
    17da:	c8 95       	lpm
    17dc:	98 2f       	mov	r25, r24
    17de:	80 2d       	mov	r24, r0
    17e0:	31 96       	adiw	r30, 0x01	; 1
    17e2:	c8 95       	lpm
    17e4:	90 25       	eor	r25, r0
    17e6:	90 93 cf 00 	sts	0x00CF, r25
    17ea:	80 93 ce 00 	sts	0x00CE, r24
    17ee:	45 30       	cpi	r20, 0x05	; 5
    17f0:	29 f4       	brne	.+10     	; 0x17fc
    17f2:	3d 31       	cpi	r19, 0x1D	; 29
    17f4:	18 f4       	brcc	.+6      	; 0x17fc
    17f6:	3b 5f       	subi	r19, 0xFB	; 251
    17f8:	30 93 5a 01 	sts	0x015A, r19
    17fc:	90 91 72 00 	lds	r25, 0x0072
    1800:	80 91 5a 01 	lds	r24, 0x015A
    1804:	98 17       	cp	r25, r24
    1806:	19 f4       	brne	.+6      	; 0x180e
    1808:	82 e2       	ldi	r24, 0x22	; 34
    180a:	80 93 72 00 	sts	0x0072, r24
    180e:	cf bf       	out	0x3f, r28	; 63
    1810:	1f bf       	out	0x3f, r17	; 63
    1812:	19 c0       	rjmp	.+50     	; 0x1846
    1814:	e8 30       	cpi	r30, 0x08	; 8
    1816:	b9 f4       	brne	.+46     	; 0x1846
    1818:	80 91 35 01 	lds	r24, 0x0135
    181c:	8f 5f       	subi	r24, 0xFF	; 255
    181e:	80 93 35 01 	sts	0x0135, r24
    1822:	86 30       	cpi	r24, 0x06	; 6
    1824:	50 f0       	brcs	.+20     	; 0x183a
    1826:	87 e0       	ldi	r24, 0x07	; 7
    1828:	80 93 6d 01 	sts	0x016D, r24
    182c:	0e 94 2a 0c 	call	0x1854
    1830:	82 ed       	ldi	r24, 0xD2	; 210
    1832:	90 e1       	ldi	r25, 0x10	; 16
    1834:	0e 94 53 02 	call	0x4a6
    1838:	06 c0       	rjmp	.+12     	; 0x1846
    183a:	8f b7       	in	r24, 0x3f	; 63
    183c:	f8 94       	cli
    183e:	99 27       	eor	r25, r25
    1840:	97 98       	cbi	0x12, 7	; 18
    1842:	96 9a       	sbi	0x12, 6	; 18
    1844:	8f bf       	out	0x3f, r24	; 63
    1846:	0f bf       	out	0x3f, r16	; 63
    1848:	81 e0       	ldi	r24, 0x01	; 1
    184a:	90 e0       	ldi	r25, 0x00	; 0
    184c:	cf 91       	pop	r28
    184e:	1f 91       	pop	r17
    1850:	0f 91       	pop	r16
    1852:	08 95       	ret

00001854 <SpiByteFifoC$SpiByteFifo$idle>:
    1854:	1f 93       	push	r17
    1856:	cf 93       	push	r28
    1858:	8f b7       	in	r24, 0x3f	; 63
    185a:	f8 94       	cli
    185c:	18 2f       	mov	r17, r24
    185e:	1d b8       	out	0x0d, r1	; 13
    1860:	1f b8       	out	0x0f, r1	; 15
    1862:	15 bc       	out	0x25, r1	; 37
    1864:	10 92 e9 01 	sts	0x01E9, r1
    1868:	8f b7       	in	r24, 0x3f	; 63
    186a:	f8 94       	cli
    186c:	c8 2f       	mov	r28, r24
    186e:	80 91 71 01 	lds	r24, 0x0171
    1872:	8f 5f       	subi	r24, 0xFF	; 255
    1874:	80 93 71 01 	sts	0x0171, r24
    1878:	90 91 54 01 	lds	r25, 0x0154
    187c:	18 16       	cp	r1, r24
    187e:	4c f4       	brge	.+18     	; 0x1892
    1880:	15 9a       	sbi	0x02, 5	; 2
    1882:	1d 9a       	sbi	0x03, 5	; 3
    1884:	99 23       	and	r25, r25
    1886:	39 f0       	breq	.+14     	; 0x1896
    1888:	8b ec       	ldi	r24, 0xCB	; 203
    188a:	90 e1       	ldi	r25, 0x10	; 16
    188c:	0e 94 53 02 	call	0x4a6
    1890:	02 c0       	rjmp	.+4      	; 0x1896
    1892:	90 93 54 01 	sts	0x0154, r25
    1896:	cf bf       	out	0x3f, r28	; 63
    1898:	bb 9a       	sbi	0x17, 3	; 23
    189a:	c3 98       	cbi	0x18, 3	; 24
    189c:	97 98       	cbi	0x12, 7	; 18
    189e:	96 98       	cbi	0x12, 6	; 18
    18a0:	10 92 cb 00 	sts	0x00CB, r1
    18a4:	10 92 e9 01 	sts	0x01E9, r1
    18a8:	1f bf       	out	0x3f, r17	; 63
    18aa:	81 e0       	ldi	r24, 0x01	; 1
    18ac:	90 e0       	ldi	r25, 0x00	; 0
    18ae:	cf 91       	pop	r28
    18b0:	1f 91       	pop	r17
    18b2:	08 95       	ret

000018b4 <FramerM$ByteComm$rxByteReady>:
    18b4:	38 2f       	mov	r19, r24
    18b6:	80 91 cc 01 	lds	r24, 0x01CC
    18ba:	99 27       	eor	r25, r25
    18bc:	82 30       	cpi	r24, 0x02	; 2
    18be:	91 05       	cpc	r25, r1
    18c0:	09 f4       	brne	.+2      	; 0x18c4
    18c2:	6d c0       	rjmp	.+218    	; 0x199e
    18c4:	83 30       	cpi	r24, 0x03	; 3
    18c6:	91 05       	cpc	r25, r1
    18c8:	2c f4       	brge	.+10     	; 0x18d4
    18ca:	00 97       	sbiw	r24, 0x00	; 0
    18cc:	59 f0       	breq	.+22     	; 0x18e4
    18ce:	01 97       	sbiw	r24, 0x01	; 1
    18d0:	89 f1       	breq	.+98     	; 0x1934
    18d2:	c0 c1       	rjmp	.+896    	; 0x1c54
    18d4:	83 30       	cpi	r24, 0x03	; 3
    18d6:	91 05       	cpc	r25, r1
    18d8:	09 f4       	brne	.+2      	; 0x18dc
    18da:	a0 c0       	rjmp	.+320    	; 0x1a1c
    18dc:	04 97       	sbiw	r24, 0x04	; 4
    18de:	09 f4       	brne	.+2      	; 0x18e2
    18e0:	61 c1       	rjmp	.+706    	; 0x1ba4
    18e2:	b8 c1       	rjmp	.+880    	; 0x1c54
    18e4:	3e 37       	cpi	r19, 0x7E	; 126
    18e6:	09 f0       	breq	.+2      	; 0x18ea
    18e8:	b7 c1       	rjmp	.+878    	; 0x1c58
    18ea:	80 91 af 01 	lds	r24, 0x01AF
    18ee:	99 27       	eor	r25, r25
    18f0:	f9 2f       	mov	r31, r25
    18f2:	e8 2f       	mov	r30, r24
    18f4:	ee 0f       	add	r30, r30
    18f6:	ff 1f       	adc	r31, r31
    18f8:	ee 0f       	add	r30, r30
    18fa:	ff 1f       	adc	r31, r31
    18fc:	e8 0f       	add	r30, r24
    18fe:	f9 1f       	adc	r31, r25
    1900:	e8 0f       	add	r30, r24
    1902:	f9 1f       	adc	r31, r25
    1904:	e9 54       	subi	r30, 0x49	; 73
    1906:	fe 4f       	sbci	r31, 0xFE	; 254
    1908:	82 81       	ldd	r24, Z+2	; 0x02
    190a:	93 81       	ldd	r25, Z+3	; 0x03
    190c:	00 97       	sbiw	r24, 0x00	; 0
    190e:	09 f0       	breq	.+2      	; 0x1912
    1910:	a3 c1       	rjmp	.+838    	; 0x1c58
    1912:	11 82       	std	Z+1, r1	; 0x01
    1914:	90 93 50 01 	sts	0x0150, r25
    1918:	80 93 4f 01 	sts	0x014F, r24
    191c:	90 93 31 01 	sts	0x0131, r25
    1920:	80 93 30 01 	sts	0x0130, r24
    1924:	84 81       	ldd	r24, Z+4	; 0x04
    1926:	95 81       	ldd	r25, Z+5	; 0x05
    1928:	90 93 c8 01 	sts	0x01C8, r25
    192c:	80 93 c7 01 	sts	0x01C7, r24
    1930:	81 e0       	ldi	r24, 0x01	; 1
    1932:	8d c1       	rjmp	.+794    	; 0x1c4e
    1934:	3e 37       	cpi	r19, 0x7E	; 126
    1936:	09 f4       	brne	.+2      	; 0x193a
    1938:	8f c1       	rjmp	.+798    	; 0x1c58
    193a:	80 91 af 01 	lds	r24, 0x01AF
    193e:	99 27       	eor	r25, r25
    1940:	f9 2f       	mov	r31, r25
    1942:	e8 2f       	mov	r30, r24
    1944:	ee 0f       	add	r30, r30
    1946:	ff 1f       	adc	r31, r31
    1948:	ee 0f       	add	r30, r30
    194a:	ff 1f       	adc	r31, r31
    194c:	e8 0f       	add	r30, r24
    194e:	f9 1f       	adc	r31, r25
    1950:	e8 0f       	add	r30, r24
    1952:	f9 1f       	adc	r31, r25
    1954:	e9 54       	subi	r30, 0x49	; 73
    1956:	fe 4f       	sbci	r31, 0xFE	; 254
    1958:	30 83       	st	Z, r19
    195a:	80 91 4f 01 	lds	r24, 0x014F
    195e:	90 91 50 01 	lds	r25, 0x0150
    1962:	e0 e6       	ldi	r30, 0x60	; 96
    1964:	f0 e0       	ldi	r31, 0x00	; 0
    1966:	23 2f       	mov	r18, r19
    1968:	29 27       	eor	r18, r25
    196a:	22 0f       	add	r18, r18
    196c:	f1 1d       	adc	r31, r1
    196e:	e2 0f       	add	r30, r18
    1970:	f1 1d       	adc	r31, r1
    1972:	c8 95       	lpm
    1974:	98 2f       	mov	r25, r24
    1976:	80 2d       	mov	r24, r0
    1978:	31 96       	adiw	r30, 0x01	; 1
    197a:	c8 95       	lpm
    197c:	90 25       	eor	r25, r0
    197e:	90 93 50 01 	sts	0x0150, r25
    1982:	80 93 4f 01 	sts	0x014F, r24
    1986:	83 2f       	mov	r24, r19
    1988:	99 27       	eor	r25, r25
    198a:	81 34       	cpi	r24, 0x41	; 65
    198c:	91 05       	cpc	r25, r1
    198e:	29 f0       	breq	.+10     	; 0x199a
    1990:	82 34       	cpi	r24, 0x42	; 66
    1992:	91 05       	cpc	r25, r1
    1994:	09 f4       	brne	.+2      	; 0x1998
    1996:	5a c1       	rjmp	.+692    	; 0x1c4c
    1998:	5d c1       	rjmp	.+698    	; 0x1c54
    199a:	82 e0       	ldi	r24, 0x02	; 2
    199c:	58 c1       	rjmp	.+688    	; 0x1c4e
    199e:	3e 37       	cpi	r19, 0x7E	; 126
    19a0:	09 f4       	brne	.+2      	; 0x19a4
    19a2:	58 c1       	rjmp	.+688    	; 0x1c54
    19a4:	60 91 af 01 	lds	r22, 0x01AF
    19a8:	3d 37       	cpi	r19, 0x7D	; 125
    19aa:	89 f4       	brne	.+34     	; 0x19ce
    19ac:	86 2f       	mov	r24, r22
    19ae:	99 27       	eor	r25, r25
    19b0:	f9 2f       	mov	r31, r25
    19b2:	e8 2f       	mov	r30, r24
    19b4:	ee 0f       	add	r30, r30
    19b6:	ff 1f       	adc	r31, r31
    19b8:	ee 0f       	add	r30, r30
    19ba:	ff 1f       	adc	r31, r31
    19bc:	e8 0f       	add	r30, r24
    19be:	f9 1f       	adc	r31, r25
    19c0:	e8 0f       	add	r30, r24
    19c2:	f9 1f       	adc	r31, r25
    19c4:	e9 54       	subi	r30, 0x49	; 73
    19c6:	fe 4f       	sbci	r31, 0xFE	; 254
    19c8:	80 e2       	ldi	r24, 0x20	; 32
    19ca:	81 83       	std	Z+1, r24	; 0x01
    19cc:	45 c1       	rjmp	.+650    	; 0x1c58
    19ce:	86 2f       	mov	r24, r22
    19d0:	99 27       	eor	r25, r25
    19d2:	f9 2f       	mov	r31, r25
    19d4:	e8 2f       	mov	r30, r24
    19d6:	ee 0f       	add	r30, r30
    19d8:	ff 1f       	adc	r31, r31
    19da:	ee 0f       	add	r30, r30
    19dc:	ff 1f       	adc	r31, r31
    19de:	e8 0f       	add	r30, r24
    19e0:	f9 1f       	adc	r31, r25
    19e2:	e8 0f       	add	r30, r24
    19e4:	f9 1f       	adc	r31, r25
    19e6:	e9 54       	subi	r30, 0x49	; 73
    19e8:	fe 4f       	sbci	r31, 0xFE	; 254
    19ea:	21 81       	ldd	r18, Z+1	; 0x01
    19ec:	23 27       	eor	r18, r19
    19ee:	21 83       	std	Z+1, r18	; 0x01
    19f0:	80 91 4f 01 	lds	r24, 0x014F
    19f4:	90 91 50 01 	lds	r25, 0x0150
    19f8:	e0 e6       	ldi	r30, 0x60	; 96
    19fa:	f0 e0       	ldi	r31, 0x00	; 0
    19fc:	29 27       	eor	r18, r25
    19fe:	22 0f       	add	r18, r18
    1a00:	f1 1d       	adc	r31, r1
    1a02:	e2 0f       	add	r30, r18
    1a04:	f1 1d       	adc	r31, r1
    1a06:	c8 95       	lpm
    1a08:	98 2f       	mov	r25, r24
    1a0a:	80 2d       	mov	r24, r0
    1a0c:	31 96       	adiw	r30, 0x01	; 1
    1a0e:	c8 95       	lpm
    1a10:	90 25       	eor	r25, r0
    1a12:	90 93 50 01 	sts	0x0150, r25
    1a16:	80 93 4f 01 	sts	0x014F, r24
    1a1a:	18 c1       	rjmp	.+560    	; 0x1c4c
    1a1c:	40 91 30 01 	lds	r20, 0x0130
    1a20:	50 91 31 01 	lds	r21, 0x0131
    1a24:	4c 32       	cpi	r20, 0x2C	; 44
    1a26:	51 05       	cpc	r21, r1
    1a28:	08 f0       	brcs	.+2      	; 0x1a2c
    1a2a:	be c0       	rjmp	.+380    	; 0x1ba8
    1a2c:	3d 37       	cpi	r19, 0x7D	; 125
    1a2e:	11 f4       	brne	.+4      	; 0x1a34
    1a30:	84 e0       	ldi	r24, 0x04	; 4
    1a32:	0d c1       	rjmp	.+538    	; 0x1c4e
    1a34:	3e 37       	cpi	r19, 0x7E	; 126
    1a36:	09 f0       	breq	.+2      	; 0x1a3a
    1a38:	83 c0       	rjmp	.+262    	; 0x1b40
    1a3a:	42 30       	cpi	r20, 0x02	; 2
    1a3c:	51 05       	cpc	r21, r1
    1a3e:	08 f4       	brcc	.+2      	; 0x1a42
    1a40:	62 c0       	rjmp	.+196    	; 0x1b06
    1a42:	e0 91 c7 01 	lds	r30, 0x01C7
    1a46:	f0 91 c8 01 	lds	r31, 0x01C8
    1a4a:	e4 0f       	add	r30, r20
    1a4c:	f5 1f       	adc	r31, r21
    1a4e:	82 91       	ld	r24, -Z
    1a50:	99 27       	eor	r25, r25
    1a52:	38 2f       	mov	r19, r24
    1a54:	22 27       	eor	r18, r18
    1a56:	82 91       	ld	r24, -Z
    1a58:	99 27       	eor	r25, r25
    1a5a:	28 2b       	or	r18, r24
    1a5c:	39 2b       	or	r19, r25
    1a5e:	80 91 4f 01 	lds	r24, 0x014F
    1a62:	90 91 50 01 	lds	r25, 0x0150
    1a66:	60 91 af 01 	lds	r22, 0x01AF
    1a6a:	28 17       	cp	r18, r24
    1a6c:	39 07       	cpc	r19, r25
    1a6e:	e9 f4       	brne	.+58     	; 0x1aaa
    1a70:	86 2f       	mov	r24, r22
    1a72:	99 27       	eor	r25, r25
    1a74:	f9 2f       	mov	r31, r25
    1a76:	e8 2f       	mov	r30, r24
    1a78:	ee 0f       	add	r30, r30
    1a7a:	ff 1f       	adc	r31, r31
    1a7c:	ee 0f       	add	r30, r30
    1a7e:	ff 1f       	adc	r31, r31
    1a80:	e8 0f       	add	r30, r24
    1a82:	f9 1f       	adc	r31, r25
    1a84:	e8 0f       	add	r30, r24
    1a86:	f9 1f       	adc	r31, r25
    1a88:	e9 54       	subi	r30, 0x49	; 73
    1a8a:	fe 4f       	sbci	r31, 0xFE	; 254
    1a8c:	42 50       	subi	r20, 0x02	; 2
    1a8e:	50 40       	sbci	r21, 0x00	; 0
    1a90:	42 83       	std	Z+2, r20	; 0x02
    1a92:	53 83       	std	Z+3, r21	; 0x03
    1a94:	87 e0       	ldi	r24, 0x07	; 7
    1a96:	91 e1       	ldi	r25, 0x11	; 17
    1a98:	0e 94 53 02 	call	0x4a6
    1a9c:	80 91 af 01 	lds	r24, 0x01AF
    1aa0:	8f 5f       	subi	r24, 0xFF	; 255
    1aa2:	81 70       	andi	r24, 0x01	; 1
    1aa4:	80 93 af 01 	sts	0x01AF, r24
    1aa8:	11 c0       	rjmp	.+34     	; 0x1acc
    1aaa:	86 2f       	mov	r24, r22
    1aac:	99 27       	eor	r25, r25
    1aae:	f9 2f       	mov	r31, r25
    1ab0:	e8 2f       	mov	r30, r24
    1ab2:	ee 0f       	add	r30, r30
    1ab4:	ff 1f       	adc	r31, r31
    1ab6:	ee 0f       	add	r30, r30
    1ab8:	ff 1f       	adc	r31, r31
    1aba:	e8 0f       	add	r30, r24
    1abc:	f9 1f       	adc	r31, r25
    1abe:	e8 0f       	add	r30, r24
    1ac0:	f9 1f       	adc	r31, r25
    1ac2:	e9 54       	subi	r30, 0x49	; 73
    1ac4:	fe 4f       	sbci	r31, 0xFE	; 254
    1ac6:	12 82       	std	Z+2, r1	; 0x02
    1ac8:	13 82       	std	Z+3, r1	; 0x03
    1aca:	11 82       	std	Z+1, r1	; 0x01
    1acc:	80 91 af 01 	lds	r24, 0x01AF
    1ad0:	99 27       	eor	r25, r25
    1ad2:	f9 2f       	mov	r31, r25
    1ad4:	e8 2f       	mov	r30, r24
    1ad6:	ee 0f       	add	r30, r30
    1ad8:	ff 1f       	adc	r31, r31
    1ada:	ee 0f       	add	r30, r30
    1adc:	ff 1f       	adc	r31, r31
    1ade:	e8 0f       	add	r30, r24
    1ae0:	f9 1f       	adc	r31, r25
    1ae2:	e8 0f       	add	r30, r24
    1ae4:	f9 1f       	adc	r31, r25
    1ae6:	e9 54       	subi	r30, 0x49	; 73
    1ae8:	fe 4f       	sbci	r31, 0xFE	; 254
    1aea:	82 81       	ldd	r24, Z+2	; 0x02
    1aec:	93 81       	ldd	r25, Z+3	; 0x03
    1aee:	89 2b       	or	r24, r25
    1af0:	e1 f4       	brne	.+56     	; 0x1b2a
    1af2:	84 81       	ldd	r24, Z+4	; 0x04
    1af4:	95 81       	ldd	r25, Z+5	; 0x05
    1af6:	90 93 c8 01 	sts	0x01C8, r25
    1afa:	80 93 c7 01 	sts	0x01C7, r24
    1afe:	81 e0       	ldi	r24, 0x01	; 1
    1b00:	80 93 cc 01 	sts	0x01CC, r24
    1b04:	14 c0       	rjmp	.+40     	; 0x1b2e
    1b06:	80 91 af 01 	lds	r24, 0x01AF
    1b0a:	99 27       	eor	r25, r25
    1b0c:	f9 2f       	mov	r31, r25
    1b0e:	e8 2f       	mov	r30, r24
    1b10:	ee 0f       	add	r30, r30
    1b12:	ff 1f       	adc	r31, r31
    1b14:	ee 0f       	add	r30, r30
    1b16:	ff 1f       	adc	r31, r31
    1b18:	e8 0f       	add	r30, r24
    1b1a:	f9 1f       	adc	r31, r25
    1b1c:	e8 0f       	add	r30, r24
    1b1e:	f9 1f       	adc	r31, r25
    1b20:	e9 54       	subi	r30, 0x49	; 73
    1b22:	fe 4f       	sbci	r31, 0xFE	; 254
    1b24:	12 82       	std	Z+2, r1	; 0x02
    1b26:	13 82       	std	Z+3, r1	; 0x03
    1b28:	11 82       	std	Z+1, r1	; 0x01
    1b2a:	10 92 cc 01 	sts	0x01CC, r1
    1b2e:	10 92 50 01 	sts	0x0150, r1
    1b32:	10 92 4f 01 	sts	0x014F, r1
    1b36:	10 92 31 01 	sts	0x0131, r1
    1b3a:	10 92 30 01 	sts	0x0130, r1
    1b3e:	8c c0       	rjmp	.+280    	; 0x1c58
    1b40:	e0 91 c7 01 	lds	r30, 0x01C7
    1b44:	f0 91 c8 01 	lds	r31, 0x01C8
    1b48:	e4 0f       	add	r30, r20
    1b4a:	f5 1f       	adc	r31, r21
    1b4c:	30 83       	st	Z, r19
    1b4e:	40 91 30 01 	lds	r20, 0x0130
    1b52:	50 91 31 01 	lds	r21, 0x0131
    1b56:	42 30       	cpi	r20, 0x02	; 2
    1b58:	51 05       	cpc	r21, r1
    1b5a:	e8 f0       	brcs	.+58     	; 0x1b96
    1b5c:	20 91 4f 01 	lds	r18, 0x014F
    1b60:	30 91 50 01 	lds	r19, 0x0150
    1b64:	e0 91 c7 01 	lds	r30, 0x01C7
    1b68:	f0 91 c8 01 	lds	r31, 0x01C8
    1b6c:	e4 0f       	add	r30, r20
    1b6e:	f5 1f       	adc	r31, r21
    1b70:	32 97       	sbiw	r30, 0x02	; 2
    1b72:	80 81       	ld	r24, Z
    1b74:	e0 e6       	ldi	r30, 0x60	; 96
    1b76:	f0 e0       	ldi	r31, 0x00	; 0
    1b78:	83 27       	eor	r24, r19
    1b7a:	88 0f       	add	r24, r24
    1b7c:	f1 1d       	adc	r31, r1
    1b7e:	e8 0f       	add	r30, r24
    1b80:	f1 1d       	adc	r31, r1
    1b82:	c8 95       	lpm
    1b84:	32 2f       	mov	r19, r18
    1b86:	20 2d       	mov	r18, r0
    1b88:	31 96       	adiw	r30, 0x01	; 1
    1b8a:	c8 95       	lpm
    1b8c:	30 25       	eor	r19, r0
    1b8e:	30 93 50 01 	sts	0x0150, r19
    1b92:	20 93 4f 01 	sts	0x014F, r18
    1b96:	4f 5f       	subi	r20, 0xFF	; 255
    1b98:	5f 4f       	sbci	r21, 0xFF	; 255
    1b9a:	50 93 31 01 	sts	0x0131, r21
    1b9e:	40 93 30 01 	sts	0x0130, r20
    1ba2:	5a c0       	rjmp	.+180    	; 0x1c58
    1ba4:	3e 37       	cpi	r19, 0x7E	; 126
    1ba6:	d9 f4       	brne	.+54     	; 0x1bde
    1ba8:	10 92 50 01 	sts	0x0150, r1
    1bac:	10 92 4f 01 	sts	0x014F, r1
    1bb0:	10 92 31 01 	sts	0x0131, r1
    1bb4:	10 92 30 01 	sts	0x0130, r1
    1bb8:	80 91 af 01 	lds	r24, 0x01AF
    1bbc:	99 27       	eor	r25, r25
    1bbe:	f9 2f       	mov	r31, r25
    1bc0:	e8 2f       	mov	r30, r24
    1bc2:	ee 0f       	add	r30, r30
    1bc4:	ff 1f       	adc	r31, r31
    1bc6:	ee 0f       	add	r30, r30
    1bc8:	ff 1f       	adc	r31, r31
    1bca:	e8 0f       	add	r30, r24
    1bcc:	f9 1f       	adc	r31, r25
    1bce:	e8 0f       	add	r30, r24
    1bd0:	f9 1f       	adc	r31, r25
    1bd2:	e9 54       	subi	r30, 0x49	; 73
    1bd4:	fe 4f       	sbci	r31, 0xFE	; 254
    1bd6:	12 82       	std	Z+2, r1	; 0x02
    1bd8:	13 82       	std	Z+3, r1	; 0x03
    1bda:	11 82       	std	Z+1, r1	; 0x01
    1bdc:	3b c0       	rjmp	.+118    	; 0x1c54
    1bde:	80 e2       	ldi	r24, 0x20	; 32
    1be0:	83 27       	eor	r24, r19
    1be2:	e0 91 c7 01 	lds	r30, 0x01C7
    1be6:	f0 91 c8 01 	lds	r31, 0x01C8
    1bea:	20 91 30 01 	lds	r18, 0x0130
    1bee:	30 91 31 01 	lds	r19, 0x0131
    1bf2:	e2 0f       	add	r30, r18
    1bf4:	f3 1f       	adc	r31, r19
    1bf6:	80 83       	st	Z, r24
    1bf8:	40 91 30 01 	lds	r20, 0x0130
    1bfc:	50 91 31 01 	lds	r21, 0x0131
    1c00:	42 30       	cpi	r20, 0x02	; 2
    1c02:	51 05       	cpc	r21, r1
    1c04:	e8 f0       	brcs	.+58     	; 0x1c40
    1c06:	20 91 4f 01 	lds	r18, 0x014F
    1c0a:	30 91 50 01 	lds	r19, 0x0150
    1c0e:	e0 91 c7 01 	lds	r30, 0x01C7
    1c12:	f0 91 c8 01 	lds	r31, 0x01C8
    1c16:	e4 0f       	add	r30, r20
    1c18:	f5 1f       	adc	r31, r21
    1c1a:	32 97       	sbiw	r30, 0x02	; 2
    1c1c:	80 81       	ld	r24, Z
    1c1e:	e0 e6       	ldi	r30, 0x60	; 96
    1c20:	f0 e0       	ldi	r31, 0x00	; 0
    1c22:	83 27       	eor	r24, r19
    1c24:	88 0f       	add	r24, r24
    1c26:	f1 1d       	adc	r31, r1
    1c28:	e8 0f       	add	r30, r24
    1c2a:	f1 1d       	adc	r31, r1
    1c2c:	c8 95       	lpm
    1c2e:	32 2f       	mov	r19, r18
    1c30:	20 2d       	mov	r18, r0
    1c32:	31 96       	adiw	r30, 0x01	; 1
    1c34:	c8 95       	lpm
    1c36:	30 25       	eor	r19, r0
    1c38:	30 93 50 01 	sts	0x0150, r19
    1c3c:	20 93 4f 01 	sts	0x014F, r18
    1c40:	4f 5f       	subi	r20, 0xFF	; 255
    1c42:	5f 4f       	sbci	r21, 0xFF	; 255
    1c44:	50 93 31 01 	sts	0x0131, r21
    1c48:	40 93 30 01 	sts	0x0130, r20
    1c4c:	83 e0       	ldi	r24, 0x03	; 3
    1c4e:	80 93 cc 01 	sts	0x01CC, r24
    1c52:	02 c0       	rjmp	.+4      	; 0x1c58
    1c54:	10 92 cc 01 	sts	0x01CC, r1
    1c58:	81 e0       	ldi	r24, 0x01	; 1
    1c5a:	90 e0       	ldi	r25, 0x00	; 0
    1c5c:	08 95       	ret

00001c5e <UARTM$HPLUART$putDone>:
    1c5e:	8f b7       	in	r24, 0x3f	; 63
    1c60:	f8 94       	cli
    1c62:	99 27       	eor	r25, r25
    1c64:	20 91 83 01 	lds	r18, 0x0183
    1c68:	10 92 83 01 	sts	0x0183, r1
    1c6c:	8f bf       	out	0x3f, r24	; 63
    1c6e:	22 23       	and	r18, r18
    1c70:	09 f4       	brne	.+2      	; 0x1c74
    1c72:	a4 c0       	rjmp	.+328    	; 0x1dbc
    1c74:	80 91 cd 01 	lds	r24, 0x01CD
    1c78:	87 30       	cpi	r24, 0x07	; 7
    1c7a:	31 f4       	brne	.+12     	; 0x1c88
    1c7c:	10 92 cd 01 	sts	0x01CD, r1
    1c80:	87 ed       	ldi	r24, 0xD7	; 215
    1c82:	96 e0       	ldi	r25, 0x06	; 6
    1c84:	0e 94 53 02 	call	0x4a6
    1c88:	21 e0       	ldi	r18, 0x01	; 1
    1c8a:	80 91 cd 01 	lds	r24, 0x01CD
    1c8e:	99 27       	eor	r25, r25
    1c90:	84 30       	cpi	r24, 0x04	; 4
    1c92:	91 05       	cpc	r25, r1
    1c94:	09 f4       	brne	.+2      	; 0x1c98
    1c96:	6e c0       	rjmp	.+220    	; 0x1d74
    1c98:	85 30       	cpi	r24, 0x05	; 5
    1c9a:	91 05       	cpc	r25, r1
    1c9c:	54 f4       	brge	.+20     	; 0x1cb2
    1c9e:	82 30       	cpi	r24, 0x02	; 2
    1ca0:	91 05       	cpc	r25, r1
    1ca2:	61 f1       	breq	.+88     	; 0x1cfc
    1ca4:	83 30       	cpi	r24, 0x03	; 3
    1ca6:	91 05       	cpc	r25, r1
    1ca8:	0c f0       	brlt	.+2      	; 0x1cac
    1caa:	58 c0       	rjmp	.+176    	; 0x1d5c
    1cac:	01 97       	sbiw	r24, 0x01	; 1
    1cae:	49 f0       	breq	.+18     	; 0x1cc2
    1cb0:	7c c0       	rjmp	.+248    	; 0x1daa
    1cb2:	86 30       	cpi	r24, 0x06	; 6
    1cb4:	91 05       	cpc	r25, r1
    1cb6:	09 f4       	brne	.+2      	; 0x1cba
    1cb8:	71 c0       	rjmp	.+226    	; 0x1d9c
    1cba:	06 97       	sbiw	r24, 0x06	; 6
    1cbc:	0c f4       	brge	.+2      	; 0x1cc0
    1cbe:	63 c0       	rjmp	.+198    	; 0x1d86
    1cc0:	74 c0       	rjmp	.+232    	; 0x1daa
    1cc2:	82 e0       	ldi	r24, 0x02	; 2
    1cc4:	80 93 cd 01 	sts	0x01CD, r24
    1cc8:	20 91 70 00 	lds	r18, 0x0070
    1ccc:	30 91 71 00 	lds	r19, 0x0071
    1cd0:	80 91 cd 00 	lds	r24, 0x00CD
    1cd4:	e0 e6       	ldi	r30, 0x60	; 96
    1cd6:	f0 e0       	ldi	r31, 0x00	; 0
    1cd8:	83 27       	eor	r24, r19
    1cda:	88 0f       	add	r24, r24
    1cdc:	f1 1d       	adc	r31, r1
    1cde:	e8 0f       	add	r30, r24
    1ce0:	f1 1d       	adc	r31, r1
    1ce2:	c8 95       	lpm
    1ce4:	32 2f       	mov	r19, r18
    1ce6:	20 2d       	mov	r18, r0
    1ce8:	31 96       	adiw	r30, 0x01	; 1
    1cea:	c8 95       	lpm
    1cec:	30 25       	eor	r19, r0
    1cee:	30 93 71 00 	sts	0x0071, r19
    1cf2:	20 93 70 00 	sts	0x0070, r18
    1cf6:	80 91 cd 00 	lds	r24, 0x00CD
    1cfa:	54 c0       	rjmp	.+168    	; 0x1da4
    1cfc:	e0 91 52 01 	lds	r30, 0x0152
    1d00:	f0 91 53 01 	lds	r31, 0x0153
    1d04:	20 91 6f 01 	lds	r18, 0x016F
    1d08:	30 91 70 01 	lds	r19, 0x0170
    1d0c:	e2 0f       	add	r30, r18
    1d0e:	f3 1f       	adc	r31, r19
    1d10:	50 81       	ld	r21, Z
    1d12:	80 91 70 00 	lds	r24, 0x0070
    1d16:	90 91 71 00 	lds	r25, 0x0071
    1d1a:	e0 e6       	ldi	r30, 0x60	; 96
    1d1c:	f0 e0       	ldi	r31, 0x00	; 0
    1d1e:	45 2f       	mov	r20, r21
    1d20:	49 27       	eor	r20, r25
    1d22:	44 0f       	add	r20, r20
    1d24:	f1 1d       	adc	r31, r1
    1d26:	e4 0f       	add	r30, r20
    1d28:	f1 1d       	adc	r31, r1
    1d2a:	c8 95       	lpm
    1d2c:	98 2f       	mov	r25, r24
    1d2e:	80 2d       	mov	r24, r0
    1d30:	31 96       	adiw	r30, 0x01	; 1
    1d32:	c8 95       	lpm
    1d34:	90 25       	eor	r25, r0
    1d36:	90 93 71 00 	sts	0x0071, r25
    1d3a:	80 93 70 00 	sts	0x0070, r24
    1d3e:	2f 5f       	subi	r18, 0xFF	; 255
    1d40:	3f 4f       	sbci	r19, 0xFF	; 255
    1d42:	30 93 70 01 	sts	0x0170, r19
    1d46:	20 93 6f 01 	sts	0x016F, r18
    1d4a:	80 91 d4 00 	lds	r24, 0x00D4
    1d4e:	90 91 d5 00 	lds	r25, 0x00D5
    1d52:	28 17       	cp	r18, r24
    1d54:	39 07       	cpc	r19, r25
    1d56:	98 f0       	brcs	.+38     	; 0x1d7e
    1d58:	84 e0       	ldi	r24, 0x04	; 4
    1d5a:	0f c0       	rjmp	.+30     	; 0x1d7a
    1d5c:	80 91 dd 01 	lds	r24, 0x01DD
    1d60:	90 e2       	ldi	r25, 0x20	; 32
    1d62:	89 27       	eor	r24, r25
    1d64:	0e 94 c2 06 	call	0xd84
    1d68:	28 2f       	mov	r18, r24
    1d6a:	80 91 c5 01 	lds	r24, 0x01C5
    1d6e:	80 93 cd 01 	sts	0x01CD, r24
    1d72:	1b c0       	rjmp	.+54     	; 0x1daa
    1d74:	50 91 70 00 	lds	r21, 0x0070
    1d78:	85 e0       	ldi	r24, 0x05	; 5
    1d7a:	80 93 cd 01 	sts	0x01CD, r24
    1d7e:	85 2f       	mov	r24, r21
    1d80:	0e 94 e1 0e 	call	0x1dc2
    1d84:	11 c0       	rjmp	.+34     	; 0x1da8
    1d86:	80 91 70 00 	lds	r24, 0x0070
    1d8a:	90 91 71 00 	lds	r25, 0x0071
    1d8e:	29 2f       	mov	r18, r25
    1d90:	33 27       	eor	r19, r19
    1d92:	86 e0       	ldi	r24, 0x06	; 6
    1d94:	80 93 cd 01 	sts	0x01CD, r24
    1d98:	82 2f       	mov	r24, r18
    1d9a:	f2 cf       	rjmp	.-28     	; 0x1d80
    1d9c:	87 e0       	ldi	r24, 0x07	; 7
    1d9e:	80 93 cd 01 	sts	0x01CD, r24
    1da2:	8e e7       	ldi	r24, 0x7E	; 126
    1da4:	0e 94 c2 06 	call	0xd84
    1da8:	28 2f       	mov	r18, r24
    1daa:	21 30       	cpi	r18, 0x01	; 1
    1dac:	39 f0       	breq	.+14     	; 0x1dbc
    1dae:	88 e0       	ldi	r24, 0x08	; 8
    1db0:	80 93 cd 01 	sts	0x01CD, r24
    1db4:	87 ed       	ldi	r24, 0xD7	; 215
    1db6:	96 e0       	ldi	r25, 0x06	; 6
    1db8:	0e 94 53 02 	call	0x4a6
    1dbc:	81 e0       	ldi	r24, 0x01	; 1
    1dbe:	90 e0       	ldi	r25, 0x00	; 0
    1dc0:	08 95       	ret

00001dc2 <FramerM$TxArbitraryByte>:
    1dc2:	98 2f       	mov	r25, r24
    1dc4:	8d 57       	subi	r24, 0x7D	; 125
    1dc6:	82 30       	cpi	r24, 0x02	; 2
    1dc8:	78 f4       	brcc	.+30     	; 0x1de8
    1dca:	8f b7       	in	r24, 0x3f	; 63
    1dcc:	f8 94       	cli
    1dce:	28 2f       	mov	r18, r24
    1dd0:	33 27       	eor	r19, r19
    1dd2:	80 91 cd 01 	lds	r24, 0x01CD
    1dd6:	80 93 c5 01 	sts	0x01C5, r24
    1dda:	83 e0       	ldi	r24, 0x03	; 3
    1ddc:	80 93 cd 01 	sts	0x01CD, r24
    1de0:	90 93 dd 01 	sts	0x01DD, r25
    1de4:	2f bf       	out	0x3f, r18	; 63
    1de6:	9d e7       	ldi	r25, 0x7D	; 125
    1de8:	89 2f       	mov	r24, r25
    1dea:	0e 94 c2 06 	call	0xd84
    1dee:	99 27       	eor	r25, r25
    1df0:	08 95       	ret

00001df2 <__nesc_atomic_end>:
    1df2:	8f bf       	out	0x3f, r24	; 63
    1df4:	08 95       	ret

00001df6 <__nesc_atomic_start>:
    1df6:	8f b7       	in	r24, 0x3f	; 63
    1df8:	f8 94       	cli
    1dfa:	99 27       	eor	r25, r25
    1dfc:	08 95       	ret

00001dfe <OscilloscopeM$dataTask>:
    1dfe:	0f 93       	push	r16
    1e00:	1f 93       	push	r17
    1e02:	cf 93       	push	r28
    1e04:	df 93       	push	r29
    1e06:	8f b7       	in	r24, 0x3f	; 63
    1e08:	f8 94       	cli
    1e0a:	a8 2f       	mov	r26, r24
    1e0c:	bb 27       	eor	r27, r27
    1e0e:	80 91 de 01 	lds	r24, 0x01DE
    1e12:	99 27       	eor	r25, r25
    1e14:	6b e2       	ldi	r22, 0x2B	; 43
    1e16:	70 e0       	ldi	r23, 0x00	; 0
    1e18:	0e 94 fd 11 	call	0x23fa
    1e1c:	28 2f       	mov	r18, r24
    1e1e:	39 2f       	mov	r19, r25
    1e20:	f9 2f       	mov	r31, r25
    1e22:	e8 2f       	mov	r30, r24
    1e24:	e1 52       	subi	r30, 0x21	; 33
    1e26:	ff 4f       	sbci	r31, 0xFF	; 255
    1e28:	10 92 b3 01 	sts	0x01B3, r1
    1e2c:	80 91 ce 01 	lds	r24, 0x01CE
    1e30:	90 91 cf 01 	lds	r25, 0x01CF
    1e34:	82 83       	std	Z+2, r24	; 0x02
    1e36:	93 83       	std	Z+3, r25	; 0x03
    1e38:	af bf       	out	0x3f, r26	; 63
    1e3a:	81 e0       	ldi	r24, 0x01	; 1
    1e3c:	90 e0       	ldi	r25, 0x00	; 0
    1e3e:	84 83       	std	Z+4, r24	; 0x04
    1e40:	95 83       	std	Z+5, r25	; 0x05
    1e42:	80 91 60 00 	lds	r24, 0x0060
    1e46:	90 91 61 00 	lds	r25, 0x0061
    1e4a:	80 83       	st	Z, r24
    1e4c:	91 83       	std	Z+1, r25	; 0x01
    1e4e:	d3 2f       	mov	r29, r19
    1e50:	c2 2f       	mov	r28, r18
    1e52:	c6 52       	subi	r28, 0x26	; 38
    1e54:	df 4f       	sbci	r29, 0xFF	; 255
    1e56:	10 91 df 01 	lds	r17, 0x01DF
    1e5a:	11 23       	and	r17, r17
    1e5c:	19 f5       	brne	.+70     	; 0x1ea4
    1e5e:	01 e0       	ldi	r16, 0x01	; 1
    1e60:	00 93 df 01 	sts	0x01DF, r16
    1e64:	89 e6       	ldi	r24, 0x69	; 105
    1e66:	90 e1       	ldi	r25, 0x10	; 16
    1e68:	0e 94 53 02 	call	0x4a6
    1e6c:	88 23       	and	r24, r24
    1e6e:	19 f4       	brne	.+6      	; 0x1e76
    1e70:	10 93 df 01 	sts	0x01DF, r17
    1e74:	17 c0       	rjmp	.+46     	; 0x1ea4
    1e76:	d0 93 34 01 	sts	0x0134, r29
    1e7a:	c0 93 33 01 	sts	0x0133, r28
    1e7e:	8a e1       	ldi	r24, 0x1A	; 26
    1e80:	8c 83       	std	Y+4, r24	; 0x04
    1e82:	8f ef       	ldi	r24, 0xFF	; 255
    1e84:	9f ef       	ldi	r25, 0xFF	; 255
    1e86:	88 83       	st	Y, r24
    1e88:	99 83       	std	Y+1, r25	; 0x01
    1e8a:	8a e0       	ldi	r24, 0x0A	; 10
    1e8c:	8a 83       	std	Y+2, r24	; 0x02
    1e8e:	80 91 62 00 	lds	r24, 0x0062
    1e92:	8b 83       	std	Y+3, r24	; 0x03
    1e94:	80 2f       	mov	r24, r16
    1e96:	8e 5f       	subi	r24, 0xFE	; 254
    1e98:	8c 5f       	subi	r24, 0xFC	; 252
    1e9a:	8b 32       	cpi	r24, 0x2B	; 43
    1e9c:	e8 f3       	brcs	.-6      	; 0x1e98
    1e9e:	81 e0       	ldi	r24, 0x01	; 1
    1ea0:	90 e0       	ldi	r25, 0x00	; 0
    1ea2:	02 c0       	rjmp	.+4      	; 0x1ea8
    1ea4:	80 e0       	ldi	r24, 0x00	; 0
    1ea6:	90 e0       	ldi	r25, 0x00	; 0
    1ea8:	89 2b       	or	r24, r25
    1eaa:	09 f1       	breq	.+66     	; 0x1eee
    1eac:	8f b7       	in	r24, 0x3f	; 63
    1eae:	f8 94       	cli
    1eb0:	28 2f       	mov	r18, r24
    1eb2:	33 27       	eor	r19, r19
    1eb4:	80 91 de 01 	lds	r24, 0x01DE
    1eb8:	91 e0       	ldi	r25, 0x01	; 1
    1eba:	89 27       	eor	r24, r25
    1ebc:	80 93 de 01 	sts	0x01DE, r24
    1ec0:	2f bf       	out	0x3f, r18	; 63
    1ec2:	8f b7       	in	r24, 0x3f	; 63
    1ec4:	f8 94       	cli
    1ec6:	38 2f       	mov	r19, r24
    1ec8:	20 91 c9 01 	lds	r18, 0x01C9
    1ecc:	22 ff       	sbrs	r18, 2
    1ece:	06 c0       	rjmp	.+12     	; 0x1edc
    1ed0:	8f b7       	in	r24, 0x3f	; 63
    1ed2:	f8 94       	cli
    1ed4:	99 27       	eor	r25, r25
    1ed6:	d8 9a       	sbi	0x1b, 0	; 27
    1ed8:	2b 7f       	andi	r18, 0xFB	; 251
    1eda:	05 c0       	rjmp	.+10     	; 0x1ee6
    1edc:	8f b7       	in	r24, 0x3f	; 63
    1ede:	f8 94       	cli
    1ee0:	99 27       	eor	r25, r25
    1ee2:	d8 98       	cbi	0x1b, 0	; 27
    1ee4:	24 60       	ori	r18, 0x04	; 4
    1ee6:	20 93 c9 01 	sts	0x01C9, r18
    1eea:	8f bf       	out	0x3f, r24	; 63
    1eec:	3f bf       	out	0x3f, r19	; 63
    1eee:	df 91       	pop	r29
    1ef0:	cf 91       	pop	r28
    1ef2:	1f 91       	pop	r17
    1ef4:	0f 91       	pop	r16
    1ef6:	08 95       	ret

00001ef8 <TimerM$HandleFire>:
    1ef8:	8f 92       	push	r8
    1efa:	9f 92       	push	r9
    1efc:	af 92       	push	r10
    1efe:	bf 92       	push	r11
    1f00:	df 92       	push	r13
    1f02:	ef 92       	push	r14
    1f04:	ff 92       	push	r15
    1f06:	0f 93       	push	r16
    1f08:	1f 93       	push	r17
    1f0a:	cf 93       	push	r28
    1f0c:	df 93       	push	r29
    1f0e:	81 e0       	ldi	r24, 0x01	; 1
    1f10:	80 93 81 01 	sts	0x0181, r24
    1f14:	80 91 e0 01 	lds	r24, 0x01E0
    1f18:	90 91 e1 01 	lds	r25, 0x01E1
    1f1c:	a0 91 e2 01 	lds	r26, 0x01E2
    1f20:	b0 91 e3 01 	lds	r27, 0x01E3
    1f24:	00 97       	sbiw	r24, 0x00	; 0
    1f26:	a1 05       	cpc	r26, r1
    1f28:	b1 05       	cpc	r27, r1
    1f2a:	09 f4       	brne	.+2      	; 0x1f2e
    1f2c:	87 c0       	rjmp	.+270    	; 0x203c
    1f2e:	dd 24       	eor	r13, r13
    1f30:	0b e5       	ldi	r16, 0x5B	; 91
    1f32:	11 e0       	ldi	r17, 0x01	; 1
    1f34:	ee 24       	eor	r14, r14
    1f36:	ff 24       	eor	r15, r15
    1f38:	61 e0       	ldi	r22, 0x01	; 1
    1f3a:	70 e0       	ldi	r23, 0x00	; 0
    1f3c:	0e 2c       	mov	r0, r14
    1f3e:	02 c0       	rjmp	.+4      	; 0x1f44
    1f40:	66 0f       	add	r22, r22
    1f42:	77 1f       	adc	r23, r23
    1f44:	0a 94       	dec	r0
    1f46:	e2 f7       	brpl	.-8      	; 0x1f40
    1f48:	86 2f       	mov	r24, r22
    1f4a:	97 2f       	mov	r25, r23
    1f4c:	aa 27       	eor	r26, r26
    1f4e:	97 fd       	sbrc	r25, 7
    1f50:	a0 95       	com	r26
    1f52:	ba 2f       	mov	r27, r26
    1f54:	80 90 e0 01 	lds	r8, 0x01E0
    1f58:	90 90 e1 01 	lds	r9, 0x01E1
    1f5c:	a0 90 e2 01 	lds	r10, 0x01E2
    1f60:	b0 90 e3 01 	lds	r11, 0x01E3
    1f64:	88 21       	and	r24, r8
    1f66:	99 21       	and	r25, r9
    1f68:	aa 21       	and	r26, r10
    1f6a:	bb 21       	and	r27, r11
    1f6c:	00 97       	sbiw	r24, 0x00	; 0
    1f6e:	a1 05       	cpc	r26, r1
    1f70:	b1 05       	cpc	r27, r1
    1f72:	09 f4       	brne	.+2      	; 0x1f76
    1f74:	59 c0       	rjmp	.+178    	; 0x2028
    1f76:	80 91 b6 01 	lds	r24, 0x01B6
    1f7a:	99 27       	eor	r25, r25
    1f7c:	01 96       	adiw	r24, 0x01	; 1
    1f7e:	aa 27       	eor	r26, r26
    1f80:	97 fd       	sbrc	r25, 7
    1f82:	a0 95       	com	r26
    1f84:	ba 2f       	mov	r27, r26
    1f86:	f1 2f       	mov	r31, r17
    1f88:	e0 2f       	mov	r30, r16
    1f8a:	25 81       	ldd	r18, Z+5	; 0x05
    1f8c:	36 81       	ldd	r19, Z+6	; 0x06
    1f8e:	47 81       	ldd	r20, Z+7	; 0x07
    1f90:	50 85       	ldd	r21, Z+8	; 0x08
    1f92:	28 1b       	sub	r18, r24
    1f94:	39 0b       	sbc	r19, r25
    1f96:	4a 0b       	sbc	r20, r26
    1f98:	5b 0b       	sbc	r21, r27
    1f9a:	25 83       	std	Z+5, r18	; 0x05
    1f9c:	36 83       	std	Z+6, r19	; 0x06
    1f9e:	47 83       	std	Z+7, r20	; 0x07
    1fa0:	50 87       	std	Z+8, r21	; 0x08
    1fa2:	23 30       	cpi	r18, 0x03	; 3
    1fa4:	31 05       	cpc	r19, r1
    1fa6:	41 05       	cpc	r20, r1
    1fa8:	51 05       	cpc	r21, r1
    1faa:	f4 f5       	brge	.+124    	; 0x2028
    1fac:	80 81       	ld	r24, Z
    1fae:	88 23       	and	r24, r24
    1fb0:	69 f4       	brne	.+26     	; 0x1fcc
    1fb2:	81 81       	ldd	r24, Z+1	; 0x01
    1fb4:	92 81       	ldd	r25, Z+2	; 0x02
    1fb6:	a3 81       	ldd	r26, Z+3	; 0x03
    1fb8:	b4 81       	ldd	r27, Z+4	; 0x04
    1fba:	28 0f       	add	r18, r24
    1fbc:	39 1f       	adc	r19, r25
    1fbe:	4a 1f       	adc	r20, r26
    1fc0:	5b 1f       	adc	r21, r27
    1fc2:	25 83       	std	Z+5, r18	; 0x05
    1fc4:	36 83       	std	Z+6, r19	; 0x06
    1fc6:	47 83       	std	Z+7, r20	; 0x07
    1fc8:	50 87       	std	Z+8, r21	; 0x08
    1fca:	14 c0       	rjmp	.+40     	; 0x1ff4
    1fcc:	97 2f       	mov	r25, r23
    1fce:	86 2f       	mov	r24, r22
    1fd0:	80 95       	com	r24
    1fd2:	90 95       	com	r25
    1fd4:	aa 27       	eor	r26, r26
    1fd6:	97 fd       	sbrc	r25, 7
    1fd8:	a0 95       	com	r26
    1fda:	ba 2f       	mov	r27, r26
    1fdc:	88 22       	and	r8, r24
    1fde:	99 22       	and	r9, r25
    1fe0:	aa 22       	and	r10, r26
    1fe2:	bb 22       	and	r11, r27
    1fe4:	80 92 e0 01 	sts	0x01E0, r8
    1fe8:	90 92 e1 01 	sts	0x01E1, r9
    1fec:	a0 92 e2 01 	sts	0x01E2, r10
    1ff0:	b0 92 e3 01 	sts	0x01E3, r11
    1ff4:	80 91 e6 01 	lds	r24, 0x01E6
    1ff8:	81 30       	cpi	r24, 0x01	; 1
    1ffa:	19 f4       	brne	.+6      	; 0x2002
    1ffc:	8f ef       	ldi	r24, 0xFF	; 255
    1ffe:	80 93 e6 01 	sts	0x01E6, r24
    2002:	90 91 e6 01 	lds	r25, 0x01E6
    2006:	9f 5f       	subi	r25, 0xFF	; 255
    2008:	90 93 e6 01 	sts	0x01E6, r25
    200c:	80 91 39 01 	lds	r24, 0x0139
    2010:	8f 5f       	subi	r24, 0xFF	; 255
    2012:	80 93 39 01 	sts	0x0139, r24
    2016:	e9 2f       	mov	r30, r25
    2018:	ff 27       	eor	r31, r31
    201a:	e0 53       	subi	r30, 0x30	; 48
    201c:	ff 4f       	sbci	r31, 0xFF	; 255
    201e:	d0 82       	st	Z, r13
    2020:	86 e8       	ldi	r24, 0x86	; 134
    2022:	91 e1       	ldi	r25, 0x11	; 17
    2024:	0e 94 53 02 	call	0x4a6
    2028:	d3 94       	inc	r13
    202a:	08 94       	sec
    202c:	e1 1c       	adc	r14, r1
    202e:	f1 1c       	adc	r15, r1
    2030:	07 5f       	subi	r16, 0xF7	; 247
    2032:	1f 4f       	sbci	r17, 0xFF	; 255
    2034:	f1 e0       	ldi	r31, 0x01	; 1
    2036:	fd 15       	cp	r31, r13
    2038:	08 f0       	brcs	.+2      	; 0x203c
    203a:	7e cf       	rjmp	.-260    	; 0x1f38
    203c:	0e 94 52 01 	call	0x2a4
    2040:	df 91       	pop	r29
    2042:	cf 91       	pop	r28
    2044:	1f 91       	pop	r17
    2046:	0f 91       	pop	r16
    2048:	ff 90       	pop	r15
    204a:	ef 90       	pop	r14
    204c:	df 90       	pop	r13
    204e:	bf 90       	pop	r11
    2050:	af 90       	pop	r10
    2052:	9f 90       	pop	r9
    2054:	8f 90       	pop	r8
    2056:	08 95       	ret

00002058 <HPLPowerManagementM$doAdjustment>:
    2058:	87 b7       	in	r24, 0x37	; 55
    205a:	28 2f       	mov	r18, r24
    205c:	33 27       	eor	r19, r19
    205e:	2c 7f       	andi	r18, 0xFC	; 252
    2060:	21 15       	cp	r18, r1
    2062:	31 05       	cpc	r19, r1
    2064:	19 f0       	breq	.+6      	; 0x206c
    2066:	80 e0       	ldi	r24, 0x00	; 0
    2068:	90 e0       	ldi	r25, 0x00	; 0
    206a:	1a c0       	rjmp	.+52     	; 0x20a0
    206c:	6f 99       	sbic	0x0d, 7	; 13
    206e:	10 c0       	rjmp	.+32     	; 0x2090
    2070:	8a b1       	in	r24, 0x0a	; 10
    2072:	80 7c       	andi	r24, 0xC0	; 192
    2074:	69 f4       	brne	.+26     	; 0x2090
    2076:	37 99       	sbic	0x06, 7	; 6
    2078:	11 c0       	rjmp	.+34     	; 0x209c
    207a:	87 b7       	in	r24, 0x37	; 55
    207c:	99 27       	eor	r25, r25
    207e:	83 70       	andi	r24, 0x03	; 3
    2080:	90 70       	andi	r25, 0x00	; 0
    2082:	89 2b       	or	r24, r25
    2084:	59 f0       	breq	.+22     	; 0x209c
    2086:	81 b7       	in	r24, 0x31	; 49
    2088:	92 b7       	in	r25, 0x32	; 50
    208a:	89 1b       	sub	r24, r25
    208c:	80 31       	cpi	r24, 0x10	; 16
    208e:	18 f4       	brcc	.+6      	; 0x2096
    2090:	93 2f       	mov	r25, r19
    2092:	82 2f       	mov	r24, r18
    2094:	05 c0       	rjmp	.+10     	; 0x20a0
    2096:	88 e1       	ldi	r24, 0x18	; 24
    2098:	90 e0       	ldi	r25, 0x00	; 0
    209a:	02 c0       	rjmp	.+4      	; 0x20a0
    209c:	88 e0       	ldi	r24, 0x08	; 8
    209e:	90 e0       	ldi	r25, 0x00	; 0
    20a0:	38 2f       	mov	r19, r24
    20a2:	25 b7       	in	r18, 0x35	; 53
    20a4:	23 7e       	andi	r18, 0xE3	; 227
    20a6:	88 31       	cpi	r24, 0x18	; 24
    20a8:	71 f4       	brne	.+28     	; 0x20c6
    20aa:	80 b7       	in	r24, 0x30	; 48
    20ac:	99 27       	eor	r25, r25
    20ae:	87 70       	andi	r24, 0x07	; 7
    20b0:	90 70       	andi	r25, 0x00	; 0
    20b2:	89 2b       	or	r24, r25
    20b4:	39 f0       	breq	.+14     	; 0x20c4
    20b6:	00 00       	nop
    20b8:	80 b7       	in	r24, 0x30	; 48
    20ba:	99 27       	eor	r25, r25
    20bc:	87 70       	andi	r24, 0x07	; 7
    20be:	90 70       	andi	r25, 0x00	; 0
    20c0:	89 2b       	or	r24, r25
    20c2:	c9 f7       	brne	.-14     	; 0x20b6
    20c4:	23 7e       	andi	r18, 0xE3	; 227
    20c6:	23 2b       	or	r18, r19
    20c8:	25 bf       	out	0x35, r18	; 53
    20ca:	85 b7       	in	r24, 0x35	; 53
    20cc:	80 62       	ori	r24, 0x20	; 32
    20ce:	85 bf       	out	0x35, r24	; 53
    20d0:	08 95       	ret

000020d2 <AMStandard$sendTask>:
    20d2:	cf 93       	push	r28
    20d4:	df 93       	push	r29
    20d6:	e0 91 33 01 	lds	r30, 0x0133
    20da:	f0 91 34 01 	lds	r31, 0x0134
    20de:	80 81       	ld	r24, Z
    20e0:	91 81       	ldd	r25, Z+1	; 0x01
    20e2:	8e 37       	cpi	r24, 0x7E	; 126
    20e4:	91 05       	cpc	r25, r1
    20e6:	b1 f4       	brne	.+44     	; 0x2114
    20e8:	61 e0       	ldi	r22, 0x01	; 1
    20ea:	8f b7       	in	r24, 0x3f	; 63
    20ec:	f8 94       	cli
    20ee:	90 91 ea 01 	lds	r25, 0x01EA
    20f2:	92 fd       	sbrc	r25, 2
    20f4:	08 c0       	rjmp	.+16     	; 0x2106
    20f6:	94 60       	ori	r25, 0x04	; 4
    20f8:	90 93 ea 01 	sts	0x01EA, r25
    20fc:	f0 93 ca 00 	sts	0x00CA, r31
    2100:	e0 93 c9 00 	sts	0x00C9, r30
    2104:	01 c0       	rjmp	.+2      	; 0x2108
    2106:	60 e0       	ldi	r22, 0x00	; 0
    2108:	8f bf       	out	0x3f, r24	; 63
    210a:	61 30       	cpi	r22, 0x01	; 1
    210c:	c9 f5       	brne	.+114    	; 0x2180
    210e:	0e 94 61 06 	call	0xcc2
    2112:	35 c0       	rjmp	.+106    	; 0x217e
    2114:	8f b7       	in	r24, 0x3f	; 63
    2116:	f8 94       	cli
    2118:	28 2f       	mov	r18, r24
    211a:	33 27       	eor	r19, r19
    211c:	90 91 32 01 	lds	r25, 0x0132
    2120:	99 23       	and	r25, r25
    2122:	49 f4       	brne	.+18     	; 0x2136
    2124:	81 e0       	ldi	r24, 0x01	; 1
    2126:	80 93 32 01 	sts	0x0132, r24
    212a:	f0 93 d6 01 	sts	0x01D6, r31
    212e:	e0 93 d5 01 	sts	0x01D5, r30
    2132:	80 93 d9 00 	sts	0x00D9, r24
    2136:	2f bf       	out	0x3f, r18	; 63
    2138:	99 23       	and	r25, r25
    213a:	f9 f4       	brne	.+62     	; 0x217a
    213c:	8f b7       	in	r24, 0x3f	; 63
    213e:	f8 94       	cli
    2140:	c8 2f       	mov	r28, r24
    2142:	dd 27       	eor	r29, r29
    2144:	8f ef       	ldi	r24, 0xFF	; 255
    2146:	90 e0       	ldi	r25, 0x00	; 0
    2148:	90 93 da 01 	sts	0x01DA, r25
    214c:	80 93 d9 01 	sts	0x01D9, r24
    2150:	80 91 4d 01 	lds	r24, 0x014D
    2154:	90 91 4e 01 	lds	r25, 0x014E
    2158:	8f 5f       	subi	r24, 0xFF	; 255
    215a:	9f 4f       	sbci	r25, 0xFF	; 255
    215c:	51 f4       	brne	.+20     	; 0x2172
    215e:	0e 94 13 07 	call	0xe26
    2162:	8f 72       	andi	r24, 0x2F	; 47
    2164:	90 70       	andi	r25, 0x00	; 0
    2166:	80 5b       	subi	r24, 0xB0	; 176
    2168:	9f 4f       	sbci	r25, 0xFF	; 255
    216a:	90 93 4e 01 	sts	0x014E, r25
    216e:	80 93 4d 01 	sts	0x014D, r24
    2172:	cf bf       	out	0x3f, r28	; 63
    2174:	81 e0       	ldi	r24, 0x01	; 1
    2176:	90 e0       	ldi	r25, 0x00	; 0
    2178:	02 c0       	rjmp	.+4      	; 0x217e
    217a:	80 e0       	ldi	r24, 0x00	; 0
    217c:	90 e0       	ldi	r25, 0x00	; 0
    217e:	68 2f       	mov	r22, r24
    2180:	66 23       	and	r22, r22
    2182:	31 f4       	brne	.+12     	; 0x2190
    2184:	80 91 33 01 	lds	r24, 0x0133
    2188:	90 91 34 01 	lds	r25, 0x0134
    218c:	0e 94 0e 07 	call	0xe1c
    2190:	df 91       	pop	r29
    2192:	cf 91       	pop	r28
    2194:	08 95       	ret

00002196 <SlavePinM$signalHighTask>:
    2196:	8f b7       	in	r24, 0x3f	; 63
    2198:	f8 94       	cli
    219a:	99 27       	eor	r25, r25
    219c:	10 92 54 01 	sts	0x0154, r1
    21a0:	8f bf       	out	0x3f, r24	; 63
    21a2:	08 95       	ret

000021a4 <MicaHighSpeedRadioM$packetReceived>:
    21a4:	20 91 74 01 	lds	r18, 0x0174
    21a8:	30 91 75 01 	lds	r19, 0x0175
    21ac:	8f b7       	in	r24, 0x3f	; 63
    21ae:	f8 94       	cli
    21b0:	99 27       	eor	r25, r25
    21b2:	10 92 6d 01 	sts	0x016D, r1
    21b6:	8f bf       	out	0x3f, r24	; 63
    21b8:	93 2f       	mov	r25, r19
    21ba:	82 2f       	mov	r24, r18
    21bc:	0e 94 37 07 	call	0xe6e
    21c0:	28 2f       	mov	r18, r24
    21c2:	39 2f       	mov	r19, r25
    21c4:	89 2b       	or	r24, r25
    21c6:	41 f0       	breq	.+16     	; 0x21d8
    21c8:	8f b7       	in	r24, 0x3f	; 63
    21ca:	f8 94       	cli
    21cc:	99 27       	eor	r25, r25
    21ce:	30 93 75 01 	sts	0x0175, r19
    21d2:	20 93 74 01 	sts	0x0174, r18
    21d6:	8f bf       	out	0x3f, r24	; 63
    21d8:	0e 94 4b 04 	call	0x896
    21dc:	08 95       	ret

000021de <MicaHighSpeedRadioM$packetSent>:
    21de:	0f 93       	push	r16
    21e0:	1f 93       	push	r17
    21e2:	8f b7       	in	r24, 0x3f	; 63
    21e4:	f8 94       	cli
    21e6:	99 27       	eor	r25, r25
    21e8:	10 92 32 01 	sts	0x0132, r1
    21ec:	10 92 6d 01 	sts	0x016D, r1
    21f0:	00 91 d5 01 	lds	r16, 0x01D5
    21f4:	10 91 d6 01 	lds	r17, 0x01D6
    21f8:	8f bf       	out	0x3f, r24	; 63
    21fa:	0e 94 4b 04 	call	0x896
    21fe:	61 e0       	ldi	r22, 0x01	; 1
    2200:	91 2f       	mov	r25, r17
    2202:	80 2f       	mov	r24, r16
    2204:	0e 94 0e 07 	call	0xe1c
    2208:	1f 91       	pop	r17
    220a:	0f 91       	pop	r16
    220c:	08 95       	ret

0000220e <FramerM$PacketRcvd>:
    220e:	0f 93       	push	r16
    2210:	1f 93       	push	r17
    2212:	cf 93       	push	r28
    2214:	df 93       	push	r29
    2216:	80 91 d4 01 	lds	r24, 0x01D4
    221a:	99 27       	eor	r25, r25
    221c:	08 2f       	mov	r16, r24
    221e:	19 2f       	mov	r17, r25
    2220:	00 0f       	add	r16, r16
    2222:	11 1f       	adc	r17, r17
    2224:	00 0f       	add	r16, r16
    2226:	11 1f       	adc	r17, r17
    2228:	08 0f       	add	r16, r24
    222a:	19 1f       	adc	r17, r25
    222c:	08 0f       	add	r16, r24
    222e:	19 1f       	adc	r17, r25
    2230:	09 54       	subi	r16, 0x49	; 73
    2232:	1e 4f       	sbci	r17, 0xFE	; 254
    2234:	f1 2f       	mov	r31, r17
    2236:	e0 2f       	mov	r30, r16
    2238:	c4 81       	ldd	r28, Z+4	; 0x04
    223a:	d5 81       	ldd	r29, Z+5	; 0x05
    223c:	82 81       	ldd	r24, Z+2	; 0x02
    223e:	93 81       	ldd	r25, Z+3	; 0x03
    2240:	05 97       	sbiw	r24, 0x05	; 5
    2242:	98 f1       	brcs	.+102    	; 0x22aa
    2244:	20 81       	ld	r18, Z
    2246:	82 2f       	mov	r24, r18
    2248:	99 27       	eor	r25, r25
    224a:	81 34       	cpi	r24, 0x41	; 65
    224c:	91 05       	cpc	r25, r1
    224e:	59 f0       	breq	.+22     	; 0x2266
    2250:	82 34       	cpi	r24, 0x42	; 66
    2252:	91 05       	cpc	r25, r1
    2254:	24 f4       	brge	.+8      	; 0x225e
    2256:	80 34       	cpi	r24, 0x40	; 64
    2258:	91 05       	cpc	r25, r1
    225a:	39 f1       	breq	.+78     	; 0x22aa
    225c:	20 c0       	rjmp	.+64     	; 0x229e
    225e:	82 34       	cpi	r24, 0x42	; 66
    2260:	91 05       	cpc	r25, r1
    2262:	79 f0       	breq	.+30     	; 0x2282
    2264:	1c c0       	rjmp	.+56     	; 0x229e
    2266:	81 e0       	ldi	r24, 0x01	; 1
    2268:	90 e0       	ldi	r25, 0x00	; 0
    226a:	8a a3       	std	Y+34, r24	; 0x22
    226c:	9b a3       	std	Y+35, r25	; 0x23
    226e:	f1 2f       	mov	r31, r17
    2270:	e0 2f       	mov	r30, r16
    2272:	81 81       	ldd	r24, Z+1	; 0x01
    2274:	80 93 b2 01 	sts	0x01B2, r24
    2278:	80 e7       	ldi	r24, 0x70	; 112
    227a:	91 e1       	ldi	r25, 0x11	; 17
    227c:	0e 94 53 02 	call	0x4a6
    2280:	04 c0       	rjmp	.+8      	; 0x228a
    2282:	81 e0       	ldi	r24, 0x01	; 1
    2284:	90 e0       	ldi	r25, 0x00	; 0
    2286:	8a a3       	std	Y+34, r24	; 0x22
    2288:	9b a3       	std	Y+35, r25	; 0x23
    228a:	80 91 62 00 	lds	r24, 0x0062
    228e:	8b 83       	std	Y+3, r24	; 0x03
    2290:	8c 2f       	mov	r24, r28
    2292:	9d 2f       	mov	r25, r29
    2294:	0e 94 37 07 	call	0xe6e
    2298:	d9 2f       	mov	r29, r25
    229a:	c8 2f       	mov	r28, r24
    229c:	06 c0       	rjmp	.+12     	; 0x22aa
    229e:	20 93 d3 00 	sts	0x00D3, r18
    22a2:	80 ef       	ldi	r24, 0xF0	; 240
    22a4:	91 e1       	ldi	r25, 0x11	; 17
    22a6:	0e 94 53 02 	call	0x4a6
    22aa:	8f b7       	in	r24, 0x3f	; 63
    22ac:	f8 94       	cli
    22ae:	28 2f       	mov	r18, r24
    22b0:	33 27       	eor	r19, r19
    22b2:	20 97       	sbiw	r28, 0x00	; 0
    22b4:	21 f0       	breq	.+8      	; 0x22be
    22b6:	f1 2f       	mov	r31, r17
    22b8:	e0 2f       	mov	r30, r16
    22ba:	c4 83       	std	Z+4, r28	; 0x04
    22bc:	d5 83       	std	Z+5, r29	; 0x05
    22be:	f1 2f       	mov	r31, r17
    22c0:	e0 2f       	mov	r30, r16
    22c2:	12 82       	std	Z+2, r1	; 0x02
    22c4:	13 82       	std	Z+3, r1	; 0x03
    22c6:	11 82       	std	Z+1, r1	; 0x01
    22c8:	80 91 d4 01 	lds	r24, 0x01D4
    22cc:	8f 5f       	subi	r24, 0xFF	; 255
    22ce:	81 70       	andi	r24, 0x01	; 1
    22d0:	80 93 d4 01 	sts	0x01D4, r24
    22d4:	2f bf       	out	0x3f, r18	; 63
    22d6:	df 91       	pop	r29
    22d8:	cf 91       	pop	r28
    22da:	1f 91       	pop	r17
    22dc:	0f 91       	pop	r16
    22de:	08 95       	ret

000022e0 <FramerAckM$SendAckTask>:
    22e0:	20 91 b2 01 	lds	r18, 0x01B2
    22e4:	31 e0       	ldi	r19, 0x01	; 1
    22e6:	8f b7       	in	r24, 0x3f	; 63
    22e8:	f8 94       	cli
    22ea:	90 91 ea 01 	lds	r25, 0x01EA
    22ee:	91 fd       	sbrc	r25, 1
    22f0:	06 c0       	rjmp	.+12     	; 0x22fe
    22f2:	92 60       	ori	r25, 0x02	; 2
    22f4:	90 93 ea 01 	sts	0x01EA, r25
    22f8:	20 93 b0 01 	sts	0x01B0, r18
    22fc:	01 c0       	rjmp	.+2      	; 0x2300
    22fe:	30 e0       	ldi	r19, 0x00	; 0
    2300:	8f bf       	out	0x3f, r24	; 63
    2302:	31 30       	cpi	r19, 0x01	; 1
    2304:	11 f4       	brne	.+4      	; 0x230a
    2306:	0e 94 61 06 	call	0xcc2
    230a:	08 95       	ret

0000230c <TimerM$signalOneTimer>:
    230c:	cf 93       	push	r28
    230e:	90 91 39 01 	lds	r25, 0x0139
    2312:	99 23       	and	r25, r25
    2314:	19 f4       	brne	.+6      	; 0x231c
    2316:	82 e0       	ldi	r24, 0x02	; 2
    2318:	90 e0       	ldi	r25, 0x00	; 0
    231a:	15 c0       	rjmp	.+42     	; 0x2346
    231c:	80 91 cc 00 	lds	r24, 0x00CC
    2320:	81 30       	cpi	r24, 0x01	; 1
    2322:	19 f4       	brne	.+6      	; 0x232a
    2324:	8f ef       	ldi	r24, 0xFF	; 255
    2326:	80 93 cc 00 	sts	0x00CC, r24
    232a:	80 91 cc 00 	lds	r24, 0x00CC
    232e:	8f 5f       	subi	r24, 0xFF	; 255
    2330:	80 93 cc 00 	sts	0x00CC, r24
    2334:	91 50       	subi	r25, 0x01	; 1
    2336:	90 93 39 01 	sts	0x0139, r25
    233a:	e8 2f       	mov	r30, r24
    233c:	ff 27       	eor	r31, r31
    233e:	e0 53       	subi	r30, 0x30	; 48
    2340:	ff 4f       	sbci	r31, 0xFF	; 255
    2342:	80 81       	ld	r24, Z
    2344:	99 27       	eor	r25, r25
    2346:	82 30       	cpi	r24, 0x02	; 2
    2348:	08 f0       	brcs	.+2      	; 0x234c
    234a:	48 c0       	rjmp	.+144    	; 0x23dc
    234c:	99 27       	eor	r25, r25
    234e:	00 97       	sbiw	r24, 0x00	; 0
    2350:	19 f0       	breq	.+6      	; 0x2358
    2352:	01 97       	sbiw	r24, 0x01	; 1
    2354:	b9 f1       	breq	.+110    	; 0x23c4
    2356:	42 c0       	rjmp	.+132    	; 0x23dc
    2358:	8f b7       	in	r24, 0x3f	; 63
    235a:	f8 94       	cli
    235c:	28 2f       	mov	r18, r24
    235e:	33 27       	eor	r19, r19
    2360:	40 91 b4 01 	lds	r20, 0x01B4
    2364:	80 91 b4 01 	lds	r24, 0x01B4
    2368:	90 91 b5 01 	lds	r25, 0x01B5
    236c:	01 97       	sbiw	r24, 0x01	; 1
    236e:	31 f4       	brne	.+12     	; 0x237c
    2370:	82 e0       	ldi	r24, 0x02	; 2
    2372:	90 e0       	ldi	r25, 0x00	; 0
    2374:	90 93 b5 01 	sts	0x01B5, r25
    2378:	80 93 b4 01 	sts	0x01B4, r24
    237c:	2f bf       	out	0x3f, r18	; 63
    237e:	41 30       	cpi	r20, 0x01	; 1
    2380:	69 f5       	brne	.+90     	; 0x23dc
    2382:	92 98       	cbi	0x12, 2	; 18
    2384:	8a 98       	cbi	0x11, 2	; 17
    2386:	91 9a       	sbi	0x12, 1	; 18
    2388:	89 9a       	sbi	0x11, 1	; 17
    238a:	8f b7       	in	r24, 0x3f	; 63
    238c:	f8 94       	cli
    238e:	c8 2f       	mov	r28, r24
    2390:	20 91 56 01 	lds	r18, 0x0156
    2394:	30 91 57 01 	lds	r19, 0x0157
    2398:	21 fd       	sbrc	r18, 1
    239a:	12 c0       	rjmp	.+36     	; 0x23c0
    239c:	93 2f       	mov	r25, r19
    239e:	82 2f       	mov	r24, r18
    23a0:	82 60       	ori	r24, 0x02	; 2
    23a2:	90 93 57 01 	sts	0x0157, r25
    23a6:	80 93 56 01 	sts	0x0156, r24
    23aa:	23 2b       	or	r18, r19
    23ac:	49 f4       	brne	.+18     	; 0x23c0
    23ae:	81 e0       	ldi	r24, 0x01	; 1
    23b0:	90 e0       	ldi	r25, 0x00	; 0
    23b2:	90 93 ed 01 	sts	0x01ED, r25
    23b6:	80 93 ec 01 	sts	0x01EC, r24
    23ba:	84 2f       	mov	r24, r20
    23bc:	0e 94 2d 05 	call	0xa5a
    23c0:	cf bf       	out	0x3f, r28	; 63
    23c2:	0c c0       	rjmp	.+24     	; 0x23dc
    23c4:	80 91 58 01 	lds	r24, 0x0158
    23c8:	90 91 59 01 	lds	r25, 0x0159
    23cc:	90 93 d8 01 	sts	0x01D8, r25
    23d0:	80 93 d7 01 	sts	0x01D7, r24
    23d4:	10 92 59 01 	sts	0x0159, r1
    23d8:	10 92 58 01 	sts	0x0158, r1
    23dc:	cf 91       	pop	r28
    23de:	08 95       	ret

000023e0 <FramerM$PacketUnknown>:
    23e0:	8f b7       	in	r24, 0x3f	; 63
    23e2:	f8 94       	cli
    23e4:	28 2f       	mov	r18, r24
    23e6:	33 27       	eor	r19, r19
    23e8:	80 91 ea 01 	lds	r24, 0x01EA
    23ec:	88 60       	ori	r24, 0x08	; 8
    23ee:	80 93 ea 01 	sts	0x01EA, r24
    23f2:	2f bf       	out	0x3f, r18	; 63
    23f4:	0e 94 61 06 	call	0xcc2
    23f8:	08 95       	ret

000023fa <__mulhi3>:
    23fa:	55 27       	eor	r21, r21
    23fc:	00 24       	eor	r0, r0

000023fe <__mulhi3_loop>:
    23fe:	80 ff       	sbrs	r24, 0
    2400:	02 c0       	rjmp	.+4      	; 0x2406
    2402:	06 0e       	add	r0, r22
    2404:	57 1f       	adc	r21, r23

00002406 <__mulhi3_skip1>:
    2406:	66 0f       	add	r22, r22
    2408:	77 1f       	adc	r23, r23
    240a:	61 15       	cp	r22, r1
    240c:	71 05       	cpc	r23, r1
    240e:	21 f0       	breq	.+8      	; 0x2418
    2410:	96 95       	lsr	r25
    2412:	87 95       	ror	r24
    2414:	00 97       	sbiw	r24, 0x00	; 0
    2416:	99 f7       	brne	.-26     	; 0x23fe

00002418 <__mulhi3_exit>:
    2418:	95 2f       	mov	r25, r21
    241a:	80 2d       	mov	r24, r0
    241c:	08 95       	ret
