
main.exe:     file format elf32-avr

Disassembly of section .text:

00000000 <__vectors>:
   0:	0c 94 30 00 	jmp	0x60
   4:	0c 94 50 00 	jmp	0xa0
   8:	0c 94 50 00 	jmp	0xa0
   c:	0c 94 50 00 	jmp	0xa0
  10:	0c 94 50 00 	jmp	0xa0
  14:	0c 94 50 00 	jmp	0xa0
  18:	0c 94 50 00 	jmp	0xa0
  1c:	0c 94 50 00 	jmp	0xa0
  20:	0c 94 50 00 	jmp	0xa0
  24:	0c 94 50 00 	jmp	0xa0
  28:	0c 94 50 00 	jmp	0xa0
  2c:	0c 94 50 00 	jmp	0xa0
  30:	0c 94 50 00 	jmp	0xa0
  34:	0c 94 50 00 	jmp	0xa0
  38:	0c 94 50 00 	jmp	0xa0
  3c:	0c 94 be 04 	jmp	0x97c
  40:	0c 94 50 00 	jmp	0xa0
  44:	0c 94 50 00 	jmp	0xa0
  48:	0c 94 52 00 	jmp	0xa4
  4c:	0c 94 50 00 	jmp	0xa0
  50:	0c 94 60 00 	jmp	0xc0
  54:	0c 94 50 00 	jmp	0xa0
  58:	0c 94 50 00 	jmp	0xa0
  5c:	0c 94 50 00 	jmp	0xa0

00000060 <__ctors_end>:
  60:	11 24       	eor	r1, r1
  62:	1f be       	out	0x3f, r1	; 63
  64:	cf ef       	ldi	r28, 0xFF	; 255
  66:	df e0       	ldi	r29, 0x0F	; 15
  68:	de bf       	out	0x3e, r29	; 62
  6a:	cd bf       	out	0x3d, r28	; 61

0000006c <__do_copy_data>:
  6c:	10 e0       	ldi	r17, 0x00	; 0
  6e:	a0 e6       	ldi	r26, 0x60	; 96
  70:	b0 e0       	ldi	r27, 0x00	; 0
  72:	e6 e8       	ldi	r30, 0x86	; 134
  74:	fc e0       	ldi	r31, 0x0C	; 12
  76:	0f ef       	ldi	r16, 0xFF	; 255

00000078 <.__do_copy_data_carry>:
  78:	03 95       	inc	r16
  7a:	0b bf       	out	0x3b, r16	; 59
  7c:	04 c0       	rjmp	.+8      	; 0x86

0000007e <.__do_copy_data_loop>:
  7e:	d8 95       	elpm
  80:	0d 92       	st	X+, r0
  82:	31 96       	adiw	r30, 0x01	; 1
  84:	c8 f3       	brcs	.-14     	; 0x78

00000086 <.__do_copy_data_start>:
  86:	a2 39       	cpi	r26, 0x92	; 146
  88:	b1 07       	cpc	r27, r17
  8a:	c9 f7       	brne	.-14     	; 0x7e

0000008c <__do_clear_bss>:
  8c:	11 e0       	ldi	r17, 0x01	; 1
  8e:	a2 e9       	ldi	r26, 0x92	; 146
  90:	b0 e0       	ldi	r27, 0x00	; 0
  92:	01 c0       	rjmp	.+2      	; 0x96

00000094 <.do_clear_bss_loop>:
  94:	1d 92       	st	X+, r1

00000096 <.do_clear_bss_start>:
  96:	a3 30       	cpi	r26, 0x03	; 3
  98:	b1 07       	cpc	r27, r17
  9a:	e1 f7       	brne	.-8      	; 0x94
  9c:	0c 94 d8 00 	jmp	0x1b0

000000a0 <__bad_interrupt>:
  a0:	0c 94 00 00 	jmp	0x0

000000a4 <__vector_18>:
  a4:	1f 92       	push	r1
  a6:	0f 92       	push	r0
  a8:	0f b6       	in	r0, 0x3f	; 63
  aa:	0f 92       	push	r0
  ac:	11 24       	eor	r1, r1
  ae:	8f 93       	push	r24
  b0:	5f 99       	sbic	0x0b, 7	; 11
  b2:	8c b1       	in	r24, 0x0c	; 12
  b4:	8f 91       	pop	r24
  b6:	0f 90       	pop	r0
  b8:	0f be       	out	0x3f, r0	; 63
  ba:	0f 90       	pop	r0
  bc:	1f 90       	pop	r1
  be:	18 95       	reti

000000c0 <__vector_20>:
  c0:	78 94       	sei
  c2:	1f 92       	push	r1
  c4:	0f 92       	push	r0
  c6:	0f b6       	in	r0, 0x3f	; 63
  c8:	0f 92       	push	r0
  ca:	11 24       	eor	r1, r1
  cc:	2f 93       	push	r18
  ce:	3f 93       	push	r19
  d0:	4f 93       	push	r20
  d2:	5f 93       	push	r21
  d4:	6f 93       	push	r22
  d6:	7f 93       	push	r23
  d8:	8f 93       	push	r24
  da:	9f 93       	push	r25
  dc:	af 93       	push	r26
  de:	bf 93       	push	r27
  e0:	ef 93       	push	r30
  e2:	ff 93       	push	r31
  e4:	0e 94 86 04 	call	0x90c
  e8:	ff 91       	pop	r31
  ea:	ef 91       	pop	r30
  ec:	bf 91       	pop	r27
  ee:	af 91       	pop	r26
  f0:	9f 91       	pop	r25
  f2:	8f 91       	pop	r24
  f4:	7f 91       	pop	r23
  f6:	6f 91       	pop	r22
  f8:	5f 91       	pop	r21
  fa:	4f 91       	pop	r20
  fc:	3f 91       	pop	r19
  fe:	2f 91       	pop	r18
 100:	0f 90       	pop	r0
 102:	0f be       	out	0x3f, r0	; 63
 104:	0f 90       	pop	r0
 106:	1f 90       	pop	r1
 108:	18 95       	reti

0000010a <TimerM$adjustInterval>:
 10a:	26 ee       	ldi	r18, 0xE6	; 230
 10c:	80 91 fa 00 	lds	r24, 0x00FA
 110:	90 91 fb 00 	lds	r25, 0x00FB
 114:	a0 91 fc 00 	lds	r26, 0x00FC
 118:	b0 91 fd 00 	lds	r27, 0x00FD
 11c:	00 97       	sbiw	r24, 0x00	; 0
 11e:	a1 05       	cpc	r26, r1
 120:	b1 05       	cpc	r27, r1
 122:	89 f0       	breq	.+34     	; 0x146
 124:	80 ff       	sbrs	r24, 0
 126:	0f c0       	rjmp	.+30     	; 0x146
 128:	80 91 c7 00 	lds	r24, 0x00C7
 12c:	90 91 c8 00 	lds	r25, 0x00C8
 130:	a0 91 c9 00 	lds	r26, 0x00C9
 134:	b0 91 ca 00 	lds	r27, 0x00CA
 138:	86 3e       	cpi	r24, 0xE6	; 230
 13a:	91 05       	cpc	r25, r1
 13c:	a1 05       	cpc	r26, r1
 13e:	b1 05       	cpc	r27, r1
 140:	14 f4       	brge	.+4      	; 0x146
 142:	20 91 c7 00 	lds	r18, 0x00C7
 146:	8f b7       	in	r24, 0x3f	; 63
 148:	f8 94       	cli
 14a:	99 27       	eor	r25, r25
 14c:	20 93 ec 00 	sts	0x00EC, r18
 150:	21 bf       	out	0x31, r18	; 49
 152:	10 92 e7 00 	sts	0x00E7, r1
 156:	8f bf       	out	0x3f, r24	; 63
 158:	0e 94 74 04 	call	0x8e8
 15c:	08 95       	ret

0000015e <TOS_post>:
 15e:	48 2f       	mov	r20, r24
 160:	59 2f       	mov	r21, r25
 162:	8f b7       	in	r24, 0x3f	; 63
 164:	f8 94       	cli
 166:	28 2f       	mov	r18, r24
 168:	33 27       	eor	r19, r19
 16a:	e0 91 d0 00 	lds	r30, 0x00D0
 16e:	80 91 d0 00 	lds	r24, 0x00D0
 172:	8f 5f       	subi	r24, 0xFF	; 255
 174:	80 93 d0 00 	sts	0x00D0, r24
 178:	80 91 d0 00 	lds	r24, 0x00D0
 17c:	87 70       	andi	r24, 0x07	; 7
 17e:	80 93 d0 00 	sts	0x00D0, r24
 182:	90 91 d0 00 	lds	r25, 0x00D0
 186:	80 91 bf 00 	lds	r24, 0x00BF
 18a:	98 17       	cp	r25, r24
 18c:	59 f0       	breq	.+22     	; 0x1a4
 18e:	2f bf       	out	0x3f, r18	; 63
 190:	ff 27       	eor	r31, r31
 192:	ee 0f       	add	r30, r30
 194:	ff 1f       	adc	r31, r31
 196:	e2 55       	subi	r30, 0x52	; 82
 198:	ff 4f       	sbci	r31, 0xFF	; 255
 19a:	40 83       	st	Z, r20
 19c:	51 83       	std	Z+1, r21	; 0x01
 19e:	81 e0       	ldi	r24, 0x01	; 1
 1a0:	90 e0       	ldi	r25, 0x00	; 0
 1a2:	08 95       	ret
 1a4:	e0 93 d0 00 	sts	0x00D0, r30
 1a8:	2f bf       	out	0x3f, r18	; 63
 1aa:	80 e0       	ldi	r24, 0x00	; 0
 1ac:	90 e0       	ldi	r25, 0x00	; 0
 1ae:	08 95       	ret

000001b0 <main>:
 1b0:	cf ef       	ldi	r28, 0xFF	; 255
 1b2:	df e0       	ldi	r29, 0x0F	; 15
 1b4:	de bf       	out	0x3e, r29	; 62
 1b6:	cd bf       	out	0x3d, r28	; 61
 1b8:	1a ba       	out	0x1a, r1	; 26
 1ba:	17 ba       	out	0x17, r1	; 23
 1bc:	11 ba       	out	0x11, r1	; 17
 1be:	82 e0       	ldi	r24, 0x02	; 2
 1c0:	82 b9       	out	0x02, r24	; 2
 1c2:	83 b9       	out	0x03, r24	; 3
 1c4:	d2 9a       	sbi	0x1a, 2	; 26
 1c6:	d0 9a       	sbi	0x1a, 0	; 26
 1c8:	d1 9a       	sbi	0x1a, 1	; 26
 1ca:	8d 9a       	sbi	0x11, 5	; 17
 1cc:	17 9a       	sbi	0x02, 7	; 2
 1ce:	8f 9a       	sbi	0x11, 7	; 17
 1d0:	8e 9a       	sbi	0x11, 6	; 17
 1d2:	bb 9a       	sbi	0x17, 3	; 23
 1d4:	1f 9a       	sbi	0x03, 7	; 3
 1d6:	b8 98       	cbi	0x17, 0	; 23
 1d8:	da 9a       	sbi	0x1b, 2	; 27
 1da:	d8 9a       	sbi	0x1b, 0	; 27
 1dc:	d9 9a       	sbi	0x1b, 1	; 27
 1de:	14 9a       	sbi	0x02, 4	; 2
 1e0:	1c 9a       	sbi	0x03, 4	; 3
 1e2:	15 98       	cbi	0x02, 5	; 2
 1e4:	1d 9a       	sbi	0x03, 5	; 3
 1e6:	80 e0       	ldi	r24, 0x00	; 0
 1e8:	d9 9a       	sbi	0x1b, 1	; 27
 1ea:	95 98       	cbi	0x12, 5	; 18
 1ec:	da 9a       	sbi	0x1b, 2	; 27
 1ee:	da 98       	cbi	0x1b, 2	; 27
 1f0:	95 9a       	sbi	0x12, 5	; 18
 1f2:	8f 5f       	subi	r24, 0xFF	; 255
 1f4:	87 39       	cpi	r24, 0x97	; 151
 1f6:	c0 f3       	brcs	.-16     	; 0x1e8
 1f8:	80 e0       	ldi	r24, 0x00	; 0
 1fa:	d9 98       	cbi	0x1b, 1	; 27
 1fc:	95 98       	cbi	0x12, 5	; 18
 1fe:	da 9a       	sbi	0x1b, 2	; 27
 200:	da 98       	cbi	0x1b, 2	; 27
 202:	95 9a       	sbi	0x12, 5	; 18
 204:	8f 5f       	subi	r24, 0xFF	; 255
 206:	8a 30       	cpi	r24, 0x0A	; 10
 208:	c0 f3       	brcs	.-16     	; 0x1fa
 20a:	d9 9a       	sbi	0x1b, 1	; 27
 20c:	da 9a       	sbi	0x1b, 2	; 27
 20e:	8a e0       	ldi	r24, 0x0A	; 10
 210:	80 93 ab 00 	sts	0x00AB, r24
 214:	10 92 d0 00 	sts	0x00D0, r1
 218:	10 92 bf 00 	sts	0x00BF, r1
 21c:	8f b7       	in	r24, 0x3f	; 63
 21e:	f8 94       	cli
 220:	99 27       	eor	r25, r25
 222:	10 92 e9 00 	sts	0x00E9, r1
 226:	8f bf       	out	0x3f, r24	; 63
 228:	01 e0       	ldi	r16, 0x01	; 1
 22a:	10 e0       	ldi	r17, 0x00	; 0
 22c:	8f b7       	in	r24, 0x3f	; 63
 22e:	f8 94       	cli
 230:	28 2f       	mov	r18, r24
 232:	33 27       	eor	r19, r19
 234:	10 92 ff 00 	sts	0x00FF, r1
 238:	10 92 fe 00 	sts	0x00FE, r1
 23c:	10 92 00 01 	sts	0x0100, r1
 240:	10 92 ef 00 	sts	0x00EF, r1
 244:	9e ef       	ldi	r25, 0xFE	; 254
 246:	90 93 f8 00 	sts	0x00F8, r25
 24a:	00 93 f9 00 	sts	0x00F9, r16
 24e:	90 93 ea 00 	sts	0x00EA, r25
 252:	80 e8       	ldi	r24, 0x80	; 128
 254:	80 93 eb 00 	sts	0x00EB, r24
 258:	90 93 c0 00 	sts	0x00C0, r25
 25c:	80 ec       	ldi	r24, 0xC0	; 192
 25e:	80 93 c1 00 	sts	0x00C1, r24
 262:	10 92 02 01 	sts	0x0102, r1
 266:	10 92 f1 00 	sts	0x00F1, r1
 26a:	10 92 93 00 	sts	0x0093, r1
 26e:	10 92 94 00 	sts	0x0094, r1
 272:	10 92 95 00 	sts	0x0095, r1
 276:	10 92 ee 00 	sts	0x00EE, r1
 27a:	2f bf       	out	0x3f, r18	; 63
 27c:	10 92 fa 00 	sts	0x00FA, r1
 280:	10 92 fb 00 	sts	0x00FB, r1
 284:	10 92 fc 00 	sts	0x00FC, r1
 288:	10 92 fd 00 	sts	0x00FD, r1
 28c:	10 92 e7 00 	sts	0x00E7, r1
 290:	8f ef       	ldi	r24, 0xFF	; 255
 292:	80 93 01 01 	sts	0x0101, r24
 296:	80 93 92 00 	sts	0x0092, r24
 29a:	10 92 ac 00 	sts	0x00AC, r1
 29e:	83 e0       	ldi	r24, 0x03	; 3
 2a0:	80 93 e8 00 	sts	0x00E8, r24
 2a4:	96 ee       	ldi	r25, 0xE6	; 230
 2a6:	90 93 ec 00 	sts	0x00EC, r25
 2aa:	8f b7       	in	r24, 0x3f	; 63
 2ac:	f8 94       	cli
 2ae:	28 2f       	mov	r18, r24
 2b0:	33 27       	eor	r19, r19
 2b2:	87 b7       	in	r24, 0x37	; 55
 2b4:	8e 7f       	andi	r24, 0xFE	; 254
 2b6:	87 bf       	out	0x37, r24	; 55
 2b8:	87 b7       	in	r24, 0x37	; 55
 2ba:	8d 7f       	andi	r24, 0xFD	; 253
 2bc:	87 bf       	out	0x37, r24	; 55
 2be:	80 b7       	in	r24, 0x30	; 48
 2c0:	88 60       	ori	r24, 0x08	; 8
 2c2:	80 bf       	out	0x30, r24	; 48
 2c4:	8b e0       	ldi	r24, 0x0B	; 11
 2c6:	83 bf       	out	0x33, r24	; 51
 2c8:	12 be       	out	0x32, r1	; 50
 2ca:	91 bf       	out	0x31, r25	; 49
 2cc:	87 b7       	in	r24, 0x37	; 55
 2ce:	82 60       	ori	r24, 0x02	; 2
 2d0:	87 bf       	out	0x37, r24	; 55
 2d2:	2f bf       	out	0x3f, r18	; 63
 2d4:	8f b7       	in	r24, 0x3f	; 63
 2d6:	f8 94       	cli
 2d8:	99 27       	eor	r25, r25
 2da:	10 92 cd 00 	sts	0x00CD, r1
 2de:	10 92 cc 00 	sts	0x00CC, r1
 2e2:	8f bf       	out	0x3f, r24	; 63
 2e4:	8c e0       	ldi	r24, 0x0C	; 12
 2e6:	89 b9       	out	0x09, r24	; 9
 2e8:	8c b1       	in	r24, 0x0c	; 12
 2ea:	88 ed       	ldi	r24, 0xD8	; 216
 2ec:	8a b9       	out	0x0a, r24	; 10
 2ee:	18 9a       	sbi	0x03, 0	; 3
 2f0:	89 e1       	ldi	r24, 0x19	; 25
 2f2:	89 b9       	out	0x09, r24	; 9
 2f4:	66 e1       	ldi	r22, 0x16	; 22
 2f6:	81 e6       	ldi	r24, 0x61	; 97
 2f8:	90 e0       	ldi	r25, 0x00	; 0
 2fa:	0e 94 f8 01 	call	0x3f0
 2fe:	8e ee       	ldi	r24, 0xEE	; 238
 300:	92 e0       	ldi	r25, 0x02	; 2
 302:	a0 e0       	ldi	r26, 0x00	; 0
 304:	b0 e0       	ldi	r27, 0x00	; 0
 306:	80 93 c3 00 	sts	0x00C3, r24
 30a:	90 93 c4 00 	sts	0x00C4, r25
 30e:	a0 93 c5 00 	sts	0x00C5, r26
 312:	b0 93 c6 00 	sts	0x00C6, r27
 316:	00 93 c2 00 	sts	0x00C2, r16
 31a:	8f b7       	in	r24, 0x3f	; 63
 31c:	f8 94       	cli
 31e:	c8 2f       	mov	r28, r24
 320:	dd 27       	eor	r29, r29
 322:	82 b7       	in	r24, 0x32	; 50
 324:	28 2f       	mov	r18, r24
 326:	33 27       	eor	r19, r19
 328:	44 27       	eor	r20, r20
 32a:	55 27       	eor	r21, r21
 32c:	22 51       	subi	r18, 0x12	; 18
 32e:	3d 4f       	sbci	r19, 0xFD	; 253
 330:	4f 4f       	sbci	r20, 0xFF	; 255
 332:	5f 4f       	sbci	r21, 0xFF	; 255
 334:	20 93 c7 00 	sts	0x00C7, r18
 338:	30 93 c8 00 	sts	0x00C8, r19
 33c:	40 93 c9 00 	sts	0x00C9, r20
 340:	50 93 ca 00 	sts	0x00CA, r21
 344:	80 91 fa 00 	lds	r24, 0x00FA
 348:	90 91 fb 00 	lds	r25, 0x00FB
 34c:	a0 91 fc 00 	lds	r26, 0x00FC
 350:	b0 91 fd 00 	lds	r27, 0x00FD
 354:	81 60       	ori	r24, 0x01	; 1
 356:	80 93 fa 00 	sts	0x00FA, r24
 35a:	90 93 fb 00 	sts	0x00FB, r25
 35e:	a0 93 fc 00 	sts	0x00FC, r26
 362:	b0 93 fd 00 	sts	0x00FD, r27
 366:	80 91 ec 00 	lds	r24, 0x00EC
 36a:	99 27       	eor	r25, r25
 36c:	aa 27       	eor	r26, r26
 36e:	bb 27       	eor	r27, r27
 370:	28 17       	cp	r18, r24
 372:	39 07       	cpc	r19, r25
 374:	4a 07       	cpc	r20, r26
 376:	5b 07       	cpc	r21, r27
 378:	38 f4       	brcc	.+14     	; 0x388
 37a:	20 93 ec 00 	sts	0x00EC, r18
 37e:	21 bf       	out	0x31, r18	; 49
 380:	10 92 e7 00 	sts	0x00E7, r1
 384:	0e 94 74 04 	call	0x8e8
 388:	cf bf       	out	0x3f, r28	; 63
 38a:	78 94       	sei
 38c:	90 91 bf 00 	lds	r25, 0x00BF
 390:	80 91 d0 00 	lds	r24, 0x00D0
 394:	98 17       	cp	r25, r24
 396:	19 f4       	brne	.+6      	; 0x39e
 398:	80 e0       	ldi	r24, 0x00	; 0
 39a:	90 e0       	ldi	r25, 0x00	; 0
 39c:	20 c0       	rjmp	.+64     	; 0x3de
 39e:	8f b7       	in	r24, 0x3f	; 63
 3a0:	f8 94       	cli
 3a2:	28 2f       	mov	r18, r24
 3a4:	33 27       	eor	r19, r19
 3a6:	90 91 bf 00 	lds	r25, 0x00BF
 3aa:	80 91 bf 00 	lds	r24, 0x00BF
 3ae:	8f 5f       	subi	r24, 0xFF	; 255
 3b0:	80 93 bf 00 	sts	0x00BF, r24
 3b4:	80 91 bf 00 	lds	r24, 0x00BF
 3b8:	87 70       	andi	r24, 0x07	; 7
 3ba:	80 93 bf 00 	sts	0x00BF, r24
 3be:	e9 2f       	mov	r30, r25
 3c0:	ff 27       	eor	r31, r31
 3c2:	ee 0f       	add	r30, r30
 3c4:	ff 1f       	adc	r31, r31
 3c6:	e2 55       	subi	r30, 0x52	; 82
 3c8:	ff 4f       	sbci	r31, 0xFF	; 255
 3ca:	80 81       	ld	r24, Z
 3cc:	91 81       	ldd	r25, Z+1	; 0x01
 3ce:	10 82       	st	Z, r1
 3d0:	11 82       	std	Z+1, r1	; 0x01
 3d2:	2f bf       	out	0x3f, r18	; 63
 3d4:	e8 2f       	mov	r30, r24
 3d6:	f9 2f       	mov	r31, r25
 3d8:	09 95       	icall
 3da:	81 e0       	ldi	r24, 0x01	; 1
 3dc:	90 e0       	ldi	r25, 0x00	; 0
 3de:	88 23       	and	r24, r24
 3e0:	a9 f6       	brne	.-86     	; 0x38c
 3e2:	85 b7       	in	r24, 0x35	; 53
 3e4:	80 62       	ori	r24, 0x20	; 32
 3e6:	85 bf       	out	0x35, r24	; 53
 3e8:	88 95       	sleep
 3ea:	00 00       	nop
 3ec:	00 00       	nop
 3ee:	ce cf       	rjmp	.-100    	; 0x38c

000003f0 <UartDebuggerM$Debugger$writeString>:
 3f0:	0f 93       	push	r16
 3f2:	1f 93       	push	r17
 3f4:	f9 2f       	mov	r31, r25
 3f6:	e8 2f       	mov	r30, r24
 3f8:	8f b7       	in	r24, 0x3f	; 63
 3fa:	f8 94       	cli
 3fc:	99 27       	eor	r25, r25
 3fe:	70 91 fe 00 	lds	r23, 0x00FE
 402:	a0 91 ef 00 	lds	r26, 0x00EF
 406:	8f bf       	out	0x3f, r24	; 63
 408:	77 23       	and	r23, r23
 40a:	09 f0       	breq	.+2      	; 0x40e
 40c:	52 c0       	rjmp	.+164    	; 0x4b2
 40e:	89 e1       	ldi	r24, 0x19	; 25
 410:	89 b9       	out	0x09, r24	; 9
 412:	8f b7       	in	r24, 0x3f	; 63
 414:	f8 94       	cli
 416:	99 27       	eor	r25, r25
 418:	f0 93 a9 00 	sts	0x00A9, r31
 41c:	e0 93 a8 00 	sts	0x00A8, r30
 420:	70 93 f2 00 	sts	0x00F2, r23
 424:	60 93 a6 00 	sts	0x00A6, r22
 428:	8f bf       	out	0x3f, r24	; 63
 42a:	aa 23       	and	r26, r26
 42c:	91 f5       	brne	.+100    	; 0x492
 42e:	8f b7       	in	r24, 0x3f	; 63
 430:	f8 94       	cli
 432:	28 2f       	mov	r18, r24
 434:	33 27       	eor	r19, r19
 436:	03 ef       	ldi	r16, 0xF3	; 243
 438:	10 e0       	ldi	r17, 0x00	; 0
 43a:	80 91 ee 00 	lds	r24, 0x00EE
 43e:	48 2f       	mov	r20, r24
 440:	8f 5f       	subi	r24, 0xFF	; 255
 442:	80 93 ee 00 	sts	0x00EE, r24
 446:	85 e0       	ldi	r24, 0x05	; 5
 448:	90 e0       	ldi	r25, 0x00	; 0
 44a:	90 93 ff 00 	sts	0x00FF, r25
 44e:	80 93 fe 00 	sts	0x00FE, r24
 452:	2f bf       	out	0x3f, r18	; 63
 454:	a0 93 f3 00 	sts	0x00F3, r26
 458:	84 2f       	mov	r24, r20
 45a:	99 27       	eor	r25, r25
 45c:	4a e0       	ldi	r20, 0x0A	; 10
 45e:	50 e0       	ldi	r21, 0x00	; 0
 460:	71 2f       	mov	r23, r17
 462:	60 2f       	mov	r22, r16
 464:	0e 94 e8 05 	call	0xbd0
 468:	68 e7       	ldi	r22, 0x78	; 120
 46a:	70 e0       	ldi	r23, 0x00	; 0
 46c:	91 2f       	mov	r25, r17
 46e:	80 2f       	mov	r24, r16
 470:	0e 94 0e 06 	call	0xc1c
 474:	f1 2f       	mov	r31, r17
 476:	e0 2f       	mov	r30, r16
 478:	01 90       	ld	r0, Z+
 47a:	00 20       	and	r0, r0
 47c:	e9 f7       	brne	.-6      	; 0x478
 47e:	31 97       	sbiw	r30, 0x01	; 1
 480:	e0 1b       	sub	r30, r16
 482:	f1 0b       	sbc	r31, r17
 484:	8f b7       	in	r24, 0x3f	; 63
 486:	f8 94       	cli
 488:	99 27       	eor	r25, r25
 48a:	e0 93 aa 00 	sts	0x00AA, r30
 48e:	8f bf       	out	0x3f, r24	; 63
 490:	0b c0       	rjmp	.+22     	; 0x4a8
 492:	8f b7       	in	r24, 0x3f	; 63
 494:	f8 94       	cli
 496:	28 2f       	mov	r18, r24
 498:	33 27       	eor	r19, r19
 49a:	82 e0       	ldi	r24, 0x02	; 2
 49c:	90 e0       	ldi	r25, 0x00	; 0
 49e:	90 93 ff 00 	sts	0x00FF, r25
 4a2:	80 93 fe 00 	sts	0x00FE, r24
 4a6:	2f bf       	out	0x3f, r18	; 63
 4a8:	0e 94 67 02 	call	0x4ce
 4ac:	81 e0       	ldi	r24, 0x01	; 1
 4ae:	90 e0       	ldi	r25, 0x00	; 0
 4b0:	0b c0       	rjmp	.+22     	; 0x4c8
 4b2:	2e 2f       	mov	r18, r30
 4b4:	3f 2f       	mov	r19, r31
 4b6:	46 2f       	mov	r20, r22
 4b8:	50 e0       	ldi	r21, 0x00	; 0
 4ba:	95 2f       	mov	r25, r21
 4bc:	84 2f       	mov	r24, r20
 4be:	73 2f       	mov	r23, r19
 4c0:	62 2f       	mov	r22, r18
 4c2:	0e 94 db 03 	call	0x7b6
 4c6:	99 27       	eor	r25, r25
 4c8:	1f 91       	pop	r17
 4ca:	0f 91       	pop	r16
 4cc:	08 95       	ret

000004ce <UartDebuggerM$writeNextChar>:
 4ce:	cf 93       	push	r28
 4d0:	df 93       	push	r29
 4d2:	8f b7       	in	r24, 0x3f	; 63
 4d4:	f8 94       	cli
 4d6:	28 2f       	mov	r18, r24
 4d8:	33 27       	eor	r19, r19
 4da:	40 91 fe 00 	lds	r20, 0x00FE
 4de:	c0 91 a8 00 	lds	r28, 0x00A8
 4e2:	d0 91 a9 00 	lds	r29, 0x00A9
 4e6:	70 e0       	ldi	r23, 0x00	; 0
 4e8:	90 91 f2 00 	lds	r25, 0x00F2
 4ec:	80 91 a6 00 	lds	r24, 0x00A6
 4f0:	98 17       	cp	r25, r24
 4f2:	08 f4       	brcc	.+2      	; 0x4f6
 4f4:	71 e0       	ldi	r23, 0x01	; 1
 4f6:	2f bf       	out	0x3f, r18	; 63
 4f8:	45 30       	cpi	r20, 0x05	; 5
 4fa:	51 f5       	brne	.+84     	; 0x550
 4fc:	8f b7       	in	r24, 0x3f	; 63
 4fe:	f8 94       	cli
 500:	28 2f       	mov	r18, r24
 502:	33 27       	eor	r19, r19
 504:	80 91 cb 00 	lds	r24, 0x00CB
 508:	e8 2f       	mov	r30, r24
 50a:	ff 27       	eor	r31, r31
 50c:	ed 50       	subi	r30, 0x0D	; 13
 50e:	ff 4f       	sbci	r31, 0xFF	; 255
 510:	80 81       	ld	r24, Z
 512:	2f bf       	out	0x3f, r18	; 63
 514:	0e 94 2e 03 	call	0x65c
 518:	68 2f       	mov	r22, r24
 51a:	77 27       	eor	r23, r23
 51c:	66 23       	and	r22, r22
 51e:	09 f4       	brne	.+2      	; 0x522
 520:	47 c0       	rjmp	.+142    	; 0x5b0
 522:	8f b7       	in	r24, 0x3f	; 63
 524:	f8 94       	cli
 526:	28 2f       	mov	r18, r24
 528:	33 27       	eor	r19, r19
 52a:	80 91 cb 00 	lds	r24, 0x00CB
 52e:	8f 5f       	subi	r24, 0xFF	; 255
 530:	80 93 cb 00 	sts	0x00CB, r24
 534:	90 91 aa 00 	lds	r25, 0x00AA
 538:	89 17       	cp	r24, r25
 53a:	41 f4       	brne	.+16     	; 0x54c
 53c:	82 e0       	ldi	r24, 0x02	; 2
 53e:	90 e0       	ldi	r25, 0x00	; 0
 540:	90 93 ff 00 	sts	0x00FF, r25
 544:	80 93 fe 00 	sts	0x00FE, r24
 548:	10 92 cb 00 	sts	0x00CB, r1
 54c:	2f bf       	out	0x3f, r18	; 63
 54e:	81 c0       	rjmp	.+258    	; 0x652
 550:	77 23       	and	r23, r23
 552:	09 f4       	brne	.+2      	; 0x556
 554:	40 c0       	rjmp	.+128    	; 0x5d6
 556:	8f b7       	in	r24, 0x3f	; 63
 558:	f8 94       	cli
 55a:	28 2f       	mov	r18, r24
 55c:	fd 2f       	mov	r31, r29
 55e:	ec 2f       	mov	r30, r28
 560:	e9 0f       	add	r30, r25
 562:	f1 1d       	adc	r31, r1
 564:	e0 81       	ld	r30, Z
 566:	9f 5f       	subi	r25, 0xFF	; 255
 568:	90 93 f2 00 	sts	0x00F2, r25
 56c:	8e 2f       	mov	r24, r30
 56e:	99 27       	eor	r25, r25
 570:	87 fd       	sbrc	r24, 7
 572:	90 95       	com	r25
 574:	81 30       	cpi	r24, 0x01	; 1
 576:	91 05       	cpc	r25, r1
 578:	21 f0       	breq	.+8      	; 0x582
 57a:	8e 3f       	cpi	r24, 0xFE	; 254
 57c:	91 05       	cpc	r25, r1
 57e:	31 f0       	breq	.+12     	; 0x58c
 580:	08 c0       	rjmp	.+16     	; 0x592
 582:	41 30       	cpi	r20, 0x01	; 1
 584:	31 f4       	brne	.+12     	; 0x592
 586:	10 92 02 01 	sts	0x0102, r1
 58a:	03 c0       	rjmp	.+6      	; 0x592
 58c:	81 e0       	ldi	r24, 0x01	; 1
 58e:	90 e0       	ldi	r25, 0x00	; 0
 590:	02 c0       	rjmp	.+4      	; 0x596
 592:	82 e0       	ldi	r24, 0x02	; 2
 594:	90 e0       	ldi	r25, 0x00	; 0
 596:	90 93 ff 00 	sts	0x00FF, r25
 59a:	80 93 fe 00 	sts	0x00FE, r24
 59e:	2f bf       	out	0x3f, r18	; 63
 5a0:	8e 2f       	mov	r24, r30
 5a2:	0e 94 2e 03 	call	0x65c
 5a6:	68 2f       	mov	r22, r24
 5a8:	77 27       	eor	r23, r23
 5aa:	66 23       	and	r22, r22
 5ac:	09 f0       	breq	.+2      	; 0x5b0
 5ae:	51 c0       	rjmp	.+162    	; 0x652
 5b0:	8f b7       	in	r24, 0x3f	; 63
 5b2:	f8 94       	cli
 5b4:	99 27       	eor	r25, r25
 5b6:	10 92 ff 00 	sts	0x00FF, r1
 5ba:	10 92 fe 00 	sts	0x00FE, r1
 5be:	8f bf       	out	0x3f, r24	; 63
 5c0:	8c 2f       	mov	r24, r28
 5c2:	9d 2f       	mov	r25, r29
 5c4:	0e 94 43 03 	call	0x686
 5c8:	89 e0       	ldi	r24, 0x09	; 9
 5ca:	94 e0       	ldi	r25, 0x04	; 4
 5cc:	0e 94 af 00 	call	0x15e
 5d0:	80 e0       	ldi	r24, 0x00	; 0
 5d2:	90 e0       	ldi	r25, 0x00	; 0
 5d4:	40 c0       	rjmp	.+128    	; 0x656
 5d6:	8f b7       	in	r24, 0x3f	; 63
 5d8:	f8 94       	cli
 5da:	99 27       	eor	r25, r25
 5dc:	20 91 ef 00 	lds	r18, 0x00EF
 5e0:	30 91 00 01 	lds	r19, 0x0100
 5e4:	60 91 ce 00 	lds	r22, 0x00CE
 5e8:	40 91 e5 00 	lds	r20, 0x00E5
 5ec:	50 91 e6 00 	lds	r21, 0x00E6
 5f0:	8f bf       	out	0x3f, r24	; 63
 5f2:	22 23       	and	r18, r18
 5f4:	79 f0       	breq	.+30     	; 0x614
 5f6:	8f b7       	in	r24, 0x3f	; 63
 5f8:	f8 94       	cli
 5fa:	99 27       	eor	r25, r25
 5fc:	70 93 ef 00 	sts	0x00EF, r23
 600:	10 92 ff 00 	sts	0x00FF, r1
 604:	10 92 fe 00 	sts	0x00FE, r1
 608:	8f bf       	out	0x3f, r24	; 63
 60a:	95 2f       	mov	r25, r21
 60c:	84 2f       	mov	r24, r20
 60e:	0e 94 f8 01 	call	0x3f0
 612:	0c c0       	rjmp	.+24     	; 0x62c
 614:	33 23       	and	r19, r19
 616:	61 f0       	breq	.+24     	; 0x630
 618:	8f b7       	in	r24, 0x3f	; 63
 61a:	f8 94       	cli
 61c:	99 27       	eor	r25, r25
 61e:	20 93 00 01 	sts	0x0100, r18
 622:	20 93 f1 00 	sts	0x00F1, r18
 626:	8f bf       	out	0x3f, r24	; 63
 628:	0e 94 3c 04 	call	0x878
 62c:	99 27       	eor	r25, r25
 62e:	13 c0       	rjmp	.+38     	; 0x656
 630:	8f b7       	in	r24, 0x3f	; 63
 632:	f8 94       	cli
 634:	99 27       	eor	r25, r25
 636:	10 92 ff 00 	sts	0x00FF, r1
 63a:	10 92 fe 00 	sts	0x00FE, r1
 63e:	8f bf       	out	0x3f, r24	; 63
 640:	61 e0       	ldi	r22, 0x01	; 1
 642:	8c 2f       	mov	r24, r28
 644:	9d 2f       	mov	r25, r29
 646:	0e 94 43 03 	call	0x686
 64a:	89 e0       	ldi	r24, 0x09	; 9
 64c:	94 e0       	ldi	r25, 0x04	; 4
 64e:	0e 94 af 00 	call	0x15e
 652:	81 e0       	ldi	r24, 0x01	; 1
 654:	90 e0       	ldi	r25, 0x00	; 0
 656:	df 91       	pop	r29
 658:	cf 91       	pop	r28
 65a:	08 95       	ret

0000065c <UARTM$ByteComm$txByte>:
 65c:	48 2f       	mov	r20, r24
 65e:	8f b7       	in	r24, 0x3f	; 63
 660:	f8 94       	cli
 662:	28 2f       	mov	r18, r24
 664:	33 27       	eor	r19, r19
 666:	90 91 e9 00 	lds	r25, 0x00E9
 66a:	81 e0       	ldi	r24, 0x01	; 1
 66c:	80 93 e9 00 	sts	0x00E9, r24
 670:	2f bf       	out	0x3f, r18	; 63
 672:	99 23       	and	r25, r25
 674:	19 f0       	breq	.+6      	; 0x67c
 676:	80 e0       	ldi	r24, 0x00	; 0
 678:	90 e0       	ldi	r25, 0x00	; 0
 67a:	08 95       	ret
 67c:	5e 9a       	sbi	0x0b, 6	; 11
 67e:	4c b9       	out	0x0c, r20	; 12
 680:	81 e0       	ldi	r24, 0x01	; 1
 682:	90 e0       	ldi	r25, 0x00	; 0
 684:	08 95       	ret

00000686 <TestUartM$Debugger$writeDone>:
 686:	0f 93       	push	r16
 688:	1f 93       	push	r17
 68a:	cf 93       	push	r28
 68c:	df 93       	push	r29
 68e:	cd b7       	in	r28, 0x3d	; 61
 690:	de b7       	in	r29, 0x3e	; 62
 692:	2a 97       	sbiw	r28, 0x0a	; 10
 694:	0f b6       	in	r0, 0x3f	; 63
 696:	f8 94       	cli
 698:	de bf       	out	0x3e, r29	; 62
 69a:	0f be       	out	0x3f, r0	; 63
 69c:	cd bf       	out	0x3d, r28	; 61
 69e:	8f b7       	in	r24, 0x3f	; 63
 6a0:	f8 94       	cli
 6a2:	08 2f       	mov	r16, r24
 6a4:	11 27       	eor	r17, r17
 6a6:	80 91 cc 00 	lds	r24, 0x00CC
 6aa:	90 91 cd 00 	lds	r25, 0x00CD
 6ae:	01 96       	adiw	r24, 0x01	; 1
 6b0:	90 93 cd 00 	sts	0x00CD, r25
 6b4:	80 93 cc 00 	sts	0x00CC, r24
 6b8:	4a e0       	ldi	r20, 0x0A	; 10
 6ba:	50 e0       	ldi	r21, 0x00	; 0
 6bc:	6c 2f       	mov	r22, r28
 6be:	7d 2f       	mov	r23, r29
 6c0:	6f 5f       	subi	r22, 0xFF	; 255
 6c2:	7f 4f       	sbci	r23, 0xFF	; 255
 6c4:	0e 94 e8 05 	call	0xbd0
 6c8:	0f bf       	out	0x3f, r16	; 63
 6ca:	01 ed       	ldi	r16, 0xD1	; 209
 6cc:	10 e0       	ldi	r17, 0x00	; 0
 6ce:	88 e0       	ldi	r24, 0x08	; 8
 6d0:	b1 2f       	mov	r27, r17
 6d2:	a0 2f       	mov	r26, r16
 6d4:	ea e7       	ldi	r30, 0x7A	; 122
 6d6:	f0 e0       	ldi	r31, 0x00	; 0
 6d8:	01 90       	ld	r0, Z+
 6da:	0d 92       	st	X+, r0
 6dc:	8a 95       	dec	r24
 6de:	e1 f7       	brne	.-8      	; 0x6d8
 6e0:	6c 2f       	mov	r22, r28
 6e2:	7d 2f       	mov	r23, r29
 6e4:	6f 5f       	subi	r22, 0xFF	; 255
 6e6:	7f 4f       	sbci	r23, 0xFF	; 255
 6e8:	91 2f       	mov	r25, r17
 6ea:	80 2f       	mov	r24, r16
 6ec:	0e 94 0e 06 	call	0xc1c
 6f0:	f1 2f       	mov	r31, r17
 6f2:	e0 2f       	mov	r30, r16
 6f4:	01 90       	ld	r0, Z+
 6f6:	00 20       	and	r0, r0
 6f8:	e9 f7       	brne	.-6      	; 0x6f4
 6fa:	31 97       	sbiw	r30, 0x01	; 1
 6fc:	e0 1b       	sub	r30, r16
 6fe:	f1 0b       	sbc	r31, r17
 700:	6e 2f       	mov	r22, r30
 702:	91 2f       	mov	r25, r17
 704:	80 2f       	mov	r24, r16
 706:	0e 94 91 03 	call	0x722
 70a:	99 27       	eor	r25, r25
 70c:	2a 96       	adiw	r28, 0x0a	; 10
 70e:	0f b6       	in	r0, 0x3f	; 63
 710:	f8 94       	cli
 712:	de bf       	out	0x3e, r29	; 62
 714:	0f be       	out	0x3f, r0	; 63
 716:	cd bf       	out	0x3d, r28	; 61
 718:	df 91       	pop	r29
 71a:	cf 91       	pop	r28
 71c:	1f 91       	pop	r17
 71e:	0f 91       	pop	r16
 720:	08 95       	ret

00000722 <UartDebuggerM$Debugger$writeLine>:
 722:	f9 2f       	mov	r31, r25
 724:	e8 2f       	mov	r30, r24
 726:	8f b7       	in	r24, 0x3f	; 63
 728:	f8 94       	cli
 72a:	99 27       	eor	r25, r25
 72c:	70 91 fe 00 	lds	r23, 0x00FE
 730:	8f bf       	out	0x3f, r24	; 63
 732:	77 23       	and	r23, r23
 734:	a1 f5       	brne	.+104    	; 0x79e
 736:	8f b7       	in	r24, 0x3f	; 63
 738:	f8 94       	cli
 73a:	99 27       	eor	r25, r25
 73c:	41 e0       	ldi	r20, 0x01	; 1
 73e:	40 93 ef 00 	sts	0x00EF, r20
 742:	40 93 00 01 	sts	0x0100, r20
 746:	8f bf       	out	0x3f, r24	; 63
 748:	8f b7       	in	r24, 0x3f	; 63
 74a:	f8 94       	cli
 74c:	99 27       	eor	r25, r25
 74e:	f0 93 e6 00 	sts	0x00E6, r31
 752:	e0 93 e5 00 	sts	0x00E5, r30
 756:	8f bf       	out	0x3f, r24	; 63
 758:	8f b7       	in	r24, 0x3f	; 63
 75a:	f8 94       	cli
 75c:	28 2f       	mov	r18, r24
 75e:	33 27       	eor	r19, r19
 760:	65 31       	cpi	r22, 0x15	; 21
 762:	08 f0       	brcs	.+2      	; 0x766
 764:	64 e1       	ldi	r22, 0x14	; 20
 766:	60 93 ce 00 	sts	0x00CE, r22
 76a:	84 e1       	ldi	r24, 0x14	; 20
 76c:	86 1b       	sub	r24, r22
 76e:	80 93 ed 00 	sts	0x00ED, r24
 772:	97 2f       	mov	r25, r23
 774:	80 91 02 01 	lds	r24, 0x0102
 778:	88 23       	and	r24, r24
 77a:	09 f4       	brne	.+2      	; 0x77e
 77c:	94 2f       	mov	r25, r20
 77e:	90 93 02 01 	sts	0x0102, r25
 782:	2f bf       	out	0x3f, r18	; 63
 784:	99 23       	and	r25, r25
 786:	19 f4       	brne	.+6      	; 0x78e
 788:	8a ee       	ldi	r24, 0xEA	; 234
 78a:	90 e0       	ldi	r25, 0x00	; 0
 78c:	02 c0       	rjmp	.+4      	; 0x792
 78e:	80 ec       	ldi	r24, 0xC0	; 192
 790:	90 e0       	ldi	r25, 0x00	; 0
 792:	62 e0       	ldi	r22, 0x02	; 2
 794:	0e 94 f8 01 	call	0x3f0
 798:	81 e0       	ldi	r24, 0x01	; 1
 79a:	90 e0       	ldi	r25, 0x00	; 0
 79c:	08 95       	ret
 79e:	2e 2f       	mov	r18, r30
 7a0:	3f 2f       	mov	r19, r31
 7a2:	46 2f       	mov	r20, r22
 7a4:	51 e0       	ldi	r21, 0x01	; 1
 7a6:	95 2f       	mov	r25, r21
 7a8:	84 2f       	mov	r24, r20
 7aa:	73 2f       	mov	r23, r19
 7ac:	62 2f       	mov	r22, r18
 7ae:	0e 94 db 03 	call	0x7b6
 7b2:	99 27       	eor	r25, r25
 7b4:	08 95       	ret

000007b6 <UartDebuggerM$enqueue>:
 7b6:	26 2f       	mov	r18, r22
 7b8:	37 2f       	mov	r19, r23
 7ba:	48 2f       	mov	r20, r24
 7bc:	59 2f       	mov	r21, r25
 7be:	8f b7       	in	r24, 0x3f	; 63
 7c0:	f8 94       	cli
 7c2:	98 2f       	mov	r25, r24
 7c4:	80 91 93 00 	lds	r24, 0x0093
 7c8:	e0 91 95 00 	lds	r30, 0x0095
 7cc:	84 30       	cpi	r24, 0x04	; 4
 7ce:	29 f4       	brne	.+10     	; 0x7da
 7d0:	ef 5f       	subi	r30, 0xFF	; 255
 7d2:	e0 93 95 00 	sts	0x0095, r30
 7d6:	e1 50       	subi	r30, 0x01	; 1
 7d8:	07 c0       	rjmp	.+14     	; 0x7e8
 7da:	ef 5f       	subi	r30, 0xFF	; 255
 7dc:	e0 93 95 00 	sts	0x0095, r30
 7e0:	e1 50       	subi	r30, 0x01	; 1
 7e2:	8f 5f       	subi	r24, 0xFF	; 255
 7e4:	80 93 93 00 	sts	0x0093, r24
 7e8:	80 91 95 00 	lds	r24, 0x0095
 7ec:	84 30       	cpi	r24, 0x04	; 4
 7ee:	10 f0       	brcs	.+4      	; 0x7f4
 7f0:	10 92 95 00 	sts	0x0095, r1
 7f4:	ff 27       	eor	r31, r31
 7f6:	ee 0f       	add	r30, r30
 7f8:	ff 1f       	adc	r31, r31
 7fa:	ee 0f       	add	r30, r30
 7fc:	ff 1f       	adc	r31, r31
 7fe:	ed 56       	subi	r30, 0x6D	; 109
 800:	ff 4f       	sbci	r31, 0xFF	; 255
 802:	23 83       	std	Z+3, r18	; 0x03
 804:	34 83       	std	Z+4, r19	; 0x04
 806:	45 83       	std	Z+5, r20	; 0x05
 808:	56 83       	std	Z+6, r21	; 0x06
 80a:	9f bf       	out	0x3f, r25	; 63
 80c:	81 e0       	ldi	r24, 0x01	; 1
 80e:	90 e0       	ldi	r25, 0x00	; 0
 810:	08 95       	ret

00000812 <UartDebuggerM$dequeue>:
 812:	71 e0       	ldi	r23, 0x01	; 1
 814:	8f b7       	in	r24, 0x3f	; 63
 816:	f8 94       	cli
 818:	68 2f       	mov	r22, r24
 81a:	e0 91 94 00 	lds	r30, 0x0094
 81e:	90 91 93 00 	lds	r25, 0x0093
 822:	99 23       	and	r25, r25
 824:	b9 f0       	breq	.+46     	; 0x854
 826:	8e 2f       	mov	r24, r30
 828:	87 0f       	add	r24, r23
 82a:	80 93 94 00 	sts	0x0094, r24
 82e:	84 30       	cpi	r24, 0x04	; 4
 830:	11 f4       	brne	.+4      	; 0x836
 832:	10 92 94 00 	sts	0x0094, r1
 836:	91 50       	subi	r25, 0x01	; 1
 838:	90 93 93 00 	sts	0x0093, r25
 83c:	ff 27       	eor	r31, r31
 83e:	ee 0f       	add	r30, r30
 840:	ff 1f       	adc	r31, r31
 842:	ee 0f       	add	r30, r30
 844:	ff 1f       	adc	r31, r31
 846:	ed 56       	subi	r30, 0x6D	; 109
 848:	ff 4f       	sbci	r31, 0xFF	; 255
 84a:	23 81       	ldd	r18, Z+3	; 0x03
 84c:	34 81       	ldd	r19, Z+4	; 0x04
 84e:	45 81       	ldd	r20, Z+5	; 0x05
 850:	56 81       	ldd	r21, Z+6	; 0x06
 852:	01 c0       	rjmp	.+2      	; 0x856
 854:	79 2f       	mov	r23, r25
 856:	6f bf       	out	0x3f, r22	; 63
 858:	77 23       	and	r23, r23
 85a:	69 f0       	breq	.+26     	; 0x876
 85c:	55 23       	and	r21, r21
 85e:	31 f0       	breq	.+12     	; 0x86c
 860:	64 2f       	mov	r22, r20
 862:	93 2f       	mov	r25, r19
 864:	82 2f       	mov	r24, r18
 866:	0e 94 91 03 	call	0x722
 86a:	08 95       	ret
 86c:	64 2f       	mov	r22, r20
 86e:	93 2f       	mov	r25, r19
 870:	82 2f       	mov	r24, r18
 872:	0e 94 f8 01 	call	0x3f0
 876:	08 95       	ret

00000878 <UartDebuggerM$clearLine>:
 878:	8f b7       	in	r24, 0x3f	; 63
 87a:	f8 94       	cli
 87c:	48 2f       	mov	r20, r24
 87e:	80 91 f1 00 	lds	r24, 0x00F1
 882:	8f 5f       	subi	r24, 0xFF	; 255
 884:	80 93 f1 00 	sts	0x00F1, r24
 888:	28 2f       	mov	r18, r24
 88a:	33 27       	eor	r19, r19
 88c:	80 91 ed 00 	lds	r24, 0x00ED
 890:	99 27       	eor	r25, r25
 892:	01 97       	sbiw	r24, 0x01	; 1
 894:	28 17       	cp	r18, r24
 896:	39 07       	cpc	r19, r25
 898:	1c f0       	brlt	.+6      	; 0x8a0
 89a:	84 e0       	ldi	r24, 0x04	; 4
 89c:	90 e0       	ldi	r25, 0x00	; 0
 89e:	02 c0       	rjmp	.+4      	; 0x8a4
 8a0:	83 e0       	ldi	r24, 0x03	; 3
 8a2:	90 e0       	ldi	r25, 0x00	; 0
 8a4:	90 93 ff 00 	sts	0x00FF, r25
 8a8:	80 93 fe 00 	sts	0x00FE, r24
 8ac:	4f bf       	out	0x3f, r20	; 63
 8ae:	80 e2       	ldi	r24, 0x20	; 32
 8b0:	0e 94 2e 03 	call	0x65c
 8b4:	68 2f       	mov	r22, r24
 8b6:	77 27       	eor	r23, r23
 8b8:	66 23       	and	r22, r22
 8ba:	99 f4       	brne	.+38     	; 0x8e2
 8bc:	8f b7       	in	r24, 0x3f	; 63
 8be:	f8 94       	cli
 8c0:	99 27       	eor	r25, r25
 8c2:	10 92 ff 00 	sts	0x00FF, r1
 8c6:	10 92 fe 00 	sts	0x00FE, r1
 8ca:	8f bf       	out	0x3f, r24	; 63
 8cc:	80 e0       	ldi	r24, 0x00	; 0
 8ce:	90 e0       	ldi	r25, 0x00	; 0
 8d0:	0e 94 43 03 	call	0x686
 8d4:	89 e0       	ldi	r24, 0x09	; 9
 8d6:	94 e0       	ldi	r25, 0x04	; 4
 8d8:	0e 94 af 00 	call	0x15e
 8dc:	80 e0       	ldi	r24, 0x00	; 0
 8de:	90 e0       	ldi	r25, 0x00	; 0
 8e0:	08 95       	ret
 8e2:	81 e0       	ldi	r24, 0x01	; 1
 8e4:	90 e0       	ldi	r25, 0x00	; 0
 8e6:	08 95       	ret

000008e8 <HPLPowerManagementM$PowerManagement$adjustPower>:
 8e8:	80 91 60 00 	lds	r24, 0x0060
 8ec:	88 23       	and	r24, r24
 8ee:	29 f4       	brne	.+10     	; 0x8fa
 8f0:	87 e8       	ldi	r24, 0x87	; 135
 8f2:	95 e0       	ldi	r25, 0x05	; 5
 8f4:	0e 94 af 00 	call	0x15e
 8f8:	06 c0       	rjmp	.+12     	; 0x906
 8fa:	85 b7       	in	r24, 0x35	; 53
 8fc:	83 7e       	andi	r24, 0xE3	; 227
 8fe:	85 bf       	out	0x35, r24	; 53
 900:	85 b7       	in	r24, 0x35	; 53
 902:	80 62       	ori	r24, 0x20	; 32
 904:	85 bf       	out	0x35, r24	; 53
 906:	80 e0       	ldi	r24, 0x00	; 0
 908:	90 e0       	ldi	r25, 0x00	; 0
 90a:	08 95       	ret

0000090c <UARTM$HPLUART$putDone>:
 90c:	8f b7       	in	r24, 0x3f	; 63
 90e:	f8 94       	cli
 910:	99 27       	eor	r25, r25
 912:	20 91 e9 00 	lds	r18, 0x00E9
 916:	10 92 e9 00 	sts	0x00E9, r1
 91a:	8f bf       	out	0x3f, r24	; 63
 91c:	22 23       	and	r18, r18
 91e:	59 f1       	breq	.+86     	; 0x976
 920:	8f b7       	in	r24, 0x3f	; 63
 922:	f8 94       	cli
 924:	99 27       	eor	r25, r25
 926:	20 91 fe 00 	lds	r18, 0x00FE
 92a:	8f bf       	out	0x3f, r24	; 63
 92c:	33 27       	eor	r19, r19
 92e:	23 30       	cpi	r18, 0x03	; 3
 930:	31 05       	cpc	r19, r1
 932:	51 f0       	breq	.+20     	; 0x948
 934:	24 30       	cpi	r18, 0x04	; 4
 936:	31 05       	cpc	r19, r1
 938:	1c f4       	brge	.+6      	; 0x940
 93a:	23 2b       	or	r18, r19
 93c:	e1 f0       	breq	.+56     	; 0x976
 93e:	19 c0       	rjmp	.+50     	; 0x972
 940:	24 30       	cpi	r18, 0x04	; 4
 942:	31 05       	cpc	r19, r1
 944:	21 f0       	breq	.+8      	; 0x94e
 946:	15 c0       	rjmp	.+42     	; 0x972
 948:	0e 94 3c 04 	call	0x878
 94c:	14 c0       	rjmp	.+40     	; 0x976
 94e:	8f b7       	in	r24, 0x3f	; 63
 950:	f8 94       	cli
 952:	99 27       	eor	r25, r25
 954:	10 92 ff 00 	sts	0x00FF, r1
 958:	10 92 fe 00 	sts	0x00FE, r1
 95c:	8f bf       	out	0x3f, r24	; 63
 95e:	61 e0       	ldi	r22, 0x01	; 1
 960:	80 e0       	ldi	r24, 0x00	; 0
 962:	90 e0       	ldi	r25, 0x00	; 0
 964:	0e 94 43 03 	call	0x686
 968:	89 e0       	ldi	r24, 0x09	; 9
 96a:	94 e0       	ldi	r25, 0x04	; 4
 96c:	0e 94 af 00 	call	0x15e
 970:	02 c0       	rjmp	.+4      	; 0x976
 972:	0e 94 67 02 	call	0x4ce
 976:	81 e0       	ldi	r24, 0x01	; 1
 978:	90 e0       	ldi	r25, 0x00	; 0
 97a:	08 95       	ret

0000097c <__vector_15>:
 97c:	78 94       	sei
 97e:	1f 92       	push	r1
 980:	0f 92       	push	r0
 982:	0f b6       	in	r0, 0x3f	; 63
 984:	0f 92       	push	r0
 986:	11 24       	eor	r1, r1
 988:	2f 93       	push	r18
 98a:	3f 93       	push	r19
 98c:	4f 93       	push	r20
 98e:	5f 93       	push	r21
 990:	6f 93       	push	r22
 992:	7f 93       	push	r23
 994:	8f 93       	push	r24
 996:	9f 93       	push	r25
 998:	af 93       	push	r26
 99a:	bf 93       	push	r27
 99c:	ef 93       	push	r30
 99e:	ff 93       	push	r31
 9a0:	8f b7       	in	r24, 0x3f	; 63
 9a2:	f8 94       	cli
 9a4:	28 2f       	mov	r18, r24
 9a6:	33 27       	eor	r19, r19
 9a8:	80 91 ad 00 	lds	r24, 0x00AD
 9ac:	88 23       	and	r24, r24
 9ae:	69 f0       	breq	.+26     	; 0x9ca
 9b0:	80 91 cf 00 	lds	r24, 0x00CF
 9b4:	80 93 f0 00 	sts	0x00F0, r24
 9b8:	88 60       	ori	r24, 0x08	; 8
 9ba:	80 93 cf 00 	sts	0x00CF, r24
 9be:	83 bf       	out	0x33, r24	; 51
 9c0:	80 91 be 00 	lds	r24, 0x00BE
 9c4:	81 bf       	out	0x31, r24	; 49
 9c6:	10 92 ad 00 	sts	0x00AD, r1
 9ca:	2f bf       	out	0x3f, r18	; 63
 9cc:	81 e0       	ldi	r24, 0x01	; 1
 9ce:	95 e0       	ldi	r25, 0x05	; 5
 9d0:	0e 94 af 00 	call	0x15e
 9d4:	ff 91       	pop	r31
 9d6:	ef 91       	pop	r30
 9d8:	bf 91       	pop	r27
 9da:	af 91       	pop	r26
 9dc:	9f 91       	pop	r25
 9de:	8f 91       	pop	r24
 9e0:	7f 91       	pop	r23
 9e2:	6f 91       	pop	r22
 9e4:	5f 91       	pop	r21
 9e6:	4f 91       	pop	r20
 9e8:	3f 91       	pop	r19
 9ea:	2f 91       	pop	r18
 9ec:	0f 90       	pop	r0
 9ee:	0f be       	out	0x3f, r0	; 63
 9f0:	0f 90       	pop	r0
 9f2:	1f 90       	pop	r1
 9f4:	18 95       	reti

000009f6 <__nesc_atomic_end>:
 9f6:	8f bf       	out	0x3f, r24	; 63
 9f8:	08 95       	ret

000009fa <__nesc_atomic_start>:
 9fa:	8f b7       	in	r24, 0x3f	; 63
 9fc:	f8 94       	cli
 9fe:	99 27       	eor	r25, r25
 a00:	08 95       	ret

00000a02 <TimerM$HandleFire>:
 a02:	cf 93       	push	r28
 a04:	df 93       	push	r29
 a06:	81 e0       	ldi	r24, 0x01	; 1
 a08:	80 93 e7 00 	sts	0x00E7, r24
 a0c:	80 91 fa 00 	lds	r24, 0x00FA
 a10:	90 91 fb 00 	lds	r25, 0x00FB
 a14:	a0 91 fc 00 	lds	r26, 0x00FC
 a18:	b0 91 fd 00 	lds	r27, 0x00FD
 a1c:	00 97       	sbiw	r24, 0x00	; 0
 a1e:	a1 05       	cpc	r26, r1
 a20:	b1 05       	cpc	r27, r1
 a22:	09 f4       	brne	.+2      	; 0xa26
 a24:	6f c0       	rjmp	.+222    	; 0xb04
 a26:	fb 2f       	mov	r31, r27
 a28:	ea 2f       	mov	r30, r26
 a2a:	d9 2f       	mov	r29, r25
 a2c:	c8 2f       	mov	r28, r24
 a2e:	80 ff       	sbrs	r24, 0
 a30:	69 c0       	rjmp	.+210    	; 0xb04
 a32:	80 91 ec 00 	lds	r24, 0x00EC
 a36:	99 27       	eor	r25, r25
 a38:	01 96       	adiw	r24, 0x01	; 1
 a3a:	aa 27       	eor	r26, r26
 a3c:	97 fd       	sbrc	r25, 7
 a3e:	a0 95       	com	r26
 a40:	ba 2f       	mov	r27, r26
 a42:	20 91 c7 00 	lds	r18, 0x00C7
 a46:	30 91 c8 00 	lds	r19, 0x00C8
 a4a:	40 91 c9 00 	lds	r20, 0x00C9
 a4e:	50 91 ca 00 	lds	r21, 0x00CA
 a52:	28 1b       	sub	r18, r24
 a54:	39 0b       	sbc	r19, r25
 a56:	4a 0b       	sbc	r20, r26
 a58:	5b 0b       	sbc	r21, r27
 a5a:	20 93 c7 00 	sts	0x00C7, r18
 a5e:	30 93 c8 00 	sts	0x00C8, r19
 a62:	40 93 c9 00 	sts	0x00C9, r20
 a66:	50 93 ca 00 	sts	0x00CA, r21
 a6a:	23 30       	cpi	r18, 0x03	; 3
 a6c:	31 05       	cpc	r19, r1
 a6e:	41 05       	cpc	r20, r1
 a70:	51 05       	cpc	r21, r1
 a72:	0c f0       	brlt	.+2      	; 0xa76
 a74:	47 c0       	rjmp	.+142    	; 0xb04
 a76:	80 91 c2 00 	lds	r24, 0x00C2
 a7a:	88 23       	and	r24, r24
 a7c:	a9 f4       	brne	.+42     	; 0xaa8
 a7e:	80 91 c3 00 	lds	r24, 0x00C3
 a82:	90 91 c4 00 	lds	r25, 0x00C4
 a86:	a0 91 c5 00 	lds	r26, 0x00C5
 a8a:	b0 91 c6 00 	lds	r27, 0x00C6
 a8e:	28 0f       	add	r18, r24
 a90:	39 1f       	adc	r19, r25
 a92:	4a 1f       	adc	r20, r26
 a94:	5b 1f       	adc	r21, r27
 a96:	20 93 c7 00 	sts	0x00C7, r18
 a9a:	30 93 c8 00 	sts	0x00C8, r19
 a9e:	40 93 c9 00 	sts	0x00C9, r20
 aa2:	50 93 ca 00 	sts	0x00CA, r21
 aa6:	14 c0       	rjmp	.+40     	; 0xad0
 aa8:	81 e0       	ldi	r24, 0x01	; 1
 aaa:	90 e0       	ldi	r25, 0x00	; 0
 aac:	80 95       	com	r24
 aae:	90 95       	com	r25
 ab0:	aa 27       	eor	r26, r26
 ab2:	97 fd       	sbrc	r25, 7
 ab4:	a0 95       	com	r26
 ab6:	ba 2f       	mov	r27, r26
 ab8:	8c 23       	and	r24, r28
 aba:	9d 23       	and	r25, r29
 abc:	ae 23       	and	r26, r30
 abe:	bf 23       	and	r27, r31
 ac0:	80 93 fa 00 	sts	0x00FA, r24
 ac4:	90 93 fb 00 	sts	0x00FB, r25
 ac8:	a0 93 fc 00 	sts	0x00FC, r26
 acc:	b0 93 fd 00 	sts	0x00FD, r27
 ad0:	80 91 01 01 	lds	r24, 0x0101
 ad4:	88 23       	and	r24, r24
 ad6:	19 f4       	brne	.+6      	; 0xade
 ad8:	8f ef       	ldi	r24, 0xFF	; 255
 ada:	80 93 01 01 	sts	0x0101, r24
 ade:	90 91 01 01 	lds	r25, 0x0101
 ae2:	9f 5f       	subi	r25, 0xFF	; 255
 ae4:	90 93 01 01 	sts	0x0101, r25
 ae8:	80 91 ac 00 	lds	r24, 0x00AC
 aec:	8f 5f       	subi	r24, 0xFF	; 255
 aee:	80 93 ac 00 	sts	0x00AC, r24
 af2:	e9 2f       	mov	r30, r25
 af4:	ff 27       	eor	r31, r31
 af6:	e9 55       	subi	r30, 0x59	; 89
 af8:	ff 4f       	sbci	r31, 0xFF	; 255
 afa:	10 82       	st	Z, r1
 afc:	84 ec       	ldi	r24, 0xC4	; 196
 afe:	95 e0       	ldi	r25, 0x05	; 5
 b00:	0e 94 af 00 	call	0x15e
 b04:	0e 94 85 00 	call	0x10a
 b08:	df 91       	pop	r29
 b0a:	cf 91       	pop	r28
 b0c:	08 95       	ret

00000b0e <HPLPowerManagementM$doAdjustment>:
 b0e:	87 b7       	in	r24, 0x37	; 55
 b10:	28 2f       	mov	r18, r24
 b12:	33 27       	eor	r19, r19
 b14:	2c 7f       	andi	r18, 0xFC	; 252
 b16:	21 15       	cp	r18, r1
 b18:	31 05       	cpc	r19, r1
 b1a:	19 f0       	breq	.+6      	; 0xb22
 b1c:	80 e0       	ldi	r24, 0x00	; 0
 b1e:	90 e0       	ldi	r25, 0x00	; 0
 b20:	1a c0       	rjmp	.+52     	; 0xb56
 b22:	6f 99       	sbic	0x0d, 7	; 13
 b24:	10 c0       	rjmp	.+32     	; 0xb46
 b26:	8a b1       	in	r24, 0x0a	; 10
 b28:	80 7c       	andi	r24, 0xC0	; 192
 b2a:	69 f4       	brne	.+26     	; 0xb46
 b2c:	37 99       	sbic	0x06, 7	; 6
 b2e:	11 c0       	rjmp	.+34     	; 0xb52
 b30:	87 b7       	in	r24, 0x37	; 55
 b32:	99 27       	eor	r25, r25
 b34:	83 70       	andi	r24, 0x03	; 3
 b36:	90 70       	andi	r25, 0x00	; 0
 b38:	89 2b       	or	r24, r25
 b3a:	59 f0       	breq	.+22     	; 0xb52
 b3c:	81 b7       	in	r24, 0x31	; 49
 b3e:	92 b7       	in	r25, 0x32	; 50
 b40:	89 1b       	sub	r24, r25
 b42:	80 31       	cpi	r24, 0x10	; 16
 b44:	18 f4       	brcc	.+6      	; 0xb4c
 b46:	93 2f       	mov	r25, r19
 b48:	82 2f       	mov	r24, r18
 b4a:	05 c0       	rjmp	.+10     	; 0xb56
 b4c:	88 e1       	ldi	r24, 0x18	; 24
 b4e:	90 e0       	ldi	r25, 0x00	; 0
 b50:	02 c0       	rjmp	.+4      	; 0xb56
 b52:	88 e0       	ldi	r24, 0x08	; 8
 b54:	90 e0       	ldi	r25, 0x00	; 0
 b56:	38 2f       	mov	r19, r24
 b58:	25 b7       	in	r18, 0x35	; 53
 b5a:	23 7e       	andi	r18, 0xE3	; 227
 b5c:	88 31       	cpi	r24, 0x18	; 24
 b5e:	71 f4       	brne	.+28     	; 0xb7c
 b60:	80 b7       	in	r24, 0x30	; 48
 b62:	99 27       	eor	r25, r25
 b64:	87 70       	andi	r24, 0x07	; 7
 b66:	90 70       	andi	r25, 0x00	; 0
 b68:	89 2b       	or	r24, r25
 b6a:	39 f0       	breq	.+14     	; 0xb7a
 b6c:	00 00       	nop
 b6e:	80 b7       	in	r24, 0x30	; 48
 b70:	99 27       	eor	r25, r25
 b72:	87 70       	andi	r24, 0x07	; 7
 b74:	90 70       	andi	r25, 0x00	; 0
 b76:	89 2b       	or	r24, r25
 b78:	c9 f7       	brne	.-14     	; 0xb6c
 b7a:	23 7e       	andi	r18, 0xE3	; 227
 b7c:	23 2b       	or	r18, r19
 b7e:	25 bf       	out	0x35, r18	; 53
 b80:	85 b7       	in	r24, 0x35	; 53
 b82:	80 62       	ori	r24, 0x20	; 32
 b84:	85 bf       	out	0x35, r24	; 53
 b86:	08 95       	ret

00000b88 <TimerM$signalOneTimer>:
 b88:	90 91 ac 00 	lds	r25, 0x00AC
 b8c:	99 23       	and	r25, r25
 b8e:	19 f4       	brne	.+6      	; 0xb96
 b90:	81 e0       	ldi	r24, 0x01	; 1
 b92:	90 e0       	ldi	r25, 0x00	; 0
 b94:	15 c0       	rjmp	.+42     	; 0xbc0
 b96:	80 91 92 00 	lds	r24, 0x0092
 b9a:	88 23       	and	r24, r24
 b9c:	19 f4       	brne	.+6      	; 0xba4
 b9e:	8f ef       	ldi	r24, 0xFF	; 255
 ba0:	80 93 92 00 	sts	0x0092, r24
 ba4:	80 91 92 00 	lds	r24, 0x0092
 ba8:	8f 5f       	subi	r24, 0xFF	; 255
 baa:	80 93 92 00 	sts	0x0092, r24
 bae:	91 50       	subi	r25, 0x01	; 1
 bb0:	90 93 ac 00 	sts	0x00AC, r25
 bb4:	e8 2f       	mov	r30, r24
 bb6:	ff 27       	eor	r31, r31
 bb8:	e9 55       	subi	r30, 0x59	; 89
 bba:	ff 4f       	sbci	r31, 0xFF	; 255
 bbc:	80 81       	ld	r24, Z
 bbe:	99 27       	eor	r25, r25
 bc0:	88 23       	and	r24, r24
 bc2:	29 f4       	brne	.+10     	; 0xbce
 bc4:	6e e0       	ldi	r22, 0x0E	; 14
 bc6:	82 e8       	ldi	r24, 0x82	; 130
 bc8:	90 e0       	ldi	r25, 0x00	; 0
 bca:	0e 94 91 03 	call	0x722
 bce:	08 95       	ret

00000bd0 <itoa>:
 bd0:	e6 2f       	mov	r30, r22
 bd2:	f7 2f       	mov	r31, r23
 bd4:	2e 2f       	mov	r18, r30
 bd6:	3f 2f       	mov	r19, r31
 bd8:	42 30       	cpi	r20, 0x02	; 2
 bda:	ec f0       	brlt	.+58     	; 0xc16
 bdc:	4a 30       	cpi	r20, 0x0A	; 10
 bde:	31 f4       	brne	.+12     	; 0xbec
 be0:	97 fb       	bst	r25, 7
 be2:	99 23       	and	r25, r25
 be4:	1c f4       	brge	.+6      	; 0xbec
 be6:	90 95       	com	r25
 be8:	81 95       	neg	r24
 bea:	9f 4f       	sbci	r25, 0xFF	; 255

00000bec <divide_loop>:
 bec:	64 2f       	mov	r22, r20
 bee:	77 27       	eor	r23, r23
 bf0:	0e 94 2d 06 	call	0xc5a
 bf4:	80 5d       	subi	r24, 0xD0	; 208
 bf6:	8a 33       	cpi	r24, 0x3A	; 58
 bf8:	0c f0       	brlt	.+2      	; 0xbfc
 bfa:	89 5d       	subi	r24, 0xD9	; 217

00000bfc <L_10>:
 bfc:	81 93       	st	Z+, r24
 bfe:	86 2f       	mov	r24, r22
 c00:	97 2f       	mov	r25, r23
 c02:	00 97       	sbiw	r24, 0x00	; 0
 c04:	99 f7       	brne	.-26     	; 0xbec
 c06:	55 27       	eor	r21, r21
 c08:	50 f9       	bld	r21, 0
 c0a:	55 23       	and	r21, r21
 c0c:	11 f0       	breq	.+4      	; 0xc12
 c0e:	5d e2       	ldi	r21, 0x2D	; 45
 c10:	51 93       	st	Z+, r21

00000c12 <n_terminate>:
 c12:	93 2f       	mov	r25, r19
 c14:	82 2f       	mov	r24, r18

00000c16 <terminate>:
 c16:	10 82       	st	Z, r1
 c18:	0c 94 1b 06 	jmp	0xc36

00000c1c <strcat>:
 c1c:	e6 2f       	mov	r30, r22
 c1e:	f7 2f       	mov	r31, r23
 c20:	a8 2f       	mov	r26, r24
 c22:	b9 2f       	mov	r27, r25

00000c24 <.strcat_skip>:
 c24:	0d 90       	ld	r0, X+
 c26:	00 20       	and	r0, r0
 c28:	e9 f7       	brne	.-6      	; 0xc24
 c2a:	11 97       	sbiw	r26, 0x01	; 1

00000c2c <.strcat_loop>:
 c2c:	01 90       	ld	r0, Z+
 c2e:	0d 92       	st	X+, r0
 c30:	00 20       	and	r0, r0
 c32:	e1 f7       	brne	.-8      	; 0xc2c
 c34:	08 95       	ret

00000c36 <strrev>:
 c36:	a8 2f       	mov	r26, r24
 c38:	b9 2f       	mov	r27, r25
 c3a:	e8 2f       	mov	r30, r24
 c3c:	f9 2f       	mov	r31, r25

00000c3e <.strrev_eos>:
 c3e:	01 90       	ld	r0, Z+
 c40:	00 20       	and	r0, r0
 c42:	e9 f7       	brne	.-6      	; 0xc3e
 c44:	32 97       	sbiw	r30, 0x02	; 2

00000c46 <.strrev_loop>:
 c46:	ae 17       	cp	r26, r30
 c48:	bf 07       	cpc	r27, r31
 c4a:	30 f4       	brcc	.+12     	; 0xc58
 c4c:	7c 91       	ld	r23, X
 c4e:	60 81       	ld	r22, Z
 c50:	70 83       	st	Z, r23
 c52:	31 97       	sbiw	r30, 0x01	; 1
 c54:	6d 93       	st	X+, r22
 c56:	f7 cf       	rjmp	.-18     	; 0xc46

00000c58 <.strrev_done>:
 c58:	08 95       	ret

00000c5a <__udivmodhi4>:
 c5a:	aa 1b       	sub	r26, r26
 c5c:	bb 1b       	sub	r27, r27
 c5e:	51 e1       	ldi	r21, 0x11	; 17
 c60:	07 c0       	rjmp	.+14     	; 0xc70

00000c62 <__udivmodhi4_loop>:
 c62:	aa 1f       	adc	r26, r26
 c64:	bb 1f       	adc	r27, r27
 c66:	a6 17       	cp	r26, r22
 c68:	b7 07       	cpc	r27, r23
 c6a:	10 f0       	brcs	.+4      	; 0xc70
 c6c:	a6 1b       	sub	r26, r22
 c6e:	b7 0b       	sbc	r27, r23

00000c70 <__udivmodhi4_ep>:
 c70:	88 1f       	adc	r24, r24
 c72:	99 1f       	adc	r25, r25
 c74:	5a 95       	dec	r21
 c76:	a9 f7       	brne	.-22     	; 0xc62
 c78:	80 95       	com	r24
 c7a:	90 95       	com	r25
 c7c:	68 2f       	mov	r22, r24
 c7e:	79 2f       	mov	r23, r25
 c80:	8a 2f       	mov	r24, r26
 c82:	9b 2f       	mov	r25, r27
 c84:	08 95       	ret
