
main.exe:     file format elf32-avr

Sections:
Idx Name          Size      VMA       LMA       File off  Algn
  0 .text         00004076  00000000  00000000  00000094  2**0
                  CONTENTS, ALLOC, LOAD, READONLY, CODE
  1 .data         00000004  00800060  00004076  0000410a  2**0
                  CONTENTS, ALLOC, LOAD, DATA
  2 .bss          0000034c  00800064  00800064  0000410e  2**0
                  ALLOC
  3 .noinit       00000000  008003b0  008003b0  0000410e  2**0
                  CONTENTS
  4 .eeprom       00000000  00810000  00810000  0000410e  2**0
                  CONTENTS
  5 .stab         000003f0  00000000  00000000  00004110  2**2
                  CONTENTS, READONLY, DEBUGGING
  6 .stabstr      00000082  00000000  00000000  00004500  2**0
                  CONTENTS, READONLY, DEBUGGING
Disassembly of section .text:

00000000 <__vectors>:
       0:	0c 94 30 01 	jmp	0x260
       4:	0c 94 50 01 	jmp	0x2a0
       8:	0c 94 50 01 	jmp	0x2a0
       c:	0c 94 50 01 	jmp	0x2a0
      10:	0c 94 50 01 	jmp	0x2a0
      14:	0c 94 50 01 	jmp	0x2a0
      18:	0c 94 50 01 	jmp	0x2a0
      1c:	0c 94 50 01 	jmp	0x2a0
      20:	0c 94 50 01 	jmp	0x2a0
      24:	0c 94 50 01 	jmp	0x2a0
      28:	0c 94 50 01 	jmp	0x2a0
      2c:	0c 94 50 01 	jmp	0x2a0
      30:	0c 94 50 01 	jmp	0x2a0
      34:	0c 94 50 01 	jmp	0x2a0
      38:	0c 94 50 01 	jmp	0x2a0
      3c:	0c 94 95 1c 	jmp	0x392a
      40:	0c 94 50 01 	jmp	0x2a0
      44:	0c 94 50 01 	jmp	0x2a0
      48:	0c 94 52 01 	jmp	0x2a4
      4c:	0c 94 50 01 	jmp	0x2a0
      50:	0c 94 7c 01 	jmp	0x2f8
      54:	0c 94 50 01 	jmp	0x2a0
      58:	0c 94 50 01 	jmp	0x2a0
      5c:	0c 94 50 01 	jmp	0x2a0

00000060 <__ctors_end>:
      60:	00 00       	nop
      62:	21 10       	cpse	r2, r1
      64:	42 20       	and	r4, r2
      66:	63 30       	cpi	r22, 0x03	; 3
      68:	84 40       	sbci	r24, 0x04	; 4
      6a:	a5 50       	subi	r26, 0x05	; 5
      6c:	c6 60       	ori	r28, 0x06	; 6
      6e:	e7 70       	andi	r30, 0x07	; 7
      70:	08 81       	ld	r16, Y
      72:	29 91       	ld	r18, Y+
      74:	4a a1       	ldd	r20, Y+34	; 0x22
      76:	6b b1       	in	r22, 0x0b	; 11
      78:	8c c1       	rjmp	.+792    	; 0x392
      7a:	ad d1       	rcall	.+858    	; 0x3d6
      7c:	ce e1       	ldi	r28, 0x1E	; 30
      7e:	ef f1       	brie	.+122    	; 0xfa
      80:	31 12       	cpse	r3, r17
      82:	10 02       	muls	r17, r16
      84:	73 32       	cpi	r23, 0x23	; 35
      86:	52 22       	and	r5, r18
      88:	b5 52       	subi	r27, 0x25	; 37
      8a:	94 42       	sbci	r25, 0x24	; 36
      8c:	f7 72       	andi	r31, 0x27	; 39
      8e:	d6 62       	ori	r29, 0x26	; 38
      90:	39 93       	st	Y+, r19
      92:	18 83       	st	Y, r17
      94:	7b b3       	in	r23, 0x1b	; 27
      96:	5a a3       	std	Y+34, r21	; 0x22
      98:	bd d3       	rcall	.+1914   	; 0x814
      9a:	9c c3       	rjmp	.+1848   	; 0x7d4
      9c:	ff f3       	brie	.-2      	; 0x9c
      9e:	de e3       	ldi	r29, 0x3E	; 62
      a0:	62 24       	eor	r6, r2
      a2:	43 34       	cpi	r20, 0x43	; 67
      a4:	20 04       	cpc	r2, r0
      a6:	01 14       	cp	r0, r1
      a8:	e6 64       	ori	r30, 0x46	; 70
      aa:	c7 74       	andi	r28, 0x47	; 71
      ac:	a4 44       	sbci	r26, 0x44	; 68
      ae:	85 54       	subi	r24, 0x45	; 69
      b0:	6a a5       	ldd	r22, Y+42	; 0x2a
      b2:	4b b5       	in	r20, 0x2b	; 43
      b4:	28 85       	ldd	r18, Y+8	; 0x08
      b6:	09 95       	icall
      b8:	ee e5       	ldi	r30, 0x5E	; 94
      ba:	cf f5       	brid	.+114    	; 0x12e
      bc:	ac c5       	rjmp	.+2904   	; 0xc16
      be:	8d d5       	rcall	.+2842   	; 0xbda
      c0:	53 36       	cpi	r21, 0x63	; 99
      c2:	72 26       	eor	r7, r18
      c4:	11 16       	cp	r1, r17
      c6:	30 06       	cpc	r3, r16
      c8:	d7 76       	andi	r29, 0x67	; 103
      ca:	f6 66       	ori	r31, 0x66	; 102
      cc:	95 56       	subi	r25, 0x65	; 101
      ce:	b4 46       	sbci	r27, 0x64	; 100
      d0:	5b b7       	in	r21, 0x3b	; 59
      d2:	7a a7       	std	Y+42, r23	; 0x2a
      d4:	19 97       	sbiw	r26, 0x09	; 9
      d6:	38 87       	std	Y+8, r19	; 0x08
      d8:	df f7       	brid	.-10     	; 0xd0
      da:	fe e7       	ldi	r31, 0x7E	; 126
      dc:	9d d7       	rcall	.+3898   	; 0x1018
      de:	bc c7       	rjmp	.+3960   	; 0x1058
      e0:	c4 48       	sbci	r28, 0x84	; 132
      e2:	e5 58       	subi	r30, 0x85	; 133
      e4:	86 68       	ori	r24, 0x86	; 134
      e6:	a7 78       	andi	r26, 0x87	; 135
      e8:	40 08       	sbc	r4, r0
      ea:	61 18       	sub	r6, r1
      ec:	02 28       	or	r0, r2
      ee:	23 38       	cpi	r18, 0x83	; 131
      f0:	cc c9       	rjmp	.-3176   	; 0xfffff48a
      f2:	ed d9       	rcall	.-3110   	; 0xfffff4ce
      f4:	8e e9       	ldi	r24, 0x9E	; 158
      f6:	af f9       	.word	0xf9af	; ????
      f8:	48 89       	ldd	r20, Y+16	; 0x10
      fa:	69 99       	sbic	0x0d, 1	; 13
      fc:	0a a9       	ldd	r16, Y+50	; 0x32
      fe:	2b b9       	out	0x0b, r18	; 11
     100:	f5 5a       	subi	r31, 0xA5	; 165
     102:	d4 4a       	sbci	r29, 0xA4	; 164
     104:	b7 7a       	andi	r27, 0xA7	; 167
     106:	96 6a       	ori	r25, 0xA6	; 166
     108:	71 1a       	sub	r7, r17
     10a:	50 0a       	sbc	r5, r16
     10c:	33 3a       	cpi	r19, 0xA3	; 163
     10e:	12 2a       	or	r1, r18
     110:	fd db       	rcall	.-2054   	; 0xfffff90c
     112:	dc cb       	rjmp	.-2120   	; 0xfffff8cc
     114:	bf fb       	.word	0xfbbf	; ????
     116:	9e eb       	ldi	r25, 0xBE	; 190
     118:	79 9b       	sbis	0x0f, 1	; 15
     11a:	58 8b       	std	Y+16, r21	; 0x10
     11c:	3b bb       	out	0x1b, r19	; 27
     11e:	1a ab       	std	Y+50, r17	; 0x32
     120:	a6 6c       	ori	r26, 0xC6	; 198
     122:	87 7c       	andi	r24, 0xC7	; 199
     124:	e4 4c       	sbci	r30, 0xC4	; 196
     126:	c5 5c       	subi	r28, 0xC5	; 197
     128:	22 2c       	mov	r2, r2
     12a:	03 3c       	cpi	r16, 0xC3	; 195
     12c:	60 0c       	add	r6, r0
     12e:	41 1c       	adc	r4, r1
     130:	ae ed       	ldi	r26, 0xDE	; 222
     132:	8f fd       	.word	0xfd8f	; ????
     134:	ec cd       	rjmp	.-1064   	; 0xfffffd0e
     136:	cd dd       	rcall	.-1126   	; 0xfffffcd2
     138:	2a ad       	ldd	r18, Y+58	; 0x3a
     13a:	0b bd       	out	0x2b, r16	; 43
     13c:	68 8d       	ldd	r22, Y+24	; 0x18
     13e:	49 9d       	mul	r20, r9
     140:	97 7e       	andi	r25, 0xE7	; 231
     142:	b6 6e       	ori	r27, 0xE6	; 230
     144:	d5 5e       	subi	r29, 0xE5	; 229
     146:	f4 4e       	sbci	r31, 0xE4	; 228
     148:	13 3e       	cpi	r17, 0xE3	; 227
     14a:	32 2e       	mov	r3, r18
     14c:	51 1e       	adc	r5, r17
     14e:	70 0e       	add	r7, r16
     150:	9f ff       	.word	0xff9f	; ????
     152:	be ef       	ldi	r27, 0xFE	; 254
     154:	dd df       	rcall	.-70     	; 0x110
     156:	fc cf       	rjmp	.-8      	; 0x150
     158:	1b bf       	out	0x3b, r17	; 59
     15a:	3a af       	std	Y+58, r19	; 0x3a
     15c:	59 9f       	mul	r21, r25
     15e:	78 8f       	std	Y+24, r23	; 0x18
     160:	88 91       	.word	0x9188	; ????
     162:	a9 81       	ldd	r26, Y+1	; 0x01
     164:	ca b1       	in	r28, 0x0a	; 10
     166:	eb a1       	ldd	r30, Y+35	; 0x23
     168:	0c d1       	rcall	.+536    	; 0x382
     16a:	2d c1       	rjmp	.+602    	; 0x3c6
     16c:	4e f1       	brts	.+82     	; 0x1c0
     16e:	6f e1       	ldi	r22, 0x1F	; 31
     170:	80 10       	cpse	r8, r0
     172:	a1 00       	.word	0x00a1	; ????
     174:	c2 30       	cpi	r28, 0x02	; 2
     176:	e3 20       	and	r14, r3
     178:	04 50       	subi	r16, 0x04	; 4
     17a:	25 40       	sbci	r18, 0x05	; 5
     17c:	46 70       	andi	r20, 0x06	; 6
     17e:	67 60       	ori	r22, 0x07	; 7
     180:	b9 83       	std	Y+1, r27	; 0x01
     182:	98 93       	.word	0x9398	; ????
     184:	fb a3       	std	Y+35, r31	; 0x23
     186:	da b3       	in	r29, 0x1a	; 26
     188:	3d c3       	rjmp	.+1658   	; 0x804
     18a:	1c d3       	rcall	.+1592   	; 0x7c4
     18c:	7f e3       	ldi	r23, 0x3F	; 63
     18e:	5e f3       	brts	.-42     	; 0x166
     190:	b1 02       	muls	r27, r17
     192:	90 12       	cpse	r9, r16
     194:	f3 22       	and	r15, r19
     196:	d2 32       	cpi	r29, 0x22	; 34
     198:	35 42       	sbci	r19, 0x25	; 37
     19a:	14 52       	subi	r17, 0x24	; 36
     19c:	77 62       	ori	r23, 0x27	; 39
     19e:	56 72       	andi	r21, 0x26	; 38
     1a0:	ea b5       	in	r30, 0x2a	; 42
     1a2:	cb a5       	ldd	r28, Y+43	; 0x2b
     1a4:	a8 95       	wdr
     1a6:	89 85       	ldd	r24, Y+9	; 0x09
     1a8:	6e f5       	brtc	.+90     	; 0x204
     1aa:	4f e5       	ldi	r20, 0x5F	; 95
     1ac:	2c d5       	rcall	.+2648   	; 0xc06
     1ae:	0d c5       	rjmp	.+2586   	; 0xbca
     1b0:	e2 34       	cpi	r30, 0x42	; 66
     1b2:	c3 24       	eor	r12, r3
     1b4:	a0 14       	cp	r10, r0
     1b6:	81 04       	cpc	r8, r1
     1b8:	66 74       	andi	r22, 0x46	; 70
     1ba:	47 64       	ori	r20, 0x47	; 71
     1bc:	24 54       	subi	r18, 0x44	; 68
     1be:	05 44       	sbci	r16, 0x45	; 69
     1c0:	db a7       	std	Y+43, r29	; 0x2b
     1c2:	fa b7       	in	r31, 0x3a	; 58
     1c4:	99 87       	std	Y+9, r25	; 0x09
     1c6:	b8 97       	sbiw	r30, 0x28	; 40
     1c8:	5f e7       	ldi	r21, 0x7F	; 127
     1ca:	7e f7       	brtc	.-34     	; 0x1aa
     1cc:	1d c7       	rjmp	.+3642   	; 0x1008
     1ce:	3c d7       	rcall	.+3704   	; 0x1048
     1d0:	d3 26       	eor	r13, r19
     1d2:	f2 36       	cpi	r31, 0x62	; 98
     1d4:	91 06       	cpc	r9, r17
     1d6:	b0 16       	cp	r11, r16
     1d8:	57 66       	ori	r21, 0x67	; 103
     1da:	76 76       	andi	r23, 0x66	; 102
     1dc:	15 46       	sbci	r17, 0x65	; 101
     1de:	34 56       	subi	r19, 0x64	; 100
     1e0:	4c d9       	rcall	.-3432   	; 0xfffff47a
     1e2:	6d c9       	rjmp	.-3366   	; 0xfffff4be
     1e4:	0e f9       	.word	0xf90e	; ????
     1e6:	2f e9       	ldi	r18, 0x9F	; 159
     1e8:	c8 99       	sbic	0x19, 0	; 25
     1ea:	e9 89       	ldd	r30, Y+17	; 0x11
     1ec:	8a b9       	out	0x0a, r24	; 10
     1ee:	ab a9       	ldd	r26, Y+51	; 0x33
     1f0:	44 58       	subi	r20, 0x84	; 132
     1f2:	65 48       	sbci	r22, 0x85	; 133
     1f4:	06 78       	andi	r16, 0x86	; 134
     1f6:	27 68       	ori	r18, 0x87	; 135
     1f8:	c0 18       	sub	r12, r0
     1fa:	e1 08       	sbc	r14, r1
     1fc:	82 38       	cpi	r24, 0x82	; 130
     1fe:	a3 28       	or	r10, r3
     200:	7d cb       	rjmp	.-2310   	; 0xfffff8fc
     202:	5c db       	rcall	.-2376   	; 0xfffff8bc
     204:	3f eb       	ldi	r19, 0xBF	; 191
     206:	1e fb       	.word	0xfb1e	; ????
     208:	f9 8b       	std	Y+17, r31	; 0x11
     20a:	d8 9b       	sbis	0x1b, 0	; 27
     20c:	bb ab       	std	Y+51, r27	; 0x33
     20e:	9a bb       	out	0x1a, r25	; 26
     210:	75 4a       	sbci	r23, 0xA5	; 165
     212:	54 5a       	subi	r21, 0xA4	; 164
     214:	37 6a       	ori	r19, 0xA7	; 167
     216:	16 7a       	andi	r17, 0xA6	; 166
     218:	f1 0a       	sbc	r15, r17
     21a:	d0 1a       	sub	r13, r16
     21c:	b3 2a       	or	r11, r19
     21e:	92 3a       	cpi	r25, 0xA2	; 162
     220:	2e fd       	.word	0xfd2e	; ????
     222:	0f ed       	ldi	r16, 0xDF	; 223
     224:	6c dd       	rcall	.-1320   	; 0xfffffcfe
     226:	4d cd       	rjmp	.-1382   	; 0xfffffcc2
     228:	aa bd       	out	0x2a, r26	; 42
     22a:	8b ad       	ldd	r24, Y+59	; 0x3b
     22c:	e8 9d       	mul	r30, r8
     22e:	c9 8d       	ldd	r28, Y+25	; 0x19
     230:	26 7c       	andi	r18, 0xC6	; 198
     232:	07 6c       	ori	r16, 0xC7	; 199
     234:	64 5c       	subi	r22, 0xC4	; 196
     236:	45 4c       	sbci	r20, 0xC5	; 197
     238:	a2 3c       	cpi	r26, 0xC2	; 194
     23a:	83 2c       	mov	r8, r3
     23c:	e0 1c       	adc	r14, r0
     23e:	c1 0c       	add	r12, r1
     240:	1f ef       	ldi	r17, 0xFF	; 255
     242:	3e ff       	.word	0xff3e	; ????
     244:	5d cf       	rjmp	.-326    	; 0x100
     246:	7c df       	rcall	.-264    	; 0x140
     248:	9b af       	std	Y+59, r25	; 0x3b
     24a:	ba bf       	out	0x3a, r27	; 58
     24c:	d9 8f       	std	Y+25, r29	; 0x19
     24e:	f8 9f       	mul	r31, r24
     250:	17 6e       	ori	r17, 0xE7	; 231
     252:	36 7e       	andi	r19, 0xE6	; 230
     254:	55 4e       	sbci	r21, 0xE5	; 229
     256:	74 5e       	subi	r23, 0xE4	; 228
     258:	93 2e       	mov	r9, r19
     25a:	b2 3e       	cpi	r27, 0xE2	; 226
     25c:	d1 0e       	add	r13, r17
     25e:	f0 1e       	adc	r15, r16

00000260 <__init>:
     260:	11 24       	eor	r1, r1
     262:	1f be       	out	0x3f, r1	; 63
     264:	cf ef       	ldi	r28, 0xFF	; 255
     266:	df e0       	ldi	r29, 0x0F	; 15
     268:	de bf       	out	0x3e, r29	; 62
     26a:	cd bf       	out	0x3d, r28	; 61

0000026c <__do_copy_data>:
     26c:	10 e0       	ldi	r17, 0x00	; 0
     26e:	a0 e6       	ldi	r26, 0x60	; 96
     270:	b0 e0       	ldi	r27, 0x00	; 0
     272:	e6 e7       	ldi	r30, 0x76	; 118
     274:	f0 e4       	ldi	r31, 0x40	; 64
     276:	0f ef       	ldi	r16, 0xFF	; 255

00000278 <.__do_copy_data_carry>:
     278:	03 95       	inc	r16
     27a:	0b bf       	out	0x3b, r16	; 59
     27c:	04 c0       	rjmp	.+8      	; 0x286

0000027e <.__do_copy_data_loop>:
     27e:	d8 95       	elpm
     280:	0d 92       	st	X+, r0
     282:	31 96       	adiw	r30, 0x01	; 1
     284:	c8 f3       	brcs	.-14     	; 0x278

00000286 <.__do_copy_data_start>:
     286:	a4 36       	cpi	r26, 0x64	; 100
     288:	b1 07       	cpc	r27, r17
     28a:	c9 f7       	brne	.-14     	; 0x27e

0000028c <__do_clear_bss>:
     28c:	13 e0       	ldi	r17, 0x03	; 3
     28e:	a4 e6       	ldi	r26, 0x64	; 100
     290:	b0 e0       	ldi	r27, 0x00	; 0
     292:	01 c0       	rjmp	.+2      	; 0x296

00000294 <.do_clear_bss_loop>:
     294:	1d 92       	st	X+, r1

00000296 <.do_clear_bss_start>:
     296:	a0 3b       	cpi	r26, 0xB0	; 176
     298:	b1 07       	cpc	r27, r17
     29a:	e1 f7       	brne	.-8      	; 0x294
     29c:	0c 94 ca 01 	jmp	0x394

000002a0 <__bad_interrupt>:
     2a0:	0c 94 00 00 	jmp	0x0

000002a4 <__vector_18>:
     2a4:	1f 92       	push	r1
     2a6:	0f 92       	push	r0
     2a8:	0f b6       	in	r0, 0x3f	; 63
     2aa:	0f 92       	push	r0
     2ac:	11 24       	eor	r1, r1
     2ae:	2f 93       	push	r18
     2b0:	3f 93       	push	r19
     2b2:	4f 93       	push	r20
     2b4:	5f 93       	push	r21
     2b6:	6f 93       	push	r22
     2b8:	7f 93       	push	r23
     2ba:	8f 93       	push	r24
     2bc:	9f 93       	push	r25
     2be:	af 93       	push	r26
     2c0:	bf 93       	push	r27
     2c2:	ef 93       	push	r30
     2c4:	ff 93       	push	r31
     2c6:	5f 9b       	sbis	0x0b, 7	; 11
     2c8:	06 c0       	rjmp	.+12     	; 0x2d6
     2ca:	8c b1       	in	r24, 0x0c	; 12
     2cc:	40 e0       	ldi	r20, 0x00	; 0
     2ce:	50 e0       	ldi	r21, 0x00	; 0
     2d0:	60 e0       	ldi	r22, 0x00	; 0
     2d2:	0e 94 ce 1b 	call	0x379c
     2d6:	ff 91       	pop	r31
     2d8:	ef 91       	pop	r30
     2da:	bf 91       	pop	r27
     2dc:	af 91       	pop	r26
     2de:	9f 91       	pop	r25
     2e0:	8f 91       	pop	r24
     2e2:	7f 91       	pop	r23
     2e4:	6f 91       	pop	r22
     2e6:	5f 91       	pop	r21
     2e8:	4f 91       	pop	r20
     2ea:	3f 91       	pop	r19
     2ec:	2f 91       	pop	r18
     2ee:	0f 90       	pop	r0
     2f0:	0f be       	out	0x3f, r0	; 63
     2f2:	0f 90       	pop	r0
     2f4:	1f 90       	pop	r1
     2f6:	18 95       	reti

000002f8 <__vector_20>:
     2f8:	78 94       	sei
     2fa:	1f 92       	push	r1
     2fc:	0f 92       	push	r0
     2fe:	0f b6       	in	r0, 0x3f	; 63
     300:	0f 92       	push	r0
     302:	11 24       	eor	r1, r1
     304:	2f 93       	push	r18
     306:	3f 93       	push	r19
     308:	4f 93       	push	r20
     30a:	5f 93       	push	r21
     30c:	6f 93       	push	r22
     30e:	7f 93       	push	r23
     310:	8f 93       	push	r24
     312:	9f 93       	push	r25
     314:	af 93       	push	r26
     316:	bf 93       	push	r27
     318:	ef 93       	push	r30
     31a:	ff 93       	push	r31
     31c:	0e 94 25 1c 	call	0x384a
     320:	ff 91       	pop	r31
     322:	ef 91       	pop	r30
     324:	bf 91       	pop	r27
     326:	af 91       	pop	r26
     328:	9f 91       	pop	r25
     32a:	8f 91       	pop	r24
     32c:	7f 91       	pop	r23
     32e:	6f 91       	pop	r22
     330:	5f 91       	pop	r21
     332:	4f 91       	pop	r20
     334:	3f 91       	pop	r19
     336:	2f 91       	pop	r18
     338:	0f 90       	pop	r0
     33a:	0f be       	out	0x3f, r0	; 63
     33c:	0f 90       	pop	r0
     33e:	1f 90       	pop	r1
     340:	18 95       	reti

00000342 <TOS_post>:
     342:	48 2f       	mov	r20, r24
     344:	59 2f       	mov	r21, r25
     346:	8f b7       	in	r24, 0x3f	; 63
     348:	f8 94       	cli
     34a:	28 2f       	mov	r18, r24
     34c:	33 27       	eor	r19, r19
     34e:	e0 91 92 01 	lds	r30, 0x0192
     352:	80 91 92 01 	lds	r24, 0x0192
     356:	8f 5f       	subi	r24, 0xFF	; 255
     358:	80 93 92 01 	sts	0x0192, r24
     35c:	80 91 92 01 	lds	r24, 0x0192
     360:	87 70       	andi	r24, 0x07	; 7
     362:	80 93 92 01 	sts	0x0192, r24
     366:	90 91 92 01 	lds	r25, 0x0192
     36a:	80 91 be 00 	lds	r24, 0x00BE
     36e:	98 17       	cp	r25, r24
     370:	59 f0       	breq	.+22     	; 0x388
     372:	2f bf       	out	0x3f, r18	; 63
     374:	ff 27       	eor	r31, r31
     376:	ee 0f       	add	r30, r30
     378:	ff 1f       	adc	r31, r31
     37a:	ec 55       	subi	r30, 0x5C	; 92
     37c:	ff 4f       	sbci	r31, 0xFF	; 255
     37e:	40 83       	st	Z, r20
     380:	51 83       	std	Z+1, r21	; 0x01
     382:	81 e0       	ldi	r24, 0x01	; 1
     384:	90 e0       	ldi	r25, 0x00	; 0
     386:	08 95       	ret
     388:	e0 93 92 01 	sts	0x0192, r30
     38c:	2f bf       	out	0x3f, r18	; 63
     38e:	80 e0       	ldi	r24, 0x00	; 0
     390:	90 e0       	ldi	r25, 0x00	; 0
     392:	08 95       	ret

00000394 <main>:
     394:	cf ef       	ldi	r28, 0xFF	; 255
     396:	df e0       	ldi	r29, 0x0F	; 15
     398:	de bf       	out	0x3e, r29	; 62
     39a:	cd bf       	out	0x3d, r28	; 61
     39c:	1a ba       	out	0x1a, r1	; 26
     39e:	17 ba       	out	0x17, r1	; 23
     3a0:	11 ba       	out	0x11, r1	; 17
     3a2:	82 e0       	ldi	r24, 0x02	; 2
     3a4:	82 b9       	out	0x02, r24	; 2
     3a6:	83 b9       	out	0x03, r24	; 3
     3a8:	d2 9a       	sbi	0x1a, 2	; 26
     3aa:	d0 9a       	sbi	0x1a, 0	; 26
     3ac:	d1 9a       	sbi	0x1a, 1	; 26
     3ae:	8d 9a       	sbi	0x11, 5	; 17
     3b0:	17 9a       	sbi	0x02, 7	; 2
     3b2:	8f 9a       	sbi	0x11, 7	; 17
     3b4:	8e 9a       	sbi	0x11, 6	; 17
     3b6:	bb 9a       	sbi	0x17, 3	; 23
     3b8:	1f 9a       	sbi	0x03, 7	; 3
     3ba:	b8 98       	cbi	0x17, 0	; 23
     3bc:	da 9a       	sbi	0x1b, 2	; 27
     3be:	d8 9a       	sbi	0x1b, 0	; 27
     3c0:	d9 9a       	sbi	0x1b, 1	; 27
     3c2:	14 9a       	sbi	0x02, 4	; 2
     3c4:	1c 9a       	sbi	0x03, 4	; 3
     3c6:	15 98       	cbi	0x02, 5	; 2
     3c8:	1d 9a       	sbi	0x03, 5	; 3
     3ca:	80 e0       	ldi	r24, 0x00	; 0
     3cc:	d9 9a       	sbi	0x1b, 1	; 27
     3ce:	95 98       	cbi	0x12, 5	; 18
     3d0:	da 9a       	sbi	0x1b, 2	; 27
     3d2:	da 98       	cbi	0x1b, 2	; 27
     3d4:	95 9a       	sbi	0x12, 5	; 18
     3d6:	8f 5f       	subi	r24, 0xFF	; 255
     3d8:	87 39       	cpi	r24, 0x97	; 151
     3da:	c0 f3       	brcs	.-16     	; 0x3cc
     3dc:	80 e0       	ldi	r24, 0x00	; 0
     3de:	d9 98       	cbi	0x1b, 1	; 27
     3e0:	95 98       	cbi	0x12, 5	; 18
     3e2:	da 9a       	sbi	0x1b, 2	; 27
     3e4:	da 98       	cbi	0x1b, 2	; 27
     3e6:	95 9a       	sbi	0x12, 5	; 18
     3e8:	8f 5f       	subi	r24, 0xFF	; 255
     3ea:	8a 30       	cpi	r24, 0x0A	; 10
     3ec:	c0 f3       	brcs	.-16     	; 0x3de
     3ee:	d9 9a       	sbi	0x1b, 1	; 27
     3f0:	da 9a       	sbi	0x1b, 2	; 27
     3f2:	8a e0       	ldi	r24, 0x0A	; 10
     3f4:	80 93 84 00 	sts	0x0084, r24
     3f8:	10 92 92 01 	sts	0x0192, r1
     3fc:	10 92 be 00 	sts	0x00BE, r1
     400:	81 e0       	ldi	r24, 0x01	; 1
     402:	90 e0       	ldi	r25, 0x00	; 0
     404:	80 93 5a 03 	sts	0x035A, r24
     408:	80 e0       	ldi	r24, 0x00	; 0
     40a:	96 e0       	ldi	r25, 0x06	; 6
     40c:	90 93 72 00 	sts	0x0072, r25
     410:	80 93 71 00 	sts	0x0071, r24
     414:	10 92 8b 01 	sts	0x018B, r1
     418:	10 92 8a 01 	sts	0x018A, r1
     41c:	e3 ec       	ldi	r30, 0xC3	; 195
     41e:	f0 e0       	ldi	r31, 0x00	; 0
     420:	8f eb       	ldi	r24, 0xBF	; 191
     422:	90 e0       	ldi	r25, 0x00	; 0
     424:	11 92       	st	Z+, r1
     426:	01 97       	sbiw	r24, 0x01	; 1
     428:	2f ef       	ldi	r18, 0xFF	; 255
     42a:	8f 3f       	cpi	r24, 0xFF	; 255
     42c:	92 07       	cpc	r25, r18
     42e:	d1 f7       	brne	.-12     	; 0x424
     430:	40 91 6b 03 	lds	r20, 0x036B
     434:	44 23       	and	r20, r20
     436:	d1 f4       	brne	.+52     	; 0x46c
     438:	10 92 8b 03 	sts	0x038B, r1
     43c:	10 92 8c 03 	sts	0x038C, r1
     440:	10 92 8d 03 	sts	0x038D, r1
     444:	10 92 8e 03 	sts	0x038E, r1
     448:	80 e0       	ldi	r24, 0x00	; 0
     44a:	90 e0       	ldi	r25, 0x00	; 0
     44c:	a6 e0       	ldi	r26, 0x06	; 6
     44e:	b0 e0       	ldi	r27, 0x00	; 0
     450:	80 93 8f 03 	sts	0x038F, r24
     454:	90 93 90 03 	sts	0x0390, r25
     458:	a0 93 91 03 	sts	0x0391, r26
     45c:	b0 93 92 03 	sts	0x0392, r27
     460:	8b e8       	ldi	r24, 0x8B	; 139
     462:	93 e0       	ldi	r25, 0x03	; 3
     464:	90 93 94 03 	sts	0x0394, r25
     468:	80 93 93 03 	sts	0x0393, r24
     46c:	8a e2       	ldi	r24, 0x2A	; 42
     46e:	96 e0       	ldi	r25, 0x06	; 6
     470:	90 93 ad 01 	sts	0x01AD, r25
     474:	80 93 ac 01 	sts	0x01AC, r24
     478:	90 93 a0 01 	sts	0x01A0, r25
     47c:	80 93 9f 01 	sts	0x019F, r24
     480:	20 e0       	ldi	r18, 0x00	; 0
     482:	e5 e9       	ldi	r30, 0x95	; 149
     484:	f3 e0       	ldi	r31, 0x03	; 3
     486:	8a e2       	ldi	r24, 0x2A	; 42
     488:	96 e0       	ldi	r25, 0x06	; 6
     48a:	81 93       	st	Z+, r24
     48c:	91 93       	st	Z+, r25
     48e:	2f 5f       	subi	r18, 0xFF	; 255
     490:	23 30       	cpi	r18, 0x03	; 3
     492:	c8 f3       	brcs	.-14     	; 0x486
     494:	10 92 9f 00 	sts	0x009F, r1
     498:	10 92 9b 00 	sts	0x009B, r1
     49c:	10 92 98 00 	sts	0x0098, r1
     4a0:	21 e0       	ldi	r18, 0x01	; 1
     4a2:	20 93 99 01 	sts	0x0199, r18
     4a6:	80 e0       	ldi	r24, 0x00	; 0
     4a8:	98 e0       	ldi	r25, 0x08	; 8
     4aa:	90 93 b9 00 	sts	0x00B9, r25
     4ae:	80 93 b8 00 	sts	0x00B8, r24
     4b2:	90 93 b6 00 	sts	0x00B6, r25
     4b6:	80 93 b5 00 	sts	0x00B5, r24
     4ba:	80 91 ba 00 	lds	r24, 0x00BA
     4be:	90 91 b7 00 	lds	r25, 0x00B7
     4c2:	82 60       	ori	r24, 0x02	; 2
     4c4:	92 60       	ori	r25, 0x02	; 2
     4c6:	82 7e       	andi	r24, 0xE2	; 226
     4c8:	80 93 ba 00 	sts	0x00BA, r24
     4cc:	92 7e       	andi	r25, 0xE2	; 226
     4ce:	90 93 b7 00 	sts	0x00B7, r25
     4d2:	db 98       	cbi	0x1b, 3	; 27
     4d4:	d3 9a       	sbi	0x1a, 3	; 26
     4d6:	df 9a       	sbi	0x1b, 7	; 27
     4d8:	d7 9a       	sbi	0x1a, 7	; 26
     4da:	de 98       	cbi	0x1b, 6	; 27
     4dc:	d6 98       	cbi	0x1a, 6	; 26
     4de:	8f b7       	in	r24, 0x3f	; 63
     4e0:	f8 94       	cli
     4e2:	99 27       	eor	r25, r25
     4e4:	20 93 8e 01 	sts	0x018E, r18
     4e8:	10 92 bd 00 	sts	0x00BD, r1
     4ec:	8f bf       	out	0x3f, r24	; 63
     4ee:	15 9a       	sbi	0x02, 5	; 2
     4f0:	1d 9a       	sbi	0x03, 5	; 3
     4f2:	8f b7       	in	r24, 0x3f	; 63
     4f4:	f8 94       	cli
     4f6:	28 2f       	mov	r18, r24
     4f8:	33 27       	eor	r19, r19
     4fa:	83 ec       	ldi	r24, 0xC3	; 195
     4fc:	92 e0       	ldi	r25, 0x02	; 2
     4fe:	90 93 96 00 	sts	0x0096, r25
     502:	80 93 95 00 	sts	0x0095, r24
     506:	10 92 9b 03 	sts	0x039B, r1
     50a:	90 93 65 03 	sts	0x0365, r25
     50e:	80 93 64 03 	sts	0x0364, r24
     512:	8b 96       	adiw	r24, 0x2b	; 43
     514:	90 93 67 03 	sts	0x0367, r25
     518:	80 93 66 03 	sts	0x0366, r24
     51c:	10 92 9e 00 	sts	0x009E, r1
     520:	10 92 21 03 	sts	0x0321, r1
     524:	10 92 5f 03 	sts	0x035F, r1
     528:	83 e0       	ldi	r24, 0x03	; 3
     52a:	80 93 91 01 	sts	0x0191, r24
     52e:	2f bf       	out	0x3f, r18	; 63
     530:	8f b7       	in	r24, 0x3f	; 63
     532:	f8 94       	cli
     534:	99 27       	eor	r25, r25
     536:	10 92 98 01 	sts	0x0198, r1
     53a:	8f bf       	out	0x3f, r24	; 63
     53c:	8f b7       	in	r24, 0x3f	; 63
     53e:	f8 94       	cli
     540:	28 2f       	mov	r18, r24
     542:	33 27       	eor	r19, r19
     544:	87 b7       	in	r24, 0x37	; 55
     546:	8e 7f       	andi	r24, 0xFE	; 254
     548:	87 bf       	out	0x37, r24	; 55
     54a:	87 b7       	in	r24, 0x37	; 55
     54c:	8d 7f       	andi	r24, 0xFD	; 253
     54e:	87 bf       	out	0x37, r24	; 55
     550:	80 b7       	in	r24, 0x30	; 48
     552:	88 60       	ori	r24, 0x08	; 8
     554:	80 bf       	out	0x30, r24	; 48
     556:	8a e0       	ldi	r24, 0x0A	; 10
     558:	83 bf       	out	0x33, r24	; 51
     55a:	12 be       	out	0x32, r1	; 50
     55c:	89 e2       	ldi	r24, 0x29	; 41
     55e:	81 bf       	out	0x31, r24	; 49
     560:	87 b7       	in	r24, 0x37	; 55
     562:	82 60       	ori	r24, 0x02	; 2
     564:	87 bf       	out	0x37, r24	; 55
     566:	2f bf       	out	0x3f, r18	; 63
     568:	44 23       	and	r20, r20
     56a:	09 f0       	breq	.+2      	; 0x56e
     56c:	3f c1       	rjmp	.+638    	; 0x7ec
     56e:	94 2e       	mov	r9, r20
     570:	aa 24       	eor	r10, r10
     572:	bb 24       	eor	r11, r11
     574:	db 2c       	mov	r13, r11
     576:	ca 2c       	mov	r12, r10
     578:	fb 2d       	mov	r31, r11
     57a:	ea 2d       	mov	r30, r10
     57c:	ec 0d       	add	r30, r12
     57e:	fd 1d       	adc	r31, r13
     580:	e5 57       	subi	r30, 0x75	; 117
     582:	fc 4f       	sbci	r31, 0xFC	; 252
     584:	80 85       	ldd	r24, Z+8	; 0x08
     586:	91 85       	ldd	r25, Z+9	; 0x09
     588:	89 2b       	or	r24, r25
     58a:	09 f4       	brne	.+2      	; 0x58e
     58c:	81 c0       	rjmp	.+258    	; 0x690
     58e:	68 e8       	ldi	r22, 0x88	; 136
     590:	73 e0       	ldi	r23, 0x03	; 3
     592:	20 e0       	ldi	r18, 0x00	; 0
     594:	30 e0       	ldi	r19, 0x00	; 0
     596:	40 e0       	ldi	r20, 0x00	; 0
     598:	50 e0       	ldi	r21, 0x00	; 0
     59a:	80 91 88 03 	lds	r24, 0x0388
     59e:	90 91 89 03 	lds	r25, 0x0389
     5a2:	89 2b       	or	r24, r25
     5a4:	a9 f1       	breq	.+106    	; 0x610
     5a6:	b7 2f       	mov	r27, r23
     5a8:	a6 2f       	mov	r26, r22
     5aa:	cd 91       	ld	r28, X+
     5ac:	dc 91       	ld	r29, X
     5ae:	e8 80       	ld	r14, Y
     5b0:	f9 80       	ldd	r15, Y+1	; 0x01
     5b2:	0a 81       	ldd	r16, Y+2	; 0x02
     5b4:	1b 81       	ldd	r17, Y+3	; 0x03
     5b6:	80 81       	ld	r24, Z
     5b8:	91 81       	ldd	r25, Z+1	; 0x01
     5ba:	a2 81       	ldd	r26, Z+2	; 0x02
     5bc:	b3 81       	ldd	r27, Z+3	; 0x03
     5be:	82 17       	cp	r24, r18
     5c0:	93 07       	cpc	r25, r19
     5c2:	a4 07       	cpc	r26, r20
     5c4:	b5 07       	cpc	r27, r21
     5c6:	98 f0       	brcs	.+38     	; 0x5ee
     5c8:	8e 15       	cp	r24, r14
     5ca:	9f 05       	cpc	r25, r15
     5cc:	a0 07       	cpc	r26, r16
     5ce:	b1 07       	cpc	r27, r17
     5d0:	70 f4       	brcc	.+28     	; 0x5ee
     5d2:	84 81       	ldd	r24, Z+4	; 0x04
     5d4:	95 81       	ldd	r25, Z+5	; 0x05
     5d6:	a6 81       	ldd	r26, Z+6	; 0x06
     5d8:	b7 81       	ldd	r27, Z+7	; 0x07
     5da:	82 17       	cp	r24, r18
     5dc:	93 07       	cpc	r25, r19
     5de:	a4 07       	cpc	r26, r20
     5e0:	b5 07       	cpc	r27, r21
     5e2:	28 f0       	brcs	.+10     	; 0x5ee
     5e4:	e8 16       	cp	r14, r24
     5e6:	f9 06       	cpc	r15, r25
     5e8:	0a 07       	cpc	r16, r26
     5ea:	1b 07       	cpc	r17, r27
     5ec:	a8 f5       	brcc	.+106    	; 0x658
     5ee:	2c 81       	ldd	r18, Y+4	; 0x04
     5f0:	3d 81       	ldd	r19, Y+5	; 0x05
     5f2:	4e 81       	ldd	r20, Y+6	; 0x06
     5f4:	5f 81       	ldd	r21, Y+7	; 0x07
     5f6:	21 50       	subi	r18, 0x01	; 1
     5f8:	3f 4f       	sbci	r19, 0xFF	; 255
     5fa:	4f 4f       	sbci	r20, 0xFF	; 255
     5fc:	5f 4f       	sbci	r21, 0xFF	; 255
     5fe:	20 70       	andi	r18, 0x00	; 0
     600:	6c 2f       	mov	r22, r28
     602:	7d 2f       	mov	r23, r29
     604:	68 5f       	subi	r22, 0xF8	; 248
     606:	7f 4f       	sbci	r23, 0xFF	; 255
     608:	88 85       	ldd	r24, Y+8	; 0x08
     60a:	99 85       	ldd	r25, Y+9	; 0x09
     60c:	89 2b       	or	r24, r25
     60e:	59 f6       	brne	.-106    	; 0x5a6
     610:	80 81       	ld	r24, Z
     612:	91 81       	ldd	r25, Z+1	; 0x01
     614:	a2 81       	ldd	r26, Z+2	; 0x02
     616:	b3 81       	ldd	r27, Z+3	; 0x03
     618:	82 17       	cp	r24, r18
     61a:	93 07       	cpc	r25, r19
     61c:	a4 07       	cpc	r26, r20
     61e:	b5 07       	cpc	r27, r21
     620:	20 f1       	brcs	.+72     	; 0x66a
     622:	80 50       	subi	r24, 0x00	; 0
     624:	90 40       	sbci	r25, 0x00	; 0
     626:	a8 40       	sbci	r26, 0x08	; 8
     628:	b0 40       	sbci	r27, 0x00	; 0
     62a:	f8 f4       	brcc	.+62     	; 0x66a
     62c:	84 81       	ldd	r24, Z+4	; 0x04
     62e:	95 81       	ldd	r25, Z+5	; 0x05
     630:	a6 81       	ldd	r26, Z+6	; 0x06
     632:	b7 81       	ldd	r27, Z+7	; 0x07
     634:	82 17       	cp	r24, r18
     636:	93 07       	cpc	r25, r19
     638:	a4 07       	cpc	r26, r20
     63a:	b5 07       	cpc	r27, r21
     63c:	b0 f0       	brcs	.+44     	; 0x66a
     63e:	81 50       	subi	r24, 0x01	; 1
     640:	90 40       	sbci	r25, 0x00	; 0
     642:	a8 40       	sbci	r26, 0x08	; 8
     644:	b0 40       	sbci	r27, 0x00	; 0
     646:	88 f4       	brcc	.+34     	; 0x66a
     648:	b7 2f       	mov	r27, r23
     64a:	a6 2f       	mov	r26, r22
     64c:	8d 91       	ld	r24, X+
     64e:	9c 91       	ld	r25, X
     650:	11 97       	sbiw	r26, 0x01	; 1
     652:	80 87       	std	Z+8, r24	; 0x08
     654:	91 87       	std	Z+9, r25	; 0x09
     656:	04 c0       	rjmp	.+8      	; 0x660
     658:	c0 87       	std	Z+8, r28	; 0x08
     65a:	d1 87       	std	Z+9, r29	; 0x09
     65c:	b7 2f       	mov	r27, r23
     65e:	a6 2f       	mov	r26, r22
     660:	ed 93       	st	X+, r30
     662:	fc 93       	st	X, r31
     664:	81 e0       	ldi	r24, 0x01	; 1
     666:	90 e0       	ldi	r25, 0x00	; 0
     668:	0a c0       	rjmp	.+20     	; 0x67e
     66a:	14 82       	std	Z+4, r1	; 0x04
     66c:	15 82       	std	Z+5, r1	; 0x05
     66e:	16 82       	std	Z+6, r1	; 0x06
     670:	17 82       	std	Z+7, r1	; 0x07
     672:	10 82       	st	Z, r1
     674:	11 82       	std	Z+1, r1	; 0x01
     676:	12 82       	std	Z+2, r1	; 0x02
     678:	13 82       	std	Z+3, r1	; 0x03
     67a:	80 e0       	ldi	r24, 0x00	; 0
     67c:	90 e0       	ldi	r25, 0x00	; 0
     67e:	c1 14       	cp	r12, r1
     680:	d1 04       	cpc	r13, r1
     682:	31 f4       	brne	.+12     	; 0x690
     684:	88 23       	and	r24, r24
     686:	21 f0       	breq	.+8      	; 0x690
     688:	80 ee       	ldi	r24, 0xE0	; 224
     68a:	9c e1       	ldi	r25, 0x1C	; 28
     68c:	0e 94 a1 01 	call	0x342
     690:	93 94       	inc	r9
     692:	08 94       	sec
     694:	c1 1c       	adc	r12, r1
     696:	d1 1c       	adc	r13, r1
     698:	89 e0       	ldi	r24, 0x09	; 9
     69a:	90 e0       	ldi	r25, 0x00	; 0
     69c:	a8 0e       	add	r10, r24
     69e:	b9 1e       	adc	r11, r25
     6a0:	99 20       	and	r9, r9
     6a2:	09 f4       	brne	.+2      	; 0x6a6
     6a4:	69 cf       	rjmp	.-302    	; 0x578
     6a6:	99 24       	eor	r9, r9
     6a8:	aa 24       	eor	r10, r10
     6aa:	bb 24       	eor	r11, r11
     6ac:	db 2c       	mov	r13, r11
     6ae:	ca 2c       	mov	r12, r10
     6b0:	fb 2d       	mov	r31, r11
     6b2:	ea 2d       	mov	r30, r10
     6b4:	ec 0d       	add	r30, r12
     6b6:	fd 1d       	adc	r31, r13
     6b8:	e5 57       	subi	r30, 0x75	; 117
     6ba:	fc 4f       	sbci	r31, 0xFC	; 252
     6bc:	80 81       	ld	r24, Z
     6be:	91 81       	ldd	r25, Z+1	; 0x01
     6c0:	a2 81       	ldd	r26, Z+2	; 0x02
     6c2:	b3 81       	ldd	r27, Z+3	; 0x03
     6c4:	8f 5f       	subi	r24, 0xFF	; 255
     6c6:	9f 4f       	sbci	r25, 0xFF	; 255
     6c8:	af 4f       	sbci	r26, 0xFF	; 255
     6ca:	bf 4f       	sbci	r27, 0xFF	; 255
     6cc:	09 f0       	breq	.+2      	; 0x6d0
     6ce:	7f c0       	rjmp	.+254    	; 0x7ce
     6d0:	68 e8       	ldi	r22, 0x88	; 136
     6d2:	73 e0       	ldi	r23, 0x03	; 3
     6d4:	20 e0       	ldi	r18, 0x00	; 0
     6d6:	30 e0       	ldi	r19, 0x00	; 0
     6d8:	40 e0       	ldi	r20, 0x00	; 0
     6da:	50 e0       	ldi	r21, 0x00	; 0
     6dc:	80 91 88 03 	lds	r24, 0x0388
     6e0:	90 91 89 03 	lds	r25, 0x0389
     6e4:	89 2b       	or	r24, r25
     6e6:	31 f1       	breq	.+76     	; 0x734
     6e8:	b7 2f       	mov	r27, r23
     6ea:	a6 2f       	mov	r26, r22
     6ec:	cd 91       	ld	r28, X+
     6ee:	dc 91       	ld	r29, X
     6f0:	88 81       	ld	r24, Y
     6f2:	99 81       	ldd	r25, Y+1	; 0x01
     6f4:	aa 81       	ldd	r26, Y+2	; 0x02
     6f6:	bb 81       	ldd	r27, Y+3	; 0x03
     6f8:	82 1b       	sub	r24, r18
     6fa:	93 0b       	sbc	r25, r19
     6fc:	a4 0b       	sbc	r26, r20
     6fe:	b5 0b       	sbc	r27, r21
     700:	e4 80       	ldd	r14, Z+4	; 0x04
     702:	f5 80       	ldd	r15, Z+5	; 0x05
     704:	06 81       	ldd	r16, Z+6	; 0x06
     706:	17 81       	ldd	r17, Z+7	; 0x07
     708:	8e 15       	cp	r24, r14
     70a:	9f 05       	cpc	r25, r15
     70c:	a0 07       	cpc	r26, r16
     70e:	b1 07       	cpc	r27, r17
     710:	b0 f5       	brcc	.+108    	; 0x77e
     712:	2c 81       	ldd	r18, Y+4	; 0x04
     714:	3d 81       	ldd	r19, Y+5	; 0x05
     716:	4e 81       	ldd	r20, Y+6	; 0x06
     718:	5f 81       	ldd	r21, Y+7	; 0x07
     71a:	21 50       	subi	r18, 0x01	; 1
     71c:	3f 4f       	sbci	r19, 0xFF	; 255
     71e:	4f 4f       	sbci	r20, 0xFF	; 255
     720:	5f 4f       	sbci	r21, 0xFF	; 255
     722:	20 70       	andi	r18, 0x00	; 0
     724:	6c 2f       	mov	r22, r28
     726:	7d 2f       	mov	r23, r29
     728:	68 5f       	subi	r22, 0xF8	; 248
     72a:	7f 4f       	sbci	r23, 0xFF	; 255
     72c:	88 85       	ldd	r24, Y+8	; 0x08
     72e:	99 85       	ldd	r25, Y+9	; 0x09
     730:	89 2b       	or	r24, r25
     732:	d1 f6       	brne	.-76     	; 0x6e8
     734:	80 e0       	ldi	r24, 0x00	; 0
     736:	90 e0       	ldi	r25, 0x00	; 0
     738:	a8 e0       	ldi	r26, 0x08	; 8
     73a:	b0 e0       	ldi	r27, 0x00	; 0
     73c:	82 1b       	sub	r24, r18
     73e:	93 0b       	sbc	r25, r19
     740:	a4 0b       	sbc	r26, r20
     742:	b5 0b       	sbc	r27, r21
     744:	e4 80       	ldd	r14, Z+4	; 0x04
     746:	f5 80       	ldd	r15, Z+5	; 0x05
     748:	06 81       	ldd	r16, Z+6	; 0x06
     74a:	17 81       	ldd	r17, Z+7	; 0x07
     74c:	8e 15       	cp	r24, r14
     74e:	9f 05       	cpc	r25, r15
     750:	a0 07       	cpc	r26, r16
     752:	b1 07       	cpc	r27, r17
     754:	48 f1       	brcs	.+82     	; 0x7a8
     756:	20 83       	st	Z, r18
     758:	31 83       	std	Z+1, r19	; 0x01
     75a:	42 83       	std	Z+2, r20	; 0x02
     75c:	53 83       	std	Z+3, r21	; 0x03
     75e:	2e 0d       	add	r18, r14
     760:	3f 1d       	adc	r19, r15
     762:	40 1f       	adc	r20, r16
     764:	51 1f       	adc	r21, r17
     766:	24 83       	std	Z+4, r18	; 0x04
     768:	35 83       	std	Z+5, r19	; 0x05
     76a:	46 83       	std	Z+6, r20	; 0x06
     76c:	57 83       	std	Z+7, r21	; 0x07
     76e:	b7 2f       	mov	r27, r23
     770:	a6 2f       	mov	r26, r22
     772:	8d 91       	ld	r24, X+
     774:	9c 91       	ld	r25, X
     776:	11 97       	sbiw	r26, 0x01	; 1
     778:	80 87       	std	Z+8, r24	; 0x08
     77a:	91 87       	std	Z+9, r25	; 0x09
     77c:	10 c0       	rjmp	.+32     	; 0x79e
     77e:	20 83       	st	Z, r18
     780:	31 83       	std	Z+1, r19	; 0x01
     782:	42 83       	std	Z+2, r20	; 0x02
     784:	53 83       	std	Z+3, r21	; 0x03
     786:	2e 0d       	add	r18, r14
     788:	3f 1d       	adc	r19, r15
     78a:	40 1f       	adc	r20, r16
     78c:	51 1f       	adc	r21, r17
     78e:	24 83       	std	Z+4, r18	; 0x04
     790:	35 83       	std	Z+5, r19	; 0x05
     792:	46 83       	std	Z+6, r20	; 0x06
     794:	57 83       	std	Z+7, r21	; 0x07
     796:	c0 87       	std	Z+8, r28	; 0x08
     798:	d1 87       	std	Z+9, r29	; 0x09
     79a:	b7 2f       	mov	r27, r23
     79c:	a6 2f       	mov	r26, r22
     79e:	ed 93       	st	X+, r30
     7a0:	fc 93       	st	X, r31
     7a2:	81 e0       	ldi	r24, 0x01	; 1
     7a4:	90 e0       	ldi	r25, 0x00	; 0
     7a6:	0a c0       	rjmp	.+20     	; 0x7bc
     7a8:	14 82       	std	Z+4, r1	; 0x04
     7aa:	15 82       	std	Z+5, r1	; 0x05
     7ac:	16 82       	std	Z+6, r1	; 0x06
     7ae:	17 82       	std	Z+7, r1	; 0x07
     7b0:	10 82       	st	Z, r1
     7b2:	11 82       	std	Z+1, r1	; 0x01
     7b4:	12 82       	std	Z+2, r1	; 0x02
     7b6:	13 82       	std	Z+3, r1	; 0x03
     7b8:	80 e0       	ldi	r24, 0x00	; 0
     7ba:	90 e0       	ldi	r25, 0x00	; 0
     7bc:	c1 14       	cp	r12, r1
     7be:	d1 04       	cpc	r13, r1
     7c0:	31 f4       	brne	.+12     	; 0x7ce
     7c2:	88 23       	and	r24, r24
     7c4:	21 f0       	breq	.+8      	; 0x7ce
     7c6:	80 ee       	ldi	r24, 0xE0	; 224
     7c8:	9c e1       	ldi	r25, 0x1C	; 28
     7ca:	0e 94 a1 01 	call	0x342
     7ce:	93 94       	inc	r9
     7d0:	08 94       	sec
     7d2:	c1 1c       	adc	r12, r1
     7d4:	d1 1c       	adc	r13, r1
     7d6:	89 e0       	ldi	r24, 0x09	; 9
     7d8:	90 e0       	ldi	r25, 0x00	; 0
     7da:	a8 0e       	add	r10, r24
     7dc:	b9 1e       	adc	r11, r25
     7de:	99 20       	and	r9, r9
     7e0:	09 f4       	brne	.+2      	; 0x7e4
     7e2:	66 cf       	rjmp	.-308    	; 0x6b0
     7e4:	81 e0       	ldi	r24, 0x01	; 1
     7e6:	98 2e       	mov	r9, r24
     7e8:	90 92 6b 03 	sts	0x036B, r9
     7ec:	8c e0       	ldi	r24, 0x0C	; 12
     7ee:	89 b9       	out	0x09, r24	; 9
     7f0:	8c b1       	in	r24, 0x0c	; 12
     7f2:	88 ed       	ldi	r24, 0xD8	; 216
     7f4:	8a b9       	out	0x0a, r24	; 10
     7f6:	18 9a       	sbi	0x03, 0	; 3
     7f8:	78 94       	sei
     7fa:	90 91 be 00 	lds	r25, 0x00BE
     7fe:	80 91 92 01 	lds	r24, 0x0192
     802:	98 17       	cp	r25, r24
     804:	19 f4       	brne	.+6      	; 0x80c
     806:	80 e0       	ldi	r24, 0x00	; 0
     808:	90 e0       	ldi	r25, 0x00	; 0
     80a:	20 c0       	rjmp	.+64     	; 0x84c
     80c:	8f b7       	in	r24, 0x3f	; 63
     80e:	f8 94       	cli
     810:	28 2f       	mov	r18, r24
     812:	33 27       	eor	r19, r19
     814:	90 91 be 00 	lds	r25, 0x00BE
     818:	80 91 be 00 	lds	r24, 0x00BE
     81c:	8f 5f       	subi	r24, 0xFF	; 255
     81e:	80 93 be 00 	sts	0x00BE, r24
     822:	80 91 be 00 	lds	r24, 0x00BE
     826:	87 70       	andi	r24, 0x07	; 7
     828:	80 93 be 00 	sts	0x00BE, r24
     82c:	e9 2f       	mov	r30, r25
     82e:	ff 27       	eor	r31, r31
     830:	ee 0f       	add	r30, r30
     832:	ff 1f       	adc	r31, r31
     834:	ec 55       	subi	r30, 0x5C	; 92
     836:	ff 4f       	sbci	r31, 0xFF	; 255
     838:	80 81       	ld	r24, Z
     83a:	91 81       	ldd	r25, Z+1	; 0x01
     83c:	10 82       	st	Z, r1
     83e:	11 82       	std	Z+1, r1	; 0x01
     840:	2f bf       	out	0x3f, r18	; 63
     842:	e8 2f       	mov	r30, r24
     844:	f9 2f       	mov	r31, r25
     846:	09 95       	icall
     848:	81 e0       	ldi	r24, 0x01	; 1
     84a:	90 e0       	ldi	r25, 0x00	; 0
     84c:	88 23       	and	r24, r24
     84e:	a9 f6       	brne	.-86     	; 0x7fa
     850:	85 b7       	in	r24, 0x35	; 53
     852:	80 62       	ori	r24, 0x20	; 32
     854:	85 bf       	out	0x35, r24	; 53
     856:	88 95       	sleep
     858:	00 00       	nop
     85a:	00 00       	nop
     85c:	ce cf       	rjmp	.-100    	; 0x7fa

0000085e <PageEEPROMM$newRequest>:
     85e:	0f 93       	push	r16
     860:	1f 93       	push	r17
     862:	e8 2f       	mov	r30, r24
     864:	88 e0       	ldi	r24, 0x08	; 8
     866:	60 30       	cpi	r22, 0x00	; 0
     868:	78 07       	cpc	r23, r24
     86a:	98 f4       	brcc	.+38     	; 0x892
     86c:	f1 e0       	ldi	r31, 0x01	; 1
     86e:	48 30       	cpi	r20, 0x08	; 8
     870:	5f 07       	cpc	r21, r31
     872:	78 f4       	brcc	.+30     	; 0x892
     874:	81 e0       	ldi	r24, 0x01	; 1
     876:	09 30       	cpi	r16, 0x09	; 9
     878:	18 07       	cpc	r17, r24
     87a:	58 f4       	brcc	.+22     	; 0x892
     87c:	95 2f       	mov	r25, r21
     87e:	84 2f       	mov	r24, r20
     880:	80 0f       	add	r24, r16
     882:	91 1f       	adc	r25, r17
     884:	89 50       	subi	r24, 0x09	; 9
     886:	91 40       	sbci	r25, 0x01	; 1
     888:	20 f4       	brcc	.+8      	; 0x892
     88a:	80 91 9f 00 	lds	r24, 0x009F
     88e:	88 23       	and	r24, r24
     890:	19 f0       	breq	.+6      	; 0x898
     892:	80 e0       	ldi	r24, 0x00	; 0
     894:	90 e0       	ldi	r25, 0x00	; 0
     896:	3c c0       	rjmp	.+120    	; 0x910
     898:	e0 93 9f 00 	sts	0x009F, r30
     89c:	e0 91 b2 02 	lds	r30, 0x02B2
     8a0:	ee 23       	and	r30, r30
     8a2:	29 f0       	breq	.+10     	; 0x8ae
     8a4:	80 e4       	ldi	r24, 0x40	; 64
     8a6:	9e e1       	ldi	r25, 0x1E	; 30
     8a8:	0e 94 a1 01 	call	0x342
     8ac:	2f c0       	rjmp	.+94     	; 0x90c
     8ae:	30 93 c0 00 	sts	0x00C0, r19
     8b2:	20 93 bf 00 	sts	0x00BF, r18
     8b6:	10 93 67 00 	sts	0x0067, r17
     8ba:	00 93 66 00 	sts	0x0066, r16
     8be:	70 93 81 00 	sts	0x0081, r23
     8c2:	60 93 80 00 	sts	0x0080, r22
     8c6:	50 93 af 03 	sts	0x03AF, r21
     8ca:	40 93 ae 03 	sts	0x03AE, r20
     8ce:	80 91 b5 00 	lds	r24, 0x00B5
     8d2:	90 91 b6 00 	lds	r25, 0x00B6
     8d6:	68 17       	cp	r22, r24
     8d8:	79 07       	cpc	r23, r25
     8da:	19 f4       	brne	.+6      	; 0x8e2
     8dc:	e0 93 73 00 	sts	0x0073, r30
     8e0:	13 c0       	rjmp	.+38     	; 0x908
     8e2:	80 91 b8 00 	lds	r24, 0x00B8
     8e6:	90 91 b9 00 	lds	r25, 0x00B9
     8ea:	68 17       	cp	r22, r24
     8ec:	79 07       	cpc	r23, r25
     8ee:	21 f4       	brne	.+8      	; 0x8f8
     8f0:	81 e0       	ldi	r24, 0x01	; 1
     8f2:	80 93 73 00 	sts	0x0073, r24
     8f6:	08 c0       	rjmp	.+16     	; 0x908
     8f8:	9e 2f       	mov	r25, r30
     8fa:	80 91 73 00 	lds	r24, 0x0073
     8fe:	88 23       	and	r24, r24
     900:	09 f4       	brne	.+2      	; 0x904
     902:	91 e0       	ldi	r25, 0x01	; 1
     904:	90 93 73 00 	sts	0x0073, r25
     908:	0e 94 49 0c 	call	0x1892
     90c:	81 e0       	ldi	r24, 0x01	; 1
     90e:	90 e0       	ldi	r25, 0x00	; 0
     910:	1f 91       	pop	r17
     912:	0f 91       	pop	r16
     914:	08 95       	ret

00000916 <PageEEPROMM$requestDone>:
     916:	cf 92       	push	r12
     918:	df 92       	push	r13
     91a:	ef 92       	push	r14
     91c:	ff 92       	push	r15
     91e:	0f 93       	push	r16
     920:	1f 93       	push	r17
     922:	cf 93       	push	r28
     924:	df 93       	push	r29
     926:	98 2f       	mov	r25, r24
     928:	80 91 9f 00 	lds	r24, 0x009F
     92c:	10 92 9f 00 	sts	0x009F, r1
     930:	28 2f       	mov	r18, r24
     932:	33 27       	eor	r19, r19
     934:	24 30       	cpi	r18, 0x04	; 4
     936:	31 05       	cpc	r19, r1
     938:	09 f4       	brne	.+2      	; 0x93c
     93a:	a6 c2       	rjmp	.+1356   	; 0xe88
     93c:	25 30       	cpi	r18, 0x05	; 5
     93e:	31 05       	cpc	r19, r1
     940:	64 f4       	brge	.+24     	; 0x95a
     942:	22 30       	cpi	r18, 0x02	; 2
     944:	31 05       	cpc	r19, r1
     946:	09 f4       	brne	.+2      	; 0x94a
     948:	ab c0       	rjmp	.+342    	; 0xaa0
     94a:	23 30       	cpi	r18, 0x03	; 3
     94c:	31 05       	cpc	r19, r1
     94e:	0c f0       	brlt	.+2      	; 0x952
     950:	f8 c0       	rjmp	.+496    	; 0xb42
     952:	21 30       	cpi	r18, 0x01	; 1
     954:	31 05       	cpc	r19, r1
     956:	51 f0       	breq	.+20     	; 0x96c
     958:	cd c2       	rjmp	.+1434   	; 0xef4
     95a:	27 30       	cpi	r18, 0x07	; 7
     95c:	31 05       	cpc	r19, r1
     95e:	0c f4       	brge	.+2      	; 0x962
     960:	5e c1       	rjmp	.+700    	; 0xc1e
     962:	29 30       	cpi	r18, 0x09	; 9
     964:	31 05       	cpc	r19, r1
     966:	0c f0       	brlt	.+2      	; 0x96a
     968:	c5 c2       	rjmp	.+1418   	; 0xef4
     96a:	d3 c1       	rjmp	.+934    	; 0xd12
     96c:	89 2f       	mov	r24, r25
     96e:	99 27       	eor	r25, r25
     970:	89 2b       	or	r24, r25
     972:	19 f4       	brne	.+6      	; 0x97a
     974:	c6 e0       	ldi	r28, 0x06	; 6
     976:	d0 e0       	ldi	r29, 0x00	; 0
     978:	02 c0       	rjmp	.+4      	; 0x97e
     97a:	c0 e0       	ldi	r28, 0x00	; 0
     97c:	d0 e0       	ldi	r29, 0x00	; 0
     97e:	80 91 6a 03 	lds	r24, 0x036A
     982:	48 2f       	mov	r20, r24
     984:	55 27       	eor	r21, r21
     986:	41 15       	cp	r20, r1
     988:	51 05       	cpc	r21, r1
     98a:	39 f0       	breq	.+14     	; 0x99a
     98c:	42 50       	subi	r20, 0x02	; 2
     98e:	50 40       	sbci	r21, 0x00	; 0
     990:	42 30       	cpi	r20, 0x02	; 2
     992:	51 05       	cpc	r21, r1
     994:	08 f0       	brcs	.+2      	; 0x998
     996:	ae c2       	rjmp	.+1372   	; 0xef4
     998:	81 c0       	rjmp	.+258    	; 0xa9c
     99a:	80 91 9e 01 	lds	r24, 0x019E
     99e:	99 27       	eor	r25, r25
     9a0:	81 30       	cpi	r24, 0x01	; 1
     9a2:	91 05       	cpc	r25, r1
     9a4:	09 f4       	brne	.+2      	; 0x9a8
     9a6:	a6 c2       	rjmp	.+1356   	; 0xef4
     9a8:	82 30       	cpi	r24, 0x02	; 2
     9aa:	91 05       	cpc	r25, r1
     9ac:	1c f4       	brge	.+6      	; 0x9b4
     9ae:	89 2b       	or	r24, r25
     9b0:	41 f0       	breq	.+16     	; 0x9c2
     9b2:	a0 c2       	rjmp	.+1344   	; 0xef4
     9b4:	82 30       	cpi	r24, 0x02	; 2
     9b6:	91 05       	cpc	r25, r1
     9b8:	91 f1       	breq	.+100    	; 0xa1e
     9ba:	03 97       	sbiw	r24, 0x03	; 3
     9bc:	09 f4       	brne	.+2      	; 0x9c0
     9be:	4f c0       	rjmp	.+158    	; 0xa5e
     9c0:	99 c2       	rjmp	.+1330   	; 0xef4
     9c2:	cc 23       	and	r28, r28
     9c4:	19 f4       	brne	.+6      	; 0x9cc
     9c6:	0e 94 83 07 	call	0xf06
     9ca:	94 c2       	rjmp	.+1320   	; 0xef4
     9cc:	10 91 97 00 	lds	r17, 0x0097
     9d0:	c0 90 1b 03 	lds	r12, 0x031B
     9d4:	d0 90 1c 03 	lds	r13, 0x031C
     9d8:	e0 90 1d 03 	lds	r14, 0x031D
     9dc:	f0 90 1e 03 	lds	r15, 0x031E
     9e0:	80 91 55 03 	lds	r24, 0x0355
     9e4:	90 91 56 03 	lds	r25, 0x0356
     9e8:	a0 91 57 03 	lds	r26, 0x0357
     9ec:	b0 91 58 03 	lds	r27, 0x0358
     9f0:	c8 1a       	sub	r12, r24
     9f2:	d9 0a       	sbc	r13, r25
     9f4:	ea 0a       	sbc	r14, r26
     9f6:	fb 0a       	sbc	r15, r27
     9f8:	2c 2f       	mov	r18, r28
     9fa:	7f 2d       	mov	r23, r15
     9fc:	6e 2d       	mov	r22, r14
     9fe:	5d 2d       	mov	r21, r13
     a00:	4c 2d       	mov	r20, r12
     a02:	81 2f       	mov	r24, r17
     a04:	0e 94 9a 08 	call	0x1134
     a08:	12 30       	cpi	r17, 0x02	; 2
     a0a:	09 f0       	breq	.+2      	; 0xa0e
     a0c:	73 c2       	rjmp	.+1254   	; 0xef4
     a0e:	4c 2f       	mov	r20, r28
     a10:	9f 2d       	mov	r25, r15
     a12:	8e 2d       	mov	r24, r14
     a14:	7d 2d       	mov	r23, r13
     a16:	6c 2d       	mov	r22, r12
     a18:	0e 94 c7 09 	call	0x138e
     a1c:	6b c2       	rjmp	.+1238   	; 0xef4
     a1e:	cc 23       	and	r28, r28
     a20:	d1 f5       	brne	.+116    	; 0xa96
     a22:	20 91 6c 00 	lds	r18, 0x006C
     a26:	30 91 6d 00 	lds	r19, 0x006D
     a2a:	40 91 6e 00 	lds	r20, 0x006E
     a2e:	50 91 6f 00 	lds	r21, 0x006F
     a32:	80 91 74 00 	lds	r24, 0x0074
     a36:	90 91 75 00 	lds	r25, 0x0075
     a3a:	a0 91 76 00 	lds	r26, 0x0076
     a3e:	b0 91 77 00 	lds	r27, 0x0077
     a42:	28 17       	cp	r18, r24
     a44:	39 07       	cpc	r19, r25
     a46:	4a 07       	cpc	r20, r26
     a48:	5b 07       	cpc	r21, r27
     a4a:	28 f5       	brcc	.+74     	; 0xa96
     a4c:	80 91 51 03 	lds	r24, 0x0351
     a50:	90 91 52 03 	lds	r25, 0x0352
     a54:	41 e0       	ldi	r20, 0x01	; 1
     a56:	68 2f       	mov	r22, r24
     a58:	79 2f       	mov	r23, r25
     a5a:	84 e0       	ldi	r24, 0x04	; 4
     a5c:	93 c1       	rjmp	.+806    	; 0xd84
     a5e:	cc 23       	and	r28, r28
     a60:	d1 f4       	brne	.+52     	; 0xa96
     a62:	80 91 b5 02 	lds	r24, 0x02B5
     a66:	08 2f       	mov	r16, r24
     a68:	11 27       	eor	r17, r17
     a6a:	07 70       	andi	r16, 0x07	; 7
     a6c:	10 70       	andi	r17, 0x00	; 0
     a6e:	04 30       	cpi	r16, 0x04	; 4
     a70:	11 05       	cpc	r17, r1
     a72:	89 f4       	brne	.+34     	; 0xa96
     a74:	60 91 51 03 	lds	r22, 0x0351
     a78:	70 91 52 03 	lds	r23, 0x0352
     a7c:	c0 93 6a 03 	sts	0x036A, r28
     a80:	82 e0       	ldi	r24, 0x02	; 2
     a82:	80 93 9e 01 	sts	0x019E, r24
     a86:	70 93 c2 00 	sts	0x00C2, r23
     a8a:	60 93 c1 00 	sts	0x00C1, r22
     a8e:	24 e7       	ldi	r18, 0x74	; 116
     a90:	30 e0       	ldi	r19, 0x00	; 0
     a92:	81 e0       	ldi	r24, 0x01	; 1
     a94:	a2 c1       	rjmp	.+836    	; 0xdda
     a96:	0e 94 5a 15 	call	0x2ab4
     a9a:	2c c2       	rjmp	.+1112   	; 0xef4
     a9c:	8c 2f       	mov	r24, r28
     a9e:	20 c0       	rjmp	.+64     	; 0xae0
     aa0:	40 91 b6 02 	lds	r20, 0x02B6
     aa4:	50 91 b7 02 	lds	r21, 0x02B7
     aa8:	89 2f       	mov	r24, r25
     aaa:	99 27       	eor	r25, r25
     aac:	89 2b       	or	r24, r25
     aae:	19 f4       	brne	.+6      	; 0xab6
     ab0:	26 e0       	ldi	r18, 0x06	; 6
     ab2:	30 e0       	ldi	r19, 0x00	; 0
     ab4:	02 c0       	rjmp	.+4      	; 0xaba
     ab6:	20 e0       	ldi	r18, 0x00	; 0
     ab8:	30 e0       	ldi	r19, 0x00	; 0
     aba:	72 2f       	mov	r23, r18
     abc:	60 91 6a 03 	lds	r22, 0x036A
     ac0:	63 30       	cpi	r22, 0x03	; 3
     ac2:	89 f4       	brne	.+34     	; 0xae6
     ac4:	80 91 bc 02 	lds	r24, 0x02BC
     ac8:	90 91 bd 02 	lds	r25, 0x02BD
     acc:	84 17       	cp	r24, r20
     ace:	95 07       	cpc	r25, r21
     ad0:	19 f0       	breq	.+6      	; 0xad8
     ad2:	22 23       	and	r18, r18
     ad4:	09 f4       	brne	.+2      	; 0xad8
     ad6:	76 2f       	mov	r23, r22
     ad8:	82 e0       	ldi	r24, 0x02	; 2
     ada:	80 93 6a 03 	sts	0x036A, r24
     ade:	87 2f       	mov	r24, r23
     ae0:	0e 94 d2 15 	call	0x2ba4
     ae4:	07 c2       	rjmp	.+1038   	; 0xef4
     ae6:	22 23       	and	r18, r18
     ae8:	c1 f4       	brne	.+48     	; 0xb1a
     aea:	50 93 bd 02 	sts	0x02BD, r21
     aee:	40 93 bc 02 	sts	0x02BC, r20
     af2:	88 eb       	ldi	r24, 0xB8	; 184
     af4:	92 e0       	ldi	r25, 0x02	; 2
     af6:	0e 94 00 0c 	call	0x1800
     afa:	80 93 bb 02 	sts	0x02BB, r24
     afe:	80 91 c1 00 	lds	r24, 0x00C1
     b02:	90 91 c2 00 	lds	r25, 0x00C2
     b06:	06 e0       	ldi	r16, 0x06	; 6
     b08:	10 e0       	ldi	r17, 0x00	; 0
     b0a:	28 eb       	ldi	r18, 0xB8	; 184
     b0c:	32 e0       	ldi	r19, 0x02	; 2
     b0e:	42 e0       	ldi	r20, 0x02	; 2
     b10:	51 e0       	ldi	r21, 0x01	; 1
     b12:	68 2f       	mov	r22, r24
     b14:	79 2f       	mov	r23, r25
     b16:	83 e0       	ldi	r24, 0x03	; 3
     b18:	60 c1       	rjmp	.+704    	; 0xdda
     b1a:	80 91 9e 01 	lds	r24, 0x019E
     b1e:	99 27       	eor	r25, r25
     b20:	82 30       	cpi	r24, 0x02	; 2
     b22:	91 05       	cpc	r25, r1
     b24:	09 f4       	brne	.+2      	; 0xb28
     b26:	e6 c1       	rjmp	.+972    	; 0xef4
     b28:	83 30       	cpi	r24, 0x03	; 3
     b2a:	91 05       	cpc	r25, r1
     b2c:	0c f4       	brge	.+2      	; 0xb30
     b2e:	e2 c1       	rjmp	.+964    	; 0xef4
     b30:	84 30       	cpi	r24, 0x04	; 4
     b32:	91 05       	cpc	r25, r1
     b34:	09 f4       	brne	.+2      	; 0xb38
     b36:	de c1       	rjmp	.+956    	; 0xef4
     b38:	04 97       	sbiw	r24, 0x04	; 4
     b3a:	0c f0       	brlt	.+2      	; 0xb3e
     b3c:	db c1       	rjmp	.+950    	; 0xef4
     b3e:	82 2f       	mov	r24, r18
     b40:	6b c0       	rjmp	.+214    	; 0xc18
     b42:	89 2f       	mov	r24, r25
     b44:	99 27       	eor	r25, r25
     b46:	89 2b       	or	r24, r25
     b48:	19 f4       	brne	.+6      	; 0xb50
     b4a:	c6 e0       	ldi	r28, 0x06	; 6
     b4c:	d0 e0       	ldi	r29, 0x00	; 0
     b4e:	02 c0       	rjmp	.+4      	; 0xb54
     b50:	c0 e0       	ldi	r28, 0x00	; 0
     b52:	d0 e0       	ldi	r29, 0x00	; 0
     b54:	80 91 6a 03 	lds	r24, 0x036A
     b58:	99 27       	eor	r25, r25
     b5a:	81 30       	cpi	r24, 0x01	; 1
     b5c:	91 05       	cpc	r25, r1
     b5e:	21 f0       	breq	.+8      	; 0xb68
     b60:	04 97       	sbiw	r24, 0x04	; 4
     b62:	09 f4       	brne	.+2      	; 0xb66
     b64:	46 c0       	rjmp	.+140    	; 0xbf2
     b66:	c6 c1       	rjmp	.+908    	; 0xef4
     b68:	80 91 9e 01 	lds	r24, 0x019E
     b6c:	81 30       	cpi	r24, 0x01	; 1
     b6e:	09 f0       	breq	.+2      	; 0xb72
     b70:	c1 c1       	rjmp	.+898    	; 0xef4
     b72:	cc 23       	and	r28, r28
     b74:	09 f4       	brne	.+2      	; 0xb78
     b76:	3f c1       	rjmp	.+638    	; 0xdf6
     b78:	10 91 be 02 	lds	r17, 0x02BE
     b7c:	40 91 9a 01 	lds	r20, 0x019A
     b80:	50 91 9b 01 	lds	r21, 0x019B
     b84:	60 91 9c 01 	lds	r22, 0x019C
     b88:	70 91 9d 01 	lds	r23, 0x019D
     b8c:	80 91 bf 02 	lds	r24, 0x02BF
     b90:	90 91 c0 02 	lds	r25, 0x02C0
     b94:	a0 91 c1 02 	lds	r26, 0x02C1
     b98:	b0 91 c2 02 	lds	r27, 0x02C2
     b9c:	48 1b       	sub	r20, r24
     b9e:	59 0b       	sbc	r21, r25
     ba0:	6a 0b       	sbc	r22, r26
     ba2:	7b 0b       	sbc	r23, r27
     ba4:	2c 2f       	mov	r18, r28
     ba6:	81 2f       	mov	r24, r17
     ba8:	0e 94 a8 0a 	call	0x1550
     bac:	81 2f       	mov	r24, r17
     bae:	99 27       	eor	r25, r25
     bb0:	89 2b       	or	r24, r25
     bb2:	09 f0       	breq	.+2      	; 0xbb6
     bb4:	9f c1       	rjmp	.+830    	; 0xef4
     bb6:	c0 93 90 01 	sts	0x0190, r28
     bba:	80 91 ac 02 	lds	r24, 0x02AC
     bbe:	99 27       	eor	r25, r25
     bc0:	81 30       	cpi	r24, 0x01	; 1
     bc2:	91 05       	cpc	r25, r1
     bc4:	09 f4       	brne	.+2      	; 0xbc8
     bc6:	4c c1       	rjmp	.+664    	; 0xe60
     bc8:	82 30       	cpi	r24, 0x02	; 2
     bca:	91 05       	cpc	r25, r1
     bcc:	24 f4       	brge	.+8      	; 0xbd6
     bce:	89 2b       	or	r24, r25
     bd0:	09 f4       	brne	.+2      	; 0xbd4
     bd2:	44 c1       	rjmp	.+648    	; 0xe5c
     bd4:	8f c1       	rjmp	.+798    	; 0xef4
     bd6:	02 97       	sbiw	r24, 0x02	; 2
     bd8:	09 f0       	breq	.+2      	; 0xbdc
     bda:	8c c1       	rjmp	.+792    	; 0xef4
     bdc:	80 91 7d 00 	lds	r24, 0x007D
     be0:	99 27       	eor	r25, r25
     be2:	81 30       	cpi	r24, 0x01	; 1
     be4:	91 05       	cpc	r25, r1
     be6:	09 f4       	brne	.+2      	; 0xbea
     be8:	46 c1       	rjmp	.+652    	; 0xe76
     bea:	02 97       	sbiw	r24, 0x02	; 2
     bec:	09 f4       	brne	.+2      	; 0xbf0
     bee:	47 c1       	rjmp	.+654    	; 0xe7e
     bf0:	81 c1       	rjmp	.+770    	; 0xef4
     bf2:	80 91 9e 01 	lds	r24, 0x019E
     bf6:	99 27       	eor	r25, r25
     bf8:	82 30       	cpi	r24, 0x02	; 2
     bfa:	91 05       	cpc	r25, r1
     bfc:	09 f4       	brne	.+2      	; 0xc00
     bfe:	7a c1       	rjmp	.+756    	; 0xef4
     c00:	83 30       	cpi	r24, 0x03	; 3
     c02:	91 05       	cpc	r25, r1
     c04:	0c f4       	brge	.+2      	; 0xc08
     c06:	76 c1       	rjmp	.+748    	; 0xef4
     c08:	84 30       	cpi	r24, 0x04	; 4
     c0a:	91 05       	cpc	r25, r1
     c0c:	09 f4       	brne	.+2      	; 0xc10
     c0e:	72 c1       	rjmp	.+740    	; 0xef4
     c10:	04 97       	sbiw	r24, 0x04	; 4
     c12:	0c f0       	brlt	.+2      	; 0xc16
     c14:	6f c1       	rjmp	.+734    	; 0xef4
     c16:	8c 2f       	mov	r24, r28
     c18:	0e 94 cd 19 	call	0x339a
     c1c:	6b c1       	rjmp	.+726    	; 0xef4
     c1e:	20 91 9e 01 	lds	r18, 0x019E
     c22:	89 2f       	mov	r24, r25
     c24:	99 27       	eor	r25, r25
     c26:	89 2b       	or	r24, r25
     c28:	19 f4       	brne	.+6      	; 0xc30
     c2a:	c6 e0       	ldi	r28, 0x06	; 6
     c2c:	d0 e0       	ldi	r29, 0x00	; 0
     c2e:	02 c0       	rjmp	.+4      	; 0xc34
     c30:	c0 e0       	ldi	r28, 0x00	; 0
     c32:	d0 e0       	ldi	r29, 0x00	; 0
     c34:	21 30       	cpi	r18, 0x01	; 1
     c36:	09 f0       	breq	.+2      	; 0xc3a
     c38:	5d c1       	rjmp	.+698    	; 0xef4
     c3a:	0c 2f       	mov	r16, r28
     c3c:	80 91 70 00 	lds	r24, 0x0070
     c40:	99 27       	eor	r25, r25
     c42:	88 30       	cpi	r24, 0x08	; 8
     c44:	91 05       	cpc	r25, r1
     c46:	09 f4       	brne	.+2      	; 0xc4a
     c48:	57 c0       	rjmp	.+174    	; 0xcf8
     c4a:	89 30       	cpi	r24, 0x09	; 9
     c4c:	91 05       	cpc	r25, r1
     c4e:	34 f4       	brge	.+12     	; 0xc5c
     c50:	84 30       	cpi	r24, 0x04	; 4
     c52:	91 05       	cpc	r25, r1
     c54:	51 f1       	breq	.+84     	; 0xcaa
     c56:	06 97       	sbiw	r24, 0x06	; 6
     c58:	31 f0       	breq	.+12     	; 0xc66
     c5a:	4c c1       	rjmp	.+664    	; 0xef4
     c5c:	0a 97       	sbiw	r24, 0x0a	; 10
     c5e:	02 97       	sbiw	r24, 0x02	; 2
     c60:	08 f0       	brcs	.+2      	; 0xc64
     c62:	48 c1       	rjmp	.+656    	; 0xef4
     c64:	49 c0       	rjmp	.+146    	; 0xcf8
     c66:	c0 90 62 03 	lds	r12, 0x0362
     c6a:	d0 90 63 03 	lds	r13, 0x0363
     c6e:	cc 23       	and	r28, r28
     c70:	09 f0       	breq	.+2      	; 0xc74
     c72:	39 c1       	rjmp	.+626    	; 0xee6
     c74:	87 e0       	ldi	r24, 0x07	; 7
     c76:	80 93 70 00 	sts	0x0070, r24
     c7a:	80 91 be 02 	lds	r24, 0x02BE
     c7e:	99 27       	eor	r25, r25
     c80:	6d e0       	ldi	r22, 0x0D	; 13
     c82:	70 e0       	ldi	r23, 0x00	; 0
     c84:	0e 94 29 20 	call	0x4052
     c88:	f9 2f       	mov	r31, r25
     c8a:	e8 2f       	mov	r30, r24
     c8c:	e1 56       	subi	r30, 0x61	; 97
     c8e:	fe 4f       	sbci	r31, 0xFE	; 254
     c90:	82 81       	ldd	r24, Z+2	; 0x02
     c92:	93 81       	ldd	r25, Z+3	; 0x03
     c94:	34 85       	ldd	r19, Z+12	; 0x0c
     c96:	e1 2c       	mov	r14, r1
     c98:	21 e0       	ldi	r18, 0x01	; 1
     c9a:	f2 2e       	mov	r15, r18
     c9c:	1d 2d       	mov	r17, r13
     c9e:	0c 2d       	mov	r16, r12
     ca0:	2c 2f       	mov	r18, r28
     ca2:	43 2f       	mov	r20, r19
     ca4:	68 2f       	mov	r22, r24
     ca6:	79 2f       	mov	r23, r25
     ca8:	1a c1       	rjmp	.+564    	; 0xede
     caa:	c0 90 62 03 	lds	r12, 0x0362
     cae:	d0 90 63 03 	lds	r13, 0x0363
     cb2:	cc 23       	and	r28, r28
     cb4:	09 f0       	breq	.+2      	; 0xcb8
     cb6:	17 c1       	rjmp	.+558    	; 0xee6
     cb8:	85 e0       	ldi	r24, 0x05	; 5
     cba:	80 93 70 00 	sts	0x0070, r24
     cbe:	a0 91 6a 00 	lds	r26, 0x006A
     cc2:	b0 91 6b 00 	lds	r27, 0x006B
     cc6:	80 91 be 02 	lds	r24, 0x02BE
     cca:	99 27       	eor	r25, r25
     ccc:	6d e0       	ldi	r22, 0x0D	; 13
     cce:	70 e0       	ldi	r23, 0x00	; 0
     cd0:	0e 94 29 20 	call	0x4052
     cd4:	f9 2f       	mov	r31, r25
     cd6:	e8 2f       	mov	r30, r24
     cd8:	e1 56       	subi	r30, 0x61	; 97
     cda:	fe 4f       	sbci	r31, 0xFE	; 254
     cdc:	34 85       	ldd	r19, Z+12	; 0x0c
     cde:	80 91 23 03 	lds	r24, 0x0323
     ce2:	90 91 24 03 	lds	r25, 0x0324
     ce6:	e8 2e       	mov	r14, r24
     ce8:	f9 2e       	mov	r15, r25
     cea:	1d 2d       	mov	r17, r13
     cec:	0c 2d       	mov	r16, r12
     cee:	2c 2f       	mov	r18, r28
     cf0:	43 2f       	mov	r20, r19
     cf2:	6a 2f       	mov	r22, r26
     cf4:	7b 2f       	mov	r23, r27
     cf6:	f3 c0       	rjmp	.+486    	; 0xede
     cf8:	10 91 be 02 	lds	r17, 0x02BE
     cfc:	60 2f       	mov	r22, r16
     cfe:	81 2f       	mov	r24, r17
     d00:	0e 94 2f 19 	call	0x325e
     d04:	81 2f       	mov	r24, r17
     d06:	99 27       	eor	r25, r25
     d08:	89 2b       	or	r24, r25
     d0a:	09 f0       	breq	.+2      	; 0xd0e
     d0c:	f3 c0       	rjmp	.+486    	; 0xef4
     d0e:	80 2f       	mov	r24, r16
     d10:	46 c0       	rjmp	.+140    	; 0xd9e
     d12:	20 91 9e 01 	lds	r18, 0x019E
     d16:	89 2f       	mov	r24, r25
     d18:	99 27       	eor	r25, r25
     d1a:	89 2b       	or	r24, r25
     d1c:	19 f4       	brne	.+6      	; 0xd24
     d1e:	c6 e0       	ldi	r28, 0x06	; 6
     d20:	d0 e0       	ldi	r29, 0x00	; 0
     d22:	02 c0       	rjmp	.+4      	; 0xd28
     d24:	c0 e0       	ldi	r28, 0x00	; 0
     d26:	d0 e0       	ldi	r29, 0x00	; 0
     d28:	21 30       	cpi	r18, 0x01	; 1
     d2a:	09 f0       	breq	.+2      	; 0xd2e
     d2c:	e3 c0       	rjmp	.+454    	; 0xef4
     d2e:	0c 2f       	mov	r16, r28
     d30:	80 91 70 00 	lds	r24, 0x0070
     d34:	99 27       	eor	r25, r25
     d36:	85 30       	cpi	r24, 0x05	; 5
     d38:	91 05       	cpc	r25, r1
     d3a:	09 f4       	brne	.+2      	; 0xd3e
     d3c:	57 c0       	rjmp	.+174    	; 0xdec
     d3e:	86 30       	cpi	r24, 0x06	; 6
     d40:	91 05       	cpc	r25, r1
     d42:	2c f4       	brge	.+10     	; 0xd4e
     d44:	00 97       	sbiw	r24, 0x00	; 0
     d46:	71 f1       	breq	.+92     	; 0xda4
     d48:	04 97       	sbiw	r24, 0x04	; 4
     d4a:	61 f1       	breq	.+88     	; 0xda4
     d4c:	52 c0       	rjmp	.+164    	; 0xdf2
     d4e:	86 30       	cpi	r24, 0x06	; 6
     d50:	91 05       	cpc	r25, r1
     d52:	41 f1       	breq	.+80     	; 0xda4
     d54:	0b 97       	sbiw	r24, 0x0b	; 11
     d56:	09 f0       	breq	.+2      	; 0xd5a
     d58:	4c c0       	rjmp	.+152    	; 0xdf2
     d5a:	10 91 be 02 	lds	r17, 0x02BE
     d5e:	cc 23       	and	r28, r28
     d60:	a1 f4       	brne	.+40     	; 0xd8a
     d62:	81 2f       	mov	r24, r17
     d64:	99 27       	eor	r25, r25
     d66:	6d e0       	ldi	r22, 0x0D	; 13
     d68:	70 e0       	ldi	r23, 0x00	; 0
     d6a:	0e 94 29 20 	call	0x4052
     d6e:	f9 2f       	mov	r31, r25
     d70:	e8 2f       	mov	r30, r24
     d72:	e1 56       	subi	r30, 0x61	; 97
     d74:	fe 4f       	sbci	r31, 0xFE	; 254
     d76:	20 81       	ld	r18, Z
     d78:	31 81       	ldd	r19, Z+1	; 0x01
     d7a:	84 85       	ldd	r24, Z+12	; 0x0c
     d7c:	48 2f       	mov	r20, r24
     d7e:	73 2f       	mov	r23, r19
     d80:	62 2f       	mov	r22, r18
     d82:	83 e0       	ldi	r24, 0x03	; 3
     d84:	0e 94 7d 10 	call	0x20fa
     d88:	b5 c0       	rjmp	.+362    	; 0xef4
     d8a:	6c 2f       	mov	r22, r28
     d8c:	81 2f       	mov	r24, r17
     d8e:	0e 94 2f 19 	call	0x325e
     d92:	81 2f       	mov	r24, r17
     d94:	99 27       	eor	r25, r25
     d96:	89 2b       	or	r24, r25
     d98:	09 f0       	breq	.+2      	; 0xd9c
     d9a:	ac c0       	rjmp	.+344    	; 0xef4
     d9c:	8c 2f       	mov	r24, r28
     d9e:	0e 94 82 19 	call	0x3304
     da2:	a8 c0       	rjmp	.+336    	; 0xef4
     da4:	c0 90 62 03 	lds	r12, 0x0362
     da8:	d0 90 63 03 	lds	r13, 0x0363
     dac:	00 23       	and	r16, r16
     dae:	c1 f4       	brne	.+48     	; 0xde0
     db0:	d0 92 69 03 	sts	0x0369, r13
     db4:	c0 92 68 03 	sts	0x0368, r12
     db8:	0e 94 d3 11 	call	0x23a6
     dbc:	90 93 63 03 	sts	0x0363, r25
     dc0:	80 93 62 03 	sts	0x0362, r24
     dc4:	00 93 9e 01 	sts	0x019E, r16
     dc8:	00 e0       	ldi	r16, 0x00	; 0
     dca:	10 e0       	ldi	r17, 0x00	; 0
     dcc:	31 2f       	mov	r19, r17
     dce:	20 2f       	mov	r18, r16
     dd0:	41 e0       	ldi	r20, 0x01	; 1
     dd2:	50 e0       	ldi	r21, 0x00	; 0
     dd4:	68 2f       	mov	r22, r24
     dd6:	79 2f       	mov	r23, r25
     dd8:	84 e0       	ldi	r24, 0x04	; 4
     dda:	0e 94 2f 04 	call	0x85e
     dde:	8a c0       	rjmp	.+276    	; 0xef4
     de0:	9d 2d       	mov	r25, r13
     de2:	8c 2d       	mov	r24, r12
     de4:	0e 94 5a 10 	call	0x20b4
     de8:	80 2f       	mov	r24, r16
     dea:	82 c0       	rjmp	.+260    	; 0xef0
     dec:	0e 94 eb 08 	call	0x11d6
     df0:	81 c0       	rjmp	.+258    	; 0xef4
     df2:	00 23       	and	r16, r16
     df4:	19 f4       	brne	.+6      	; 0xdfc
     df6:	0e 94 9e 10 	call	0x213c
     dfa:	7c c0       	rjmp	.+248    	; 0xef4
     dfc:	10 91 be 02 	lds	r17, 0x02BE
     e00:	40 91 9a 01 	lds	r20, 0x019A
     e04:	50 91 9b 01 	lds	r21, 0x019B
     e08:	60 91 9c 01 	lds	r22, 0x019C
     e0c:	70 91 9d 01 	lds	r23, 0x019D
     e10:	80 91 bf 02 	lds	r24, 0x02BF
     e14:	90 91 c0 02 	lds	r25, 0x02C0
     e18:	a0 91 c1 02 	lds	r26, 0x02C1
     e1c:	b0 91 c2 02 	lds	r27, 0x02C2
     e20:	48 1b       	sub	r20, r24
     e22:	59 0b       	sbc	r21, r25
     e24:	6a 0b       	sbc	r22, r26
     e26:	7b 0b       	sbc	r23, r27
     e28:	20 2f       	mov	r18, r16
     e2a:	81 2f       	mov	r24, r17
     e2c:	0e 94 a8 0a 	call	0x1550
     e30:	81 2f       	mov	r24, r17
     e32:	99 27       	eor	r25, r25
     e34:	89 2b       	or	r24, r25
     e36:	09 f0       	breq	.+2      	; 0xe3a
     e38:	5d c0       	rjmp	.+186    	; 0xef4
     e3a:	00 93 90 01 	sts	0x0190, r16
     e3e:	80 91 ac 02 	lds	r24, 0x02AC
     e42:	99 27       	eor	r25, r25
     e44:	81 30       	cpi	r24, 0x01	; 1
     e46:	91 05       	cpc	r25, r1
     e48:	59 f0       	breq	.+22     	; 0xe60
     e4a:	82 30       	cpi	r24, 0x02	; 2
     e4c:	91 05       	cpc	r25, r1
     e4e:	1c f4       	brge	.+6      	; 0xe56
     e50:	89 2b       	or	r24, r25
     e52:	21 f0       	breq	.+8      	; 0xe5c
     e54:	4f c0       	rjmp	.+158    	; 0xef4
     e56:	02 97       	sbiw	r24, 0x02	; 2
     e58:	29 f0       	breq	.+10     	; 0xe64
     e5a:	4c c0       	rjmp	.+152    	; 0xef4
     e5c:	80 e0       	ldi	r24, 0x00	; 0
     e5e:	0c c0       	rjmp	.+24     	; 0xe78
     e60:	83 e0       	ldi	r24, 0x03	; 3
     e62:	0a c0       	rjmp	.+20     	; 0xe78
     e64:	80 91 7d 00 	lds	r24, 0x007D
     e68:	99 27       	eor	r25, r25
     e6a:	81 30       	cpi	r24, 0x01	; 1
     e6c:	91 05       	cpc	r25, r1
     e6e:	19 f0       	breq	.+6      	; 0xe76
     e70:	02 97       	sbiw	r24, 0x02	; 2
     e72:	29 f0       	breq	.+10     	; 0xe7e
     e74:	3f c0       	rjmp	.+126    	; 0xef4
     e76:	84 e0       	ldi	r24, 0x04	; 4
     e78:	0e 94 89 0f 	call	0x1f12
     e7c:	3b c0       	rjmp	.+118    	; 0xef4
     e7e:	60 e0       	ldi	r22, 0x00	; 0
     e80:	82 e0       	ldi	r24, 0x02	; 2
     e82:	0e 94 9f 0f 	call	0x1f3e
     e86:	36 c0       	rjmp	.+108    	; 0xef4
     e88:	e0 90 9e 01 	lds	r14, 0x019E
     e8c:	89 2f       	mov	r24, r25
     e8e:	99 27       	eor	r25, r25
     e90:	89 2b       	or	r24, r25
     e92:	19 f4       	brne	.+6      	; 0xe9a
     e94:	c6 e0       	ldi	r28, 0x06	; 6
     e96:	d0 e0       	ldi	r29, 0x00	; 0
     e98:	02 c0       	rjmp	.+4      	; 0xe9e
     e9a:	c0 e0       	ldi	r28, 0x00	; 0
     e9c:	d0 e0       	ldi	r29, 0x00	; 0
     e9e:	ff 24       	eor	r15, r15
     ea0:	e1 14       	cp	r14, r1
     ea2:	f1 04       	cpc	r15, r1
     ea4:	39 f5       	brne	.+78     	; 0xef4
     ea6:	c0 90 62 03 	lds	r12, 0x0362
     eaa:	d0 90 63 03 	lds	r13, 0x0363
     eae:	cc 23       	and	r28, r28
     eb0:	d1 f4       	brne	.+52     	; 0xee6
     eb2:	80 91 be 02 	lds	r24, 0x02BE
     eb6:	99 27       	eor	r25, r25
     eb8:	6d e0       	ldi	r22, 0x0D	; 13
     eba:	70 e0       	ldi	r23, 0x00	; 0
     ebc:	0e 94 29 20 	call	0x4052
     ec0:	f9 2f       	mov	r31, r25
     ec2:	e8 2f       	mov	r30, r24
     ec4:	e1 56       	subi	r30, 0x61	; 97
     ec6:	fe 4f       	sbci	r31, 0xFE	; 254
     ec8:	34 85       	ldd	r19, Z+12	; 0x0c
     eca:	80 91 68 03 	lds	r24, 0x0368
     ece:	90 91 69 03 	lds	r25, 0x0369
     ed2:	08 2f       	mov	r16, r24
     ed4:	19 2f       	mov	r17, r25
     ed6:	2c 2f       	mov	r18, r28
     ed8:	43 2f       	mov	r20, r19
     eda:	7d 2d       	mov	r23, r13
     edc:	6c 2d       	mov	r22, r12
     ede:	83 e0       	ldi	r24, 0x03	; 3
     ee0:	0e 94 84 0b 	call	0x1708
     ee4:	07 c0       	rjmp	.+14     	; 0xef4
     ee6:	9d 2d       	mov	r25, r13
     ee8:	8c 2d       	mov	r24, r12
     eea:	0e 94 5a 10 	call	0x20b4
     eee:	8c 2f       	mov	r24, r28
     ef0:	0e 94 25 12 	call	0x244a
     ef4:	df 91       	pop	r29
     ef6:	cf 91       	pop	r28
     ef8:	1f 91       	pop	r17
     efa:	0f 91       	pop	r16
     efc:	ff 90       	pop	r15
     efe:	ef 90       	pop	r14
     f00:	df 90       	pop	r13
     f02:	cf 90       	pop	r12
     f04:	08 95       	ret

00000f06 <Reader$continueRead>:
     f06:	9f 92       	push	r9
     f08:	af 92       	push	r10
     f0a:	bf 92       	push	r11
     f0c:	cf 92       	push	r12
     f0e:	df 92       	push	r13
     f10:	ef 92       	push	r14
     f12:	ff 92       	push	r15
     f14:	0f 93       	push	r16
     f16:	1f 93       	push	r17
     f18:	cf 93       	push	r28
     f1a:	df 93       	push	r29
     f1c:	a0 90 55 03 	lds	r10, 0x0355
     f20:	b0 90 56 03 	lds	r11, 0x0356
     f24:	c0 90 57 03 	lds	r12, 0x0357
     f28:	d0 90 58 03 	lds	r13, 0x0358
     f2c:	90 90 97 00 	lds	r9, 0x0097
     f30:	a1 14       	cp	r10, r1
     f32:	b1 04       	cpc	r11, r1
     f34:	c1 04       	cpc	r12, r1
     f36:	d1 04       	cpc	r13, r1
     f38:	a9 f4       	brne	.+42     	; 0xf64
     f3a:	e0 90 1b 03 	lds	r14, 0x031B
     f3e:	f0 90 1c 03 	lds	r15, 0x031C
     f42:	00 91 1d 03 	lds	r16, 0x031D
     f46:	10 91 1e 03 	lds	r17, 0x031E
     f4a:	20 e0       	ldi	r18, 0x00	; 0
     f4c:	71 2f       	mov	r23, r17
     f4e:	60 2f       	mov	r22, r16
     f50:	5f 2d       	mov	r21, r15
     f52:	4e 2d       	mov	r20, r14
     f54:	89 2d       	mov	r24, r9
     f56:	0e 94 9a 08 	call	0x1134
     f5a:	82 e0       	ldi	r24, 0x02	; 2
     f5c:	98 16       	cp	r9, r24
     f5e:	09 f0       	breq	.+2      	; 0xf62
     f60:	dd c0       	rjmp	.+442    	; 0x111c
     f62:	cb c0       	rjmp	.+406    	; 0x10fa
     f64:	89 2d       	mov	r24, r9
     f66:	99 27       	eor	r25, r25
     f68:	f9 2f       	mov	r31, r25
     f6a:	e8 2f       	mov	r30, r24
     f6c:	63 e0       	ldi	r22, 0x03	; 3
     f6e:	ee 0f       	add	r30, r30
     f70:	ff 1f       	adc	r31, r31
     f72:	6a 95       	dec	r22
     f74:	e1 f7       	brne	.-8      	; 0xf6e
     f76:	e8 0f       	add	r30, r24
     f78:	f9 1f       	adc	r31, r25
     f7a:	e3 59       	subi	r30, 0x93	; 147
     f7c:	fc 4f       	sbci	r31, 0xFC	; 252
     f7e:	04 81       	ldd	r16, Z+4	; 0x04
     f80:	15 81       	ldd	r17, Z+5	; 0x05
     f82:	81 e0       	ldi	r24, 0x01	; 1
     f84:	01 30       	cpi	r16, 0x01	; 1
     f86:	18 07       	cpc	r17, r24
     f88:	38 f0       	brcs	.+14     	; 0xf98
     f8a:	20 81       	ld	r18, Z
     f8c:	31 81       	ldd	r19, Z+1	; 0x01
     f8e:	80 85       	ldd	r24, Z+8	; 0x08
     f90:	48 2f       	mov	r20, r24
     f92:	73 2f       	mov	r23, r19
     f94:	62 2f       	mov	r22, r18
     f96:	bf c0       	rjmp	.+382    	; 0x1116
     f98:	8f ef       	ldi	r24, 0xFF	; 255
     f9a:	a8 16       	cp	r10, r24
     f9c:	b1 04       	cpc	r11, r1
     f9e:	c1 04       	cpc	r12, r1
     fa0:	d1 04       	cpc	r13, r1
     fa2:	09 f0       	breq	.+2      	; 0xfa6
     fa4:	88 f4       	brcc	.+34     	; 0xfc8
     fa6:	86 81       	ldd	r24, Z+6	; 0x06
     fa8:	97 81       	ldd	r25, Z+7	; 0x07
     faa:	aa 27       	eor	r26, r26
     fac:	bb 27       	eor	r27, r27
     fae:	8a 0d       	add	r24, r10
     fb0:	9b 1d       	adc	r25, r11
     fb2:	ac 1d       	adc	r26, r12
     fb4:	bd 1d       	adc	r27, r13
     fb6:	20 2f       	mov	r18, r16
     fb8:	31 2f       	mov	r19, r17
     fba:	44 27       	eor	r20, r20
     fbc:	55 27       	eor	r21, r21
     fbe:	28 17       	cp	r18, r24
     fc0:	39 07       	cpc	r19, r25
     fc2:	4a 07       	cpc	r20, r26
     fc4:	5b 07       	cpc	r21, r27
     fc6:	38 f4       	brcc	.+14     	; 0xfd6
     fc8:	86 81       	ldd	r24, Z+6	; 0x06
     fca:	97 81       	ldd	r25, Z+7	; 0x07
     fcc:	e0 2e       	mov	r14, r16
     fce:	f1 2e       	mov	r15, r17
     fd0:	e8 1a       	sub	r14, r24
     fd2:	f9 0a       	sbc	r15, r25
     fd4:	04 c0       	rjmp	.+8      	; 0xfde
     fd6:	e0 90 55 03 	lds	r14, 0x0355
     fda:	f0 90 56 03 	lds	r15, 0x0356
     fde:	e1 14       	cp	r14, r1
     fe0:	f1 04       	cpc	r15, r1
     fe2:	09 f4       	brne	.+2      	; 0xfe6
     fe4:	5b c0       	rjmp	.+182    	; 0x109c
     fe6:	89 2d       	mov	r24, r9
     fe8:	99 27       	eor	r25, r25
     fea:	f9 2f       	mov	r31, r25
     fec:	e8 2f       	mov	r30, r24
     fee:	53 e0       	ldi	r21, 0x03	; 3
     ff0:	ee 0f       	add	r30, r30
     ff2:	ff 1f       	adc	r31, r31
     ff4:	5a 95       	dec	r21
     ff6:	e1 f7       	brne	.-8      	; 0xff0
     ff8:	e8 0f       	add	r30, r24
     ffa:	f9 1f       	adc	r31, r25
     ffc:	e3 59       	subi	r30, 0x93	; 147
     ffe:	fc 4f       	sbci	r31, 0xFC	; 252
    1000:	60 81       	ld	r22, Z
    1002:	71 81       	ldd	r23, Z+1	; 0x01
    1004:	46 81       	ldd	r20, Z+6	; 0x06
    1006:	57 81       	ldd	r21, Z+7	; 0x07
    1008:	80 91 85 01 	lds	r24, 0x0185
    100c:	90 91 86 01 	lds	r25, 0x0186
    1010:	10 92 6a 03 	sts	0x036A, r1
    1014:	10 92 9e 01 	sts	0x019E, r1
    1018:	70 93 c2 00 	sts	0x00C2, r23
    101c:	60 93 c1 00 	sts	0x00C1, r22
    1020:	1f 2d       	mov	r17, r15
    1022:	0e 2d       	mov	r16, r14
    1024:	28 2f       	mov	r18, r24
    1026:	39 2f       	mov	r19, r25
    1028:	81 e0       	ldi	r24, 0x01	; 1
    102a:	0e 94 2f 04 	call	0x85e
    102e:	80 91 97 00 	lds	r24, 0x0097
    1032:	99 27       	eor	r25, r25
    1034:	f9 2f       	mov	r31, r25
    1036:	e8 2f       	mov	r30, r24
    1038:	43 e0       	ldi	r20, 0x03	; 3
    103a:	ee 0f       	add	r30, r30
    103c:	ff 1f       	adc	r31, r31
    103e:	4a 95       	dec	r20
    1040:	e1 f7       	brne	.-8      	; 0x103a
    1042:	e8 0f       	add	r30, r24
    1044:	f9 1f       	adc	r31, r25
    1046:	e3 59       	subi	r30, 0x93	; 147
    1048:	fc 4f       	sbci	r31, 0xFC	; 252
    104a:	86 81       	ldd	r24, Z+6	; 0x06
    104c:	97 81       	ldd	r25, Z+7	; 0x07
    104e:	8e 0d       	add	r24, r14
    1050:	9f 1d       	adc	r25, r15
    1052:	86 83       	std	Z+6, r24	; 0x06
    1054:	97 83       	std	Z+7, r25	; 0x07
    1056:	80 91 85 01 	lds	r24, 0x0185
    105a:	90 91 86 01 	lds	r25, 0x0186
    105e:	8e 0d       	add	r24, r14
    1060:	9f 1d       	adc	r25, r15
    1062:	90 93 86 01 	sts	0x0186, r25
    1066:	80 93 85 01 	sts	0x0185, r24
    106a:	2e 2d       	mov	r18, r14
    106c:	3f 2d       	mov	r19, r15
    106e:	44 27       	eor	r20, r20
    1070:	55 27       	eor	r21, r21
    1072:	80 91 55 03 	lds	r24, 0x0355
    1076:	90 91 56 03 	lds	r25, 0x0356
    107a:	a0 91 57 03 	lds	r26, 0x0357
    107e:	b0 91 58 03 	lds	r27, 0x0358
    1082:	82 1b       	sub	r24, r18
    1084:	93 0b       	sbc	r25, r19
    1086:	a4 0b       	sbc	r26, r20
    1088:	b5 0b       	sbc	r27, r21
    108a:	80 93 55 03 	sts	0x0355, r24
    108e:	90 93 56 03 	sts	0x0356, r25
    1092:	a0 93 57 03 	sts	0x0357, r26
    1096:	b0 93 58 03 	sts	0x0358, r27
    109a:	40 c0       	rjmp	.+128    	; 0x111c
    109c:	c9 2d       	mov	r28, r9
    109e:	dd 27       	eor	r29, r29
    10a0:	fd 2f       	mov	r31, r29
    10a2:	ec 2f       	mov	r30, r28
    10a4:	33 e0       	ldi	r19, 0x03	; 3
    10a6:	ee 0f       	add	r30, r30
    10a8:	ff 1f       	adc	r31, r31
    10aa:	3a 95       	dec	r19
    10ac:	e1 f7       	brne	.-8      	; 0x10a6
    10ae:	ec 0f       	add	r30, r28
    10b0:	fd 1f       	adc	r31, r29
    10b2:	e3 59       	subi	r30, 0x93	; 147
    10b4:	fc 4f       	sbci	r31, 0xFC	; 252
    10b6:	62 81       	ldd	r22, Z+2	; 0x02
    10b8:	73 81       	ldd	r23, Z+3	; 0x03
    10ba:	86 e0       	ldi	r24, 0x06	; 6
    10bc:	6a 32       	cpi	r22, 0x2A	; 42
    10be:	78 07       	cpc	r23, r24
    10c0:	31 f0       	breq	.+12     	; 0x10ce
    10c2:	84 81       	ldd	r24, Z+4	; 0x04
    10c4:	95 81       	ldd	r25, Z+5	; 0x05
    10c6:	8f 3f       	cpi	r24, 0xFF	; 255
    10c8:	91 05       	cpc	r25, r1
    10ca:	09 f0       	breq	.+2      	; 0x10ce
    10cc:	f0 f4       	brcc	.+60     	; 0x110a
    10ce:	e0 90 1b 03 	lds	r14, 0x031B
    10d2:	f0 90 1c 03 	lds	r15, 0x031C
    10d6:	00 91 1d 03 	lds	r16, 0x031D
    10da:	10 91 1e 03 	lds	r17, 0x031E
    10de:	ea 18       	sub	r14, r10
    10e0:	fb 08       	sbc	r15, r11
    10e2:	0c 09       	sbc	r16, r12
    10e4:	1d 09       	sbc	r17, r13
    10e6:	20 e0       	ldi	r18, 0x00	; 0
    10e8:	71 2f       	mov	r23, r17
    10ea:	60 2f       	mov	r22, r16
    10ec:	5f 2d       	mov	r21, r15
    10ee:	4e 2d       	mov	r20, r14
    10f0:	89 2d       	mov	r24, r9
    10f2:	0e 94 9a 08 	call	0x1134
    10f6:	22 97       	sbiw	r28, 0x02	; 2
    10f8:	89 f4       	brne	.+34     	; 0x111c
    10fa:	40 e0       	ldi	r20, 0x00	; 0
    10fc:	91 2f       	mov	r25, r17
    10fe:	80 2f       	mov	r24, r16
    1100:	7f 2d       	mov	r23, r15
    1102:	6e 2d       	mov	r22, r14
    1104:	0e 94 c7 09 	call	0x138e
    1108:	09 c0       	rjmp	.+18     	; 0x111c
    110a:	60 83       	st	Z, r22
    110c:	71 83       	std	Z+1, r23	; 0x01
    110e:	e6 82       	std	Z+6, r14	; 0x06
    1110:	f7 82       	std	Z+7, r15	; 0x07
    1112:	80 85       	ldd	r24, Z+8	; 0x08
    1114:	48 2f       	mov	r20, r24
    1116:	81 e0       	ldi	r24, 0x01	; 1
    1118:	0e 94 7d 10 	call	0x20fa
    111c:	df 91       	pop	r29
    111e:	cf 91       	pop	r28
    1120:	1f 91       	pop	r17
    1122:	0f 91       	pop	r16
    1124:	ff 90       	pop	r15
    1126:	ef 90       	pop	r14
    1128:	df 90       	pop	r13
    112a:	cf 90       	pop	r12
    112c:	bf 90       	pop	r11
    112e:	af 90       	pop	r10
    1130:	9f 90       	pop	r9
    1132:	08 95       	ret

00001134 <Read$IFileRead$readDone>:
    1134:	df 92       	push	r13
    1136:	ef 92       	push	r14
    1138:	ff 92       	push	r15
    113a:	0f 93       	push	r16
    113c:	1f 93       	push	r17
    113e:	cf 93       	push	r28
    1140:	c8 2f       	mov	r28, r24
    1142:	e4 2e       	mov	r14, r20
    1144:	f5 2e       	mov	r15, r21
    1146:	06 2f       	mov	r16, r22
    1148:	17 2f       	mov	r17, r23
    114a:	d2 2e       	mov	r13, r18
    114c:	82 30       	cpi	r24, 0x02	; 2
    114e:	e1 f1       	breq	.+120    	; 0x11c8
    1150:	0e 94 eb 08 	call	0x11d6
    1154:	6c 2f       	mov	r22, r28
    1156:	77 27       	eor	r23, r23
    1158:	61 15       	cp	r22, r1
    115a:	71 05       	cpc	r23, r1
    115c:	a9 f5       	brne	.+106    	; 0x11c8
    115e:	dd 20       	and	r13, r13
    1160:	69 f4       	brne	.+26     	; 0x117c
    1162:	20 91 79 00 	lds	r18, 0x0079
    1166:	30 91 7a 00 	lds	r19, 0x007A
    116a:	40 91 7b 00 	lds	r20, 0x007B
    116e:	50 91 7c 00 	lds	r21, 0x007C
    1172:	e2 16       	cp	r14, r18
    1174:	f3 06       	cpc	r15, r19
    1176:	04 07       	cpc	r16, r20
    1178:	15 07       	cpc	r17, r21
    117a:	08 f5       	brcc	.+66     	; 0x11be
    117c:	80 91 95 03 	lds	r24, 0x0395
    1180:	90 91 96 03 	lds	r25, 0x0396
    1184:	8a 52       	subi	r24, 0x2A	; 42
    1186:	96 40       	sbci	r25, 0x06	; 6
    1188:	b1 f0       	breq	.+44     	; 0x11b6
    118a:	80 91 5a 03 	lds	r24, 0x035A
    118e:	88 23       	and	r24, r24
    1190:	19 f0       	breq	.+6      	; 0x1198
    1192:	97 2f       	mov	r25, r23
    1194:	86 2f       	mov	r24, r22
    1196:	05 c0       	rjmp	.+10     	; 0x11a2
    1198:	81 e0       	ldi	r24, 0x01	; 1
    119a:	80 93 5a 03 	sts	0x035A, r24
    119e:	81 e0       	ldi	r24, 0x01	; 1
    11a0:	90 e0       	ldi	r25, 0x00	; 0
    11a2:	88 23       	and	r24, r24
    11a4:	41 f0       	breq	.+16     	; 0x11b6
    11a6:	8a e2       	ldi	r24, 0x2A	; 42
    11a8:	96 e0       	ldi	r25, 0x06	; 6
    11aa:	90 93 96 03 	sts	0x0396, r25
    11ae:	80 93 95 03 	sts	0x0395, r24
    11b2:	0e 94 eb 08 	call	0x11d6
    11b6:	8d 2d       	mov	r24, r13
    11b8:	0e 94 f0 08 	call	0x11e0
    11bc:	05 c0       	rjmp	.+10     	; 0x11c8
    11be:	6c ea       	ldi	r22, 0xAC	; 172
    11c0:	71 e0       	ldi	r23, 0x01	; 1
    11c2:	8d 2d       	mov	r24, r13
    11c4:	0e 94 74 09 	call	0x12e8
    11c8:	cf 91       	pop	r28
    11ca:	1f 91       	pop	r17
    11cc:	0f 91       	pop	r16
    11ce:	ff 90       	pop	r15
    11d0:	ef 90       	pop	r14
    11d2:	df 90       	pop	r13
    11d4:	08 95       	ret

000011d6 <Coordinator$IFileCoord$unlock>:
    11d6:	10 92 5a 03 	sts	0x035A, r1
    11da:	81 e0       	ldi	r24, 0x01	; 1
    11dc:	90 e0       	ldi	r25, 0x00	; 0
    11de:	08 95       	ret

000011e0 <TimingM$sendTime>:
    11e0:	1f 93       	push	r17
    11e2:	18 2f       	mov	r17, r24
    11e4:	44 e0       	ldi	r20, 0x04	; 4
    11e6:	50 e0       	ldi	r21, 0x00	; 0
    11e8:	6b e5       	ldi	r22, 0x5B	; 91
    11ea:	73 e0       	ldi	r23, 0x03	; 3
    11ec:	8b e2       	ldi	r24, 0x2B	; 43
    11ee:	93 e0       	ldi	r25, 0x03	; 3
    11f0:	0e 94 48 09 	call	0x1290
    11f4:	10 93 2f 03 	sts	0x032F, r17
    11f8:	85 e0       	ldi	r24, 0x05	; 5
    11fa:	80 93 2a 03 	sts	0x032A, r24
    11fe:	8e e7       	ldi	r24, 0x7E	; 126
    1200:	90 e0       	ldi	r25, 0x00	; 0
    1202:	90 93 27 03 	sts	0x0327, r25
    1206:	80 93 26 03 	sts	0x0326, r24
    120a:	8f b7       	in	r24, 0x3f	; 63
    120c:	f8 94       	cli
    120e:	48 2f       	mov	r20, r24
    1210:	55 27       	eor	r21, r21
    1212:	20 91 9e 00 	lds	r18, 0x009E
    1216:	22 23       	and	r18, r18
    1218:	19 f4       	brne	.+6      	; 0x1220
    121a:	81 e0       	ldi	r24, 0x01	; 1
    121c:	80 93 9e 00 	sts	0x009E, r24
    1220:	4f bf       	out	0x3f, r20	; 63
    1222:	22 23       	and	r18, r18
    1224:	99 f5       	brne	.+102    	; 0x128c
    1226:	8f b7       	in	r24, 0x3f	; 63
    1228:	f8 94       	cli
    122a:	18 2f       	mov	r17, r24
    122c:	81 e0       	ldi	r24, 0x01	; 1
    122e:	90 e0       	ldi	r25, 0x00	; 0
    1230:	90 93 49 03 	sts	0x0349, r25
    1234:	80 93 48 03 	sts	0x0348, r24
    1238:	92 2f       	mov	r25, r18
    123a:	8f b7       	in	r24, 0x3f	; 63
    123c:	f8 94       	cli
    123e:	48 2f       	mov	r20, r24
    1240:	55 27       	eor	r21, r21
    1242:	80 91 5f 03 	lds	r24, 0x035F
    1246:	88 23       	and	r24, r24
    1248:	81 f4       	brne	.+32     	; 0x126a
    124a:	81 e0       	ldi	r24, 0x01	; 1
    124c:	80 93 5f 03 	sts	0x035F, r24
    1250:	24 e2       	ldi	r18, 0x24	; 36
    1252:	30 e0       	ldi	r19, 0x00	; 0
    1254:	20 93 8a 03 	sts	0x038A, r18
    1258:	26 e2       	ldi	r18, 0x26	; 38
    125a:	33 e0       	ldi	r19, 0x03	; 3
    125c:	30 93 9d 03 	sts	0x039D, r19
    1260:	20 93 9c 03 	sts	0x039C, r18
    1264:	90 91 26 03 	lds	r25, 0x0326
    1268:	28 2f       	mov	r18, r24
    126a:	4f bf       	out	0x3f, r20	; 63
    126c:	22 23       	and	r18, r18
    126e:	69 f0       	breq	.+26     	; 0x128a
    1270:	89 2f       	mov	r24, r25
    1272:	0e 94 5f 09 	call	0x12be
    1276:	28 2f       	mov	r18, r24
    1278:	33 27       	eor	r19, r19
    127a:	22 23       	and	r18, r18
    127c:	31 f4       	brne	.+12     	; 0x128a
    127e:	8f b7       	in	r24, 0x3f	; 63
    1280:	f8 94       	cli
    1282:	99 27       	eor	r25, r25
    1284:	20 93 5f 03 	sts	0x035F, r18
    1288:	8f bf       	out	0x3f, r24	; 63
    128a:	1f bf       	out	0x3f, r17	; 63
    128c:	1f 91       	pop	r17
    128e:	08 95       	ret

00001290 <nmemcpy>:
    1290:	28 2f       	mov	r18, r24
    1292:	39 2f       	mov	r19, r25
    1294:	b3 2f       	mov	r27, r19
    1296:	a2 2f       	mov	r26, r18
    1298:	f7 2f       	mov	r31, r23
    129a:	e6 2f       	mov	r30, r22
    129c:	41 50       	subi	r20, 0x01	; 1
    129e:	50 40       	sbci	r21, 0x00	; 0
    12a0:	8f ef       	ldi	r24, 0xFF	; 255
    12a2:	4f 3f       	cpi	r20, 0xFF	; 255
    12a4:	58 07       	cpc	r21, r24
    12a6:	41 f0       	breq	.+16     	; 0x12b8
    12a8:	81 91       	ld	r24, Z+
    12aa:	8d 93       	st	X+, r24
    12ac:	41 50       	subi	r20, 0x01	; 1
    12ae:	50 40       	sbci	r21, 0x00	; 0
    12b0:	8f ef       	ldi	r24, 0xFF	; 255
    12b2:	4f 3f       	cpi	r20, 0xFF	; 255
    12b4:	58 07       	cpc	r21, r24
    12b6:	c1 f7       	brne	.-16     	; 0x12a8
    12b8:	93 2f       	mov	r25, r19
    12ba:	82 2f       	mov	r24, r18
    12bc:	08 95       	ret

000012be <UARTM$ByteComm$txByte>:
    12be:	48 2f       	mov	r20, r24
    12c0:	8f b7       	in	r24, 0x3f	; 63
    12c2:	f8 94       	cli
    12c4:	28 2f       	mov	r18, r24
    12c6:	33 27       	eor	r19, r19
    12c8:	90 91 98 01 	lds	r25, 0x0198
    12cc:	81 e0       	ldi	r24, 0x01	; 1
    12ce:	80 93 98 01 	sts	0x0198, r24
    12d2:	2f bf       	out	0x3f, r18	; 63
    12d4:	99 23       	and	r25, r25
    12d6:	19 f0       	breq	.+6      	; 0x12de
    12d8:	80 e0       	ldi	r24, 0x00	; 0
    12da:	90 e0       	ldi	r25, 0x00	; 0
    12dc:	08 95       	ret
    12de:	5e 9a       	sbi	0x0b, 6	; 11
    12e0:	4c b9       	out	0x0c, r20	; 12
    12e2:	81 e0       	ldi	r24, 0x01	; 1
    12e4:	90 e0       	ldi	r25, 0x00	; 0
    12e6:	08 95       	ret

000012e8 <Read$FileRead$read>:
    12e8:	cf 93       	push	r28
    12ea:	df 93       	push	r29
    12ec:	a8 2f       	mov	r26, r24
    12ee:	d7 2f       	mov	r29, r23
    12f0:	c6 2f       	mov	r28, r22
    12f2:	e8 2f       	mov	r30, r24
    12f4:	ff 27       	eor	r31, r31
    12f6:	ee 0f       	add	r30, r30
    12f8:	ff 1f       	adc	r31, r31
    12fa:	eb 56       	subi	r30, 0x6B	; 107
    12fc:	fc 4f       	sbci	r31, 0xFC	; 252
    12fe:	80 81       	ld	r24, Z
    1300:	91 81       	ldd	r25, Z+1	; 0x01
    1302:	8a 52       	subi	r24, 0x2A	; 42
    1304:	96 40       	sbci	r25, 0x06	; 6
    1306:	71 f0       	breq	.+28     	; 0x1324
    1308:	80 91 5a 03 	lds	r24, 0x035A
    130c:	88 23       	and	r24, r24
    130e:	19 f0       	breq	.+6      	; 0x1316
    1310:	80 e0       	ldi	r24, 0x00	; 0
    1312:	90 e0       	ldi	r25, 0x00	; 0
    1314:	05 c0       	rjmp	.+10     	; 0x1320
    1316:	81 e0       	ldi	r24, 0x01	; 1
    1318:	80 93 5a 03 	sts	0x035A, r24
    131c:	81 e0       	ldi	r24, 0x01	; 1
    131e:	90 e0       	ldi	r25, 0x00	; 0
    1320:	89 2b       	or	r24, r25
    1322:	19 f4       	brne	.+6      	; 0x132a
    1324:	80 e0       	ldi	r24, 0x00	; 0
    1326:	90 e0       	ldi	r25, 0x00	; 0
    1328:	0b c0       	rjmp	.+22     	; 0x1340
    132a:	6c 2f       	mov	r22, r28
    132c:	7d 2f       	mov	r23, r29
    132e:	8a 2f       	mov	r24, r26
    1330:	0e 94 a3 09 	call	0x1346
    1334:	d0 93 65 00 	sts	0x0065, r29
    1338:	c0 93 64 00 	sts	0x0064, r28
    133c:	81 e0       	ldi	r24, 0x01	; 1
    133e:	90 e0       	ldi	r25, 0x00	; 0
    1340:	df 91       	pop	r29
    1342:	cf 91       	pop	r28
    1344:	08 95       	ret

00001346 <Reader$IFileRead$read>:
    1346:	e8 2f       	mov	r30, r24
    1348:	e0 93 97 00 	sts	0x0097, r30
    134c:	70 93 86 01 	sts	0x0186, r23
    1350:	60 93 85 01 	sts	0x0185, r22
    1354:	20 93 55 03 	sts	0x0355, r18
    1358:	30 93 56 03 	sts	0x0356, r19
    135c:	40 93 57 03 	sts	0x0357, r20
    1360:	50 93 58 03 	sts	0x0358, r21
    1364:	20 93 1b 03 	sts	0x031B, r18
    1368:	30 93 1c 03 	sts	0x031C, r19
    136c:	40 93 1d 03 	sts	0x031D, r20
    1370:	50 93 1e 03 	sts	0x031E, r21
    1374:	21 15       	cp	r18, r1
    1376:	31 05       	cpc	r19, r1
    1378:	41 05       	cpc	r20, r1
    137a:	51 05       	cpc	r21, r1
    137c:	29 f4       	brne	.+10     	; 0x1388
    137e:	8c eb       	ldi	r24, 0xBC	; 188
    1380:	9d e1       	ldi	r25, 0x1D	; 29
    1382:	0e 94 a1 01 	call	0x342
    1386:	08 95       	ret
    1388:	0e 94 83 07 	call	0xf06
    138c:	08 95       	ret

0000138e <MetaData$MetaDataReader$readDone>:
    138e:	44 23       	and	r20, r20
    1390:	31 f4       	brne	.+12     	; 0x139e
    1392:	61 15       	cp	r22, r1
    1394:	71 05       	cpc	r23, r1
    1396:	81 05       	cpc	r24, r1
    1398:	91 05       	cpc	r25, r1
    139a:	09 f4       	brne	.+2      	; 0x139e
    139c:	41 e0       	ldi	r20, 0x01	; 1
    139e:	80 91 6c 03 	lds	r24, 0x036C
    13a2:	99 27       	eor	r25, r25
    13a4:	82 30       	cpi	r24, 0x02	; 2
    13a6:	91 05       	cpc	r25, r1
    13a8:	e9 f0       	breq	.+58     	; 0x13e4
    13aa:	83 30       	cpi	r24, 0x03	; 3
    13ac:	91 05       	cpc	r25, r1
    13ae:	2c f4       	brge	.+10     	; 0x13ba
    13b0:	00 97       	sbiw	r24, 0x00	; 0
    13b2:	61 f0       	breq	.+24     	; 0x13cc
    13b4:	01 97       	sbiw	r24, 0x01	; 1
    13b6:	81 f0       	breq	.+32     	; 0x13d8
    13b8:	08 95       	ret
    13ba:	84 30       	cpi	r24, 0x04	; 4
    13bc:	91 05       	cpc	r25, r1
    13be:	f1 f0       	breq	.+60     	; 0x13fc
    13c0:	84 30       	cpi	r24, 0x04	; 4
    13c2:	91 05       	cpc	r25, r1
    13c4:	ac f0       	brlt	.+42     	; 0x13f0
    13c6:	05 97       	sbiw	r24, 0x05	; 5
    13c8:	69 f1       	breq	.+90     	; 0x1424
    13ca:	08 95       	ret
    13cc:	64 2f       	mov	r22, r20
    13ce:	85 e8       	ldi	r24, 0x85	; 133
    13d0:	90 e0       	ldi	r25, 0x00	; 0
    13d2:	0e 94 18 0a 	call	0x1430
    13d6:	08 95       	ret
    13d8:	64 2f       	mov	r22, r20
    13da:	85 e8       	ldi	r24, 0x85	; 133
    13dc:	90 e0       	ldi	r25, 0x00	; 0
    13de:	0e 94 0d 13 	call	0x261a
    13e2:	08 95       	ret
    13e4:	64 2f       	mov	r22, r20
    13e6:	85 e8       	ldi	r24, 0x85	; 133
    13e8:	90 e0       	ldi	r25, 0x00	; 0
    13ea:	0e 94 12 13 	call	0x2624
    13ee:	08 95       	ret
    13f0:	64 2f       	mov	r22, r20
    13f2:	85 e8       	ldi	r24, 0x85	; 133
    13f4:	90 e0       	ldi	r25, 0x00	; 0
    13f6:	0e 94 b0 13 	call	0x2760
    13fa:	08 95       	ret
    13fc:	80 91 7d 00 	lds	r24, 0x007D
    1400:	99 27       	eor	r25, r25
    1402:	00 97       	sbiw	r24, 0x00	; 0
    1404:	19 f0       	breq	.+6      	; 0x140c
    1406:	01 97       	sbiw	r24, 0x01	; 1
    1408:	39 f0       	breq	.+14     	; 0x1418
    140a:	08 95       	ret
    140c:	64 2f       	mov	r22, r20
    140e:	85 e8       	ldi	r24, 0x85	; 133
    1410:	90 e0       	ldi	r25, 0x00	; 0
    1412:	0e 94 09 14 	call	0x2812
    1416:	08 95       	ret
    1418:	64 2f       	mov	r22, r20
    141a:	85 e8       	ldi	r24, 0x85	; 133
    141c:	90 e0       	ldi	r25, 0x00	; 0
    141e:	0e 94 92 14 	call	0x2924
    1422:	08 95       	ret
    1424:	64 2f       	mov	r22, r20
    1426:	85 e8       	ldi	r24, 0x85	; 133
    1428:	90 e0       	ldi	r25, 0x00	; 0
    142a:	0e 94 bf 14 	call	0x297e
    142e:	08 95       	ret

00001430 <Delete$IFileMetaRead$nextFile>:
    1430:	1f 93       	push	r17
    1432:	cf 93       	push	r28
    1434:	df 93       	push	r29
    1436:	d9 2f       	mov	r29, r25
    1438:	c8 2f       	mov	r28, r24
    143a:	16 2f       	mov	r17, r22
    143c:	66 23       	and	r22, r22
    143e:	11 f5       	brne	.+68     	; 0x1484
    1440:	60 91 8c 01 	lds	r22, 0x018C
    1444:	70 91 8d 01 	lds	r23, 0x018D
    1448:	0e 94 1d 20 	call	0x403a
    144c:	4e 85       	ldd	r20, Y+14	; 0x0e
    144e:	5f 85       	ldd	r21, Y+15	; 0x0f
    1450:	89 2b       	or	r24, r25
    1452:	31 f0       	breq	.+12     	; 0x1460
    1454:	6c 2f       	mov	r22, r28
    1456:	7d 2f       	mov	r23, r29
    1458:	81 2f       	mov	r24, r17
    145a:	0e 94 56 0a 	call	0x14ac
    145e:	22 c0       	rjmp	.+68     	; 0x14a4
    1460:	95 2f       	mov	r25, r21
    1462:	84 2f       	mov	r24, r20
    1464:	0e 94 e5 12 	call	0x25ca
    1468:	88 23       	and	r24, r24
    146a:	11 f4       	brne	.+4      	; 0x1470
    146c:	14 e0       	ldi	r17, 0x04	; 4
    146e:	16 c0       	rjmp	.+44     	; 0x149c
    1470:	8e 85       	ldd	r24, Y+14	; 0x0e
    1472:	9f 85       	ldd	r25, Y+15	; 0x0f
    1474:	90 93 7f 00 	sts	0x007F, r25
    1478:	80 93 7e 00 	sts	0x007E, r24
    147c:	81 2f       	mov	r24, r17
    147e:	0e 94 89 0f 	call	0x1f12
    1482:	10 c0       	rjmp	.+32     	; 0x14a4
    1484:	61 30       	cpi	r22, 0x01	; 1
    1486:	51 f4       	brne	.+20     	; 0x149c
    1488:	80 91 7e 00 	lds	r24, 0x007E
    148c:	90 91 7f 00 	lds	r25, 0x007F
    1490:	8a 52       	subi	r24, 0x2A	; 42
    1492:	96 40       	sbci	r25, 0x06	; 6
    1494:	11 f4       	brne	.+4      	; 0x149a
    1496:	15 e0       	ldi	r17, 0x05	; 5
    1498:	01 c0       	rjmp	.+2      	; 0x149c
    149a:	10 e0       	ldi	r17, 0x00	; 0
    149c:	61 2f       	mov	r22, r17
    149e:	80 e0       	ldi	r24, 0x00	; 0
    14a0:	0e 94 9f 0f 	call	0x1f3e
    14a4:	df 91       	pop	r29
    14a6:	cf 91       	pop	r28
    14a8:	1f 91       	pop	r17
    14aa:	08 95       	ret

000014ac <MetaData$IFileMetaWrite$writeFile>:
    14ac:	1f 93       	push	r17
    14ae:	cf 93       	push	r28
    14b0:	df 93       	push	r29
    14b2:	d5 2f       	mov	r29, r21
    14b4:	c4 2f       	mov	r28, r20
    14b6:	10 91 90 01 	lds	r17, 0x0190
    14ba:	11 23       	and	r17, r17
    14bc:	e9 f4       	brne	.+58     	; 0x14f8
    14be:	4e e0       	ldi	r20, 0x0E	; 14
    14c0:	50 e0       	ldi	r21, 0x00	; 0
    14c2:	8e e9       	ldi	r24, 0x9E	; 158
    14c4:	93 e0       	ldi	r25, 0x03	; 3
    14c6:	0e 94 48 09 	call	0x1290
    14ca:	d0 93 ad 03 	sts	0x03AD, r29
    14ce:	c0 93 ac 03 	sts	0x03AC, r28
    14d2:	20 e1       	ldi	r18, 0x10	; 16
    14d4:	30 e0       	ldi	r19, 0x00	; 0
    14d6:	40 e0       	ldi	r20, 0x00	; 0
    14d8:	50 e0       	ldi	r21, 0x00	; 0
    14da:	6e e9       	ldi	r22, 0x9E	; 158
    14dc:	73 e0       	ldi	r23, 0x03	; 3
    14de:	81 2f       	mov	r24, r17
    14e0:	0e 94 84 0a 	call	0x1508
    14e4:	80 91 68 00 	lds	r24, 0x0068
    14e8:	90 91 69 00 	lds	r25, 0x0069
    14ec:	01 96       	adiw	r24, 0x01	; 1
    14ee:	90 93 69 00 	sts	0x0069, r25
    14f2:	80 93 68 00 	sts	0x0068, r24
    14f6:	04 c0       	rjmp	.+8      	; 0x1500
    14f8:	82 e5       	ldi	r24, 0x52	; 82
    14fa:	9d e1       	ldi	r25, 0x1D	; 29
    14fc:	0e 94 a1 01 	call	0x342
    1500:	df 91       	pop	r29
    1502:	cf 91       	pop	r28
    1504:	1f 91       	pop	r17
    1506:	08 95       	ret

00001508 <Writer$IFileWrite$write>:
    1508:	e8 2f       	mov	r30, r24
    150a:	e0 93 be 02 	sts	0x02BE, r30
    150e:	70 93 b1 02 	sts	0x02B1, r23
    1512:	60 93 b0 02 	sts	0x02B0, r22
    1516:	20 93 bf 02 	sts	0x02BF, r18
    151a:	30 93 c0 02 	sts	0x02C0, r19
    151e:	40 93 c1 02 	sts	0x02C1, r20
    1522:	50 93 c2 02 	sts	0x02C2, r21
    1526:	20 93 9a 01 	sts	0x019A, r18
    152a:	30 93 9b 01 	sts	0x019B, r19
    152e:	40 93 9c 01 	sts	0x019C, r20
    1532:	50 93 9d 01 	sts	0x019D, r21
    1536:	21 15       	cp	r18, r1
    1538:	31 05       	cpc	r19, r1
    153a:	41 05       	cpc	r20, r1
    153c:	51 05       	cpc	r21, r1
    153e:	29 f4       	brne	.+10     	; 0x154a
    1540:	82 ef       	ldi	r24, 0xF2	; 242
    1542:	9d e1       	ldi	r25, 0x1D	; 29
    1544:	0e 94 a1 01 	call	0x342
    1548:	08 95       	ret
    154a:	0e 94 9e 10 	call	0x213c
    154e:	08 95       	ret

00001550 <Write$IFileWrite$writeDone>:
    1550:	1f 93       	push	r17
    1552:	cf 93       	push	r28
    1554:	c8 2f       	mov	r28, r24
    1556:	12 2f       	mov	r17, r18
    1558:	88 23       	and	r24, r24
    155a:	39 f0       	breq	.+14     	; 0x156a
    155c:	0e 94 eb 08 	call	0x11d6
    1560:	c1 30       	cpi	r28, 0x01	; 1
    1562:	19 f4       	brne	.+6      	; 0x156a
    1564:	81 2f       	mov	r24, r17
    1566:	0e 94 b8 0a 	call	0x1570
    156a:	cf 91       	pop	r28
    156c:	1f 91       	pop	r17
    156e:	08 95       	ret

00001570 <TimingM$writeAgain>:
    1570:	88 23       	and	r24, r24
    1572:	09 f0       	breq	.+2      	; 0x1576
    1574:	71 c0       	rjmp	.+226    	; 0x1658
    1576:	80 91 79 00 	lds	r24, 0x0079
    157a:	90 91 7a 00 	lds	r25, 0x007A
    157e:	a0 91 7b 00 	lds	r26, 0x007B
    1582:	b0 91 7c 00 	lds	r27, 0x007C
    1586:	00 97       	sbiw	r24, 0x00	; 0
    1588:	a1 05       	cpc	r26, r1
    158a:	b1 05       	cpc	r27, r1
    158c:	19 f5       	brne	.+70     	; 0x15d4
    158e:	20 e0       	ldi	r18, 0x00	; 0
    1590:	30 e0       	ldi	r19, 0x00	; 0
    1592:	80 91 ac 01 	lds	r24, 0x01AC
    1596:	90 91 ad 01 	lds	r25, 0x01AD
    159a:	8a 52       	subi	r24, 0x2A	; 42
    159c:	96 40       	sbci	r25, 0x06	; 6
    159e:	09 f0       	breq	.+2      	; 0x15a2
    15a0:	21 e0       	ldi	r18, 0x01	; 1
    15a2:	22 23       	and	r18, r18
    15a4:	09 f4       	brne	.+2      	; 0x15a8
    15a6:	5a c0       	rjmp	.+180    	; 0x165c
    15a8:	80 91 5a 03 	lds	r24, 0x035A
    15ac:	88 23       	and	r24, r24
    15ae:	19 f0       	breq	.+6      	; 0x15b6
    15b0:	80 e0       	ldi	r24, 0x00	; 0
    15b2:	90 e0       	ldi	r25, 0x00	; 0
    15b4:	05 c0       	rjmp	.+10     	; 0x15c0
    15b6:	81 e0       	ldi	r24, 0x01	; 1
    15b8:	80 93 5a 03 	sts	0x035A, r24
    15bc:	81 e0       	ldi	r24, 0x01	; 1
    15be:	90 e0       	ldi	r25, 0x00	; 0
    15c0:	89 2b       	or	r24, r25
    15c2:	09 f4       	brne	.+2      	; 0x15c6
    15c4:	4b c0       	rjmp	.+150    	; 0x165c
    15c6:	84 e0       	ldi	r24, 0x04	; 4
    15c8:	80 93 7d 00 	sts	0x007D, r24
    15cc:	81 e0       	ldi	r24, 0x01	; 1
    15ce:	0e 94 2f 0b 	call	0x165e
    15d2:	08 95       	ret
    15d4:	28 2f       	mov	r18, r24
    15d6:	39 2f       	mov	r19, r25
    15d8:	4a 2f       	mov	r20, r26
    15da:	5b 2f       	mov	r21, r27
    15dc:	81 30       	cpi	r24, 0x01	; 1
    15de:	61 e0       	ldi	r22, 0x01	; 1
    15e0:	96 07       	cpc	r25, r22
    15e2:	60 e0       	ldi	r22, 0x00	; 0
    15e4:	a6 07       	cpc	r26, r22
    15e6:	60 e0       	ldi	r22, 0x00	; 0
    15e8:	b6 07       	cpc	r27, r22
    15ea:	20 f0       	brcs	.+8      	; 0x15f4
    15ec:	20 e0       	ldi	r18, 0x00	; 0
    15ee:	31 e0       	ldi	r19, 0x01	; 1
    15f0:	40 e0       	ldi	r20, 0x00	; 0
    15f2:	50 e0       	ldi	r21, 0x00	; 0
    15f4:	82 1b       	sub	r24, r18
    15f6:	93 0b       	sbc	r25, r19
    15f8:	a4 0b       	sbc	r26, r20
    15fa:	b5 0b       	sbc	r27, r21
    15fc:	80 93 79 00 	sts	0x0079, r24
    1600:	90 93 7a 00 	sts	0x007A, r25
    1604:	a0 93 7b 00 	sts	0x007B, r26
    1608:	b0 93 7c 00 	sts	0x007C, r27
    160c:	60 e0       	ldi	r22, 0x00	; 0
    160e:	70 e0       	ldi	r23, 0x00	; 0
    1610:	80 91 ac 01 	lds	r24, 0x01AC
    1614:	90 91 ad 01 	lds	r25, 0x01AD
    1618:	8a 52       	subi	r24, 0x2A	; 42
    161a:	96 40       	sbci	r25, 0x06	; 6
    161c:	09 f0       	breq	.+2      	; 0x1620
    161e:	61 e0       	ldi	r22, 0x01	; 1
    1620:	66 23       	and	r22, r22
    1622:	e1 f0       	breq	.+56     	; 0x165c
    1624:	80 91 5a 03 	lds	r24, 0x035A
    1628:	88 23       	and	r24, r24
    162a:	19 f0       	breq	.+6      	; 0x1632
    162c:	80 e0       	ldi	r24, 0x00	; 0
    162e:	90 e0       	ldi	r25, 0x00	; 0
    1630:	05 c0       	rjmp	.+10     	; 0x163c
    1632:	81 e0       	ldi	r24, 0x01	; 1
    1634:	80 93 5a 03 	sts	0x035A, r24
    1638:	81 e0       	ldi	r24, 0x01	; 1
    163a:	90 e0       	ldi	r25, 0x00	; 0
    163c:	89 2b       	or	r24, r25
    163e:	71 f0       	breq	.+28     	; 0x165c
    1640:	6c ea       	ldi	r22, 0xAC	; 172
    1642:	71 e0       	ldi	r23, 0x01	; 1
    1644:	81 e0       	ldi	r24, 0x01	; 1
    1646:	0e 94 84 0a 	call	0x1508
    164a:	8c ea       	ldi	r24, 0xAC	; 172
    164c:	91 e0       	ldi	r25, 0x01	; 1
    164e:	90 93 ae 02 	sts	0x02AE, r25
    1652:	80 93 ad 02 	sts	0x02AD, r24
    1656:	08 95       	ret
    1658:	0e 94 f0 08 	call	0x11e0
    165c:	08 95       	ret

0000165e <Writer$IFileWrite$sync>:
    165e:	cf 93       	push	r28
    1660:	c8 2f       	mov	r28, r24
    1662:	88 e0       	ldi	r24, 0x08	; 8
    1664:	80 93 70 00 	sts	0x0070, r24
    1668:	c0 93 be 02 	sts	0x02BE, r28
    166c:	0e 94 50 0b 	call	0x16a0
    1670:	88 23       	and	r24, r24
    1672:	a1 f4       	brne	.+40     	; 0x169c
    1674:	8c 2f       	mov	r24, r28
    1676:	99 27       	eor	r25, r25
    1678:	6d e0       	ldi	r22, 0x0D	; 13
    167a:	70 e0       	ldi	r23, 0x00	; 0
    167c:	0e 94 29 20 	call	0x4052
    1680:	f9 2f       	mov	r31, r25
    1682:	e8 2f       	mov	r30, r24
    1684:	e1 56       	subi	r30, 0x61	; 97
    1686:	fe 4f       	sbci	r31, 0xFE	; 254
    1688:	22 81       	ldd	r18, Z+2	; 0x02
    168a:	33 81       	ldd	r19, Z+3	; 0x03
    168c:	81 e0       	ldi	r24, 0x01	; 1
    168e:	80 93 9e 01 	sts	0x019E, r24
    1692:	65 e0       	ldi	r22, 0x05	; 5
    1694:	93 2f       	mov	r25, r19
    1696:	82 2f       	mov	r24, r18
    1698:	0e 94 0a 0c 	call	0x1814
    169c:	cf 91       	pop	r28
    169e:	08 95       	ret

000016a0 <Writer$updateMeta>:
    16a0:	ef 92       	push	r14
    16a2:	ff 92       	push	r15
    16a4:	0f 93       	push	r16
    16a6:	1f 93       	push	r17
    16a8:	cf 93       	push	r28
    16aa:	80 91 be 02 	lds	r24, 0x02BE
    16ae:	99 27       	eor	r25, r25
    16b0:	6d e0       	ldi	r22, 0x0D	; 13
    16b2:	70 e0       	ldi	r23, 0x00	; 0
    16b4:	0e 94 29 20 	call	0x4052
    16b8:	f9 2f       	mov	r31, r25
    16ba:	e8 2f       	mov	r30, r24
    16bc:	e1 56       	subi	r30, 0x61	; 97
    16be:	fe 4f       	sbci	r31, 0xFE	; 254
    16c0:	c4 85       	ldd	r28, Z+12	; 0x0c
    16c2:	22 85       	ldd	r18, Z+10	; 0x0a
    16c4:	33 85       	ldd	r19, Z+11	; 0x0b
    16c6:	80 85       	ldd	r24, Z+8	; 0x08
    16c8:	91 85       	ldd	r25, Z+9	; 0x09
    16ca:	82 17       	cp	r24, r18
    16cc:	93 07       	cpc	r25, r19
    16ce:	18 f4       	brcc	.+6      	; 0x16d6
    16d0:	20 87       	std	Z+8, r18	; 0x08
    16d2:	31 87       	std	Z+9, r19	; 0x09
    16d4:	c1 e0       	ldi	r28, 0x01	; 1
    16d6:	cc 23       	and	r28, r28
    16d8:	79 f0       	breq	.+30     	; 0x16f8
    16da:	62 81       	ldd	r22, Z+2	; 0x02
    16dc:	73 81       	ldd	r23, Z+3	; 0x03
    16de:	44 85       	ldd	r20, Z+12	; 0x0c
    16e0:	24 81       	ldd	r18, Z+4	; 0x04
    16e2:	35 81       	ldd	r19, Z+5	; 0x05
    16e4:	80 85       	ldd	r24, Z+8	; 0x08
    16e6:	91 85       	ldd	r25, Z+9	; 0x09
    16e8:	e8 2e       	mov	r14, r24
    16ea:	f9 2e       	mov	r15, r25
    16ec:	02 2f       	mov	r16, r18
    16ee:	13 2f       	mov	r17, r19
    16f0:	20 e0       	ldi	r18, 0x00	; 0
    16f2:	83 e0       	ldi	r24, 0x03	; 3
    16f4:	0e 94 84 0b 	call	0x1708
    16f8:	8c 2f       	mov	r24, r28
    16fa:	99 27       	eor	r25, r25
    16fc:	cf 91       	pop	r28
    16fe:	1f 91       	pop	r17
    1700:	0f 91       	pop	r16
    1702:	ff 90       	pop	r15
    1704:	ef 90       	pop	r14
    1706:	08 95       	ret

00001708 <Blocks$IFileBlockMeta$write>:
    1708:	df 92       	push	r13
    170a:	ef 92       	push	r14
    170c:	ff 92       	push	r15
    170e:	0f 93       	push	r16
    1710:	1f 93       	push	r17
    1712:	cf 93       	push	r28
    1714:	df 93       	push	r29
    1716:	38 2f       	mov	r19, r24
    1718:	d7 2f       	mov	r29, r23
    171a:	c6 2f       	mov	r28, r22
    171c:	d4 2e       	mov	r13, r20
    171e:	84 e0       	ldi	r24, 0x04	; 4
    1720:	80 93 6a 03 	sts	0x036A, r24
    1724:	70 93 c2 00 	sts	0x00C2, r23
    1728:	60 93 c1 00 	sts	0x00C1, r22
    172c:	30 93 9e 01 	sts	0x019E, r19
    1730:	22 23       	and	r18, r18
    1732:	19 f0       	breq	.+6      	; 0x173a
    1734:	24 e0       	ldi	r18, 0x04	; 4
    1736:	30 e0       	ldi	r19, 0x00	; 0
    1738:	02 c0       	rjmp	.+4      	; 0x173e
    173a:	20 e0       	ldi	r18, 0x00	; 0
    173c:	30 e0       	ldi	r19, 0x00	; 0
    173e:	90 2f       	mov	r25, r16
    1740:	99 0f       	add	r25, r25
    1742:	99 0f       	add	r25, r25
    1744:	99 0f       	add	r25, r25
    1746:	82 2f       	mov	r24, r18
    1748:	87 70       	andi	r24, 0x07	; 7
    174a:	89 2b       	or	r24, r25
    174c:	80 93 b8 02 	sts	0x02B8, r24
    1750:	20 2f       	mov	r18, r16
    1752:	22 95       	swap	r18
    1754:	26 95       	lsr	r18
    1756:	27 70       	andi	r18, 0x07	; 7
    1758:	81 2f       	mov	r24, r17
    175a:	8f 70       	andi	r24, 0x0F	; 15
    175c:	88 0f       	add	r24, r24
    175e:	88 0f       	add	r24, r24
    1760:	88 0f       	add	r24, r24
    1762:	9e 2d       	mov	r25, r14
    1764:	97 95       	ror	r25
    1766:	99 27       	eor	r25, r25
    1768:	97 95       	ror	r25
    176a:	82 2b       	or	r24, r18
    176c:	89 2b       	or	r24, r25
    176e:	80 93 b9 02 	sts	0x02B9, r24
    1772:	9f 2d       	mov	r25, r15
    1774:	97 95       	ror	r25
    1776:	99 27       	eor	r25, r25
    1778:	97 95       	ror	r25
    177a:	8e 2d       	mov	r24, r14
    177c:	86 95       	lsr	r24
    177e:	89 2b       	or	r24, r25
    1780:	80 93 ba 02 	sts	0x02BA, r24
    1784:	88 eb       	ldi	r24, 0xB8	; 184
    1786:	92 e0       	ldi	r25, 0x02	; 2
    1788:	0e 94 00 0c 	call	0x1800
    178c:	80 93 bb 02 	sts	0x02BB, r24
    1790:	dd 20       	and	r13, r13
    1792:	c9 f0       	breq	.+50     	; 0x17c6
    1794:	e1 14       	cp	r14, r1
    1796:	f1 04       	cpc	r15, r1
    1798:	61 f4       	brne	.+24     	; 0x17b2
    179a:	82 e0       	ldi	r24, 0x02	; 2
    179c:	80 93 9f 00 	sts	0x009F, r24
    17a0:	f0 92 b7 02 	sts	0x02B7, r15
    17a4:	e0 92 b6 02 	sts	0x02B6, r14
    17a8:	8c e3       	ldi	r24, 0x3C	; 60
    17aa:	9e e1       	ldi	r25, 0x1E	; 30
    17ac:	0e 94 a1 01 	call	0x342
    17b0:	1f c0       	rjmp	.+62     	; 0x17f0
    17b2:	1f 2d       	mov	r17, r15
    17b4:	0e 2d       	mov	r16, r14
    17b6:	20 e0       	ldi	r18, 0x00	; 0
    17b8:	30 e0       	ldi	r19, 0x00	; 0
    17ba:	53 2f       	mov	r21, r19
    17bc:	42 2f       	mov	r20, r18
    17be:	6c 2f       	mov	r22, r28
    17c0:	7d 2f       	mov	r23, r29
    17c2:	82 e0       	ldi	r24, 0x02	; 2
    17c4:	13 c0       	rjmp	.+38     	; 0x17ec
    17c6:	88 eb       	ldi	r24, 0xB8	; 184
    17c8:	92 e0       	ldi	r25, 0x02	; 2
    17ca:	0e 94 00 0c 	call	0x1800
    17ce:	80 93 bb 02 	sts	0x02BB, r24
    17d2:	80 91 c1 00 	lds	r24, 0x00C1
    17d6:	90 91 c2 00 	lds	r25, 0x00C2
    17da:	04 e0       	ldi	r16, 0x04	; 4
    17dc:	10 e0       	ldi	r17, 0x00	; 0
    17de:	28 eb       	ldi	r18, 0xB8	; 184
    17e0:	32 e0       	ldi	r19, 0x02	; 2
    17e2:	42 e0       	ldi	r20, 0x02	; 2
    17e4:	51 e0       	ldi	r21, 0x01	; 1
    17e6:	68 2f       	mov	r22, r24
    17e8:	79 2f       	mov	r23, r25
    17ea:	83 e0       	ldi	r24, 0x03	; 3
    17ec:	0e 94 2f 04 	call	0x85e
    17f0:	df 91       	pop	r29
    17f2:	cf 91       	pop	r28
    17f4:	1f 91       	pop	r17
    17f6:	0f 91       	pop	r16
    17f8:	ff 90       	pop	r15
    17fa:	ef 90       	pop	r14
    17fc:	df 90       	pop	r13
    17fe:	08 95       	ret

00001800 <Blocks$metadataCheck>:
    1800:	f9 2f       	mov	r31, r25
    1802:	e8 2f       	mov	r30, r24
    1804:	80 81       	ld	r24, Z
    1806:	91 81       	ldd	r25, Z+1	; 0x01
    1808:	89 0f       	add	r24, r25
    180a:	92 81       	ldd	r25, Z+2	; 0x02
    180c:	89 0f       	add	r24, r25
    180e:	80 95       	com	r24
    1810:	99 27       	eor	r25, r25
    1812:	08 95       	ret

00001814 <PageEEPROMM$syncOrFlush>:
    1814:	28 2f       	mov	r18, r24
    1816:	39 2f       	mov	r19, r25
    1818:	80 91 9f 00 	lds	r24, 0x009F
    181c:	88 23       	and	r24, r24
    181e:	19 f0       	breq	.+6      	; 0x1826
    1820:	80 e0       	ldi	r24, 0x00	; 0
    1822:	90 e0       	ldi	r25, 0x00	; 0
    1824:	08 95       	ret
    1826:	60 93 9f 00 	sts	0x009F, r22
    182a:	40 91 b2 02 	lds	r20, 0x02B2
    182e:	44 23       	and	r20, r20
    1830:	19 f0       	breq	.+6      	; 0x1838
    1832:	80 e4       	ldi	r24, 0x40	; 64
    1834:	9e e1       	ldi	r25, 0x1E	; 30
    1836:	17 c0       	rjmp	.+46     	; 0x1866
    1838:	80 91 b5 00 	lds	r24, 0x00B5
    183c:	90 91 b6 00 	lds	r25, 0x00B6
    1840:	82 17       	cp	r24, r18
    1842:	93 07       	cpc	r25, r19
    1844:	19 f4       	brne	.+6      	; 0x184c
    1846:	40 93 73 00 	sts	0x0073, r20
    184a:	12 c0       	rjmp	.+36     	; 0x1870
    184c:	80 91 b8 00 	lds	r24, 0x00B8
    1850:	90 91 b9 00 	lds	r25, 0x00B9
    1854:	82 17       	cp	r24, r18
    1856:	93 07       	cpc	r25, r19
    1858:	21 f4       	brne	.+8      	; 0x1862
    185a:	81 e0       	ldi	r24, 0x01	; 1
    185c:	80 93 73 00 	sts	0x0073, r24
    1860:	07 c0       	rjmp	.+14     	; 0x1870
    1862:	8c e3       	ldi	r24, 0x3C	; 60
    1864:	9e e1       	ldi	r25, 0x1E	; 30
    1866:	0e 94 a1 01 	call	0x342
    186a:	81 e0       	ldi	r24, 0x01	; 1
    186c:	90 e0       	ldi	r25, 0x00	; 0
    186e:	08 95       	ret
    1870:	80 91 73 00 	lds	r24, 0x0073
    1874:	99 27       	eor	r25, r25
    1876:	f9 2f       	mov	r31, r25
    1878:	e8 2f       	mov	r30, r24
    187a:	ee 0f       	add	r30, r30
    187c:	ff 1f       	adc	r31, r31
    187e:	e8 0f       	add	r30, r24
    1880:	f9 1f       	adc	r31, r25
    1882:	e9 54       	subi	r30, 0x49	; 73
    1884:	ff 4f       	sbci	r31, 0xFF	; 255
    1886:	80 81       	ld	r24, Z
    1888:	87 7e       	andi	r24, 0xE7	; 231
    188a:	80 83       	st	Z, r24
    188c:	0e 94 49 0c 	call	0x1892
    1890:	ec cf       	rjmp	.-40     	; 0x186a

00001892 <PageEEPROMM$handleRWRequest>:
    1892:	0f 93       	push	r16
    1894:	1f 93       	push	r17
    1896:	40 91 73 00 	lds	r20, 0x0073
    189a:	84 2f       	mov	r24, r20
    189c:	99 27       	eor	r25, r25
    189e:	f9 2f       	mov	r31, r25
    18a0:	e8 2f       	mov	r30, r24
    18a2:	ee 0f       	add	r30, r30
    18a4:	ff 1f       	adc	r31, r31
    18a6:	e8 0f       	add	r30, r24
    18a8:	f9 1f       	adc	r31, r25
    18aa:	ae 2f       	mov	r26, r30
    18ac:	bf 2f       	mov	r27, r31
    18ae:	ab 54       	subi	r26, 0x4B	; 75
    18b0:	bf 4f       	sbci	r27, 0xFF	; 255
    18b2:	20 91 80 00 	lds	r18, 0x0080
    18b6:	30 91 81 00 	lds	r19, 0x0081
    18ba:	8d 91       	ld	r24, X+
    18bc:	9c 91       	ld	r25, X
    18be:	11 97       	sbiw	r26, 0x01	; 1
    18c0:	28 17       	cp	r18, r24
    18c2:	39 07       	cpc	r19, r25
    18c4:	09 f0       	breq	.+2      	; 0x18c8
    18c6:	14 c1       	rjmp	.+552    	; 0x1af0
    18c8:	50 91 9f 00 	lds	r21, 0x009F
    18cc:	85 2f       	mov	r24, r21
    18ce:	99 27       	eor	r25, r25
    18d0:	84 30       	cpi	r24, 0x04	; 4
    18d2:	91 05       	cpc	r25, r1
    18d4:	b1 f0       	breq	.+44     	; 0x1902
    18d6:	85 30       	cpi	r24, 0x05	; 5
    18d8:	91 05       	cpc	r25, r1
    18da:	64 f4       	brge	.+24     	; 0x18f4
    18dc:	82 30       	cpi	r24, 0x02	; 2
    18de:	91 05       	cpc	r25, r1
    18e0:	09 f4       	brne	.+2      	; 0x18e4
    18e2:	b1 c0       	rjmp	.+354    	; 0x1a46
    18e4:	83 30       	cpi	r24, 0x03	; 3
    18e6:	91 05       	cpc	r25, r1
    18e8:	0c f0       	brlt	.+2      	; 0x18ec
    18ea:	cf c0       	rjmp	.+414    	; 0x1a8a
    18ec:	01 97       	sbiw	r24, 0x01	; 1
    18ee:	09 f4       	brne	.+2      	; 0x18f2
    18f0:	7f c0       	rjmp	.+254    	; 0x19f0
    18f2:	28 c1       	rjmp	.+592    	; 0x1b44
    18f4:	87 30       	cpi	r24, 0x07	; 7
    18f6:	91 05       	cpc	r25, r1
    18f8:	7c f1       	brlt	.+94     	; 0x1958
    18fa:	09 97       	sbiw	r24, 0x09	; 9
    18fc:	0c f0       	brlt	.+2      	; 0x1900
    18fe:	22 c1       	rjmp	.+580    	; 0x1b44
    1900:	36 c0       	rjmp	.+108    	; 0x196e
    1902:	80 91 ae 03 	lds	r24, 0x03AE
    1906:	90 91 af 03 	lds	r25, 0x03AF
    190a:	81 30       	cpi	r24, 0x01	; 1
    190c:	91 05       	cpc	r25, r1
    190e:	99 f0       	breq	.+38     	; 0x1936
    1910:	81 30       	cpi	r24, 0x01	; 1
    1912:	91 05       	cpc	r25, r1
    1914:	18 f0       	brcs	.+6      	; 0x191c
    1916:	02 97       	sbiw	r24, 0x02	; 2
    1918:	49 f0       	breq	.+18     	; 0x192c
    191a:	14 c1       	rjmp	.+552    	; 0x1b44
    191c:	86 e0       	ldi	r24, 0x06	; 6
    191e:	80 93 88 01 	sts	0x0188, r24
    1922:	00 e0       	ldi	r16, 0x00	; 0
    1924:	10 e0       	ldi	r17, 0x00	; 0
    1926:	40 e0       	ldi	r20, 0x00	; 0
    1928:	61 e8       	ldi	r22, 0x81	; 129
    192a:	09 c1       	rjmp	.+530    	; 0x1b3e
    192c:	e9 54       	subi	r30, 0x49	; 73
    192e:	ff 4f       	sbci	r31, 0xFF	; 255
    1930:	80 81       	ld	r24, Z
    1932:	84 60       	ori	r24, 0x04	; 4
    1934:	80 83       	st	Z, r24
    1936:	84 2f       	mov	r24, r20
    1938:	99 27       	eor	r25, r25
    193a:	f9 2f       	mov	r31, r25
    193c:	e8 2f       	mov	r30, r24
    193e:	ee 0f       	add	r30, r30
    1940:	ff 1f       	adc	r31, r31
    1942:	e8 0f       	add	r30, r24
    1944:	f9 1f       	adc	r31, r25
    1946:	e9 54       	subi	r30, 0x49	; 73
    1948:	ff 4f       	sbci	r31, 0xFF	; 255
    194a:	80 81       	ld	r24, Z
    194c:	82 60       	ori	r24, 0x02	; 2
    194e:	80 83       	st	Z, r24
    1950:	81 e0       	ldi	r24, 0x01	; 1
    1952:	0e 94 8b 04 	call	0x916
    1956:	f6 c0       	rjmp	.+492    	; 0x1b44
    1958:	e9 54       	subi	r30, 0x49	; 73
    195a:	ff 4f       	sbci	r31, 0xFF	; 255
    195c:	80 81       	ld	r24, Z
    195e:	81 ff       	sbrs	r24, 1
    1960:	06 c0       	rjmp	.+12     	; 0x196e
    1962:	86 95       	lsr	r24
    1964:	86 95       	lsr	r24
    1966:	86 95       	lsr	r24
    1968:	83 70       	andi	r24, 0x03	; 3
    196a:	09 f0       	breq	.+2      	; 0x196e
    196c:	ce c0       	rjmp	.+412    	; 0x1b0a
    196e:	84 2f       	mov	r24, r20
    1970:	99 27       	eor	r25, r25
    1972:	f9 2f       	mov	r31, r25
    1974:	e8 2f       	mov	r30, r24
    1976:	ee 0f       	add	r30, r30
    1978:	ff 1f       	adc	r31, r31
    197a:	e8 0f       	add	r30, r24
    197c:	f9 1f       	adc	r31, r25
    197e:	e9 54       	subi	r30, 0x49	; 73
    1980:	ff 4f       	sbci	r31, 0xFF	; 255
    1982:	80 81       	ld	r24, Z
    1984:	81 ff       	sbrs	r24, 1
    1986:	b9 c0       	rjmp	.+370    	; 0x1afa
    1988:	57 30       	cpi	r21, 0x07	; 7
    198a:	e1 f0       	breq	.+56     	; 0x19c4
    198c:	55 30       	cpi	r21, 0x05	; 5
    198e:	d1 f0       	breq	.+52     	; 0x19c4
    1990:	50 93 9f 00 	sts	0x009F, r21
    1994:	80 91 b2 02 	lds	r24, 0x02B2
    1998:	88 23       	and	r24, r24
    199a:	19 f0       	breq	.+6      	; 0x19a2
    199c:	80 e4       	ldi	r24, 0x40	; 64
    199e:	9e e1       	ldi	r25, 0x1E	; 30
    19a0:	13 c0       	rjmp	.+38     	; 0x19c8
    19a2:	80 91 b7 00 	lds	r24, 0x00B7
    19a6:	98 2f       	mov	r25, r24
    19a8:	92 70       	andi	r25, 0x02	; 2
    19aa:	81 fd       	sbrc	r24, 1
    19ac:	03 c0       	rjmp	.+6      	; 0x19b4
    19ae:	90 93 73 00 	sts	0x0073, r25
    19b2:	0d c0       	rjmp	.+26     	; 0x19ce
    19b4:	80 91 ba 00 	lds	r24, 0x00BA
    19b8:	81 fd       	sbrc	r24, 1
    19ba:	04 c0       	rjmp	.+8      	; 0x19c4
    19bc:	81 e0       	ldi	r24, 0x01	; 1
    19be:	80 93 73 00 	sts	0x0073, r24
    19c2:	05 c0       	rjmp	.+10     	; 0x19ce
    19c4:	8c e3       	ldi	r24, 0x3C	; 60
    19c6:	9e e1       	ldi	r25, 0x1E	; 30
    19c8:	0e 94 a1 01 	call	0x342
    19cc:	bb c0       	rjmp	.+374    	; 0x1b44
    19ce:	80 91 73 00 	lds	r24, 0x0073
    19d2:	99 27       	eor	r25, r25
    19d4:	f9 2f       	mov	r31, r25
    19d6:	e8 2f       	mov	r30, r24
    19d8:	ee 0f       	add	r30, r30
    19da:	ff 1f       	adc	r31, r31
    19dc:	e8 0f       	add	r30, r24
    19de:	f9 1f       	adc	r31, r25
    19e0:	e9 54       	subi	r30, 0x49	; 73
    19e2:	ff 4f       	sbci	r31, 0xFF	; 255
    19e4:	80 81       	ld	r24, Z
    19e6:	87 7e       	andi	r24, 0xE7	; 231
    19e8:	80 83       	st	Z, r24
    19ea:	0e 94 49 0c 	call	0x1892
    19ee:	aa c0       	rjmp	.+340    	; 0x1b44
    19f0:	80 91 bf 00 	lds	r24, 0x00BF
    19f4:	90 91 c0 00 	lds	r25, 0x00C0
    19f8:	90 93 61 03 	sts	0x0361, r25
    19fc:	80 93 60 03 	sts	0x0360, r24
    1a00:	80 91 66 00 	lds	r24, 0x0066
    1a04:	90 91 67 00 	lds	r25, 0x0067
    1a08:	90 93 a1 00 	sts	0x00A1, r25
    1a0c:	80 93 a0 00 	sts	0x00A0, r24
    1a10:	81 e0       	ldi	r24, 0x01	; 1
    1a12:	80 93 88 01 	sts	0x0188, r24
    1a16:	44 23       	and	r20, r20
    1a18:	11 f0       	breq	.+4      	; 0x1a1e
    1a1a:	64 ed       	ldi	r22, 0xD4	; 212
    1a1c:	01 c0       	rjmp	.+2      	; 0x1a20
    1a1e:	66 ed       	ldi	r22, 0xD6	; 214
    1a20:	20 91 ae 03 	lds	r18, 0x03AE
    1a24:	30 91 af 03 	lds	r19, 0x03AF
    1a28:	84 2f       	mov	r24, r20
    1a2a:	99 27       	eor	r25, r25
    1a2c:	f9 2f       	mov	r31, r25
    1a2e:	e8 2f       	mov	r30, r24
    1a30:	ee 0f       	add	r30, r30
    1a32:	ff 1f       	adc	r31, r31
    1a34:	e8 0f       	add	r30, r24
    1a36:	f9 1f       	adc	r31, r25
    1a38:	e9 54       	subi	r30, 0x49	; 73
    1a3a:	ff 4f       	sbci	r31, 0xFF	; 255
    1a3c:	80 81       	ld	r24, Z
    1a3e:	81 70       	andi	r24, 0x01	; 1
    1a40:	02 2f       	mov	r16, r18
    1a42:	13 2f       	mov	r17, r19
    1a44:	1e c0       	rjmp	.+60     	; 0x1a82
    1a46:	80 91 66 00 	lds	r24, 0x0066
    1a4a:	90 91 67 00 	lds	r25, 0x0067
    1a4e:	90 93 a1 00 	sts	0x00A1, r25
    1a52:	80 93 a0 00 	sts	0x00A0, r24
    1a56:	82 e0       	ldi	r24, 0x02	; 2
    1a58:	80 93 88 01 	sts	0x0188, r24
    1a5c:	44 23       	and	r20, r20
    1a5e:	11 f0       	breq	.+4      	; 0x1a64
    1a60:	64 ed       	ldi	r22, 0xD4	; 212
    1a62:	01 c0       	rjmp	.+2      	; 0x1a66
    1a64:	66 ed       	ldi	r22, 0xD6	; 214
    1a66:	84 2f       	mov	r24, r20
    1a68:	99 27       	eor	r25, r25
    1a6a:	f9 2f       	mov	r31, r25
    1a6c:	e8 2f       	mov	r30, r24
    1a6e:	ee 0f       	add	r30, r30
    1a70:	ff 1f       	adc	r31, r31
    1a72:	e8 0f       	add	r30, r24
    1a74:	f9 1f       	adc	r31, r25
    1a76:	e9 54       	subi	r30, 0x49	; 73
    1a78:	ff 4f       	sbci	r31, 0xFF	; 255
    1a7a:	80 81       	ld	r24, Z
    1a7c:	81 70       	andi	r24, 0x01	; 1
    1a7e:	00 e0       	ldi	r16, 0x00	; 0
    1a80:	10 e0       	ldi	r17, 0x00	; 0
    1a82:	20 e0       	ldi	r18, 0x00	; 0
    1a84:	30 e0       	ldi	r19, 0x00	; 0
    1a86:	42 e0       	ldi	r20, 0x02	; 2
    1a88:	5b c0       	rjmp	.+182    	; 0x1b40
    1a8a:	80 91 bf 00 	lds	r24, 0x00BF
    1a8e:	90 91 c0 00 	lds	r25, 0x00C0
    1a92:	90 93 61 03 	sts	0x0361, r25
    1a96:	80 93 60 03 	sts	0x0360, r24
    1a9a:	80 91 66 00 	lds	r24, 0x0066
    1a9e:	90 91 67 00 	lds	r25, 0x0067
    1aa2:	90 93 a1 00 	sts	0x00A1, r25
    1aa6:	80 93 a0 00 	sts	0x00A0, r24
    1aaa:	83 e0       	ldi	r24, 0x03	; 3
    1aac:	80 93 88 01 	sts	0x0188, r24
    1ab0:	e9 54       	subi	r30, 0x49	; 73
    1ab2:	ff 4f       	sbci	r31, 0xFF	; 255
    1ab4:	80 81       	ld	r24, Z
    1ab6:	85 7e       	andi	r24, 0xE5	; 229
    1ab8:	80 83       	st	Z, r24
    1aba:	44 23       	and	r20, r20
    1abc:	11 f0       	breq	.+4      	; 0x1ac2
    1abe:	64 e8       	ldi	r22, 0x84	; 132
    1ac0:	01 c0       	rjmp	.+2      	; 0x1ac4
    1ac2:	67 e8       	ldi	r22, 0x87	; 135
    1ac4:	20 91 ae 03 	lds	r18, 0x03AE
    1ac8:	30 91 af 03 	lds	r19, 0x03AF
    1acc:	84 2f       	mov	r24, r20
    1ace:	99 27       	eor	r25, r25
    1ad0:	f9 2f       	mov	r31, r25
    1ad2:	e8 2f       	mov	r30, r24
    1ad4:	ee 0f       	add	r30, r30
    1ad6:	ff 1f       	adc	r31, r31
    1ad8:	e8 0f       	add	r30, r24
    1ada:	f9 1f       	adc	r31, r25
    1adc:	e9 54       	subi	r30, 0x49	; 73
    1ade:	ff 4f       	sbci	r31, 0xFF	; 255
    1ae0:	80 81       	ld	r24, Z
    1ae2:	81 70       	andi	r24, 0x01	; 1
    1ae4:	02 2f       	mov	r16, r18
    1ae6:	13 2f       	mov	r17, r19
    1ae8:	20 e0       	ldi	r18, 0x00	; 0
    1aea:	30 e0       	ldi	r19, 0x00	; 0
    1aec:	40 e0       	ldi	r20, 0x00	; 0
    1aee:	28 c0       	rjmp	.+80     	; 0x1b40
    1af0:	e9 54       	subi	r30, 0x49	; 73
    1af2:	ff 4f       	sbci	r31, 0xFF	; 255
    1af4:	80 81       	ld	r24, Z
    1af6:	81 fd       	sbrc	r24, 1
    1af8:	03 c0       	rjmp	.+6      	; 0x1b00
    1afa:	0e 94 59 0f 	call	0x1eb2
    1afe:	22 c0       	rjmp	.+68     	; 0x1b44
    1b00:	86 95       	lsr	r24
    1b02:	86 95       	lsr	r24
    1b04:	86 95       	lsr	r24
    1b06:	83 70       	andi	r24, 0x03	; 3
    1b08:	21 f0       	breq	.+8      	; 0x1b12
    1b0a:	84 2f       	mov	r24, r20
    1b0c:	0e 94 8b 0e 	call	0x1d16
    1b10:	19 c0       	rjmp	.+50     	; 0x1b44
    1b12:	80 91 9f 00 	lds	r24, 0x009F
    1b16:	84 30       	cpi	r24, 0x04	; 4
    1b18:	19 f4       	brne	.+6      	; 0x1b20
    1b1a:	2d 93       	st	X+, r18
    1b1c:	3c 93       	st	X, r19
    1b1e:	bb ce       	rjmp	.-650    	; 0x1896
    1b20:	85 e0       	ldi	r24, 0x05	; 5
    1b22:	80 93 88 01 	sts	0x0188, r24
    1b26:	44 23       	and	r20, r20
    1b28:	11 f0       	breq	.+4      	; 0x1b2e
    1b2a:	63 e5       	ldi	r22, 0x53	; 83
    1b2c:	01 c0       	rjmp	.+2      	; 0x1b30
    1b2e:	65 e5       	ldi	r22, 0x55	; 85
    1b30:	00 e0       	ldi	r16, 0x00	; 0
    1b32:	10 e0       	ldi	r17, 0x00	; 0
    1b34:	20 91 80 00 	lds	r18, 0x0080
    1b38:	30 91 81 00 	lds	r19, 0x0081
    1b3c:	40 e0       	ldi	r20, 0x00	; 0
    1b3e:	81 e0       	ldi	r24, 0x01	; 1
    1b40:	0e 94 a5 0d 	call	0x1b4a
    1b44:	1f 91       	pop	r17
    1b46:	0f 91       	pop	r16
    1b48:	08 95       	ret

00001b4a <PageEEPROMM$execCommand>:
    1b4a:	0f 93       	push	r16
    1b4c:	1f 93       	push	r17
    1b4e:	78 2f       	mov	r23, r24
    1b50:	86 2f       	mov	r24, r22
    1b52:	64 2f       	mov	r22, r20
    1b54:	80 93 94 01 	sts	0x0194, r24
    1b58:	93 2f       	mov	r25, r19
    1b5a:	82 2f       	mov	r24, r18
    1b5c:	88 0f       	add	r24, r24
    1b5e:	89 2f       	mov	r24, r25
    1b60:	88 1f       	adc	r24, r24
    1b62:	99 0b       	sbc	r25, r25
    1b64:	91 95       	neg	r25
    1b66:	80 93 95 01 	sts	0x0195, r24
    1b6a:	22 0f       	add	r18, r18
    1b6c:	81 2f       	mov	r24, r17
    1b6e:	99 27       	eor	r25, r25
    1b70:	28 2b       	or	r18, r24
    1b72:	20 93 96 01 	sts	0x0196, r18
    1b76:	00 93 97 01 	sts	0x0197, r16
    1b7a:	6c 5f       	subi	r22, 0xFC	; 252
    1b7c:	60 93 a2 00 	sts	0x00A2, r22
    1b80:	77 23       	and	r23, r23
    1b82:	39 f0       	breq	.+14     	; 0x1b92
    1b84:	80 91 99 01 	lds	r24, 0x0199
    1b88:	88 23       	and	r24, r24
    1b8a:	19 f0       	breq	.+6      	; 0x1b92
    1b8c:	0e 94 ce 0d 	call	0x1b9c
    1b90:	02 c0       	rjmp	.+4      	; 0x1b96
    1b92:	0e 94 ad 0e 	call	0x1d5a
    1b96:	1f 91       	pop	r17
    1b98:	0f 91       	pop	r16
    1b9a:	08 95       	ret

00001b9c <PageEEPROMM$requestFlashStatus>:
    1b9c:	cf 93       	push	r28
    1b9e:	81 e0       	ldi	r24, 0x01	; 1
    1ba0:	80 93 98 00 	sts	0x0098, r24
    1ba4:	8f b7       	in	r24, 0x3f	; 63
    1ba6:	f8 94       	cli
    1ba8:	28 2f       	mov	r18, r24
    1baa:	33 27       	eor	r19, r19
    1bac:	80 91 8e 01 	lds	r24, 0x018E
    1bb0:	81 50       	subi	r24, 0x01	; 1
    1bb2:	80 93 8e 01 	sts	0x018E, r24
    1bb6:	15 9a       	sbi	0x02, 5	; 2
    1bb8:	1d 98       	cbi	0x03, 5	; 3
    1bba:	2f bf       	out	0x3f, r18	; 63
    1bbc:	97 ed       	ldi	r25, 0xD7	; 215
    1bbe:	80 e0       	ldi	r24, 0x00	; 0
    1bc0:	2f b7       	in	r18, 0x3f	; 63
    1bc2:	f8 94       	cli
    1bc4:	42 2f       	mov	r20, r18
    1bc6:	55 27       	eor	r21, r21
    1bc8:	2b b3       	in	r18, 0x1b	; 27
    1bca:	27 77       	andi	r18, 0x77	; 119
    1bcc:	2b bb       	out	0x1b, r18	; 27
    1bce:	97 fd       	sbrc	r25, 7
    1bd0:	df 9a       	sbi	0x1b, 7	; 27
    1bd2:	db 9a       	sbi	0x1b, 3	; 27
    1bd4:	ce 99       	sbic	0x19, 6	; 25
    1bd6:	80 68       	ori	r24, 0x80	; 128
    1bd8:	2b bb       	out	0x1b, r18	; 27
    1bda:	96 fd       	sbrc	r25, 6
    1bdc:	df 9a       	sbi	0x1b, 7	; 27
    1bde:	db 9a       	sbi	0x1b, 3	; 27
    1be0:	ce 99       	sbic	0x19, 6	; 25
    1be2:	80 64       	ori	r24, 0x40	; 64
    1be4:	2b bb       	out	0x1b, r18	; 27
    1be6:	95 fd       	sbrc	r25, 5
    1be8:	df 9a       	sbi	0x1b, 7	; 27
    1bea:	db 9a       	sbi	0x1b, 3	; 27
    1bec:	ce 99       	sbic	0x19, 6	; 25
    1bee:	80 62       	ori	r24, 0x20	; 32
    1bf0:	2b bb       	out	0x1b, r18	; 27
    1bf2:	94 fd       	sbrc	r25, 4
    1bf4:	df 9a       	sbi	0x1b, 7	; 27
    1bf6:	db 9a       	sbi	0x1b, 3	; 27
    1bf8:	ce 99       	sbic	0x19, 6	; 25
    1bfa:	80 61       	ori	r24, 0x10	; 16
    1bfc:	2b bb       	out	0x1b, r18	; 27
    1bfe:	93 fd       	sbrc	r25, 3
    1c00:	df 9a       	sbi	0x1b, 7	; 27
    1c02:	db 9a       	sbi	0x1b, 3	; 27
    1c04:	ce 99       	sbic	0x19, 6	; 25
    1c06:	88 60       	ori	r24, 0x08	; 8
    1c08:	2b bb       	out	0x1b, r18	; 27
    1c0a:	92 fd       	sbrc	r25, 2
    1c0c:	df 9a       	sbi	0x1b, 7	; 27
    1c0e:	db 9a       	sbi	0x1b, 3	; 27
    1c10:	ce 99       	sbic	0x19, 6	; 25
    1c12:	84 60       	ori	r24, 0x04	; 4
    1c14:	2b bb       	out	0x1b, r18	; 27
    1c16:	91 fd       	sbrc	r25, 1
    1c18:	df 9a       	sbi	0x1b, 7	; 27
    1c1a:	db 9a       	sbi	0x1b, 3	; 27
    1c1c:	ce 99       	sbic	0x19, 6	; 25
    1c1e:	82 60       	ori	r24, 0x02	; 2
    1c20:	2b bb       	out	0x1b, r18	; 27
    1c22:	90 fd       	sbrc	r25, 0
    1c24:	df 9a       	sbi	0x1b, 7	; 27
    1c26:	db 9a       	sbi	0x1b, 3	; 27
    1c28:	ce 99       	sbic	0x19, 6	; 25
    1c2a:	81 60       	ori	r24, 0x01	; 1
    1c2c:	4f bf       	out	0x3f, r20	; 63
    1c2e:	db 98       	cbi	0x1b, 3	; 27
    1c30:	81 e0       	ldi	r24, 0x01	; 1
    1c32:	90 e0       	ldi	r25, 0x00	; 0
    1c34:	01 97       	sbiw	r24, 0x01	; 1
    1c36:	f1 f7       	brne	.-4      	; 0x1c34
    1c38:	ce 9b       	sbis	0x19, 6	; 25
    1c3a:	03 c0       	rjmp	.+6      	; 0x1c42
    1c3c:	80 e0       	ldi	r24, 0x00	; 0
    1c3e:	90 e0       	ldi	r25, 0x00	; 0
    1c40:	06 c0       	rjmp	.+12     	; 0x1c4e
    1c42:	86 e5       	ldi	r24, 0x56	; 86
    1c44:	9e e0       	ldi	r25, 0x0E	; 14
    1c46:	0e 94 a1 01 	call	0x342
    1c4a:	81 e0       	ldi	r24, 0x01	; 1
    1c4c:	90 e0       	ldi	r25, 0x00	; 0
    1c4e:	89 2b       	or	r24, r25
    1c50:	59 f5       	brne	.+86     	; 0x1ca8
    1c52:	80 91 88 01 	lds	r24, 0x0188
    1c56:	88 30       	cpi	r24, 0x08	; 8
    1c58:	61 f4       	brne	.+24     	; 0x1c72
    1c5a:	db 9a       	sbi	0x1b, 3	; 27
    1c5c:	db 98       	cbi	0x1b, 3	; 27
    1c5e:	00 00       	nop
    1c60:	00 00       	nop
    1c62:	80 e0       	ldi	r24, 0x00	; 0
    1c64:	90 e0       	ldi	r25, 0x00	; 0
    1c66:	ce 99       	sbic	0x19, 6	; 25
    1c68:	02 c0       	rjmp	.+4      	; 0x1c6e
    1c6a:	81 e0       	ldi	r24, 0x01	; 1
    1c6c:	90 e0       	ldi	r25, 0x00	; 0
    1c6e:	80 93 af 02 	sts	0x02AF, r24
    1c72:	81 e0       	ldi	r24, 0x01	; 1
    1c74:	80 93 9b 00 	sts	0x009B, r24
    1c78:	db 98       	cbi	0x1b, 3	; 27
    1c7a:	8f b7       	in	r24, 0x3f	; 63
    1c7c:	f8 94       	cli
    1c7e:	c8 2f       	mov	r28, r24
    1c80:	80 91 8e 01 	lds	r24, 0x018E
    1c84:	8f 5f       	subi	r24, 0xFF	; 255
    1c86:	80 93 8e 01 	sts	0x018E, r24
    1c8a:	18 16       	cp	r1, r24
    1c8c:	3c f4       	brge	.+14     	; 0x1c9c
    1c8e:	15 9a       	sbi	0x02, 5	; 2
    1c90:	1d 9a       	sbi	0x03, 5	; 3
    1c92:	84 e4       	ldi	r24, 0x44	; 68
    1c94:	9e e1       	ldi	r25, 0x1E	; 30
    1c96:	0e 94 a1 01 	call	0x342
    1c9a:	05 c0       	rjmp	.+10     	; 0x1ca6
    1c9c:	80 91 bd 00 	lds	r24, 0x00BD
    1ca0:	81 60       	ori	r24, 0x01	; 1
    1ca2:	80 93 bd 00 	sts	0x00BD, r24
    1ca6:	cf bf       	out	0x3f, r28	; 63
    1ca8:	cf 91       	pop	r28
    1caa:	08 95       	ret

00001cac <HPLFlashM$idleWait>:
    1cac:	cf 93       	push	r28
    1cae:	ce 9b       	sbis	0x19, 6	; 25
    1cb0:	2c c0       	rjmp	.+88     	; 0x1d0a
    1cb2:	80 91 88 01 	lds	r24, 0x0188
    1cb6:	88 30       	cpi	r24, 0x08	; 8
    1cb8:	61 f4       	brne	.+24     	; 0x1cd2
    1cba:	db 9a       	sbi	0x1b, 3	; 27
    1cbc:	db 98       	cbi	0x1b, 3	; 27
    1cbe:	00 00       	nop
    1cc0:	00 00       	nop
    1cc2:	80 e0       	ldi	r24, 0x00	; 0
    1cc4:	90 e0       	ldi	r25, 0x00	; 0
    1cc6:	ce 99       	sbic	0x19, 6	; 25
    1cc8:	02 c0       	rjmp	.+4      	; 0x1cce
    1cca:	81 e0       	ldi	r24, 0x01	; 1
    1ccc:	90 e0       	ldi	r25, 0x00	; 0
    1cce:	80 93 af 02 	sts	0x02AF, r24
    1cd2:	81 e0       	ldi	r24, 0x01	; 1
    1cd4:	80 93 9b 00 	sts	0x009B, r24
    1cd8:	db 98       	cbi	0x1b, 3	; 27
    1cda:	8f b7       	in	r24, 0x3f	; 63
    1cdc:	f8 94       	cli
    1cde:	c8 2f       	mov	r28, r24
    1ce0:	80 91 8e 01 	lds	r24, 0x018E
    1ce4:	8f 5f       	subi	r24, 0xFF	; 255
    1ce6:	80 93 8e 01 	sts	0x018E, r24
    1cea:	18 16       	cp	r1, r24
    1cec:	3c f4       	brge	.+14     	; 0x1cfc
    1cee:	15 9a       	sbi	0x02, 5	; 2
    1cf0:	1d 9a       	sbi	0x03, 5	; 3
    1cf2:	84 e4       	ldi	r24, 0x44	; 68
    1cf4:	9e e1       	ldi	r25, 0x1E	; 30
    1cf6:	0e 94 a1 01 	call	0x342
    1cfa:	05 c0       	rjmp	.+10     	; 0x1d06
    1cfc:	80 91 bd 00 	lds	r24, 0x00BD
    1d00:	81 60       	ori	r24, 0x01	; 1
    1d02:	80 93 bd 00 	sts	0x00BD, r24
    1d06:	cf bf       	out	0x3f, r28	; 63
    1d08:	04 c0       	rjmp	.+8      	; 0x1d12
    1d0a:	86 e5       	ldi	r24, 0x56	; 86
    1d0c:	9e e0       	ldi	r25, 0x0E	; 14
    1d0e:	0e 94 a1 01 	call	0x342
    1d12:	cf 91       	pop	r28
    1d14:	08 95       	ret

00001d16 <PageEEPROMM$checkBuffer>:
    1d16:	0f 93       	push	r16
    1d18:	1f 93       	push	r17
    1d1a:	28 2f       	mov	r18, r24
    1d1c:	87 e0       	ldi	r24, 0x07	; 7
    1d1e:	80 93 88 01 	sts	0x0188, r24
    1d22:	20 93 83 00 	sts	0x0083, r18
    1d26:	82 2f       	mov	r24, r18
    1d28:	99 27       	eor	r25, r25
    1d2a:	f9 2f       	mov	r31, r25
    1d2c:	e8 2f       	mov	r30, r24
    1d2e:	ee 0f       	add	r30, r30
    1d30:	ff 1f       	adc	r31, r31
    1d32:	e8 0f       	add	r30, r24
    1d34:	f9 1f       	adc	r31, r25
    1d36:	eb 54       	subi	r30, 0x4B	; 75
    1d38:	ff 4f       	sbci	r31, 0xFF	; 255
    1d3a:	22 23       	and	r18, r18
    1d3c:	11 f0       	breq	.+4      	; 0x1d42
    1d3e:	60 e6       	ldi	r22, 0x60	; 96
    1d40:	01 c0       	rjmp	.+2      	; 0x1d44
    1d42:	61 e6       	ldi	r22, 0x61	; 97
    1d44:	00 e0       	ldi	r16, 0x00	; 0
    1d46:	10 e0       	ldi	r17, 0x00	; 0
    1d48:	20 81       	ld	r18, Z
    1d4a:	31 81       	ldd	r19, Z+1	; 0x01
    1d4c:	40 e0       	ldi	r20, 0x00	; 0
    1d4e:	81 e0       	ldi	r24, 0x01	; 1
    1d50:	0e 94 a5 0d 	call	0x1b4a
    1d54:	1f 91       	pop	r17
    1d56:	0f 91       	pop	r16
    1d58:	08 95       	ret

00001d5a <PageEEPROMM$sendFlashCommand>:
    1d5a:	cf 93       	push	r28
    1d5c:	df 93       	push	r29
    1d5e:	90 e0       	ldi	r25, 0x00	; 0
    1d60:	69 2f       	mov	r22, r25
    1d62:	a4 e9       	ldi	r26, 0x94	; 148
    1d64:	b1 e0       	ldi	r27, 0x01	; 1
    1d66:	80 91 a2 00 	lds	r24, 0x00A2
    1d6a:	48 2f       	mov	r20, r24
    1d6c:	55 27       	eor	r21, r21
    1d6e:	c0 e0       	ldi	r28, 0x00	; 0
    1d70:	d0 e0       	ldi	r29, 0x00	; 0
    1d72:	79 2f       	mov	r23, r25
    1d74:	8f b7       	in	r24, 0x3f	; 63
    1d76:	f8 94       	cli
    1d78:	28 2f       	mov	r18, r24
    1d7a:	33 27       	eor	r19, r19
    1d7c:	80 91 8e 01 	lds	r24, 0x018E
    1d80:	81 50       	subi	r24, 0x01	; 1
    1d82:	80 93 8e 01 	sts	0x018E, r24
    1d86:	15 9a       	sbi	0x02, 5	; 2
    1d88:	1d 98       	cbi	0x03, 5	; 3
    1d8a:	2f bf       	out	0x3f, r18	; 63
    1d8c:	72 30       	cpi	r23, 0x02	; 2
    1d8e:	b9 f4       	brne	.+46     	; 0x1dbe
    1d90:	e0 e6       	ldi	r30, 0x60	; 96
    1d92:	f0 e0       	ldi	r31, 0x00	; 0
    1d94:	9d 27       	eor	r25, r29
    1d96:	99 0f       	add	r25, r25
    1d98:	f1 1d       	adc	r31, r1
    1d9a:	e9 0f       	add	r30, r25
    1d9c:	f1 1d       	adc	r31, r1
    1d9e:	c8 95       	lpm
    1da0:	3c 2f       	mov	r19, r28
    1da2:	20 2d       	mov	r18, r0
    1da4:	31 96       	adiw	r30, 0x01	; 1
    1da6:	c8 95       	lpm
    1da8:	30 25       	eor	r19, r0
    1daa:	d3 2f       	mov	r29, r19
    1dac:	c2 2f       	mov	r28, r18
    1dae:	41 50       	subi	r20, 0x01	; 1
    1db0:	50 40       	sbci	r21, 0x00	; 0
    1db2:	39 f5       	brne	.+78     	; 0x1e02
    1db4:	30 93 b7 02 	sts	0x02B7, r19
    1db8:	20 93 b6 02 	sts	0x02B6, r18
    1dbc:	5c c0       	rjmp	.+184    	; 0x1e76
    1dbe:	77 23       	and	r23, r23
    1dc0:	79 f4       	brne	.+30     	; 0x1de0
    1dc2:	6d 91       	ld	r22, X+
    1dc4:	41 50       	subi	r20, 0x01	; 1
    1dc6:	50 40       	sbci	r21, 0x00	; 0
    1dc8:	e1 f4       	brne	.+56     	; 0x1e02
    1dca:	70 91 88 01 	lds	r23, 0x0188
    1dce:	a0 91 60 03 	lds	r26, 0x0360
    1dd2:	b0 91 61 03 	lds	r27, 0x0361
    1dd6:	40 91 a0 00 	lds	r20, 0x00A0
    1dda:	50 91 a1 00 	lds	r21, 0x00A1
    1dde:	11 c0       	rjmp	.+34     	; 0x1e02
    1de0:	71 30       	cpi	r23, 0x01	; 1
    1de2:	29 f4       	brne	.+10     	; 0x1dee
    1de4:	9d 93       	st	X+, r25
    1de6:	41 50       	subi	r20, 0x01	; 1
    1de8:	50 40       	sbci	r21, 0x00	; 0
    1dea:	59 f4       	brne	.+22     	; 0x1e02
    1dec:	44 c0       	rjmp	.+136    	; 0x1e76
    1dee:	73 30       	cpi	r23, 0x03	; 3
    1df0:	09 f0       	breq	.+2      	; 0x1df4
    1df2:	41 c0       	rjmp	.+130    	; 0x1e76
    1df4:	41 15       	cp	r20, r1
    1df6:	51 05       	cpc	r21, r1
    1df8:	09 f4       	brne	.+2      	; 0x1dfc
    1dfa:	3d c0       	rjmp	.+122    	; 0x1e76
    1dfc:	6d 91       	ld	r22, X+
    1dfe:	41 50       	subi	r20, 0x01	; 1
    1e00:	50 40       	sbci	r21, 0x00	; 0
    1e02:	80 e0       	ldi	r24, 0x00	; 0
    1e04:	9f b7       	in	r25, 0x3f	; 63
    1e06:	f8 94       	cli
    1e08:	29 2f       	mov	r18, r25
    1e0a:	33 27       	eor	r19, r19
    1e0c:	9b b3       	in	r25, 0x1b	; 27
    1e0e:	97 77       	andi	r25, 0x77	; 119
    1e10:	9b bb       	out	0x1b, r25	; 27
    1e12:	67 fd       	sbrc	r22, 7
    1e14:	df 9a       	sbi	0x1b, 7	; 27
    1e16:	db 9a       	sbi	0x1b, 3	; 27
    1e18:	ce 99       	sbic	0x19, 6	; 25
    1e1a:	80 68       	ori	r24, 0x80	; 128
    1e1c:	9b bb       	out	0x1b, r25	; 27
    1e1e:	66 fd       	sbrc	r22, 6
    1e20:	df 9a       	sbi	0x1b, 7	; 27
    1e22:	db 9a       	sbi	0x1b, 3	; 27
    1e24:	ce 99       	sbic	0x19, 6	; 25
    1e26:	80 64       	ori	r24, 0x40	; 64
    1e28:	9b bb       	out	0x1b, r25	; 27
    1e2a:	65 fd       	sbrc	r22, 5
    1e2c:	df 9a       	sbi	0x1b, 7	; 27
    1e2e:	db 9a       	sbi	0x1b, 3	; 27
    1e30:	ce 99       	sbic	0x19, 6	; 25
    1e32:	80 62       	ori	r24, 0x20	; 32
    1e34:	9b bb       	out	0x1b, r25	; 27
    1e36:	64 fd       	sbrc	r22, 4
    1e38:	df 9a       	sbi	0x1b, 7	; 27
    1e3a:	db 9a       	sbi	0x1b, 3	; 27
    1e3c:	ce 99       	sbic	0x19, 6	; 25
    1e3e:	80 61       	ori	r24, 0x10	; 16
    1e40:	9b bb       	out	0x1b, r25	; 27
    1e42:	63 fd       	sbrc	r22, 3
    1e44:	df 9a       	sbi	0x1b, 7	; 27
    1e46:	db 9a       	sbi	0x1b, 3	; 27
    1e48:	ce 99       	sbic	0x19, 6	; 25
    1e4a:	88 60       	ori	r24, 0x08	; 8
    1e4c:	9b bb       	out	0x1b, r25	; 27
    1e4e:	62 fd       	sbrc	r22, 2
    1e50:	df 9a       	sbi	0x1b, 7	; 27
    1e52:	db 9a       	sbi	0x1b, 3	; 27
    1e54:	ce 99       	sbic	0x19, 6	; 25
    1e56:	84 60       	ori	r24, 0x04	; 4
    1e58:	9b bb       	out	0x1b, r25	; 27
    1e5a:	61 fd       	sbrc	r22, 1
    1e5c:	df 9a       	sbi	0x1b, 7	; 27
    1e5e:	db 9a       	sbi	0x1b, 3	; 27
    1e60:	ce 99       	sbic	0x19, 6	; 25
    1e62:	82 60       	ori	r24, 0x02	; 2
    1e64:	9b bb       	out	0x1b, r25	; 27
    1e66:	60 fd       	sbrc	r22, 0
    1e68:	df 9a       	sbi	0x1b, 7	; 27
    1e6a:	db 9a       	sbi	0x1b, 3	; 27
    1e6c:	ce 99       	sbic	0x19, 6	; 25
    1e6e:	81 60       	ori	r24, 0x01	; 1
    1e70:	2f bf       	out	0x3f, r18	; 63
    1e72:	98 2f       	mov	r25, r24
    1e74:	8b cf       	rjmp	.-234    	; 0x1d8c
    1e76:	81 e0       	ldi	r24, 0x01	; 1
    1e78:	80 93 9b 00 	sts	0x009B, r24
    1e7c:	db 98       	cbi	0x1b, 3	; 27
    1e7e:	8f b7       	in	r24, 0x3f	; 63
    1e80:	f8 94       	cli
    1e82:	c8 2f       	mov	r28, r24
    1e84:	80 91 8e 01 	lds	r24, 0x018E
    1e88:	8f 5f       	subi	r24, 0xFF	; 255
    1e8a:	80 93 8e 01 	sts	0x018E, r24
    1e8e:	18 16       	cp	r1, r24
    1e90:	3c f4       	brge	.+14     	; 0x1ea0
    1e92:	15 9a       	sbi	0x02, 5	; 2
    1e94:	1d 9a       	sbi	0x03, 5	; 3
    1e96:	84 e4       	ldi	r24, 0x44	; 68
    1e98:	9e e1       	ldi	r25, 0x1E	; 30
    1e9a:	0e 94 a1 01 	call	0x342
    1e9e:	05 c0       	rjmp	.+10     	; 0x1eaa
    1ea0:	80 91 bd 00 	lds	r24, 0x00BD
    1ea4:	81 60       	ori	r24, 0x01	; 1
    1ea6:	80 93 bd 00 	sts	0x00BD, r24
    1eaa:	cf bf       	out	0x3f, r28	; 63
    1eac:	df 91       	pop	r29
    1eae:	cf 91       	pop	r28
    1eb0:	08 95       	ret

00001eb2 <PageEEPROMM$flushBuffer>:
    1eb2:	0f 93       	push	r16
    1eb4:	1f 93       	push	r17
    1eb6:	84 e0       	ldi	r24, 0x04	; 4
    1eb8:	80 93 88 01 	sts	0x0188, r24
    1ebc:	40 91 73 00 	lds	r20, 0x0073
    1ec0:	24 2f       	mov	r18, r20
    1ec2:	33 27       	eor	r19, r19
    1ec4:	93 2f       	mov	r25, r19
    1ec6:	82 2f       	mov	r24, r18
    1ec8:	88 0f       	add	r24, r24
    1eca:	99 1f       	adc	r25, r25
    1ecc:	82 0f       	add	r24, r18
    1ece:	93 1f       	adc	r25, r19
    1ed0:	b9 2f       	mov	r27, r25
    1ed2:	a8 2f       	mov	r26, r24
    1ed4:	ab 54       	subi	r26, 0x4B	; 75
    1ed6:	bf 4f       	sbci	r27, 0xFF	; 255
    1ed8:	f9 2f       	mov	r31, r25
    1eda:	e8 2f       	mov	r30, r24
    1edc:	e9 54       	subi	r30, 0x49	; 73
    1ede:	ff 4f       	sbci	r31, 0xFF	; 255
    1ee0:	80 81       	ld	r24, Z
    1ee2:	82 ff       	sbrs	r24, 2
    1ee4:	06 c0       	rjmp	.+12     	; 0x1ef2
    1ee6:	44 23       	and	r20, r20
    1ee8:	11 f0       	breq	.+4      	; 0x1eee
    1eea:	68 e8       	ldi	r22, 0x88	; 136
    1eec:	07 c0       	rjmp	.+14     	; 0x1efc
    1eee:	69 e8       	ldi	r22, 0x89	; 137
    1ef0:	05 c0       	rjmp	.+10     	; 0x1efc
    1ef2:	44 23       	and	r20, r20
    1ef4:	11 f0       	breq	.+4      	; 0x1efa
    1ef6:	63 e8       	ldi	r22, 0x83	; 131
    1ef8:	01 c0       	rjmp	.+2      	; 0x1efc
    1efa:	66 e8       	ldi	r22, 0x86	; 134
    1efc:	00 e0       	ldi	r16, 0x00	; 0
    1efe:	10 e0       	ldi	r17, 0x00	; 0
    1f00:	2d 91       	ld	r18, X+
    1f02:	3c 91       	ld	r19, X
    1f04:	40 e0       	ldi	r20, 0x00	; 0
    1f06:	81 e0       	ldi	r24, 0x01	; 1
    1f08:	0e 94 a5 0d 	call	0x1b4a
    1f0c:	1f 91       	pop	r17
    1f0e:	0f 91       	pop	r16
    1f10:	08 95       	ret

00001f12 <MetaData$IFileMetaRead$readNext>:
    1f12:	80 91 19 03 	lds	r24, 0x0319
    1f16:	90 91 1a 03 	lds	r25, 0x031A
    1f1a:	8a 52       	subi	r24, 0x2A	; 42
    1f1c:	96 40       	sbci	r25, 0x06	; 6
    1f1e:	29 f4       	brne	.+10     	; 0x1f2a
    1f20:	89 e0       	ldi	r24, 0x09	; 9
    1f22:	9d e1       	ldi	r25, 0x1D	; 29
    1f24:	0e 94 a1 01 	call	0x342
    1f28:	08 95       	ret
    1f2a:	20 e1       	ldi	r18, 0x10	; 16
    1f2c:	30 e0       	ldi	r19, 0x00	; 0
    1f2e:	40 e0       	ldi	r20, 0x00	; 0
    1f30:	50 e0       	ldi	r21, 0x00	; 0
    1f32:	65 e8       	ldi	r22, 0x85	; 133
    1f34:	70 e0       	ldi	r23, 0x00	; 0
    1f36:	82 e0       	ldi	r24, 0x02	; 2
    1f38:	0e 94 a3 09 	call	0x1346
    1f3c:	08 95       	ret

00001f3e <MetaData$IFileMetaWrite$writeComplete>:
    1f3e:	ef 92       	push	r14
    1f40:	ff 92       	push	r15
    1f42:	0f 93       	push	r16
    1f44:	1f 93       	push	r17
    1f46:	86 2f       	mov	r24, r22
    1f48:	90 91 90 01 	lds	r25, 0x0190
    1f4c:	66 23       	and	r22, r22
    1f4e:	09 f4       	brne	.+2      	; 0x1f52
    1f50:	89 2f       	mov	r24, r25
    1f52:	28 2f       	mov	r18, r24
    1f54:	33 27       	eor	r19, r19
    1f56:	20 93 90 01 	sts	0x0190, r18
    1f5a:	e0 91 9f 01 	lds	r30, 0x019F
    1f5e:	f0 91 a0 01 	lds	r31, 0x01A0
    1f62:	22 23       	and	r18, r18
    1f64:	d9 f4       	brne	.+54     	; 0x1f9c
    1f66:	8a e0       	ldi	r24, 0x0A	; 10
    1f68:	80 93 70 00 	sts	0x0070, r24
    1f6c:	20 93 be 02 	sts	0x02BE, r18
    1f70:	60 91 a1 01 	lds	r22, 0x01A1
    1f74:	70 91 a2 01 	lds	r23, 0x01A2
    1f78:	40 91 ab 01 	lds	r20, 0x01AB
    1f7c:	6e 17       	cp	r22, r30
    1f7e:	7f 07       	cpc	r23, r31
    1f80:	09 f4       	brne	.+2      	; 0x1f84
    1f82:	21 e0       	ldi	r18, 0x01	; 1
    1f84:	80 91 a9 01 	lds	r24, 0x01A9
    1f88:	90 91 aa 01 	lds	r25, 0x01AA
    1f8c:	e8 2e       	mov	r14, r24
    1f8e:	f9 2e       	mov	r15, r25
    1f90:	0a e2       	ldi	r16, 0x2A	; 42
    1f92:	16 e0       	ldi	r17, 0x06	; 6
    1f94:	83 e0       	ldi	r24, 0x03	; 3
    1f96:	0e 94 84 0b 	call	0x1708
    1f9a:	0d c0       	rjmp	.+26     	; 0x1fb6
    1f9c:	81 e0       	ldi	r24, 0x01	; 1
    1f9e:	90 e0       	ldi	r25, 0x00	; 0
    1fa0:	90 93 69 00 	sts	0x0069, r25
    1fa4:	80 93 68 00 	sts	0x0068, r24
    1fa8:	40 e0       	ldi	r20, 0x00	; 0
    1faa:	60 e0       	ldi	r22, 0x00	; 0
    1fac:	70 e0       	ldi	r23, 0x00	; 0
    1fae:	8e 2f       	mov	r24, r30
    1fb0:	9f 2f       	mov	r25, r31
    1fb2:	0e 94 e0 0f 	call	0x1fc0
    1fb6:	1f 91       	pop	r17
    1fb8:	0f 91       	pop	r16
    1fba:	ff 90       	pop	r15
    1fbc:	ef 90       	pop	r14
    1fbe:	08 95       	ret

00001fc0 <MetaData$IFileBlockMeta$readDone>:
    1fc0:	1f 93       	push	r17
    1fc2:	cf 93       	push	r28
    1fc4:	df 93       	push	r29
    1fc6:	d9 2f       	mov	r29, r25
    1fc8:	c8 2f       	mov	r28, r24
    1fca:	14 2f       	mov	r17, r20
    1fcc:	44 23       	and	r20, r20
    1fce:	21 f4       	brne	.+8      	; 0x1fd8
    1fd0:	86 e0       	ldi	r24, 0x06	; 6
    1fd2:	ca 32       	cpi	r28, 0x2A	; 42
    1fd4:	d8 07       	cpc	r29, r24
    1fd6:	29 f5       	brne	.+74     	; 0x2022
    1fd8:	80 91 68 00 	lds	r24, 0x0068
    1fdc:	90 91 69 00 	lds	r25, 0x0069
    1fe0:	89 2b       	or	r24, r25
    1fe2:	29 f0       	breq	.+10     	; 0x1fee
    1fe4:	87 e7       	ldi	r24, 0x77	; 119
    1fe6:	9d e1       	ldi	r25, 0x1D	; 29
    1fe8:	0e 94 a1 01 	call	0x342
    1fec:	24 c0       	rjmp	.+72     	; 0x2036
    1fee:	80 91 ac 02 	lds	r24, 0x02AC
    1ff2:	99 27       	eor	r25, r25
    1ff4:	81 30       	cpi	r24, 0x01	; 1
    1ff6:	91 05       	cpc	r25, r1
    1ff8:	49 f0       	breq	.+18     	; 0x200c
    1ffa:	82 30       	cpi	r24, 0x02	; 2
    1ffc:	91 05       	cpc	r25, r1
    1ffe:	1c f4       	brge	.+6      	; 0x2006
    2000:	89 2b       	or	r24, r25
    2002:	21 f0       	breq	.+8      	; 0x200c
    2004:	18 c0       	rjmp	.+48     	; 0x2036
    2006:	02 97       	sbiw	r24, 0x02	; 2
    2008:	21 f0       	breq	.+8      	; 0x2012
    200a:	15 c0       	rjmp	.+42     	; 0x2036
    200c:	0e 94 eb 08 	call	0x11d6
    2010:	12 c0       	rjmp	.+36     	; 0x2036
    2012:	41 2f       	mov	r20, r17
    2014:	60 e0       	ldi	r22, 0x00	; 0
    2016:	70 e0       	ldi	r23, 0x00	; 0
    2018:	80 e0       	ldi	r24, 0x00	; 0
    201a:	90 e0       	ldi	r25, 0x00	; 0
    201c:	0e 94 3c 10 	call	0x2078
    2020:	0a c0       	rjmp	.+20     	; 0x2036
    2022:	8c 2f       	mov	r24, r28
    2024:	9d 2f       	mov	r25, r29
    2026:	0e 94 5a 10 	call	0x20b4
    202a:	41 2f       	mov	r20, r17
    202c:	6c 2f       	mov	r22, r28
    202e:	7d 2f       	mov	r23, r29
    2030:	81 2f       	mov	r24, r17
    2032:	0e 94 7d 10 	call	0x20fa
    2036:	df 91       	pop	r29
    2038:	cf 91       	pop	r28
    203a:	1f 91       	pop	r17
    203c:	08 95       	ret

0000203e <MetaData$reserveMeta>:
    203e:	80 91 83 01 	lds	r24, 0x0183
    2042:	90 91 84 01 	lds	r25, 0x0184
    2046:	aa 27       	eor	r26, r26
    2048:	bb 27       	eor	r27, r27
    204a:	34 e0       	ldi	r19, 0x04	; 4
    204c:	88 0f       	add	r24, r24
    204e:	99 1f       	adc	r25, r25
    2050:	aa 1f       	adc	r26, r26
    2052:	bb 1f       	adc	r27, r27
    2054:	3a 95       	dec	r19
    2056:	d1 f7       	brne	.-12     	; 0x204c
    2058:	8d 5f       	subi	r24, 0xFD	; 253
    205a:	9e 4f       	sbci	r25, 0xFE	; 254
    205c:	af 4f       	sbci	r26, 0xFF	; 255
    205e:	bf 4f       	sbci	r27, 0xFF	; 255
    2060:	89 2f       	mov	r24, r25
    2062:	9a 2f       	mov	r25, r26
    2064:	ab 2f       	mov	r26, r27
    2066:	bb 27       	eor	r27, r27
    2068:	0e 94 37 10 	call	0x206e
    206c:	08 95       	ret

0000206e <FreeList$IFileFree$setReserved>:
    206e:	90 93 8b 01 	sts	0x018B, r25
    2072:	80 93 8a 01 	sts	0x018A, r24
    2076:	08 95       	ret

00002078 <Write$openComplete>:
    2078:	cf 93       	push	r28
    207a:	c4 2f       	mov	r28, r20
    207c:	0e 94 eb 08 	call	0x11d6
    2080:	cc 23       	and	r28, r28
    2082:	79 f0       	breq	.+30     	; 0x20a2
    2084:	80 91 25 03 	lds	r24, 0x0325
    2088:	99 27       	eor	r25, r25
    208a:	6d e0       	ldi	r22, 0x0D	; 13
    208c:	70 e0       	ldi	r23, 0x00	; 0
    208e:	0e 94 29 20 	call	0x4052
    2092:	f9 2f       	mov	r31, r25
    2094:	e8 2f       	mov	r30, r24
    2096:	e1 56       	subi	r30, 0x61	; 97
    2098:	fe 4f       	sbci	r31, 0xFE	; 254
    209a:	8a e2       	ldi	r24, 0x2A	; 42
    209c:	96 e0       	ldi	r25, 0x06	; 6
    209e:	80 83       	st	Z, r24
    20a0:	91 83       	std	Z+1, r25	; 0x01
    20a2:	80 91 25 03 	lds	r24, 0x0325
    20a6:	81 30       	cpi	r24, 0x01	; 1
    20a8:	19 f4       	brne	.+6      	; 0x20b0
    20aa:	8c 2f       	mov	r24, r28
    20ac:	0e 94 b8 0a 	call	0x1570
    20b0:	cf 91       	pop	r28
    20b2:	08 95       	ret

000020b4 <FreeList$IFileFree$free>:
    20b4:	28 2f       	mov	r18, r24
    20b6:	39 2f       	mov	r19, r25
    20b8:	80 91 71 00 	lds	r24, 0x0071
    20bc:	90 91 72 00 	lds	r25, 0x0072
    20c0:	01 96       	adiw	r24, 0x01	; 1
    20c2:	90 93 72 00 	sts	0x0072, r25
    20c6:	80 93 71 00 	sts	0x0071, r24
    20ca:	f3 2f       	mov	r31, r19
    20cc:	e2 2f       	mov	r30, r18
    20ce:	43 e0       	ldi	r20, 0x03	; 3
    20d0:	f6 95       	lsr	r31
    20d2:	e7 95       	ror	r30
    20d4:	4a 95       	dec	r20
    20d6:	e1 f7       	brne	.-8      	; 0x20d0
    20d8:	ed 53       	subi	r30, 0x3D	; 61
    20da:	ff 4f       	sbci	r31, 0xFF	; 255
    20dc:	27 70       	andi	r18, 0x07	; 7
    20de:	30 70       	andi	r19, 0x00	; 0
    20e0:	81 e0       	ldi	r24, 0x01	; 1
    20e2:	90 e0       	ldi	r25, 0x00	; 0
    20e4:	02 c0       	rjmp	.+4      	; 0x20ea
    20e6:	88 0f       	add	r24, r24
    20e8:	99 1f       	adc	r25, r25
    20ea:	2a 95       	dec	r18
    20ec:	e2 f7       	brpl	.-8      	; 0x20e6
    20ee:	98 2f       	mov	r25, r24
    20f0:	90 95       	com	r25
    20f2:	80 81       	ld	r24, Z
    20f4:	89 23       	and	r24, r25
    20f6:	80 83       	st	Z, r24
    20f8:	08 95       	ret

000020fa <Blocks$IFileBlockMeta$read>:
    20fa:	0f 93       	push	r16
    20fc:	1f 93       	push	r17
    20fe:	28 2f       	mov	r18, r24
    2100:	44 23       	and	r20, r20
    2102:	29 f0       	breq	.+10     	; 0x210e
    2104:	83 e0       	ldi	r24, 0x03	; 3
    2106:	80 93 6a 03 	sts	0x036A, r24
    210a:	86 e0       	ldi	r24, 0x06	; 6
    210c:	04 c0       	rjmp	.+8      	; 0x2116
    210e:	82 e0       	ldi	r24, 0x02	; 2
    2110:	80 93 6a 03 	sts	0x036A, r24
    2114:	84 e0       	ldi	r24, 0x04	; 4
    2116:	99 27       	eor	r25, r25
    2118:	20 93 9e 01 	sts	0x019E, r18
    211c:	70 93 c2 00 	sts	0x00C2, r23
    2120:	60 93 c1 00 	sts	0x00C1, r22
    2124:	08 2f       	mov	r16, r24
    2126:	19 2f       	mov	r17, r25
    2128:	28 eb       	ldi	r18, 0xB8	; 184
    212a:	32 e0       	ldi	r19, 0x02	; 2
    212c:	42 e0       	ldi	r20, 0x02	; 2
    212e:	51 e0       	ldi	r21, 0x01	; 1
    2130:	81 e0       	ldi	r24, 0x01	; 1
    2132:	0e 94 2f 04 	call	0x85e
    2136:	1f 91       	pop	r17
    2138:	0f 91       	pop	r16
    213a:	08 95       	ret

0000213c <Writer$continueWrite>:
    213c:	ff 92       	push	r15
    213e:	0f 93       	push	r16
    2140:	1f 93       	push	r17
    2142:	cf 93       	push	r28
    2144:	df 93       	push	r29
    2146:	00 91 bf 02 	lds	r16, 0x02BF
    214a:	10 91 c0 02 	lds	r17, 0x02C0
    214e:	20 91 c1 02 	lds	r18, 0x02C1
    2152:	30 91 c2 02 	lds	r19, 0x02C2
    2156:	f0 90 be 02 	lds	r15, 0x02BE
    215a:	01 15       	cp	r16, r1
    215c:	11 05       	cpc	r17, r1
    215e:	21 05       	cpc	r18, r1
    2160:	31 05       	cpc	r19, r1
    2162:	e1 f5       	brne	.+120    	; 0x21dc
    2164:	80 91 9a 01 	lds	r24, 0x019A
    2168:	90 91 9b 01 	lds	r25, 0x019B
    216c:	a0 91 9c 01 	lds	r26, 0x019C
    2170:	b0 91 9d 01 	lds	r27, 0x019D
    2174:	20 e0       	ldi	r18, 0x00	; 0
    2176:	48 2f       	mov	r20, r24
    2178:	59 2f       	mov	r21, r25
    217a:	6a 2f       	mov	r22, r26
    217c:	7b 2f       	mov	r23, r27
    217e:	8f 2d       	mov	r24, r15
    2180:	0e 94 a8 0a 	call	0x1550
    2184:	8f 2d       	mov	r24, r15
    2186:	99 27       	eor	r25, r25
    2188:	89 2b       	or	r24, r25
    218a:	09 f0       	breq	.+2      	; 0x218e
    218c:	cc c0       	rjmp	.+408    	; 0x2326
    218e:	10 92 90 01 	sts	0x0190, r1
    2192:	80 91 ac 02 	lds	r24, 0x02AC
    2196:	99 27       	eor	r25, r25
    2198:	81 30       	cpi	r24, 0x01	; 1
    219a:	91 05       	cpc	r25, r1
    219c:	59 f0       	breq	.+22     	; 0x21b4
    219e:	82 30       	cpi	r24, 0x02	; 2
    21a0:	91 05       	cpc	r25, r1
    21a2:	1c f4       	brge	.+6      	; 0x21aa
    21a4:	89 2b       	or	r24, r25
    21a6:	21 f0       	breq	.+8      	; 0x21b0
    21a8:	be c0       	rjmp	.+380    	; 0x2326
    21aa:	02 97       	sbiw	r24, 0x02	; 2
    21ac:	29 f0       	breq	.+10     	; 0x21b8
    21ae:	bb c0       	rjmp	.+374    	; 0x2326
    21b0:	80 e0       	ldi	r24, 0x00	; 0
    21b2:	0c c0       	rjmp	.+24     	; 0x21cc
    21b4:	83 e0       	ldi	r24, 0x03	; 3
    21b6:	0a c0       	rjmp	.+20     	; 0x21cc
    21b8:	80 91 7d 00 	lds	r24, 0x007D
    21bc:	99 27       	eor	r25, r25
    21be:	81 30       	cpi	r24, 0x01	; 1
    21c0:	91 05       	cpc	r25, r1
    21c2:	19 f0       	breq	.+6      	; 0x21ca
    21c4:	02 97       	sbiw	r24, 0x02	; 2
    21c6:	29 f0       	breq	.+10     	; 0x21d2
    21c8:	ae c0       	rjmp	.+348    	; 0x2326
    21ca:	84 e0       	ldi	r24, 0x04	; 4
    21cc:	0e 94 89 0f 	call	0x1f12
    21d0:	aa c0       	rjmp	.+340    	; 0x2326
    21d2:	60 e0       	ldi	r22, 0x00	; 0
    21d4:	82 e0       	ldi	r24, 0x02	; 2
    21d6:	0e 94 9f 0f 	call	0x1f3e
    21da:	a5 c0       	rjmp	.+330    	; 0x2326
    21dc:	8f 2d       	mov	r24, r15
    21de:	99 27       	eor	r25, r25
    21e0:	6d e0       	ldi	r22, 0x0D	; 13
    21e2:	70 e0       	ldi	r23, 0x00	; 0
    21e4:	0e 94 29 20 	call	0x4052
    21e8:	f9 2f       	mov	r31, r25
    21ea:	e8 2f       	mov	r30, r24
    21ec:	e1 56       	subi	r30, 0x61	; 97
    21ee:	fe 4f       	sbci	r31, 0xFE	; 254
    21f0:	62 81       	ldd	r22, Z+2	; 0x02
    21f2:	73 81       	ldd	r23, Z+3	; 0x03
    21f4:	42 85       	ldd	r20, Z+10	; 0x0a
    21f6:	53 85       	ldd	r21, Z+11	; 0x0b
    21f8:	0f 3f       	cpi	r16, 0xFF	; 255
    21fa:	11 05       	cpc	r17, r1
    21fc:	21 05       	cpc	r18, r1
    21fe:	31 05       	cpc	r19, r1
    2200:	09 f0       	breq	.+2      	; 0x2204
    2202:	68 f4       	brcc	.+26     	; 0x221e
    2204:	84 2f       	mov	r24, r20
    2206:	95 2f       	mov	r25, r21
    2208:	aa 27       	eor	r26, r26
    220a:	bb 27       	eor	r27, r27
    220c:	08 0f       	add	r16, r24
    220e:	19 1f       	adc	r17, r25
    2210:	2a 1f       	adc	r18, r26
    2212:	3b 1f       	adc	r19, r27
    2214:	01 50       	subi	r16, 0x01	; 1
    2216:	11 40       	sbci	r17, 0x01	; 1
    2218:	20 40       	sbci	r18, 0x00	; 0
    221a:	30 40       	sbci	r19, 0x00	; 0
    221c:	28 f0       	brcs	.+10     	; 0x2228
    221e:	c0 e0       	ldi	r28, 0x00	; 0
    2220:	d1 e0       	ldi	r29, 0x01	; 1
    2222:	c4 1b       	sub	r28, r20
    2224:	d5 0b       	sbc	r29, r21
    2226:	04 c0       	rjmp	.+8      	; 0x2230
    2228:	c0 91 bf 02 	lds	r28, 0x02BF
    222c:	d0 91 c0 02 	lds	r29, 0x02C0
    2230:	20 97       	sbiw	r28, 0x00	; 0
    2232:	09 f4       	brne	.+2      	; 0x2236
    2234:	46 c0       	rjmp	.+140    	; 0x22c2
    2236:	20 91 b0 02 	lds	r18, 0x02B0
    223a:	30 91 b1 02 	lds	r19, 0x02B1
    223e:	81 e0       	ldi	r24, 0x01	; 1
    2240:	80 93 6a 03 	sts	0x036A, r24
    2244:	80 93 9e 01 	sts	0x019E, r24
    2248:	70 93 c2 00 	sts	0x00C2, r23
    224c:	60 93 c1 00 	sts	0x00C1, r22
    2250:	0c 2f       	mov	r16, r28
    2252:	1d 2f       	mov	r17, r29
    2254:	83 e0       	ldi	r24, 0x03	; 3
    2256:	0e 94 2f 04 	call	0x85e
    225a:	80 91 be 02 	lds	r24, 0x02BE
    225e:	99 27       	eor	r25, r25
    2260:	6d e0       	ldi	r22, 0x0D	; 13
    2262:	70 e0       	ldi	r23, 0x00	; 0
    2264:	0e 94 29 20 	call	0x4052
    2268:	f9 2f       	mov	r31, r25
    226a:	e8 2f       	mov	r30, r24
    226c:	e1 56       	subi	r30, 0x61	; 97
    226e:	fe 4f       	sbci	r31, 0xFE	; 254
    2270:	82 85       	ldd	r24, Z+10	; 0x0a
    2272:	93 85       	ldd	r25, Z+11	; 0x0b
    2274:	8c 0f       	add	r24, r28
    2276:	9d 1f       	adc	r25, r29
    2278:	82 87       	std	Z+10, r24	; 0x0a
    227a:	93 87       	std	Z+11, r25	; 0x0b
    227c:	80 91 b0 02 	lds	r24, 0x02B0
    2280:	90 91 b1 02 	lds	r25, 0x02B1
    2284:	8c 0f       	add	r24, r28
    2286:	9d 1f       	adc	r25, r29
    2288:	90 93 b1 02 	sts	0x02B1, r25
    228c:	80 93 b0 02 	sts	0x02B0, r24
    2290:	2c 2f       	mov	r18, r28
    2292:	3d 2f       	mov	r19, r29
    2294:	44 27       	eor	r20, r20
    2296:	55 27       	eor	r21, r21
    2298:	80 91 bf 02 	lds	r24, 0x02BF
    229c:	90 91 c0 02 	lds	r25, 0x02C0
    22a0:	a0 91 c1 02 	lds	r26, 0x02C1
    22a4:	b0 91 c2 02 	lds	r27, 0x02C2
    22a8:	82 1b       	sub	r24, r18
    22aa:	93 0b       	sbc	r25, r19
    22ac:	a4 0b       	sbc	r26, r20
    22ae:	b5 0b       	sbc	r27, r21
    22b0:	80 93 bf 02 	sts	0x02BF, r24
    22b4:	90 93 c0 02 	sts	0x02C0, r25
    22b8:	a0 93 c1 02 	sts	0x02C1, r26
    22bc:	b0 93 c2 02 	sts	0x02C2, r27
    22c0:	32 c0       	rjmp	.+100    	; 0x2326
    22c2:	8f 2d       	mov	r24, r15
    22c4:	99 27       	eor	r25, r25
    22c6:	6d e0       	ldi	r22, 0x0D	; 13
    22c8:	70 e0       	ldi	r23, 0x00	; 0
    22ca:	0e 94 29 20 	call	0x4052
    22ce:	f9 2f       	mov	r31, r25
    22d0:	e8 2f       	mov	r30, r24
    22d2:	e1 56       	subi	r30, 0x61	; 97
    22d4:	fe 4f       	sbci	r31, 0xFE	; 254
    22d6:	84 81       	ldd	r24, Z+4	; 0x04
    22d8:	95 81       	ldd	r25, Z+5	; 0x05
    22da:	8a 52       	subi	r24, 0x2A	; 42
    22dc:	96 40       	sbci	r25, 0x06	; 6
    22de:	e1 f0       	breq	.+56     	; 0x2318
    22e0:	89 e0       	ldi	r24, 0x09	; 9
    22e2:	80 93 70 00 	sts	0x0070, r24
    22e6:	0e 94 50 0b 	call	0x16a0
    22ea:	88 23       	and	r24, r24
    22ec:	e1 f4       	brne	.+56     	; 0x2326
    22ee:	80 91 be 02 	lds	r24, 0x02BE
    22f2:	99 27       	eor	r25, r25
    22f4:	6d e0       	ldi	r22, 0x0D	; 13
    22f6:	70 e0       	ldi	r23, 0x00	; 0
    22f8:	0e 94 29 20 	call	0x4052
    22fc:	f9 2f       	mov	r31, r25
    22fe:	e8 2f       	mov	r30, r24
    2300:	e1 56       	subi	r30, 0x61	; 97
    2302:	fe 4f       	sbci	r31, 0xFE	; 254
    2304:	24 81       	ldd	r18, Z+4	; 0x04
    2306:	35 81       	ldd	r19, Z+5	; 0x05
    2308:	84 85       	ldd	r24, Z+12	; 0x0c
    230a:	48 2f       	mov	r20, r24
    230c:	73 2f       	mov	r23, r19
    230e:	62 2f       	mov	r22, r18
    2310:	83 e0       	ldi	r24, 0x03	; 3
    2312:	0e 94 7d 10 	call	0x20fa
    2316:	07 c0       	rjmp	.+14     	; 0x2326
    2318:	86 e0       	ldi	r24, 0x06	; 6
    231a:	80 93 70 00 	sts	0x0070, r24
    231e:	81 e0       	ldi	r24, 0x01	; 1
    2320:	90 e0       	ldi	r25, 0x00	; 0
    2322:	0e 94 99 11 	call	0x2332
    2326:	df 91       	pop	r29
    2328:	cf 91       	pop	r28
    232a:	1f 91       	pop	r17
    232c:	0f 91       	pop	r16
    232e:	ff 90       	pop	r15
    2330:	08 95       	ret

00002332 <Writer$allocateNewBlocks>:
    2332:	0f 93       	push	r16
    2334:	1f 93       	push	r17
    2336:	48 2f       	mov	r20, r24
    2338:	59 2f       	mov	r21, r25
    233a:	80 91 71 00 	lds	r24, 0x0071
    233e:	90 91 72 00 	lds	r25, 0x0072
    2342:	20 91 8a 01 	lds	r18, 0x018A
    2346:	30 91 8b 01 	lds	r19, 0x018B
    234a:	82 1b       	sub	r24, r18
    234c:	93 0b       	sbc	r25, r19
    234e:	84 17       	cp	r24, r20
    2350:	95 07       	cpc	r25, r21
    2352:	10 f1       	brcs	.+68     	; 0x2398
    2354:	50 93 9a 00 	sts	0x009A, r21
    2358:	40 93 99 00 	sts	0x0099, r20
    235c:	8a e2       	ldi	r24, 0x2A	; 42
    235e:	96 e0       	ldi	r25, 0x06	; 6
    2360:	90 93 63 03 	sts	0x0363, r25
    2364:	80 93 62 03 	sts	0x0362, r24
    2368:	90 93 69 03 	sts	0x0369, r25
    236c:	80 93 68 03 	sts	0x0368, r24
    2370:	0e 94 d3 11 	call	0x23a6
    2374:	90 93 63 03 	sts	0x0363, r25
    2378:	80 93 62 03 	sts	0x0362, r24
    237c:	10 92 9e 01 	sts	0x019E, r1
    2380:	00 e0       	ldi	r16, 0x00	; 0
    2382:	10 e0       	ldi	r17, 0x00	; 0
    2384:	31 2f       	mov	r19, r17
    2386:	20 2f       	mov	r18, r16
    2388:	41 e0       	ldi	r20, 0x01	; 1
    238a:	50 e0       	ldi	r21, 0x00	; 0
    238c:	68 2f       	mov	r22, r24
    238e:	79 2f       	mov	r23, r25
    2390:	84 e0       	ldi	r24, 0x04	; 4
    2392:	0e 94 2f 04 	call	0x85e
    2396:	04 c0       	rjmp	.+8      	; 0x23a0
    2398:	8e ee       	ldi	r24, 0xEE	; 238
    239a:	9d e1       	ldi	r25, 0x1D	; 29
    239c:	0e 94 a1 01 	call	0x342
    23a0:	1f 91       	pop	r17
    23a2:	0f 91       	pop	r16
    23a4:	08 95       	ret

000023a6 <FreeList$IFileFree$allocate>:
    23a6:	cf 93       	push	r28
    23a8:	df 93       	push	r29
    23aa:	c0 91 53 03 	lds	r28, 0x0353
    23ae:	d0 91 54 03 	lds	r29, 0x0354
    23b2:	21 96       	adiw	r28, 0x01	; 1
    23b4:	86 e0       	ldi	r24, 0x06	; 6
    23b6:	c0 30       	cpi	r28, 0x00	; 0
    23b8:	d8 07       	cpc	r29, r24
    23ba:	10 f0       	brcs	.+4      	; 0x23c0
    23bc:	c0 e0       	ldi	r28, 0x00	; 0
    23be:	d0 e0       	ldi	r29, 0x00	; 0
    23c0:	fd 2f       	mov	r31, r29
    23c2:	ec 2f       	mov	r30, r28
    23c4:	53 e0       	ldi	r21, 0x03	; 3
    23c6:	f6 95       	lsr	r31
    23c8:	e7 95       	ror	r30
    23ca:	5a 95       	dec	r21
    23cc:	e1 f7       	brne	.-8      	; 0x23c6
    23ce:	ed 53       	subi	r30, 0x3D	; 61
    23d0:	ff 4f       	sbci	r31, 0xFF	; 255
    23d2:	2c 2f       	mov	r18, r28
    23d4:	3d 2f       	mov	r19, r29
    23d6:	27 70       	andi	r18, 0x07	; 7
    23d8:	30 70       	andi	r19, 0x00	; 0
    23da:	81 e0       	ldi	r24, 0x01	; 1
    23dc:	90 e0       	ldi	r25, 0x00	; 0
    23de:	02 c0       	rjmp	.+4      	; 0x23e4
    23e0:	88 0f       	add	r24, r24
    23e2:	99 1f       	adc	r25, r25
    23e4:	2a 95       	dec	r18
    23e6:	e2 f7       	brpl	.-8      	; 0x23e0
    23e8:	20 81       	ld	r18, Z
    23ea:	28 23       	and	r18, r24
    23ec:	11 f7       	brne	.-60     	; 0x23b2
    23ee:	8c 2f       	mov	r24, r28
    23f0:	9d 2f       	mov	r25, r29
    23f2:	0e 94 04 12 	call	0x2408
    23f6:	d0 93 54 03 	sts	0x0354, r29
    23fa:	c0 93 53 03 	sts	0x0353, r28
    23fe:	8c 2f       	mov	r24, r28
    2400:	9d 2f       	mov	r25, r29
    2402:	df 91       	pop	r29
    2404:	cf 91       	pop	r28
    2406:	08 95       	ret

00002408 <FreeList$IFileFree$reserve>:
    2408:	28 2f       	mov	r18, r24
    240a:	39 2f       	mov	r19, r25
    240c:	f9 2f       	mov	r31, r25
    240e:	e8 2f       	mov	r30, r24
    2410:	63 e0       	ldi	r22, 0x03	; 3
    2412:	f6 95       	lsr	r31
    2414:	e7 95       	ror	r30
    2416:	6a 95       	dec	r22
    2418:	e1 f7       	brne	.-8      	; 0x2412
    241a:	ed 53       	subi	r30, 0x3D	; 61
    241c:	ff 4f       	sbci	r31, 0xFF	; 255
    241e:	27 70       	andi	r18, 0x07	; 7
    2420:	30 70       	andi	r19, 0x00	; 0
    2422:	81 e0       	ldi	r24, 0x01	; 1
    2424:	90 e0       	ldi	r25, 0x00	; 0
    2426:	02 c0       	rjmp	.+4      	; 0x242c
    2428:	88 0f       	add	r24, r24
    242a:	99 1f       	adc	r25, r25
    242c:	2a 95       	dec	r18
    242e:	e2 f7       	brpl	.-8      	; 0x2428
    2430:	20 81       	ld	r18, Z
    2432:	28 2b       	or	r18, r24
    2434:	20 83       	st	Z, r18
    2436:	80 91 71 00 	lds	r24, 0x0071
    243a:	90 91 72 00 	lds	r25, 0x0072
    243e:	01 97       	sbiw	r24, 0x01	; 1
    2440:	90 93 72 00 	sts	0x0072, r25
    2444:	80 93 71 00 	sts	0x0071, r24
    2448:	08 95       	ret

0000244a <Writer$allocateAbort>:
    244a:	1f 93       	push	r17
    244c:	cf 93       	push	r28
    244e:	c8 2f       	mov	r28, r24
    2450:	80 91 70 00 	lds	r24, 0x0070
    2454:	99 27       	eor	r25, r25
    2456:	00 97       	sbiw	r24, 0x00	; 0
    2458:	19 f0       	breq	.+6      	; 0x2460
    245a:	04 97       	sbiw	r24, 0x04	; 4
    245c:	81 f0       	breq	.+32     	; 0x247e
    245e:	12 c0       	rjmp	.+36     	; 0x2484
    2460:	10 91 be 02 	lds	r17, 0x02BE
    2464:	6c 2f       	mov	r22, r28
    2466:	81 2f       	mov	r24, r17
    2468:	0e 94 89 12 	call	0x2512
    246c:	81 2f       	mov	r24, r17
    246e:	99 27       	eor	r25, r25
    2470:	89 2b       	or	r24, r25
    2472:	09 f0       	breq	.+2      	; 0x2476
    2474:	4b c0       	rjmp	.+150    	; 0x250c
    2476:	8c 2f       	mov	r24, r28
    2478:	0e 94 98 12 	call	0x2530
    247c:	47 c0       	rjmp	.+142    	; 0x250c
    247e:	0e 94 eb 08 	call	0x11d6
    2482:	44 c0       	rjmp	.+136    	; 0x250c
    2484:	10 91 be 02 	lds	r17, 0x02BE
    2488:	40 91 9a 01 	lds	r20, 0x019A
    248c:	50 91 9b 01 	lds	r21, 0x019B
    2490:	60 91 9c 01 	lds	r22, 0x019C
    2494:	70 91 9d 01 	lds	r23, 0x019D
    2498:	80 91 bf 02 	lds	r24, 0x02BF
    249c:	90 91 c0 02 	lds	r25, 0x02C0
    24a0:	a0 91 c1 02 	lds	r26, 0x02C1
    24a4:	b0 91 c2 02 	lds	r27, 0x02C2
    24a8:	48 1b       	sub	r20, r24
    24aa:	59 0b       	sbc	r21, r25
    24ac:	6a 0b       	sbc	r22, r26
    24ae:	7b 0b       	sbc	r23, r27
    24b0:	2c 2f       	mov	r18, r28
    24b2:	81 2f       	mov	r24, r17
    24b4:	0e 94 a8 0a 	call	0x1550
    24b8:	81 2f       	mov	r24, r17
    24ba:	99 27       	eor	r25, r25
    24bc:	89 2b       	or	r24, r25
    24be:	31 f5       	brne	.+76     	; 0x250c
    24c0:	c0 93 90 01 	sts	0x0190, r28
    24c4:	80 91 ac 02 	lds	r24, 0x02AC
    24c8:	99 27       	eor	r25, r25
    24ca:	81 30       	cpi	r24, 0x01	; 1
    24cc:	91 05       	cpc	r25, r1
    24ce:	59 f0       	breq	.+22     	; 0x24e6
    24d0:	82 30       	cpi	r24, 0x02	; 2
    24d2:	91 05       	cpc	r25, r1
    24d4:	1c f4       	brge	.+6      	; 0x24dc
    24d6:	89 2b       	or	r24, r25
    24d8:	21 f0       	breq	.+8      	; 0x24e2
    24da:	18 c0       	rjmp	.+48     	; 0x250c
    24dc:	02 97       	sbiw	r24, 0x02	; 2
    24de:	29 f0       	breq	.+10     	; 0x24ea
    24e0:	15 c0       	rjmp	.+42     	; 0x250c
    24e2:	80 e0       	ldi	r24, 0x00	; 0
    24e4:	0c c0       	rjmp	.+24     	; 0x24fe
    24e6:	83 e0       	ldi	r24, 0x03	; 3
    24e8:	0a c0       	rjmp	.+20     	; 0x24fe
    24ea:	80 91 7d 00 	lds	r24, 0x007D
    24ee:	99 27       	eor	r25, r25
    24f0:	81 30       	cpi	r24, 0x01	; 1
    24f2:	91 05       	cpc	r25, r1
    24f4:	19 f0       	breq	.+6      	; 0x24fc
    24f6:	02 97       	sbiw	r24, 0x02	; 2
    24f8:	29 f0       	breq	.+10     	; 0x2504
    24fa:	08 c0       	rjmp	.+16     	; 0x250c
    24fc:	84 e0       	ldi	r24, 0x04	; 4
    24fe:	0e 94 89 0f 	call	0x1f12
    2502:	04 c0       	rjmp	.+8      	; 0x250c
    2504:	60 e0       	ldi	r22, 0x00	; 0
    2506:	82 e0       	ldi	r24, 0x02	; 2
    2508:	0e 94 9f 0f 	call	0x1f3e
    250c:	cf 91       	pop	r28
    250e:	1f 91       	pop	r17
    2510:	08 95       	ret

00002512 <Write$IFileWrite$newDone>:
    2512:	46 2f       	mov	r20, r22
    2514:	88 23       	and	r24, r24
    2516:	59 f0       	breq	.+22     	; 0x252e
    2518:	66 23       	and	r22, r22
    251a:	19 f4       	brne	.+6      	; 0x2522
    251c:	0e 94 2f 0b 	call	0x165e
    2520:	08 95       	ret
    2522:	60 e0       	ldi	r22, 0x00	; 0
    2524:	70 e0       	ldi	r23, 0x00	; 0
    2526:	80 e0       	ldi	r24, 0x00	; 0
    2528:	90 e0       	ldi	r25, 0x00	; 0
    252a:	0e 94 3c 10 	call	0x2078
    252e:	08 95       	ret

00002530 <MetaData$MetaDataWriter$newDone>:
    2530:	e8 2f       	mov	r30, r24
    2532:	80 93 90 01 	sts	0x0190, r24
    2536:	88 23       	and	r24, r24
    2538:	e9 f4       	brne	.+58     	; 0x2574
    253a:	80 91 6c 00 	lds	r24, 0x006C
    253e:	90 91 6d 00 	lds	r25, 0x006D
    2542:	a0 91 6e 00 	lds	r26, 0x006E
    2546:	b0 91 6f 00 	lds	r27, 0x006F
    254a:	01 96       	adiw	r24, 0x01	; 1
    254c:	a1 1d       	adc	r26, r1
    254e:	b1 1d       	adc	r27, r1
    2550:	80 93 6c 00 	sts	0x006C, r24
    2554:	90 93 6d 00 	sts	0x006D, r25
    2558:	a0 93 6e 00 	sts	0x006E, r26
    255c:	b0 93 6f 00 	sts	0x006F, r27
    2560:	24 e0       	ldi	r18, 0x04	; 4
    2562:	30 e0       	ldi	r19, 0x00	; 0
    2564:	40 e0       	ldi	r20, 0x00	; 0
    2566:	50 e0       	ldi	r21, 0x00	; 0
    2568:	6c e6       	ldi	r22, 0x6C	; 108
    256a:	70 e0       	ldi	r23, 0x00	; 0
    256c:	8e 2f       	mov	r24, r30
    256e:	0e 94 84 0a 	call	0x1508
    2572:	08 95       	ret
    2574:	8a e2       	ldi	r24, 0x2A	; 42
    2576:	96 e0       	ldi	r25, 0x06	; 6
    2578:	90 93 a0 01 	sts	0x01A0, r25
    257c:	80 93 9f 01 	sts	0x019F, r24
    2580:	80 91 ac 02 	lds	r24, 0x02AC
    2584:	99 27       	eor	r25, r25
    2586:	81 30       	cpi	r24, 0x01	; 1
    2588:	91 05       	cpc	r25, r1
    258a:	59 f0       	breq	.+22     	; 0x25a2
    258c:	82 30       	cpi	r24, 0x02	; 2
    258e:	91 05       	cpc	r25, r1
    2590:	1c f4       	brge	.+6      	; 0x2598
    2592:	89 2b       	or	r24, r25
    2594:	21 f0       	breq	.+8      	; 0x259e
    2596:	08 95       	ret
    2598:	02 97       	sbiw	r24, 0x02	; 2
    259a:	39 f0       	breq	.+14     	; 0x25aa
    259c:	08 95       	ret
    259e:	80 e0       	ldi	r24, 0x00	; 0
    25a0:	01 c0       	rjmp	.+2      	; 0x25a4
    25a2:	83 e0       	ldi	r24, 0x03	; 3
    25a4:	0e 94 89 0f 	call	0x1f12
    25a8:	08 95       	ret
    25aa:	80 91 7d 00 	lds	r24, 0x007D
    25ae:	99 27       	eor	r25, r25
    25b0:	81 30       	cpi	r24, 0x01	; 1
    25b2:	91 05       	cpc	r25, r1
    25b4:	19 f0       	breq	.+6      	; 0x25bc
    25b6:	02 97       	sbiw	r24, 0x02	; 2
    25b8:	19 f0       	breq	.+6      	; 0x25c0
    25ba:	08 95       	ret
    25bc:	84 e0       	ldi	r24, 0x04	; 4
    25be:	f2 cf       	rjmp	.-28     	; 0x25a4
    25c0:	60 e0       	ldi	r22, 0x00	; 0
    25c2:	82 e0       	ldi	r24, 0x02	; 2
    25c4:	0e 94 9f 0f 	call	0x1f3e
    25c8:	08 95       	ret

000025ca <Coordinator$IFileCheck$notOpen>:
    25ca:	48 2f       	mov	r20, r24
    25cc:	59 2f       	mov	r21, r25
    25ce:	20 e0       	ldi	r18, 0x00	; 0
    25d0:	e5 e9       	ldi	r30, 0x95	; 149
    25d2:	f3 e0       	ldi	r31, 0x03	; 3
    25d4:	81 91       	ld	r24, Z+
    25d6:	91 91       	ld	r25, Z+
    25d8:	48 17       	cp	r20, r24
    25da:	59 07       	cpc	r21, r25
    25dc:	b9 f0       	breq	.+46     	; 0x260c
    25de:	2f 5f       	subi	r18, 0xFF	; 255
    25e0:	23 30       	cpi	r18, 0x03	; 3
    25e2:	c0 f3       	brcs	.-16     	; 0x25d4
    25e4:	81 e0       	ldi	r24, 0x01	; 1
    25e6:	90 e0       	ldi	r25, 0x00	; 0
    25e8:	28 2f       	mov	r18, r24
    25ea:	80 91 9f 01 	lds	r24, 0x019F
    25ee:	90 91 a0 01 	lds	r25, 0x01A0
    25f2:	48 17       	cp	r20, r24
    25f4:	59 07       	cpc	r21, r25
    25f6:	39 f0       	breq	.+14     	; 0x2606
    25f8:	80 e0       	ldi	r24, 0x00	; 0
    25fa:	90 e0       	ldi	r25, 0x00	; 0
    25fc:	01 96       	adiw	r24, 0x01	; 1
    25fe:	22 23       	and	r18, r18
    2600:	41 f0       	breq	.+16     	; 0x2612
    2602:	99 27       	eor	r25, r25
    2604:	08 c0       	rjmp	.+16     	; 0x2616
    2606:	80 e0       	ldi	r24, 0x00	; 0
    2608:	90 e0       	ldi	r25, 0x00	; 0
    260a:	f9 cf       	rjmp	.-14     	; 0x25fe
    260c:	80 e0       	ldi	r24, 0x00	; 0
    260e:	90 e0       	ldi	r25, 0x00	; 0
    2610:	eb cf       	rjmp	.-42     	; 0x25e8
    2612:	80 e0       	ldi	r24, 0x00	; 0
    2614:	90 e0       	ldi	r25, 0x00	; 0
    2616:	99 27       	eor	r25, r25
    2618:	08 95       	ret

0000261a <Dir$IFileMetaRead$nextFile>:
    261a:	0e 94 eb 08 	call	0x11d6
    261e:	10 92 59 03 	sts	0x0359, r1
    2622:	08 95       	ret

00002624 <Read$IFileMetaRead$nextFile>:
    2624:	ef 92       	push	r14
    2626:	ff 92       	push	r15
    2628:	1f 93       	push	r17
    262a:	cf 93       	push	r28
    262c:	df 93       	push	r29
    262e:	d9 2f       	mov	r29, r25
    2630:	c8 2f       	mov	r28, r24
    2632:	16 2f       	mov	r17, r22
    2634:	66 23       	and	r22, r22
    2636:	e1 f5       	brne	.+120    	; 0x26b0
    2638:	60 91 64 00 	lds	r22, 0x0064
    263c:	70 91 65 00 	lds	r23, 0x0065
    2640:	0e 94 1d 20 	call	0x403a
    2644:	e8 2e       	mov	r14, r24
    2646:	f9 2e       	mov	r15, r25
    2648:	89 2b       	or	r24, r25
    264a:	71 f5       	brne	.+92     	; 0x26a8
    264c:	8e 85       	ldd	r24, Y+14	; 0x0e
    264e:	9f 85       	ldd	r25, Y+15	; 0x0f
    2650:	0e 94 e5 12 	call	0x25ca
    2654:	88 23       	and	r24, r24
    2656:	49 f4       	brne	.+18     	; 0x266a
    2658:	0e 94 eb 08 	call	0x11d6
    265c:	80 91 89 01 	lds	r24, 0x0189
    2660:	99 27       	eor	r25, r25
    2662:	89 2b       	or	r24, r25
    2664:	a1 f5       	brne	.+104    	; 0x26ce
    2666:	84 e0       	ldi	r24, 0x04	; 4
    2668:	30 c0       	rjmp	.+96     	; 0x26ca
    266a:	30 91 89 01 	lds	r19, 0x0189
    266e:	e3 2f       	mov	r30, r19
    2670:	ff 27       	eor	r31, r31
    2672:	ee 0f       	add	r30, r30
    2674:	ff 1f       	adc	r31, r31
    2676:	eb 56       	subi	r30, 0x6B	; 107
    2678:	fc 4f       	sbci	r31, 0xFC	; 252
    267a:	8e 85       	ldd	r24, Y+14	; 0x0e
    267c:	9f 85       	ldd	r25, Y+15	; 0x0f
    267e:	80 83       	st	Z, r24
    2680:	91 83       	std	Z+1, r25	; 0x01
    2682:	8e 85       	ldd	r24, Y+14	; 0x0e
    2684:	9f 85       	ldd	r25, Y+15	; 0x0f
    2686:	21 2f       	mov	r18, r17
    2688:	5f 2d       	mov	r21, r15
    268a:	4e 2d       	mov	r20, r14
    268c:	68 2f       	mov	r22, r24
    268e:	79 2f       	mov	r23, r25
    2690:	83 2f       	mov	r24, r19
    2692:	0e 94 9a 13 	call	0x2734
    2696:	0e 94 eb 08 	call	0x11d6
    269a:	80 91 89 01 	lds	r24, 0x0189
    269e:	99 27       	eor	r25, r25
    26a0:	89 2b       	or	r24, r25
    26a2:	a9 f4       	brne	.+42     	; 0x26ce
    26a4:	81 2f       	mov	r24, r17
    26a6:	11 c0       	rjmp	.+34     	; 0x26ca
    26a8:	82 e0       	ldi	r24, 0x02	; 2
    26aa:	0e 94 89 0f 	call	0x1f12
    26ae:	0f c0       	rjmp	.+30     	; 0x26ce
    26b0:	61 30       	cpi	r22, 0x01	; 1
    26b2:	11 f0       	breq	.+4      	; 0x26b8
    26b4:	c6 2f       	mov	r28, r22
    26b6:	01 c0       	rjmp	.+2      	; 0x26ba
    26b8:	c5 e0       	ldi	r28, 0x05	; 5
    26ba:	0e 94 eb 08 	call	0x11d6
    26be:	80 91 89 01 	lds	r24, 0x0189
    26c2:	99 27       	eor	r25, r25
    26c4:	89 2b       	or	r24, r25
    26c6:	19 f4       	brne	.+6      	; 0x26ce
    26c8:	8c 2f       	mov	r24, r28
    26ca:	0e 94 6d 13 	call	0x26da
    26ce:	df 91       	pop	r29
    26d0:	cf 91       	pop	r28
    26d2:	1f 91       	pop	r17
    26d4:	ff 90       	pop	r15
    26d6:	ef 90       	pop	r14
    26d8:	08 95       	ret

000026da <TimingM$FileRead$opened>:
    26da:	80 91 79 00 	lds	r24, 0x0079
    26de:	90 91 7a 00 	lds	r25, 0x007A
    26e2:	a0 91 7b 00 	lds	r26, 0x007B
    26e6:	b0 91 7c 00 	lds	r27, 0x007C
    26ea:	81 50       	subi	r24, 0x01	; 1
    26ec:	91 40       	sbci	r25, 0x01	; 1
    26ee:	a0 40       	sbci	r26, 0x00	; 0
    26f0:	b0 40       	sbci	r27, 0x00	; 0
    26f2:	60 f0       	brcs	.+24     	; 0x270c
    26f4:	80 e0       	ldi	r24, 0x00	; 0
    26f6:	91 e0       	ldi	r25, 0x01	; 1
    26f8:	a0 e0       	ldi	r26, 0x00	; 0
    26fa:	b0 e0       	ldi	r27, 0x00	; 0
    26fc:	80 93 79 00 	sts	0x0079, r24
    2700:	90 93 7a 00 	sts	0x007A, r25
    2704:	a0 93 7b 00 	sts	0x007B, r26
    2708:	b0 93 7c 00 	sts	0x007C, r27
    270c:	80 91 79 00 	lds	r24, 0x0079
    2710:	90 91 7a 00 	lds	r25, 0x007A
    2714:	a0 91 7b 00 	lds	r26, 0x007B
    2718:	b0 91 7c 00 	lds	r27, 0x007C
    271c:	28 2f       	mov	r18, r24
    271e:	39 2f       	mov	r19, r25
    2720:	4a 2f       	mov	r20, r26
    2722:	5b 2f       	mov	r21, r27
    2724:	6c ea       	ldi	r22, 0xAC	; 172
    2726:	71 e0       	ldi	r23, 0x01	; 1
    2728:	80 e0       	ldi	r24, 0x00	; 0
    272a:	0e 94 74 09 	call	0x12e8
    272e:	81 e0       	ldi	r24, 0x01	; 1
    2730:	90 e0       	ldi	r25, 0x00	; 0
    2732:	08 95       	ret

00002734 <Reader$IFileRead$open>:
    2734:	99 27       	eor	r25, r25
    2736:	f9 2f       	mov	r31, r25
    2738:	e8 2f       	mov	r30, r24
    273a:	a3 e0       	ldi	r26, 0x03	; 3
    273c:	ee 0f       	add	r30, r30
    273e:	ff 1f       	adc	r31, r31
    2740:	aa 95       	dec	r26
    2742:	e1 f7       	brne	.-8      	; 0x273c
    2744:	e8 0f       	add	r30, r24
    2746:	f9 1f       	adc	r31, r25
    2748:	e3 59       	subi	r30, 0x93	; 147
    274a:	fc 4f       	sbci	r31, 0xFC	; 252
    274c:	60 83       	st	Z, r22
    274e:	71 83       	std	Z+1, r23	; 0x01
    2750:	46 83       	std	Z+6, r20	; 0x06
    2752:	57 83       	std	Z+7, r21	; 0x07
    2754:	81 e0       	ldi	r24, 0x01	; 1
    2756:	91 e0       	ldi	r25, 0x01	; 1
    2758:	84 83       	std	Z+4, r24	; 0x04
    275a:	95 83       	std	Z+5, r25	; 0x05
    275c:	20 87       	std	Z+8, r18	; 0x08
    275e:	08 95       	ret

00002760 <Rename$IFileMetaRead$nextFile>:
    2760:	cf 93       	push	r28
    2762:	df 93       	push	r29
    2764:	d9 2f       	mov	r29, r25
    2766:	c8 2f       	mov	r28, r24
    2768:	66 23       	and	r22, r22
    276a:	09 f0       	breq	.+2      	; 0x276e
    276c:	43 c0       	rjmp	.+134    	; 0x27f4
    276e:	60 91 b3 02 	lds	r22, 0x02B3
    2772:	70 91 b4 02 	lds	r23, 0x02B4
    2776:	0e 94 1d 20 	call	0x403a
    277a:	89 2b       	or	r24, r25
    277c:	b9 f4       	brne	.+46     	; 0x27ac
    277e:	8e 85       	ldd	r24, Y+14	; 0x0e
    2780:	9f 85       	ldd	r25, Y+15	; 0x0f
    2782:	0e 94 e5 12 	call	0x25ca
    2786:	88 23       	and	r24, r24
    2788:	49 f1       	breq	.+82     	; 0x27dc
    278a:	80 91 bb 00 	lds	r24, 0x00BB
    278e:	90 91 bc 00 	lds	r25, 0x00BC
    2792:	2e 85       	ldd	r18, Y+14	; 0x0e
    2794:	3f 85       	ldd	r19, Y+15	; 0x0f
    2796:	53 2f       	mov	r21, r19
    2798:	42 2f       	mov	r20, r18
    279a:	68 2f       	mov	r22, r24
    279c:	79 2f       	mov	r23, r25
    279e:	81 e0       	ldi	r24, 0x01	; 1
    27a0:	0e 94 56 0a 	call	0x14ac
    27a4:	81 e0       	ldi	r24, 0x01	; 1
    27a6:	80 93 82 00 	sts	0x0082, r24
    27aa:	30 c0       	rjmp	.+96     	; 0x280c
    27ac:	60 91 bb 00 	lds	r22, 0x00BB
    27b0:	70 91 bc 00 	lds	r23, 0x00BC
    27b4:	8c 2f       	mov	r24, r28
    27b6:	9d 2f       	mov	r25, r29
    27b8:	0e 94 1d 20 	call	0x403a
    27bc:	4e 85       	ldd	r20, Y+14	; 0x0e
    27be:	5f 85       	ldd	r21, Y+15	; 0x0f
    27c0:	89 2b       	or	r24, r25
    27c2:	31 f0       	breq	.+12     	; 0x27d0
    27c4:	6c 2f       	mov	r22, r28
    27c6:	7d 2f       	mov	r23, r29
    27c8:	81 e0       	ldi	r24, 0x01	; 1
    27ca:	0e 94 56 0a 	call	0x14ac
    27ce:	1e c0       	rjmp	.+60     	; 0x280c
    27d0:	95 2f       	mov	r25, r21
    27d2:	84 2f       	mov	r24, r20
    27d4:	0e 94 e5 12 	call	0x25ca
    27d8:	88 23       	and	r24, r24
    27da:	11 f4       	brne	.+4      	; 0x27e0
    27dc:	64 e0       	ldi	r22, 0x04	; 4
    27de:	13 c0       	rjmp	.+38     	; 0x2806
    27e0:	8e 85       	ldd	r24, Y+14	; 0x0e
    27e2:	9f 85       	ldd	r25, Y+15	; 0x0f
    27e4:	90 93 20 03 	sts	0x0320, r25
    27e8:	80 93 1f 03 	sts	0x031F, r24
    27ec:	83 e0       	ldi	r24, 0x03	; 3
    27ee:	0e 94 89 0f 	call	0x1f12
    27f2:	0c c0       	rjmp	.+24     	; 0x280c
    27f4:	61 30       	cpi	r22, 0x01	; 1
    27f6:	39 f4       	brne	.+14     	; 0x2806
    27f8:	80 91 82 00 	lds	r24, 0x0082
    27fc:	88 23       	and	r24, r24
    27fe:	11 f0       	breq	.+4      	; 0x2804
    2800:	60 e0       	ldi	r22, 0x00	; 0
    2802:	01 c0       	rjmp	.+2      	; 0x2806
    2804:	65 e0       	ldi	r22, 0x05	; 5
    2806:	81 e0       	ldi	r24, 0x01	; 1
    2808:	0e 94 9f 0f 	call	0x1f3e
    280c:	df 91       	pop	r29
    280e:	cf 91       	pop	r28
    2810:	08 95       	ret

00002812 <Write$nextFile_open>:
    2812:	ff 92       	push	r15
    2814:	0f 93       	push	r16
    2816:	1f 93       	push	r17
    2818:	cf 93       	push	r28
    281a:	df 93       	push	r29
    281c:	d9 2f       	mov	r29, r25
    281e:	c8 2f       	mov	r28, r24
    2820:	f6 2e       	mov	r15, r22
    2822:	66 23       	and	r22, r22
    2824:	c9 f5       	brne	.+114    	; 0x2898
    2826:	60 91 ad 02 	lds	r22, 0x02AD
    282a:	70 91 ae 02 	lds	r23, 0x02AE
    282e:	0e 94 1d 20 	call	0x403a
    2832:	08 2f       	mov	r16, r24
    2834:	19 2f       	mov	r17, r25
    2836:	89 2b       	or	r24, r25
    2838:	59 f5       	brne	.+86     	; 0x2890
    283a:	8e 85       	ldd	r24, Y+14	; 0x0e
    283c:	9f 85       	ldd	r25, Y+15	; 0x0f
    283e:	0e 94 e5 12 	call	0x25ca
    2842:	88 23       	and	r24, r24
    2844:	11 f4       	brne	.+4      	; 0x284a
    2846:	44 e0       	ldi	r20, 0x04	; 4
    2848:	47 c0       	rjmp	.+142    	; 0x28d8
    284a:	90 91 25 03 	lds	r25, 0x0325
    284e:	2e 85       	ldd	r18, Y+14	; 0x0e
    2850:	3f 85       	ldd	r19, Y+15	; 0x0f
    2852:	81 e0       	ldi	r24, 0x01	; 1
    2854:	80 93 70 00 	sts	0x0070, r24
    2858:	90 93 be 02 	sts	0x02BE, r25
    285c:	89 2f       	mov	r24, r25
    285e:	99 27       	eor	r25, r25
    2860:	6d e0       	ldi	r22, 0x0D	; 13
    2862:	70 e0       	ldi	r23, 0x00	; 0
    2864:	0e 94 29 20 	call	0x4052
    2868:	f9 2f       	mov	r31, r25
    286a:	e8 2f       	mov	r30, r24
    286c:	e1 56       	subi	r30, 0x61	; 97
    286e:	fe 4f       	sbci	r31, 0xFE	; 254
    2870:	22 83       	std	Z+2, r18	; 0x02
    2872:	33 83       	std	Z+3, r19	; 0x03
    2874:	20 83       	st	Z, r18
    2876:	31 83       	std	Z+1, r19	; 0x01
    2878:	02 87       	std	Z+10, r16	; 0x0a
    287a:	13 87       	std	Z+11, r17	; 0x0b
    287c:	06 83       	std	Z+6, r16	; 0x06
    287e:	17 83       	std	Z+7, r17	; 0x07
    2880:	f4 86       	std	Z+12, r15	; 0x0c
    2882:	4f 2d       	mov	r20, r15
    2884:	73 2f       	mov	r23, r19
    2886:	62 2f       	mov	r22, r18
    2888:	83 e0       	ldi	r24, 0x03	; 3
    288a:	0e 94 7d 10 	call	0x20fa
    288e:	2a c0       	rjmp	.+84     	; 0x28e4
    2890:	84 e0       	ldi	r24, 0x04	; 4
    2892:	0e 94 89 0f 	call	0x1f12
    2896:	26 c0       	rjmp	.+76     	; 0x28e4
    2898:	81 e0       	ldi	r24, 0x01	; 1
    289a:	68 17       	cp	r22, r24
    289c:	e1 f4       	brne	.+56     	; 0x28d6
    289e:	80 91 93 01 	lds	r24, 0x0193
    28a2:	81 ff       	sbrs	r24, 1
    28a4:	16 c0       	rjmp	.+44     	; 0x28d2
    28a6:	80 91 71 00 	lds	r24, 0x0071
    28aa:	90 91 72 00 	lds	r25, 0x0072
    28ae:	20 91 8a 01 	lds	r18, 0x018A
    28b2:	30 91 8b 01 	lds	r19, 0x018B
    28b6:	82 1b       	sub	r24, r18
    28b8:	93 0b       	sbc	r25, r19
    28ba:	03 97       	sbiw	r24, 0x03	; 3
    28bc:	10 f4       	brcc	.+4      	; 0x28c2
    28be:	42 e0       	ldi	r20, 0x02	; 2
    28c0:	0b c0       	rjmp	.+22     	; 0x28d8
    28c2:	60 93 7d 00 	sts	0x007D, r22
    28c6:	80 91 25 03 	lds	r24, 0x0325
    28ca:	60 e0       	ldi	r22, 0x00	; 0
    28cc:	0e 94 78 14 	call	0x28f0
    28d0:	09 c0       	rjmp	.+18     	; 0x28e4
    28d2:	b5 e0       	ldi	r27, 0x05	; 5
    28d4:	fb 2e       	mov	r15, r27
    28d6:	4f 2d       	mov	r20, r15
    28d8:	60 e0       	ldi	r22, 0x00	; 0
    28da:	70 e0       	ldi	r23, 0x00	; 0
    28dc:	80 e0       	ldi	r24, 0x00	; 0
    28de:	90 e0       	ldi	r25, 0x00	; 0
    28e0:	0e 94 3c 10 	call	0x2078
    28e4:	df 91       	pop	r29
    28e6:	cf 91       	pop	r28
    28e8:	1f 91       	pop	r17
    28ea:	0f 91       	pop	r16
    28ec:	ff 90       	pop	r15
    28ee:	08 95       	ret

000028f0 <Writer$IFileWrite$new>:
    28f0:	26 2f       	mov	r18, r22
    28f2:	10 92 70 00 	sts	0x0070, r1
    28f6:	80 93 be 02 	sts	0x02BE, r24
    28fa:	99 27       	eor	r25, r25
    28fc:	6d e0       	ldi	r22, 0x0D	; 13
    28fe:	70 e0       	ldi	r23, 0x00	; 0
    2900:	0e 94 29 20 	call	0x4052
    2904:	f9 2f       	mov	r31, r25
    2906:	e8 2f       	mov	r30, r24
    2908:	e1 56       	subi	r30, 0x61	; 97
    290a:	fe 4f       	sbci	r31, 0xFE	; 254
    290c:	12 86       	std	Z+10, r1	; 0x0a
    290e:	13 86       	std	Z+11, r1	; 0x0b
    2910:	10 86       	std	Z+8, r1	; 0x08
    2912:	11 86       	std	Z+9, r1	; 0x09
    2914:	24 87       	std	Z+12, r18	; 0x0c
    2916:	16 82       	std	Z+6, r1	; 0x06
    2918:	17 82       	std	Z+7, r1	; 0x07
    291a:	81 e0       	ldi	r24, 0x01	; 1
    291c:	90 e0       	ldi	r25, 0x00	; 0
    291e:	0e 94 99 11 	call	0x2332
    2922:	08 95       	ret

00002924 <Write$nextFile_create>:
    2924:	f9 2f       	mov	r31, r25
    2926:	e8 2f       	mov	r30, r24
    2928:	66 23       	and	r22, r22
    292a:	39 f4       	brne	.+14     	; 0x293a
    292c:	86 85       	ldd	r24, Z+14	; 0x0e
    292e:	97 85       	ldd	r25, Z+15	; 0x0f
    2930:	48 2f       	mov	r20, r24
    2932:	59 2f       	mov	r21, r25
    2934:	6e 2f       	mov	r22, r30
    2936:	7f 2f       	mov	r23, r31
    2938:	1a c0       	rjmp	.+52     	; 0x296e
    293a:	61 30       	cpi	r22, 0x01	; 1
    293c:	e1 f4       	brne	.+56     	; 0x2976
    293e:	a2 e0       	ldi	r26, 0x02	; 2
    2940:	a0 93 7d 00 	sts	0x007D, r26
    2944:	20 91 ad 02 	lds	r18, 0x02AD
    2948:	30 91 ae 02 	lds	r19, 0x02AE
    294c:	80 91 25 03 	lds	r24, 0x0325
    2950:	99 27       	eor	r25, r25
    2952:	6d e0       	ldi	r22, 0x0D	; 13
    2954:	70 e0       	ldi	r23, 0x00	; 0
    2956:	0e 94 29 20 	call	0x4052
    295a:	f9 2f       	mov	r31, r25
    295c:	e8 2f       	mov	r30, r24
    295e:	e1 56       	subi	r30, 0x61	; 97
    2960:	fe 4f       	sbci	r31, 0xFE	; 254
    2962:	80 81       	ld	r24, Z
    2964:	91 81       	ldd	r25, Z+1	; 0x01
    2966:	48 2f       	mov	r20, r24
    2968:	59 2f       	mov	r21, r25
    296a:	73 2f       	mov	r23, r19
    296c:	62 2f       	mov	r22, r18
    296e:	82 e0       	ldi	r24, 0x02	; 2
    2970:	0e 94 56 0a 	call	0x14ac
    2974:	08 95       	ret
    2976:	82 e0       	ldi	r24, 0x02	; 2
    2978:	0e 94 9f 0f 	call	0x1f3e
    297c:	08 95       	ret

0000297e <ScanFS$IFileMetaRead$nextFile>:
    297e:	f9 2f       	mov	r31, r25
    2980:	e8 2f       	mov	r30, r24
    2982:	80 91 9c 00 	lds	r24, 0x009C
    2986:	90 91 9d 00 	lds	r25, 0x009D
    298a:	8a 52       	subi	r24, 0x2A	; 42
    298c:	96 40       	sbci	r25, 0x06	; 6
    298e:	11 f4       	brne	.+4      	; 0x2994
    2990:	83 e0       	ldi	r24, 0x03	; 3
    2992:	1a c0       	rjmp	.+52     	; 0x29c8
    2994:	66 23       	and	r22, r22
    2996:	71 f4       	brne	.+28     	; 0x29b4
    2998:	80 91 83 01 	lds	r24, 0x0183
    299c:	90 91 84 01 	lds	r25, 0x0184
    29a0:	01 96       	adiw	r24, 0x01	; 1
    29a2:	90 93 84 01 	sts	0x0184, r25
    29a6:	80 93 83 01 	sts	0x0183, r24
    29aa:	86 85       	ldd	r24, Z+14	; 0x0e
    29ac:	97 85       	ldd	r25, Z+15	; 0x0f
    29ae:	0e 94 0f 15 	call	0x2a1e
    29b2:	08 95       	ret
    29b4:	61 30       	cpi	r22, 0x01	; 1
    29b6:	09 f4       	brne	.+2      	; 0x29ba
    29b8:	60 e0       	ldi	r22, 0x00	; 0
    29ba:	8a e2       	ldi	r24, 0x2A	; 42
    29bc:	96 e0       	ldi	r25, 0x06	; 6
    29be:	90 93 9d 00 	sts	0x009D, r25
    29c2:	80 93 9c 00 	sts	0x009C, r24
    29c6:	86 2f       	mov	r24, r22
    29c8:	0e 94 e7 14 	call	0x29ce
    29cc:	08 95       	ret

000029ce <MetaData$IFileScan$scanned>:
    29ce:	88 23       	and	r24, r24
    29d0:	f1 f0       	breq	.+60     	; 0x2a0e
    29d2:	80 e0       	ldi	r24, 0x00	; 0
    29d4:	96 e0       	ldi	r25, 0x06	; 6
    29d6:	90 93 72 00 	sts	0x0072, r25
    29da:	80 93 71 00 	sts	0x0071, r24
    29de:	10 92 8b 01 	sts	0x018B, r1
    29e2:	10 92 8a 01 	sts	0x018A, r1
    29e6:	e3 ec       	ldi	r30, 0xC3	; 195
    29e8:	f0 e0       	ldi	r31, 0x00	; 0
    29ea:	8f eb       	ldi	r24, 0xBF	; 191
    29ec:	90 e0       	ldi	r25, 0x00	; 0
    29ee:	11 92       	st	Z+, r1
    29f0:	01 97       	sbiw	r24, 0x01	; 1
    29f2:	2f ef       	ldi	r18, 0xFF	; 255
    29f4:	8f 3f       	cpi	r24, 0xFF	; 255
    29f6:	92 07       	cpc	r25, r18
    29f8:	d1 f7       	brne	.-12     	; 0x29ee
    29fa:	8a e2       	ldi	r24, 0x2A	; 42
    29fc:	96 e0       	ldi	r25, 0x06	; 6
    29fe:	90 93 1a 03 	sts	0x031A, r25
    2a02:	80 93 19 03 	sts	0x0319, r24
    2a06:	10 92 84 01 	sts	0x0184, r1
    2a0a:	10 92 83 01 	sts	0x0183, r1
    2a0e:	0e 94 eb 08 	call	0x11d6
    2a12:	0e 94 1f 10 	call	0x203e
    2a16:	80 e0       	ldi	r24, 0x00	; 0
    2a18:	0e 94 f0 08 	call	0x11e0
    2a1c:	08 95       	ret

00002a1e <ScanFS$scanFile>:
    2a1e:	cf 93       	push	r28
    2a20:	df 93       	push	r29
    2a22:	90 93 9d 00 	sts	0x009D, r25
    2a26:	80 93 9c 00 	sts	0x009C, r24
    2a2a:	0e 94 38 15 	call	0x2a70
    2a2e:	c8 2f       	mov	r28, r24
    2a30:	dd 27       	eor	r29, r29
    2a32:	cc 23       	and	r28, r28
    2a34:	51 f0       	breq	.+20     	; 0x2a4a
    2a36:	8a e2       	ldi	r24, 0x2A	; 42
    2a38:	96 e0       	ldi	r25, 0x06	; 6
    2a3a:	90 93 9d 00 	sts	0x009D, r25
    2a3e:	80 93 9c 00 	sts	0x009C, r24
    2a42:	83 e0       	ldi	r24, 0x03	; 3
    2a44:	0e 94 e7 14 	call	0x29ce
    2a48:	10 c0       	rjmp	.+32     	; 0x2a6a
    2a4a:	80 91 9c 00 	lds	r24, 0x009C
    2a4e:	90 91 9d 00 	lds	r25, 0x009D
    2a52:	0e 94 04 12 	call	0x2408
    2a56:	80 91 9c 00 	lds	r24, 0x009C
    2a5a:	90 91 9d 00 	lds	r25, 0x009D
    2a5e:	4c 2f       	mov	r20, r28
    2a60:	68 2f       	mov	r22, r24
    2a62:	79 2f       	mov	r23, r25
    2a64:	85 e0       	ldi	r24, 0x05	; 5
    2a66:	0e 94 7d 10 	call	0x20fa
    2a6a:	df 91       	pop	r29
    2a6c:	cf 91       	pop	r28
    2a6e:	08 95       	ret

00002a70 <FreeList$IFileFree$inuse>:
    2a70:	28 2f       	mov	r18, r24
    2a72:	39 2f       	mov	r19, r25
    2a74:	40 e0       	ldi	r20, 0x00	; 0
    2a76:	50 e0       	ldi	r21, 0x00	; 0
    2a78:	86 e0       	ldi	r24, 0x06	; 6
    2a7a:	20 30       	cpi	r18, 0x00	; 0
    2a7c:	38 07       	cpc	r19, r24
    2a7e:	a8 f4       	brcc	.+42     	; 0x2aaa
    2a80:	f3 2f       	mov	r31, r19
    2a82:	e2 2f       	mov	r30, r18
    2a84:	83 e0       	ldi	r24, 0x03	; 3
    2a86:	f6 95       	lsr	r31
    2a88:	e7 95       	ror	r30
    2a8a:	8a 95       	dec	r24
    2a8c:	e1 f7       	brne	.-8      	; 0x2a86
    2a8e:	ed 53       	subi	r30, 0x3D	; 61
    2a90:	ff 4f       	sbci	r31, 0xFF	; 255
    2a92:	27 70       	andi	r18, 0x07	; 7
    2a94:	30 70       	andi	r19, 0x00	; 0
    2a96:	81 e0       	ldi	r24, 0x01	; 1
    2a98:	90 e0       	ldi	r25, 0x00	; 0
    2a9a:	02 c0       	rjmp	.+4      	; 0x2aa0
    2a9c:	88 0f       	add	r24, r24
    2a9e:	99 1f       	adc	r25, r25
    2aa0:	2a 95       	dec	r18
    2aa2:	e2 f7       	brpl	.-8      	; 0x2a9c
    2aa4:	20 81       	ld	r18, Z
    2aa6:	28 23       	and	r18, r24
    2aa8:	11 f0       	breq	.+4      	; 0x2aae
    2aaa:	41 e0       	ldi	r20, 0x01	; 1
    2aac:	50 e0       	ldi	r21, 0x00	; 0
    2aae:	95 2f       	mov	r25, r21
    2ab0:	84 2f       	mov	r24, r20
    2ab2:	08 95       	ret

00002ab4 <LocateRoot$locateNextBlock>:
    2ab4:	0f 93       	push	r16
    2ab6:	1f 93       	push	r17
    2ab8:	60 91 51 03 	lds	r22, 0x0351
    2abc:	70 91 52 03 	lds	r23, 0x0352
    2ac0:	6f 5f       	subi	r22, 0xFF	; 255
    2ac2:	7f 4f       	sbci	r23, 0xFF	; 255
    2ac4:	70 93 52 03 	sts	0x0352, r23
    2ac8:	60 93 51 03 	sts	0x0351, r22
    2acc:	86 e0       	ldi	r24, 0x06	; 6
    2ace:	60 30       	cpi	r22, 0x00	; 0
    2ad0:	78 07       	cpc	r23, r24
    2ad2:	09 f0       	breq	.+2      	; 0x2ad6
    2ad4:	4d c0       	rjmp	.+154    	; 0x2b70
    2ad6:	80 91 6c 00 	lds	r24, 0x006C
    2ada:	90 91 6d 00 	lds	r25, 0x006D
    2ade:	a0 91 6e 00 	lds	r26, 0x006E
    2ae2:	b0 91 6f 00 	lds	r27, 0x006F
    2ae6:	00 97       	sbiw	r24, 0x00	; 0
    2ae8:	a1 05       	cpc	r26, r1
    2aea:	b1 05       	cpc	r27, r1
    2aec:	11 f5       	brne	.+68     	; 0x2b32
    2aee:	8a e2       	ldi	r24, 0x2A	; 42
    2af0:	96 e0       	ldi	r25, 0x06	; 6
    2af2:	90 93 1a 03 	sts	0x031A, r25
    2af6:	80 93 19 03 	sts	0x0319, r24
    2afa:	10 92 84 01 	sts	0x0184, r1
    2afe:	10 92 83 01 	sts	0x0183, r1
    2b02:	89 e4       	ldi	r24, 0x49	; 73
    2b04:	92 e4       	ldi	r25, 0x42	; 66
    2b06:	a0 e0       	ldi	r26, 0x00	; 0
    2b08:	b0 e0       	ldi	r27, 0x00	; 0
    2b0a:	80 93 6c 00 	sts	0x006C, r24
    2b0e:	90 93 6d 00 	sts	0x006D, r25
    2b12:	a0 93 6e 00 	sts	0x006E, r26
    2b16:	b0 93 6f 00 	sts	0x006F, r27
    2b1a:	80 e0       	ldi	r24, 0x00	; 0
    2b1c:	90 e0       	ldi	r25, 0x00	; 0
    2b1e:	0e 94 cd 15 	call	0x2b9a
    2b22:	0e 94 eb 08 	call	0x11d6
    2b26:	0e 94 1f 10 	call	0x203e
    2b2a:	80 e0       	ldi	r24, 0x00	; 0
    2b2c:	0e 94 f0 08 	call	0x11e0
    2b30:	31 c0       	rjmp	.+98     	; 0x2b94
    2b32:	00 91 19 03 	lds	r16, 0x0319
    2b36:	10 91 1a 03 	lds	r17, 0x031A
    2b3a:	91 2f       	mov	r25, r17
    2b3c:	80 2f       	mov	r24, r16
    2b3e:	0e 94 cd 15 	call	0x2b9a
    2b42:	91 2f       	mov	r25, r17
    2b44:	80 2f       	mov	r24, r16
    2b46:	0e 94 04 12 	call	0x2408
    2b4a:	15 e0       	ldi	r17, 0x05	; 5
    2b4c:	10 93 6c 03 	sts	0x036C, r17
    2b50:	80 91 19 03 	lds	r24, 0x0319
    2b54:	90 91 1a 03 	lds	r25, 0x031A
    2b58:	21 e0       	ldi	r18, 0x01	; 1
    2b5a:	44 e0       	ldi	r20, 0x04	; 4
    2b5c:	50 e0       	ldi	r21, 0x00	; 0
    2b5e:	68 2f       	mov	r22, r24
    2b60:	79 2f       	mov	r23, r25
    2b62:	82 e0       	ldi	r24, 0x02	; 2
    2b64:	0e 94 9a 13 	call	0x2734
    2b68:	81 2f       	mov	r24, r17
    2b6a:	0e 94 89 0f 	call	0x1f12
    2b6e:	12 c0       	rjmp	.+36     	; 0x2b94
    2b70:	10 92 6a 03 	sts	0x036A, r1
    2b74:	83 e0       	ldi	r24, 0x03	; 3
    2b76:	80 93 9e 01 	sts	0x019E, r24
    2b7a:	70 93 c2 00 	sts	0x00C2, r23
    2b7e:	60 93 c1 00 	sts	0x00C1, r22
    2b82:	01 e0       	ldi	r16, 0x01	; 1
    2b84:	10 e0       	ldi	r17, 0x00	; 0
    2b86:	25 eb       	ldi	r18, 0xB5	; 181
    2b88:	32 e0       	ldi	r19, 0x02	; 2
    2b8a:	42 e0       	ldi	r20, 0x02	; 2
    2b8c:	51 e0       	ldi	r21, 0x01	; 1
    2b8e:	81 e0       	ldi	r24, 0x01	; 1
    2b90:	0e 94 2f 04 	call	0x85e
    2b94:	1f 91       	pop	r17
    2b96:	0f 91       	pop	r16
    2b98:	08 95       	ret

00002b9a <FreeList$IFileFree$setFreePtr>:
    2b9a:	90 93 54 03 	sts	0x0354, r25
    2b9e:	80 93 53 03 	sts	0x0353, r24
    2ba2:	08 95       	ret

00002ba4 <Blocks$metaReadDone>:
    2ba4:	cf 92       	push	r12
    2ba6:	df 92       	push	r13
    2ba8:	ef 92       	push	r14
    2baa:	ff 92       	push	r15
    2bac:	0f 93       	push	r16
    2bae:	1f 93       	push	r17
    2bb0:	cf 93       	push	r28
    2bb2:	df 93       	push	r29
    2bb4:	c8 2f       	mov	r28, r24
    2bb6:	88 eb       	ldi	r24, 0xB8	; 184
    2bb8:	92 e0       	ldi	r25, 0x02	; 2
    2bba:	0e 94 00 0c 	call	0x1800
    2bbe:	98 2f       	mov	r25, r24
    2bc0:	80 91 bb 02 	lds	r24, 0x02BB
    2bc4:	89 17       	cp	r24, r25
    2bc6:	19 f0       	breq	.+6      	; 0x2bce
    2bc8:	cc 23       	and	r28, r28
    2bca:	09 f4       	brne	.+2      	; 0x2bce
    2bcc:	c3 e0       	ldi	r28, 0x03	; 3
    2bce:	cc 23       	and	r28, r28
    2bd0:	61 f5       	brne	.+88     	; 0x2c2a
    2bd2:	80 91 6a 03 	lds	r24, 0x036A
    2bd6:	83 30       	cpi	r24, 0x03	; 3
    2bd8:	41 f5       	brne	.+80     	; 0x2c2a
    2bda:	60 91 c1 00 	lds	r22, 0x00C1
    2bde:	70 91 c2 00 	lds	r23, 0x00C2
    2be2:	80 91 b9 02 	lds	r24, 0x02B9
    2be6:	88 1f       	adc	r24, r24
    2be8:	88 27       	eor	r24, r24
    2bea:	88 1f       	adc	r24, r24
    2bec:	20 91 ba 02 	lds	r18, 0x02BA
    2bf0:	92 2f       	mov	r25, r18
    2bf2:	99 0f       	add	r25, r25
    2bf4:	09 2f       	mov	r16, r25
    2bf6:	08 2b       	or	r16, r24
    2bf8:	12 2f       	mov	r17, r18
    2bfa:	11 1f       	adc	r17, r17
    2bfc:	11 27       	eor	r17, r17
    2bfe:	11 1f       	adc	r17, r17
    2c00:	01 15       	cp	r16, r1
    2c02:	11 05       	cpc	r17, r1
    2c04:	51 f4       	brne	.+20     	; 0x2c1a
    2c06:	82 e0       	ldi	r24, 0x02	; 2
    2c08:	80 93 9f 00 	sts	0x009F, r24
    2c0c:	10 93 b7 02 	sts	0x02B7, r17
    2c10:	00 93 b6 02 	sts	0x02B6, r16
    2c14:	8c e3       	ldi	r24, 0x3C	; 60
    2c16:	9e e1       	ldi	r25, 0x1E	; 30
    2c18:	46 c1       	rjmp	.+652    	; 0x2ea6
    2c1a:	20 e0       	ldi	r18, 0x00	; 0
    2c1c:	30 e0       	ldi	r19, 0x00	; 0
    2c1e:	53 2f       	mov	r21, r19
    2c20:	42 2f       	mov	r20, r18
    2c22:	82 e0       	ldi	r24, 0x02	; 2
    2c24:	0e 94 2f 04 	call	0x85e
    2c28:	57 c2       	rjmp	.+1198   	; 0x30d8
    2c2a:	30 91 9e 01 	lds	r19, 0x019E
    2c2e:	20 91 b8 02 	lds	r18, 0x02B8
    2c32:	26 95       	lsr	r18
    2c34:	26 95       	lsr	r18
    2c36:	26 95       	lsr	r18
    2c38:	80 91 b9 02 	lds	r24, 0x02B9
    2c3c:	98 2f       	mov	r25, r24
    2c3e:	92 95       	swap	r25
    2c40:	99 0f       	add	r25, r25
    2c42:	90 7e       	andi	r25, 0xE0	; 224
    2c44:	09 2f       	mov	r16, r25
    2c46:	02 2b       	or	r16, r18
    2c48:	86 95       	lsr	r24
    2c4a:	86 95       	lsr	r24
    2c4c:	86 95       	lsr	r24
    2c4e:	18 2f       	mov	r17, r24
    2c50:	1f 70       	andi	r17, 0x0F	; 15
    2c52:	82 95       	swap	r24
    2c54:	8f 70       	andi	r24, 0x0F	; 15
    2c56:	20 91 ba 02 	lds	r18, 0x02BA
    2c5a:	92 2f       	mov	r25, r18
    2c5c:	99 0f       	add	r25, r25
    2c5e:	e9 2e       	mov	r14, r25
    2c60:	e8 2a       	or	r14, r24
    2c62:	f2 2e       	mov	r15, r18
    2c64:	ff 1c       	adc	r15, r15
    2c66:	ff 24       	eor	r15, r15
    2c68:	ff 1c       	adc	r15, r15
    2c6a:	83 2f       	mov	r24, r19
    2c6c:	99 27       	eor	r25, r25
    2c6e:	82 30       	cpi	r24, 0x02	; 2
    2c70:	91 05       	cpc	r25, r1
    2c72:	09 f4       	brne	.+2      	; 0x2c76
    2c74:	78 c0       	rjmp	.+240    	; 0x2d66
    2c76:	83 30       	cpi	r24, 0x03	; 3
    2c78:	91 05       	cpc	r25, r1
    2c7a:	2c f4       	brge	.+10     	; 0x2c86
    2c7c:	00 97       	sbiw	r24, 0x00	; 0
    2c7e:	79 f0       	breq	.+30     	; 0x2c9e
    2c80:	01 97       	sbiw	r24, 0x01	; 1
    2c82:	a9 f0       	breq	.+42     	; 0x2cae
    2c84:	29 c2       	rjmp	.+1106   	; 0x30d8
    2c86:	84 30       	cpi	r24, 0x04	; 4
    2c88:	91 05       	cpc	r25, r1
    2c8a:	09 f4       	brne	.+2      	; 0x2c8e
    2c8c:	fa c1       	rjmp	.+1012   	; 0x3082
    2c8e:	84 30       	cpi	r24, 0x04	; 4
    2c90:	91 05       	cpc	r25, r1
    2c92:	0c f4       	brge	.+2      	; 0x2c96
    2c94:	93 c0       	rjmp	.+294    	; 0x2dbc
    2c96:	05 97       	sbiw	r24, 0x05	; 5
    2c98:	09 f4       	brne	.+2      	; 0x2c9c
    2c9a:	10 c2       	rjmp	.+1056   	; 0x30bc
    2c9c:	1d c2       	rjmp	.+1082   	; 0x30d8
    2c9e:	4c 2f       	mov	r20, r28
    2ca0:	7f 2d       	mov	r23, r15
    2ca2:	6e 2d       	mov	r22, r14
    2ca4:	91 2f       	mov	r25, r17
    2ca6:	80 2f       	mov	r24, r16
    2ca8:	0e 94 e0 0f 	call	0x1fc0
    2cac:	15 c2       	rjmp	.+1066   	; 0x30d8
    2cae:	cc 23       	and	r28, r28
    2cb0:	89 f5       	brne	.+98     	; 0x2d14
    2cb2:	80 91 9c 00 	lds	r24, 0x009C
    2cb6:	90 91 9d 00 	lds	r25, 0x009D
    2cba:	8a 52       	subi	r24, 0x2A	; 42
    2cbc:	96 40       	sbci	r25, 0x06	; 6
    2cbe:	a9 f0       	breq	.+42     	; 0x2cea
    2cc0:	86 e0       	ldi	r24, 0x06	; 6
    2cc2:	0a 32       	cpi	r16, 0x2A	; 42
    2cc4:	18 07       	cpc	r17, r24
    2cc6:	89 f0       	breq	.+34     	; 0x2cea
    2cc8:	91 2f       	mov	r25, r17
    2cca:	80 2f       	mov	r24, r16
    2ccc:	0e 94 38 15 	call	0x2a70
    2cd0:	88 23       	and	r24, r24
    2cd2:	39 f0       	breq	.+14     	; 0x2ce2
    2cd4:	8a e2       	ldi	r24, 0x2A	; 42
    2cd6:	96 e0       	ldi	r25, 0x06	; 6
    2cd8:	90 93 9d 00 	sts	0x009D, r25
    2cdc:	80 93 9c 00 	sts	0x009C, r24
    2ce0:	04 c0       	rjmp	.+8      	; 0x2cea
    2ce2:	91 2f       	mov	r25, r17
    2ce4:	80 2f       	mov	r24, r16
    2ce6:	0e 94 04 12 	call	0x2408
    2cea:	80 91 97 00 	lds	r24, 0x0097
    2cee:	99 27       	eor	r25, r25
    2cf0:	f9 2f       	mov	r31, r25
    2cf2:	e8 2f       	mov	r30, r24
    2cf4:	73 e0       	ldi	r23, 0x03	; 3
    2cf6:	ee 0f       	add	r30, r30
    2cf8:	ff 1f       	adc	r31, r31
    2cfa:	7a 95       	dec	r23
    2cfc:	e1 f7       	brne	.-8      	; 0x2cf6
    2cfe:	e8 0f       	add	r30, r24
    2d00:	f9 1f       	adc	r31, r25
    2d02:	e3 59       	subi	r30, 0x93	; 147
    2d04:	fc 4f       	sbci	r31, 0xFC	; 252
    2d06:	02 83       	std	Z+2, r16	; 0x02
    2d08:	13 83       	std	Z+3, r17	; 0x03
    2d0a:	e4 82       	std	Z+4, r14	; 0x04
    2d0c:	f5 82       	std	Z+5, r15	; 0x05
    2d0e:	0e 94 83 07 	call	0xf06
    2d12:	e2 c1       	rjmp	.+964    	; 0x30d8
    2d14:	10 91 97 00 	lds	r17, 0x0097
    2d18:	c0 90 1b 03 	lds	r12, 0x031B
    2d1c:	d0 90 1c 03 	lds	r13, 0x031C
    2d20:	e0 90 1d 03 	lds	r14, 0x031D
    2d24:	f0 90 1e 03 	lds	r15, 0x031E
    2d28:	80 91 55 03 	lds	r24, 0x0355
    2d2c:	90 91 56 03 	lds	r25, 0x0356
    2d30:	a0 91 57 03 	lds	r26, 0x0357
    2d34:	b0 91 58 03 	lds	r27, 0x0358
    2d38:	c8 1a       	sub	r12, r24
    2d3a:	d9 0a       	sbc	r13, r25
    2d3c:	ea 0a       	sbc	r14, r26
    2d3e:	fb 0a       	sbc	r15, r27
    2d40:	2c 2f       	mov	r18, r28
    2d42:	7f 2d       	mov	r23, r15
    2d44:	6e 2d       	mov	r22, r14
    2d46:	5d 2d       	mov	r21, r13
    2d48:	4c 2d       	mov	r20, r12
    2d4a:	81 2f       	mov	r24, r17
    2d4c:	0e 94 9a 08 	call	0x1134
    2d50:	12 30       	cpi	r17, 0x02	; 2
    2d52:	09 f0       	breq	.+2      	; 0x2d56
    2d54:	c1 c1       	rjmp	.+898    	; 0x30d8
    2d56:	4c 2f       	mov	r20, r28
    2d58:	9f 2d       	mov	r25, r15
    2d5a:	8e 2d       	mov	r24, r14
    2d5c:	7d 2d       	mov	r23, r13
    2d5e:	6c 2d       	mov	r22, r12
    2d60:	0e 94 c7 09 	call	0x138e
    2d64:	b9 c1       	rjmp	.+882    	; 0x30d8
    2d66:	cc 23       	and	r28, r28
    2d68:	09 f0       	breq	.+2      	; 0x2d6c
    2d6a:	35 c1       	rjmp	.+618    	; 0x2fd6
    2d6c:	2e 2d       	mov	r18, r14
    2d6e:	3f 2d       	mov	r19, r15
    2d70:	44 27       	eor	r20, r20
    2d72:	55 27       	eor	r21, r21
    2d74:	80 91 55 03 	lds	r24, 0x0355
    2d78:	90 91 56 03 	lds	r25, 0x0356
    2d7c:	a0 91 57 03 	lds	r26, 0x0357
    2d80:	b0 91 58 03 	lds	r27, 0x0358
    2d84:	82 0f       	add	r24, r18
    2d86:	93 1f       	adc	r25, r19
    2d88:	a4 1f       	adc	r26, r20
    2d8a:	b5 1f       	adc	r27, r21
    2d8c:	80 93 55 03 	sts	0x0355, r24
    2d90:	90 93 56 03 	sts	0x0356, r25
    2d94:	a0 93 57 03 	sts	0x0357, r26
    2d98:	b0 93 58 03 	sts	0x0358, r27
    2d9c:	26 e0       	ldi	r18, 0x06	; 6
    2d9e:	0a 32       	cpi	r16, 0x2A	; 42
    2da0:	12 07       	cpc	r17, r18
    2da2:	09 f4       	brne	.+2      	; 0x2da6
    2da4:	18 c1       	rjmp	.+560    	; 0x2fd6
    2da6:	8f ef       	ldi	r24, 0xFF	; 255
    2da8:	e8 16       	cp	r14, r24
    2daa:	f1 04       	cpc	r15, r1
    2dac:	09 f0       	breq	.+2      	; 0x2db0
    2dae:	08 f4       	brcc	.+2      	; 0x2db2
    2db0:	12 c1       	rjmp	.+548    	; 0x2fd6
    2db2:	4c 2f       	mov	r20, r28
    2db4:	71 2f       	mov	r23, r17
    2db6:	60 2f       	mov	r22, r16
    2db8:	82 e0       	ldi	r24, 0x02	; 2
    2dba:	b1 c0       	rjmp	.+354    	; 0x2f1e
    2dbc:	80 91 70 00 	lds	r24, 0x0070
    2dc0:	cc 23       	and	r28, r28
    2dc2:	09 f0       	breq	.+2      	; 0x2dc6
    2dc4:	df c0       	rjmp	.+446    	; 0x2f84
    2dc6:	99 27       	eor	r25, r25
    2dc8:	84 30       	cpi	r24, 0x04	; 4
    2dca:	91 05       	cpc	r25, r1
    2dcc:	09 f4       	brne	.+2      	; 0x2dd0
    2dce:	40 c0       	rjmp	.+128    	; 0x2e50
    2dd0:	85 30       	cpi	r24, 0x05	; 5
    2dd2:	91 05       	cpc	r25, r1
    2dd4:	34 f4       	brge	.+12     	; 0x2de2
    2dd6:	81 30       	cpi	r24, 0x01	; 1
    2dd8:	91 05       	cpc	r25, r1
    2dda:	01 f1       	breq	.+64     	; 0x2e1c
    2ddc:	02 97       	sbiw	r24, 0x02	; 2
    2dde:	89 f1       	breq	.+98     	; 0x2e42
    2de0:	7b c1       	rjmp	.+758    	; 0x30d8
    2de2:	89 30       	cpi	r24, 0x09	; 9
    2de4:	91 05       	cpc	r25, r1
    2de6:	09 f4       	brne	.+2      	; 0x2dea
    2de8:	9d c0       	rjmp	.+314    	; 0x2f24
    2dea:	0b 97       	sbiw	r24, 0x0b	; 11
    2dec:	09 f0       	breq	.+2      	; 0x2df0
    2dee:	74 c1       	rjmp	.+744    	; 0x30d8
    2df0:	80 91 be 02 	lds	r24, 0x02BE
    2df4:	99 27       	eor	r25, r25
    2df6:	6d e0       	ldi	r22, 0x0D	; 13
    2df8:	70 e0       	ldi	r23, 0x00	; 0
    2dfa:	0e 94 29 20 	call	0x4052
    2dfe:	f9 2f       	mov	r31, r25
    2e00:	e8 2f       	mov	r30, r24
    2e02:	e1 56       	subi	r30, 0x61	; 97
    2e04:	fe 4f       	sbci	r31, 0xFE	; 254
    2e06:	80 81       	ld	r24, Z
    2e08:	91 81       	ldd	r25, Z+1	; 0x01
    2e0a:	34 85       	ldd	r19, Z+12	; 0x0c
    2e0c:	21 e0       	ldi	r18, 0x01	; 1
    2e0e:	43 2f       	mov	r20, r19
    2e10:	68 2f       	mov	r22, r24
    2e12:	79 2f       	mov	r23, r25
    2e14:	83 e0       	ldi	r24, 0x03	; 3
    2e16:	0e 94 84 0b 	call	0x1708
    2e1a:	5e c1       	rjmp	.+700    	; 0x30d8
    2e1c:	20 91 be 02 	lds	r18, 0x02BE
    2e20:	82 2f       	mov	r24, r18
    2e22:	99 27       	eor	r25, r25
    2e24:	6d e0       	ldi	r22, 0x0D	; 13
    2e26:	70 e0       	ldi	r23, 0x00	; 0
    2e28:	0e 94 29 20 	call	0x4052
    2e2c:	f9 2f       	mov	r31, r25
    2e2e:	e8 2f       	mov	r30, r24
    2e30:	e1 56       	subi	r30, 0x61	; 97
    2e32:	fe 4f       	sbci	r31, 0xFE	; 254
    2e34:	04 83       	std	Z+4, r16	; 0x04
    2e36:	15 83       	std	Z+5, r17	; 0x05
    2e38:	e0 86       	std	Z+8, r14	; 0x08
    2e3a:	f1 86       	std	Z+9, r15	; 0x09
    2e3c:	6c 2f       	mov	r22, r28
    2e3e:	82 2f       	mov	r24, r18
    2e40:	b7 c0       	rjmp	.+366    	; 0x2fb0
    2e42:	7f 2d       	mov	r23, r15
    2e44:	6e 2d       	mov	r22, r14
    2e46:	91 2f       	mov	r25, r17
    2e48:	80 2f       	mov	r24, r16
    2e4a:	0e 94 cb 18 	call	0x3196
    2e4e:	44 c1       	rjmp	.+648    	; 0x30d8
    2e50:	c0 91 bf 02 	lds	r28, 0x02BF
    2e54:	d0 91 c0 02 	lds	r29, 0x02C0
    2e58:	e0 91 c1 02 	lds	r30, 0x02C1
    2e5c:	f0 91 c2 02 	lds	r31, 0x02C2
    2e60:	c0 50       	subi	r28, 0x00	; 0
    2e62:	df 4f       	sbci	r29, 0xFF	; 255
    2e64:	ef 4f       	sbci	r30, 0xFF	; 255
    2e66:	ff 4f       	sbci	r31, 0xFF	; 255
    2e68:	c0 93 bf 02 	sts	0x02BF, r28
    2e6c:	d0 93 c0 02 	sts	0x02C0, r29
    2e70:	e0 93 c1 02 	sts	0x02C1, r30
    2e74:	f0 93 c2 02 	sts	0x02C2, r31
    2e78:	f0 92 24 03 	sts	0x0324, r15
    2e7c:	e0 92 23 03 	sts	0x0323, r14
    2e80:	26 e0       	ldi	r18, 0x06	; 6
    2e82:	0a 32       	cpi	r16, 0x2A	; 42
    2e84:	12 07       	cpc	r17, r18
    2e86:	b9 f5       	brne	.+110    	; 0x2ef6
    2e88:	20 91 9a 01 	lds	r18, 0x019A
    2e8c:	30 91 9b 01 	lds	r19, 0x019B
    2e90:	40 91 9c 01 	lds	r20, 0x019C
    2e94:	50 91 9d 01 	lds	r21, 0x019D
    2e98:	2c 17       	cp	r18, r28
    2e9a:	3d 07       	cpc	r19, r29
    2e9c:	4e 07       	cpc	r20, r30
    2e9e:	5f 07       	cpc	r21, r31
    2ea0:	28 f4       	brcc	.+10     	; 0x2eac
    2ea2:	89 e3       	ldi	r24, 0x39	; 57
    2ea4:	9e e1       	ldi	r25, 0x1E	; 30
    2ea6:	0e 94 a1 01 	call	0x342
    2eaa:	16 c1       	rjmp	.+556    	; 0x30d8
    2eac:	2c 1b       	sub	r18, r28
    2eae:	3d 0b       	sbc	r19, r29
    2eb0:	4e 0b       	sbc	r20, r30
    2eb2:	5f 0b       	sbc	r21, r31
    2eb4:	21 50       	subi	r18, 0x01	; 1
    2eb6:	3f 4f       	sbci	r19, 0xFF	; 255
    2eb8:	4f 4f       	sbci	r20, 0xFF	; 255
    2eba:	5f 4f       	sbci	r21, 0xFF	; 255
    2ebc:	23 2f       	mov	r18, r19
    2ebe:	34 2f       	mov	r19, r20
    2ec0:	45 2f       	mov	r20, r21
    2ec2:	55 27       	eor	r21, r21
    2ec4:	93 2f       	mov	r25, r19
    2ec6:	82 2f       	mov	r24, r18
    2ec8:	aa 27       	eor	r26, r26
    2eca:	bb 27       	eor	r27, r27
    2ecc:	ba 2f       	mov	r27, r26
    2ece:	a9 2f       	mov	r26, r25
    2ed0:	98 2f       	mov	r25, r24
    2ed2:	88 27       	eor	r24, r24
    2ed4:	c8 0f       	add	r28, r24
    2ed6:	d9 1f       	adc	r29, r25
    2ed8:	ea 1f       	adc	r30, r26
    2eda:	fb 1f       	adc	r31, r27
    2edc:	c0 93 bf 02 	sts	0x02BF, r28
    2ee0:	d0 93 c0 02 	sts	0x02C0, r29
    2ee4:	e0 93 c1 02 	sts	0x02C1, r30
    2ee8:	f0 93 c2 02 	sts	0x02C2, r31
    2eec:	93 2f       	mov	r25, r19
    2eee:	82 2f       	mov	r24, r18
    2ef0:	0e 94 99 11 	call	0x2332
    2ef4:	f1 c0       	rjmp	.+482    	; 0x30d8
    2ef6:	10 93 6b 00 	sts	0x006B, r17
    2efa:	00 93 6a 00 	sts	0x006A, r16
    2efe:	80 91 be 02 	lds	r24, 0x02BE
    2f02:	99 27       	eor	r25, r25
    2f04:	6d e0       	ldi	r22, 0x0D	; 13
    2f06:	70 e0       	ldi	r23, 0x00	; 0
    2f08:	0e 94 29 20 	call	0x4052
    2f0c:	f9 2f       	mov	r31, r25
    2f0e:	e8 2f       	mov	r30, r24
    2f10:	e1 56       	subi	r30, 0x61	; 97
    2f12:	fe 4f       	sbci	r31, 0xFE	; 254
    2f14:	84 85       	ldd	r24, Z+12	; 0x0c
    2f16:	48 2f       	mov	r20, r24
    2f18:	71 2f       	mov	r23, r17
    2f1a:	60 2f       	mov	r22, r16
    2f1c:	83 e0       	ldi	r24, 0x03	; 3
    2f1e:	0e 94 7d 10 	call	0x20fa
    2f22:	da c0       	rjmp	.+436    	; 0x30d8
    2f24:	80 91 be 02 	lds	r24, 0x02BE
    2f28:	99 27       	eor	r25, r25
    2f2a:	6d e0       	ldi	r22, 0x0D	; 13
    2f2c:	70 e0       	ldi	r23, 0x00	; 0
    2f2e:	0e 94 29 20 	call	0x4052
    2f32:	f9 2f       	mov	r31, r25
    2f34:	e8 2f       	mov	r30, r24
    2f36:	e1 56       	subi	r30, 0x61	; 97
    2f38:	fe 4f       	sbci	r31, 0xFE	; 254
    2f3a:	22 81       	ldd	r18, Z+2	; 0x02
    2f3c:	33 81       	ldd	r19, Z+3	; 0x03
    2f3e:	81 e0       	ldi	r24, 0x01	; 1
    2f40:	80 93 9e 01 	sts	0x019E, r24
    2f44:	67 e0       	ldi	r22, 0x07	; 7
    2f46:	93 2f       	mov	r25, r19
    2f48:	82 2f       	mov	r24, r18
    2f4a:	0e 94 0a 0c 	call	0x1814
    2f4e:	80 91 be 02 	lds	r24, 0x02BE
    2f52:	99 27       	eor	r25, r25
    2f54:	6d e0       	ldi	r22, 0x0D	; 13
    2f56:	70 e0       	ldi	r23, 0x00	; 0
    2f58:	0e 94 29 20 	call	0x4052
    2f5c:	f9 2f       	mov	r31, r25
    2f5e:	e8 2f       	mov	r30, r24
    2f60:	e1 56       	subi	r30, 0x61	; 97
    2f62:	fe 4f       	sbci	r31, 0xFE	; 254
    2f64:	84 81       	ldd	r24, Z+4	; 0x04
    2f66:	95 81       	ldd	r25, Z+5	; 0x05
    2f68:	82 83       	std	Z+2, r24	; 0x02
    2f6a:	93 83       	std	Z+3, r25	; 0x03
    2f6c:	86 81       	ldd	r24, Z+6	; 0x06
    2f6e:	97 81       	ldd	r25, Z+7	; 0x07
    2f70:	01 96       	adiw	r24, 0x01	; 1
    2f72:	86 83       	std	Z+6, r24	; 0x06
    2f74:	97 83       	std	Z+7, r25	; 0x07
    2f76:	12 86       	std	Z+10, r1	; 0x0a
    2f78:	13 86       	std	Z+11, r1	; 0x0b
    2f7a:	04 83       	std	Z+4, r16	; 0x04
    2f7c:	15 83       	std	Z+5, r17	; 0x05
    2f7e:	e0 86       	std	Z+8, r14	; 0x08
    2f80:	f1 86       	std	Z+9, r15	; 0x09
    2f82:	aa c0       	rjmp	.+340    	; 0x30d8
    2f84:	99 27       	eor	r25, r25
    2f86:	84 30       	cpi	r24, 0x04	; 4
    2f88:	91 05       	cpc	r25, r1
    2f8a:	29 f1       	breq	.+74     	; 0x2fd6
    2f8c:	85 30       	cpi	r24, 0x05	; 5
    2f8e:	91 05       	cpc	r25, r1
    2f90:	34 f4       	brge	.+12     	; 0x2f9e
    2f92:	81 30       	cpi	r24, 0x01	; 1
    2f94:	91 05       	cpc	r25, r1
    2f96:	49 f0       	breq	.+18     	; 0x2faa
    2f98:	02 97       	sbiw	r24, 0x02	; 2
    2f9a:	69 f0       	breq	.+26     	; 0x2fb6
    2f9c:	9d c0       	rjmp	.+314    	; 0x30d8
    2f9e:	89 30       	cpi	r24, 0x09	; 9
    2fa0:	91 05       	cpc	r25, r1
    2fa2:	59 f1       	breq	.+86     	; 0x2ffa
    2fa4:	0b 97       	sbiw	r24, 0x0b	; 11
    2fa6:	d1 f0       	breq	.+52     	; 0x2fdc
    2fa8:	97 c0       	rjmp	.+302    	; 0x30d8
    2faa:	80 91 be 02 	lds	r24, 0x02BE
    2fae:	6c 2f       	mov	r22, r28
    2fb0:	0e 94 75 18 	call	0x30ea
    2fb4:	91 c0       	rjmp	.+290    	; 0x30d8
    2fb6:	80 91 bf 02 	lds	r24, 0x02BF
    2fba:	90 91 c0 02 	lds	r25, 0x02C0
    2fbe:	a0 91 c1 02 	lds	r26, 0x02C1
    2fc2:	b0 91 c2 02 	lds	r27, 0x02C2
    2fc6:	4c 2f       	mov	r20, r28
    2fc8:	68 2f       	mov	r22, r24
    2fca:	79 2f       	mov	r23, r25
    2fcc:	8a 2f       	mov	r24, r26
    2fce:	9b 2f       	mov	r25, r27
    2fd0:	0e 94 3c 10 	call	0x2078
    2fd4:	81 c0       	rjmp	.+258    	; 0x30d8
    2fd6:	0e 94 eb 08 	call	0x11d6
    2fda:	7e c0       	rjmp	.+252    	; 0x30d8
    2fdc:	10 91 be 02 	lds	r17, 0x02BE
    2fe0:	6c 2f       	mov	r22, r28
    2fe2:	81 2f       	mov	r24, r17
    2fe4:	0e 94 2f 19 	call	0x325e
    2fe8:	81 2f       	mov	r24, r17
    2fea:	99 27       	eor	r25, r25
    2fec:	89 2b       	or	r24, r25
    2fee:	09 f0       	breq	.+2      	; 0x2ff2
    2ff0:	73 c0       	rjmp	.+230    	; 0x30d8
    2ff2:	8c 2f       	mov	r24, r28
    2ff4:	0e 94 82 19 	call	0x3304
    2ff8:	6f c0       	rjmp	.+222    	; 0x30d8
    2ffa:	10 91 be 02 	lds	r17, 0x02BE
    2ffe:	40 91 9a 01 	lds	r20, 0x019A
    3002:	50 91 9b 01 	lds	r21, 0x019B
    3006:	60 91 9c 01 	lds	r22, 0x019C
    300a:	70 91 9d 01 	lds	r23, 0x019D
    300e:	80 91 bf 02 	lds	r24, 0x02BF
    3012:	90 91 c0 02 	lds	r25, 0x02C0
    3016:	a0 91 c1 02 	lds	r26, 0x02C1
    301a:	b0 91 c2 02 	lds	r27, 0x02C2
    301e:	48 1b       	sub	r20, r24
    3020:	59 0b       	sbc	r21, r25
    3022:	6a 0b       	sbc	r22, r26
    3024:	7b 0b       	sbc	r23, r27
    3026:	2c 2f       	mov	r18, r28
    3028:	81 2f       	mov	r24, r17
    302a:	0e 94 a8 0a 	call	0x1550
    302e:	81 2f       	mov	r24, r17
    3030:	99 27       	eor	r25, r25
    3032:	89 2b       	or	r24, r25
    3034:	09 f0       	breq	.+2      	; 0x3038
    3036:	50 c0       	rjmp	.+160    	; 0x30d8
    3038:	c0 93 90 01 	sts	0x0190, r28
    303c:	80 91 ac 02 	lds	r24, 0x02AC
    3040:	99 27       	eor	r25, r25
    3042:	81 30       	cpi	r24, 0x01	; 1
    3044:	91 05       	cpc	r25, r1
    3046:	59 f0       	breq	.+22     	; 0x305e
    3048:	82 30       	cpi	r24, 0x02	; 2
    304a:	91 05       	cpc	r25, r1
    304c:	1c f4       	brge	.+6      	; 0x3054
    304e:	89 2b       	or	r24, r25
    3050:	21 f0       	breq	.+8      	; 0x305a
    3052:	42 c0       	rjmp	.+132    	; 0x30d8
    3054:	02 97       	sbiw	r24, 0x02	; 2
    3056:	29 f0       	breq	.+10     	; 0x3062
    3058:	3f c0       	rjmp	.+126    	; 0x30d8
    305a:	80 e0       	ldi	r24, 0x00	; 0
    305c:	3b c0       	rjmp	.+118    	; 0x30d4
    305e:	83 e0       	ldi	r24, 0x03	; 3
    3060:	39 c0       	rjmp	.+114    	; 0x30d4
    3062:	80 91 7d 00 	lds	r24, 0x007D
    3066:	99 27       	eor	r25, r25
    3068:	81 30       	cpi	r24, 0x01	; 1
    306a:	91 05       	cpc	r25, r1
    306c:	19 f0       	breq	.+6      	; 0x3074
    306e:	02 97       	sbiw	r24, 0x02	; 2
    3070:	19 f0       	breq	.+6      	; 0x3078
    3072:	32 c0       	rjmp	.+100    	; 0x30d8
    3074:	84 e0       	ldi	r24, 0x04	; 4
    3076:	2e c0       	rjmp	.+92     	; 0x30d4
    3078:	60 e0       	ldi	r22, 0x00	; 0
    307a:	82 e0       	ldi	r24, 0x02	; 2
    307c:	0e 94 9f 0f 	call	0x1f3e
    3080:	2b c0       	rjmp	.+86     	; 0x30d8
    3082:	cc 23       	and	r28, r28
    3084:	c1 f4       	brne	.+48     	; 0x30b6
    3086:	20 91 51 03 	lds	r18, 0x0351
    308a:	30 91 52 03 	lds	r19, 0x0352
    308e:	80 91 74 00 	lds	r24, 0x0074
    3092:	90 91 75 00 	lds	r25, 0x0075
    3096:	a0 91 76 00 	lds	r26, 0x0076
    309a:	b0 91 77 00 	lds	r27, 0x0077
    309e:	30 93 1a 03 	sts	0x031A, r19
    30a2:	20 93 19 03 	sts	0x0319, r18
    30a6:	80 93 6c 00 	sts	0x006C, r24
    30aa:	90 93 6d 00 	sts	0x006D, r25
    30ae:	a0 93 6e 00 	sts	0x006E, r26
    30b2:	b0 93 6f 00 	sts	0x006F, r27
    30b6:	0e 94 5a 15 	call	0x2ab4
    30ba:	0e c0       	rjmp	.+28     	; 0x30d8
    30bc:	cc 23       	and	r28, r28
    30be:	49 f4       	brne	.+18     	; 0x30d2
    30c0:	86 e0       	ldi	r24, 0x06	; 6
    30c2:	0a 32       	cpi	r16, 0x2A	; 42
    30c4:	18 07       	cpc	r17, r24
    30c6:	29 f0       	breq	.+10     	; 0x30d2
    30c8:	91 2f       	mov	r25, r17
    30ca:	80 2f       	mov	r24, r16
    30cc:	0e 94 0f 15 	call	0x2a1e
    30d0:	03 c0       	rjmp	.+6      	; 0x30d8
    30d2:	85 e0       	ldi	r24, 0x05	; 5
    30d4:	0e 94 89 0f 	call	0x1f12
    30d8:	df 91       	pop	r29
    30da:	cf 91       	pop	r28
    30dc:	1f 91       	pop	r17
    30de:	0f 91       	pop	r16
    30e0:	ff 90       	pop	r15
    30e2:	ef 90       	pop	r14
    30e4:	df 90       	pop	r13
    30e6:	cf 90       	pop	r12
    30e8:	08 95       	ret

000030ea <Write$IFileWrite2$openDone>:
    30ea:	ef 92       	push	r14
    30ec:	ff 92       	push	r15
    30ee:	0f 93       	push	r16
    30f0:	1f 93       	push	r17
    30f2:	38 2f       	mov	r19, r24
    30f4:	26 2f       	mov	r18, r22
    30f6:	66 23       	and	r22, r22
    30f8:	09 f0       	breq	.+2      	; 0x30fc
    30fa:	41 c0       	rjmp	.+130    	; 0x317e
    30fc:	80 91 93 01 	lds	r24, 0x0193
    3100:	63 2f       	mov	r22, r19
    3102:	77 27       	eor	r23, r23
    3104:	80 ff       	sbrs	r24, 0
    3106:	1d c0       	rjmp	.+58     	; 0x3142
    3108:	a3 e0       	ldi	r26, 0x03	; 3
    310a:	a0 93 70 00 	sts	0x0070, r26
    310e:	30 93 be 02 	sts	0x02BE, r19
    3112:	97 2f       	mov	r25, r23
    3114:	86 2f       	mov	r24, r22
    3116:	6d e0       	ldi	r22, 0x0D	; 13
    3118:	70 e0       	ldi	r23, 0x00	; 0
    311a:	0e 94 29 20 	call	0x4052
    311e:	f9 2f       	mov	r31, r25
    3120:	e8 2f       	mov	r30, r24
    3122:	e1 56       	subi	r30, 0x61	; 97
    3124:	fe 4f       	sbci	r31, 0xFE	; 254
    3126:	80 81       	ld	r24, Z
    3128:	91 81       	ldd	r25, Z+1	; 0x01
    312a:	34 85       	ldd	r19, Z+12	; 0x0c
    312c:	ee 24       	eor	r14, r14
    312e:	ff 24       	eor	r15, r15
    3130:	0a e2       	ldi	r16, 0x2A	; 42
    3132:	16 e0       	ldi	r17, 0x06	; 6
    3134:	43 2f       	mov	r20, r19
    3136:	68 2f       	mov	r22, r24
    3138:	79 2f       	mov	r23, r25
    313a:	8a 2f       	mov	r24, r26
    313c:	0e 94 84 0b 	call	0x1708
    3140:	25 c0       	rjmp	.+74     	; 0x318c
    3142:	82 e0       	ldi	r24, 0x02	; 2
    3144:	80 93 70 00 	sts	0x0070, r24
    3148:	30 93 be 02 	sts	0x02BE, r19
    314c:	10 92 bf 02 	sts	0x02BF, r1
    3150:	10 92 c0 02 	sts	0x02C0, r1
    3154:	10 92 c1 02 	sts	0x02C1, r1
    3158:	10 92 c2 02 	sts	0x02C2, r1
    315c:	97 2f       	mov	r25, r23
    315e:	86 2f       	mov	r24, r22
    3160:	6d e0       	ldi	r22, 0x0D	; 13
    3162:	70 e0       	ldi	r23, 0x00	; 0
    3164:	0e 94 29 20 	call	0x4052
    3168:	f9 2f       	mov	r31, r25
    316a:	e8 2f       	mov	r30, r24
    316c:	e1 56       	subi	r30, 0x61	; 97
    316e:	fe 4f       	sbci	r31, 0xFE	; 254
    3170:	60 85       	ldd	r22, Z+8	; 0x08
    3172:	71 85       	ldd	r23, Z+9	; 0x09
    3174:	84 81       	ldd	r24, Z+4	; 0x04
    3176:	95 81       	ldd	r25, Z+5	; 0x05
    3178:	0e 94 cb 18 	call	0x3196
    317c:	07 c0       	rjmp	.+14     	; 0x318c
    317e:	46 2f       	mov	r20, r22
    3180:	60 e0       	ldi	r22, 0x00	; 0
    3182:	70 e0       	ldi	r23, 0x00	; 0
    3184:	80 e0       	ldi	r24, 0x00	; 0
    3186:	90 e0       	ldi	r25, 0x00	; 0
    3188:	0e 94 3c 10 	call	0x2078
    318c:	1f 91       	pop	r17
    318e:	0f 91       	pop	r16
    3190:	ff 90       	pop	r15
    3192:	ef 90       	pop	r14
    3194:	08 95       	ret

00003196 <Writer$seekToEnd>:
    3196:	ef 92       	push	r14
    3198:	ff 92       	push	r15
    319a:	0f 93       	push	r16
    319c:	1f 93       	push	r17
    319e:	cf 93       	push	r28
    31a0:	df 93       	push	r29
    31a2:	e8 2e       	mov	r14, r24
    31a4:	f9 2e       	mov	r15, r25
    31a6:	d7 2f       	mov	r29, r23
    31a8:	c6 2f       	mov	r28, r22
    31aa:	86 2f       	mov	r24, r22
    31ac:	97 2f       	mov	r25, r23
    31ae:	aa 27       	eor	r26, r26
    31b0:	bb 27       	eor	r27, r27
    31b2:	00 91 bf 02 	lds	r16, 0x02BF
    31b6:	10 91 c0 02 	lds	r17, 0x02C0
    31ba:	20 91 c1 02 	lds	r18, 0x02C1
    31be:	30 91 c2 02 	lds	r19, 0x02C2
    31c2:	08 0f       	add	r16, r24
    31c4:	19 1f       	adc	r17, r25
    31c6:	2a 1f       	adc	r18, r26
    31c8:	3b 1f       	adc	r19, r27
    31ca:	00 93 bf 02 	sts	0x02BF, r16
    31ce:	10 93 c0 02 	sts	0x02C0, r17
    31d2:	20 93 c1 02 	sts	0x02C1, r18
    31d6:	30 93 c2 02 	sts	0x02C2, r19
    31da:	8a e2       	ldi	r24, 0x2A	; 42
    31dc:	e8 16       	cp	r14, r24
    31de:	86 e0       	ldi	r24, 0x06	; 6
    31e0:	f8 06       	cpc	r15, r24
    31e2:	21 f0       	breq	.+8      	; 0x31ec
    31e4:	6f 3f       	cpi	r22, 0xFF	; 255
    31e6:	71 05       	cpc	r23, r1
    31e8:	09 f0       	breq	.+2      	; 0x31ec
    31ea:	c8 f4       	brcc	.+50     	; 0x321e
    31ec:	80 91 be 02 	lds	r24, 0x02BE
    31f0:	99 27       	eor	r25, r25
    31f2:	6d e0       	ldi	r22, 0x0D	; 13
    31f4:	70 e0       	ldi	r23, 0x00	; 0
    31f6:	0e 94 29 20 	call	0x4052
    31fa:	f9 2f       	mov	r31, r25
    31fc:	e8 2f       	mov	r30, r24
    31fe:	e1 56       	subi	r30, 0x61	; 97
    3200:	fe 4f       	sbci	r31, 0xFE	; 254
    3202:	e4 82       	std	Z+4, r14	; 0x04
    3204:	f5 82       	std	Z+5, r15	; 0x05
    3206:	c0 87       	std	Z+8, r28	; 0x08
    3208:	d1 87       	std	Z+9, r29	; 0x09
    320a:	c2 87       	std	Z+10, r28	; 0x0a
    320c:	d3 87       	std	Z+11, r29	; 0x0b
    320e:	40 e0       	ldi	r20, 0x00	; 0
    3210:	93 2f       	mov	r25, r19
    3212:	82 2f       	mov	r24, r18
    3214:	71 2f       	mov	r23, r17
    3216:	60 2f       	mov	r22, r16
    3218:	0e 94 3c 10 	call	0x2078
    321c:	19 c0       	rjmp	.+50     	; 0x3250
    321e:	80 91 be 02 	lds	r24, 0x02BE
    3222:	99 27       	eor	r25, r25
    3224:	6d e0       	ldi	r22, 0x0D	; 13
    3226:	70 e0       	ldi	r23, 0x00	; 0
    3228:	0e 94 29 20 	call	0x4052
    322c:	f9 2f       	mov	r31, r25
    322e:	e8 2f       	mov	r30, r24
    3230:	e1 56       	subi	r30, 0x61	; 97
    3232:	fe 4f       	sbci	r31, 0xFE	; 254
    3234:	e2 82       	std	Z+2, r14	; 0x02
    3236:	f3 82       	std	Z+3, r15	; 0x03
    3238:	86 81       	ldd	r24, Z+6	; 0x06
    323a:	97 81       	ldd	r25, Z+7	; 0x07
    323c:	01 96       	adiw	r24, 0x01	; 1
    323e:	86 83       	std	Z+6, r24	; 0x06
    3240:	97 83       	std	Z+7, r25	; 0x07
    3242:	84 85       	ldd	r24, Z+12	; 0x0c
    3244:	48 2f       	mov	r20, r24
    3246:	7f 2d       	mov	r23, r15
    3248:	6e 2d       	mov	r22, r14
    324a:	83 e0       	ldi	r24, 0x03	; 3
    324c:	0e 94 7d 10 	call	0x20fa
    3250:	df 91       	pop	r29
    3252:	cf 91       	pop	r28
    3254:	1f 91       	pop	r17
    3256:	0f 91       	pop	r16
    3258:	ff 90       	pop	r15
    325a:	ef 90       	pop	r14
    325c:	08 95       	ret

0000325e <Write$IFileWrite$syncDone>:
    325e:	0f 93       	push	r16
    3260:	1f 93       	push	r17
    3262:	cf 93       	push	r28
    3264:	08 2f       	mov	r16, r24
    3266:	c6 2f       	mov	r28, r22
    3268:	88 23       	and	r24, r24
    326a:	09 f4       	brne	.+2      	; 0x326e
    326c:	47 c0       	rjmp	.+142    	; 0x32fc
    326e:	80 91 7d 00 	lds	r24, 0x007D
    3272:	99 27       	eor	r25, r25
    3274:	83 30       	cpi	r24, 0x03	; 3
    3276:	91 05       	cpc	r25, r1
    3278:	01 f1       	breq	.+64     	; 0x32ba
    327a:	84 30       	cpi	r24, 0x04	; 4
    327c:	91 05       	cpc	r25, r1
    327e:	1c f4       	brge	.+6      	; 0x3286
    3280:	01 97       	sbiw	r24, 0x01	; 1
    3282:	f1 f0       	breq	.+60     	; 0x32c0
    3284:	3b c0       	rjmp	.+118    	; 0x32fc
    3286:	04 97       	sbiw	r24, 0x04	; 4
    3288:	c9 f5       	brne	.+114    	; 0x32fc
    328a:	11 27       	eor	r17, r17
    328c:	91 2f       	mov	r25, r17
    328e:	80 2f       	mov	r24, r16
    3290:	6d e0       	ldi	r22, 0x0D	; 13
    3292:	70 e0       	ldi	r23, 0x00	; 0
    3294:	0e 94 29 20 	call	0x4052
    3298:	f9 2f       	mov	r31, r25
    329a:	e8 2f       	mov	r30, r24
    329c:	e1 56       	subi	r30, 0x61	; 97
    329e:	fe 4f       	sbci	r31, 0xFE	; 254
    32a0:	8a e2       	ldi	r24, 0x2A	; 42
    32a2:	96 e0       	ldi	r25, 0x06	; 6
    32a4:	80 83       	st	Z, r24
    32a6:	91 83       	std	Z+1, r25	; 0x01
    32a8:	0e 94 eb 08 	call	0x11d6
    32ac:	01 30       	cpi	r16, 0x01	; 1
    32ae:	11 05       	cpc	r17, r1
    32b0:	29 f5       	brne	.+74     	; 0x32fc
    32b2:	8c 2f       	mov	r24, r28
    32b4:	0e 94 f0 08 	call	0x11e0
    32b8:	21 c0       	rjmp	.+66     	; 0x32fc
    32ba:	0e 94 eb 08 	call	0x11d6
    32be:	1e c0       	rjmp	.+60     	; 0x32fc
    32c0:	12 e0       	ldi	r17, 0x02	; 2
    32c2:	10 93 ac 02 	sts	0x02AC, r17
    32c6:	10 92 69 00 	sts	0x0069, r1
    32ca:	10 92 68 00 	sts	0x0068, r1
    32ce:	80 e0       	ldi	r24, 0x00	; 0
    32d0:	90 e0       	ldi	r25, 0x00	; 0
    32d2:	0e 94 37 10 	call	0x206e
    32d6:	61 e0       	ldi	r22, 0x01	; 1
    32d8:	80 e0       	ldi	r24, 0x00	; 0
    32da:	0e 94 78 14 	call	0x28f0
    32de:	84 e0       	ldi	r24, 0x04	; 4
    32e0:	80 93 6c 03 	sts	0x036C, r24
    32e4:	80 91 19 03 	lds	r24, 0x0319
    32e8:	90 91 1a 03 	lds	r25, 0x031A
    32ec:	21 e0       	ldi	r18, 0x01	; 1
    32ee:	44 e0       	ldi	r20, 0x04	; 4
    32f0:	50 e0       	ldi	r21, 0x00	; 0
    32f2:	68 2f       	mov	r22, r24
    32f4:	79 2f       	mov	r23, r25
    32f6:	81 2f       	mov	r24, r17
    32f8:	0e 94 9a 13 	call	0x2734
    32fc:	cf 91       	pop	r28
    32fe:	1f 91       	pop	r17
    3300:	0f 91       	pop	r16
    3302:	08 95       	ret

00003304 <MetaData$MetaDataWriter$syncDone>:
    3304:	48 2f       	mov	r20, r24
    3306:	80 93 90 01 	sts	0x0190, r24
    330a:	88 23       	and	r24, r24
    330c:	09 f5       	brne	.+66     	; 0x3350
    330e:	20 91 19 03 	lds	r18, 0x0319
    3312:	30 91 1a 03 	lds	r19, 0x031A
    3316:	81 e0       	ldi	r24, 0x01	; 1
    3318:	90 e0       	ldi	r25, 0x00	; 0
    331a:	90 93 69 00 	sts	0x0069, r25
    331e:	80 93 68 00 	sts	0x0068, r24
    3322:	60 e0       	ldi	r22, 0x00	; 0
    3324:	70 e0       	ldi	r23, 0x00	; 0
    3326:	93 2f       	mov	r25, r19
    3328:	82 2f       	mov	r24, r18
    332a:	0e 94 e0 0f 	call	0x1fc0
    332e:	80 91 9f 01 	lds	r24, 0x019F
    3332:	90 91 a0 01 	lds	r25, 0x01A0
    3336:	90 93 1a 03 	sts	0x031A, r25
    333a:	80 93 19 03 	sts	0x0319, r24
    333e:	80 91 68 00 	lds	r24, 0x0068
    3342:	90 91 69 00 	lds	r25, 0x0069
    3346:	90 93 84 01 	sts	0x0184, r25
    334a:	80 93 83 01 	sts	0x0183, r24
    334e:	08 95       	ret
    3350:	80 91 6c 00 	lds	r24, 0x006C
    3354:	90 91 6d 00 	lds	r25, 0x006D
    3358:	a0 91 6e 00 	lds	r26, 0x006E
    335c:	b0 91 6f 00 	lds	r27, 0x006F
    3360:	01 97       	sbiw	r24, 0x01	; 1
    3362:	a1 09       	sbc	r26, r1
    3364:	b1 09       	sbc	r27, r1
    3366:	80 93 6c 00 	sts	0x006C, r24
    336a:	90 93 6d 00 	sts	0x006D, r25
    336e:	a0 93 6e 00 	sts	0x006E, r26
    3372:	b0 93 6f 00 	sts	0x006F, r27
    3376:	20 91 9f 01 	lds	r18, 0x019F
    337a:	30 91 a0 01 	lds	r19, 0x01A0
    337e:	81 e0       	ldi	r24, 0x01	; 1
    3380:	90 e0       	ldi	r25, 0x00	; 0
    3382:	90 93 69 00 	sts	0x0069, r25
    3386:	80 93 68 00 	sts	0x0068, r24
    338a:	40 e0       	ldi	r20, 0x00	; 0
    338c:	60 e0       	ldi	r22, 0x00	; 0
    338e:	70 e0       	ldi	r23, 0x00	; 0
    3390:	93 2f       	mov	r25, r19
    3392:	82 2f       	mov	r24, r18
    3394:	0e 94 e0 0f 	call	0x1fc0
    3398:	08 95       	ret

0000339a <Writer$IFileBlockMeta$writeDone>:
    339a:	0f 93       	push	r16
    339c:	1f 93       	push	r17
    339e:	cf 93       	push	r28
    33a0:	c8 2f       	mov	r28, r24
    33a2:	80 91 70 00 	lds	r24, 0x0070
    33a6:	cc 23       	and	r28, r28
    33a8:	09 f0       	breq	.+2      	; 0x33ac
    33aa:	4e c1       	rjmp	.+668    	; 0x3648
    33ac:	99 27       	eor	r25, r25
    33ae:	86 30       	cpi	r24, 0x06	; 6
    33b0:	91 05       	cpc	r25, r1
    33b2:	09 f4       	brne	.+2      	; 0x33b6
    33b4:	5b c0       	rjmp	.+182    	; 0x346c
    33b6:	87 30       	cpi	r24, 0x07	; 7
    33b8:	91 05       	cpc	r25, r1
    33ba:	94 f4       	brge	.+36     	; 0x33e0
    33bc:	83 30       	cpi	r24, 0x03	; 3
    33be:	91 05       	cpc	r25, r1
    33c0:	29 f1       	breq	.+74     	; 0x340c
    33c2:	84 30       	cpi	r24, 0x04	; 4
    33c4:	91 05       	cpc	r25, r1
    33c6:	24 f4       	brge	.+8      	; 0x33d0
    33c8:	89 2b       	or	r24, r25
    33ca:	09 f4       	brne	.+2      	; 0x33ce
    33cc:	65 c0       	rjmp	.+202    	; 0x3498
    33ce:	c6 c1       	rjmp	.+908    	; 0x375c
    33d0:	84 30       	cpi	r24, 0x04	; 4
    33d2:	91 05       	cpc	r25, r1
    33d4:	09 f4       	brne	.+2      	; 0x33d8
    33d6:	4a c0       	rjmp	.+148    	; 0x346c
    33d8:	05 97       	sbiw	r24, 0x05	; 5
    33da:	09 f4       	brne	.+2      	; 0x33de
    33dc:	ca c0       	rjmp	.+404    	; 0x3572
    33de:	be c1       	rjmp	.+892    	; 0x375c
    33e0:	89 30       	cpi	r24, 0x09	; 9
    33e2:	91 05       	cpc	r25, r1
    33e4:	71 f1       	breq	.+92     	; 0x3442
    33e6:	8a 30       	cpi	r24, 0x0A	; 10
    33e8:	91 05       	cpc	r25, r1
    33ea:	44 f4       	brge	.+16     	; 0x33fc
    33ec:	87 30       	cpi	r24, 0x07	; 7
    33ee:	91 05       	cpc	r25, r1
    33f0:	09 f4       	brne	.+2      	; 0x33f4
    33f2:	89 c0       	rjmp	.+274    	; 0x3506
    33f4:	08 97       	sbiw	r24, 0x08	; 8
    33f6:	09 f4       	brne	.+2      	; 0x33fa
    33f8:	11 c1       	rjmp	.+546    	; 0x361c
    33fa:	b0 c1       	rjmp	.+864    	; 0x375c
    33fc:	8a 30       	cpi	r24, 0x0A	; 10
    33fe:	91 05       	cpc	r25, r1
    3400:	09 f4       	brne	.+2      	; 0x3404
    3402:	df c0       	rjmp	.+446    	; 0x35c2
    3404:	0b 97       	sbiw	r24, 0x0b	; 11
    3406:	09 f4       	brne	.+2      	; 0x340a
    3408:	09 c1       	rjmp	.+530    	; 0x361c
    340a:	a8 c1       	rjmp	.+848    	; 0x375c
    340c:	a0 91 be 02 	lds	r26, 0x02BE
    3410:	8a 2f       	mov	r24, r26
    3412:	99 27       	eor	r25, r25
    3414:	6d e0       	ldi	r22, 0x0D	; 13
    3416:	70 e0       	ldi	r23, 0x00	; 0
    3418:	0e 94 29 20 	call	0x4052
    341c:	f9 2f       	mov	r31, r25
    341e:	e8 2f       	mov	r30, r24
    3420:	e1 56       	subi	r30, 0x61	; 97
    3422:	fe 4f       	sbci	r31, 0xFE	; 254
    3424:	24 81       	ldd	r18, Z+4	; 0x04
    3426:	35 81       	ldd	r19, Z+5	; 0x05
    3428:	8a e2       	ldi	r24, 0x2A	; 42
    342a:	96 e0       	ldi	r25, 0x06	; 6
    342c:	84 83       	std	Z+4, r24	; 0x04
    342e:	95 83       	std	Z+5, r25	; 0x05
    3430:	10 86       	std	Z+8, r1	; 0x08
    3432:	11 86       	std	Z+9, r1	; 0x09
    3434:	12 86       	std	Z+10, r1	; 0x0a
    3436:	13 86       	std	Z+11, r1	; 0x0b
    3438:	4c 2f       	mov	r20, r28
    343a:	73 2f       	mov	r23, r19
    343c:	62 2f       	mov	r22, r18
    343e:	8a 2f       	mov	r24, r26
    3440:	8b c1       	rjmp	.+790    	; 0x3758
    3442:	80 91 be 02 	lds	r24, 0x02BE
    3446:	99 27       	eor	r25, r25
    3448:	6d e0       	ldi	r22, 0x0D	; 13
    344a:	70 e0       	ldi	r23, 0x00	; 0
    344c:	0e 94 29 20 	call	0x4052
    3450:	f9 2f       	mov	r31, r25
    3452:	e8 2f       	mov	r30, r24
    3454:	e1 56       	subi	r30, 0x61	; 97
    3456:	fe 4f       	sbci	r31, 0xFE	; 254
    3458:	24 81       	ldd	r18, Z+4	; 0x04
    345a:	35 81       	ldd	r19, Z+5	; 0x05
    345c:	84 85       	ldd	r24, Z+12	; 0x0c
    345e:	48 2f       	mov	r20, r24
    3460:	73 2f       	mov	r23, r19
    3462:	62 2f       	mov	r22, r18
    3464:	83 e0       	ldi	r24, 0x03	; 3
    3466:	0e 94 7d 10 	call	0x20fa
    346a:	78 c1       	rjmp	.+752    	; 0x375c
    346c:	80 91 99 00 	lds	r24, 0x0099
    3470:	90 91 9a 00 	lds	r25, 0x009A
    3474:	01 97       	sbiw	r24, 0x01	; 1
    3476:	90 93 9a 00 	sts	0x009A, r25
    347a:	80 93 99 00 	sts	0x0099, r24
    347e:	a0 91 62 03 	lds	r26, 0x0362
    3482:	b0 91 63 03 	lds	r27, 0x0363
    3486:	89 2b       	or	r24, r25
    3488:	b1 f4       	brne	.+44     	; 0x34b6
    348a:	81 e0       	ldi	r24, 0x01	; 1
    348c:	80 93 9e 01 	sts	0x019E, r24
    3490:	65 e0       	ldi	r22, 0x05	; 5
    3492:	8a 2f       	mov	r24, r26
    3494:	9b 2f       	mov	r25, r27
    3496:	d5 c0       	rjmp	.+426    	; 0x3642
    3498:	80 91 99 00 	lds	r24, 0x0099
    349c:	90 91 9a 00 	lds	r25, 0x009A
    34a0:	01 97       	sbiw	r24, 0x01	; 1
    34a2:	90 93 9a 00 	sts	0x009A, r25
    34a6:	80 93 99 00 	sts	0x0099, r24
    34aa:	a0 91 62 03 	lds	r26, 0x0362
    34ae:	b0 91 63 03 	lds	r27, 0x0363
    34b2:	89 2b       	or	r24, r25
    34b4:	29 f0       	breq	.+10     	; 0x34c0
    34b6:	81 e0       	ldi	r24, 0x01	; 1
    34b8:	80 93 9e 01 	sts	0x019E, r24
    34bc:	67 e0       	ldi	r22, 0x07	; 7
    34be:	e9 cf       	rjmp	.-46     	; 0x3492
    34c0:	20 91 be 02 	lds	r18, 0x02BE
    34c4:	02 2f       	mov	r16, r18
    34c6:	11 27       	eor	r17, r17
    34c8:	91 2f       	mov	r25, r17
    34ca:	80 2f       	mov	r24, r16
    34cc:	6d e0       	ldi	r22, 0x0D	; 13
    34ce:	70 e0       	ldi	r23, 0x00	; 0
    34d0:	0e 94 29 20 	call	0x4052
    34d4:	f9 2f       	mov	r31, r25
    34d6:	e8 2f       	mov	r30, r24
    34d8:	e1 56       	subi	r30, 0x61	; 97
    34da:	fe 4f       	sbci	r31, 0xFE	; 254
    34dc:	a0 83       	st	Z, r26
    34de:	b1 83       	std	Z+1, r27	; 0x01
    34e0:	a2 83       	std	Z+2, r26	; 0x02
    34e2:	b3 83       	std	Z+3, r27	; 0x03
    34e4:	80 91 68 03 	lds	r24, 0x0368
    34e8:	90 91 69 03 	lds	r25, 0x0369
    34ec:	84 83       	std	Z+4, r24	; 0x04
    34ee:	95 83       	std	Z+5, r25	; 0x05
    34f0:	6c 2f       	mov	r22, r28
    34f2:	82 2f       	mov	r24, r18
    34f4:	0e 94 89 12 	call	0x2512
    34f8:	01 2b       	or	r16, r17
    34fa:	09 f0       	breq	.+2      	; 0x34fe
    34fc:	2f c1       	rjmp	.+606    	; 0x375c
    34fe:	8c 2f       	mov	r24, r28
    3500:	0e 94 98 12 	call	0x2530
    3504:	2b c1       	rjmp	.+598    	; 0x375c
    3506:	80 91 be 02 	lds	r24, 0x02BE
    350a:	99 27       	eor	r25, r25
    350c:	6d e0       	ldi	r22, 0x0D	; 13
    350e:	70 e0       	ldi	r23, 0x00	; 0
    3510:	0e 94 29 20 	call	0x4052
    3514:	f9 2f       	mov	r31, r25
    3516:	e8 2f       	mov	r30, r24
    3518:	e1 56       	subi	r30, 0x61	; 97
    351a:	fe 4f       	sbci	r31, 0xFE	; 254
    351c:	22 81       	ldd	r18, Z+2	; 0x02
    351e:	33 81       	ldd	r19, Z+3	; 0x03
    3520:	81 e0       	ldi	r24, 0x01	; 1
    3522:	80 93 9e 01 	sts	0x019E, r24
    3526:	67 e0       	ldi	r22, 0x07	; 7
    3528:	93 2f       	mov	r25, r19
    352a:	82 2f       	mov	r24, r18
    352c:	0e 94 0a 0c 	call	0x1814
    3530:	80 91 be 02 	lds	r24, 0x02BE
    3534:	99 27       	eor	r25, r25
    3536:	6d e0       	ldi	r22, 0x0D	; 13
    3538:	70 e0       	ldi	r23, 0x00	; 0
    353a:	0e 94 29 20 	call	0x4052
    353e:	f9 2f       	mov	r31, r25
    3540:	e8 2f       	mov	r30, r24
    3542:	e1 56       	subi	r30, 0x61	; 97
    3544:	fe 4f       	sbci	r31, 0xFE	; 254
    3546:	80 91 62 03 	lds	r24, 0x0362
    354a:	90 91 63 03 	lds	r25, 0x0363
    354e:	82 83       	std	Z+2, r24	; 0x02
    3550:	93 83       	std	Z+3, r25	; 0x03
    3552:	86 81       	ldd	r24, Z+6	; 0x06
    3554:	97 81       	ldd	r25, Z+7	; 0x07
    3556:	01 96       	adiw	r24, 0x01	; 1
    3558:	86 83       	std	Z+6, r24	; 0x06
    355a:	97 83       	std	Z+7, r25	; 0x07
    355c:	80 91 68 03 	lds	r24, 0x0368
    3560:	90 91 69 03 	lds	r25, 0x0369
    3564:	84 83       	std	Z+4, r24	; 0x04
    3566:	95 83       	std	Z+5, r25	; 0x05
    3568:	10 86       	std	Z+8, r1	; 0x08
    356a:	11 86       	std	Z+9, r1	; 0x09
    356c:	12 86       	std	Z+10, r1	; 0x0a
    356e:	13 86       	std	Z+11, r1	; 0x0b
    3570:	f5 c0       	rjmp	.+490    	; 0x375c
    3572:	20 91 6a 00 	lds	r18, 0x006A
    3576:	30 91 6b 00 	lds	r19, 0x006B
    357a:	81 e0       	ldi	r24, 0x01	; 1
    357c:	80 93 9e 01 	sts	0x019E, r24
    3580:	67 e0       	ldi	r22, 0x07	; 7
    3582:	93 2f       	mov	r25, r19
    3584:	82 2f       	mov	r24, r18
    3586:	0e 94 0a 0c 	call	0x1814
    358a:	80 91 be 02 	lds	r24, 0x02BE
    358e:	99 27       	eor	r25, r25
    3590:	6d e0       	ldi	r22, 0x0D	; 13
    3592:	70 e0       	ldi	r23, 0x00	; 0
    3594:	0e 94 29 20 	call	0x4052
    3598:	f9 2f       	mov	r31, r25
    359a:	e8 2f       	mov	r30, r24
    359c:	e1 56       	subi	r30, 0x61	; 97
    359e:	fe 4f       	sbci	r31, 0xFE	; 254
    35a0:	20 91 6a 00 	lds	r18, 0x006A
    35a4:	30 91 6b 00 	lds	r19, 0x006B
    35a8:	82 81       	ldd	r24, Z+2	; 0x02
    35aa:	93 81       	ldd	r25, Z+3	; 0x03
    35ac:	28 17       	cp	r18, r24
    35ae:	39 07       	cpc	r19, r25
    35b0:	09 f0       	breq	.+2      	; 0x35b4
    35b2:	d4 c0       	rjmp	.+424    	; 0x375c
    35b4:	80 91 62 03 	lds	r24, 0x0362
    35b8:	90 91 63 03 	lds	r25, 0x0363
    35bc:	84 83       	std	Z+4, r24	; 0x04
    35be:	95 83       	std	Z+5, r25	; 0x05
    35c0:	cd c0       	rjmp	.+410    	; 0x375c
    35c2:	80 91 be 02 	lds	r24, 0x02BE
    35c6:	99 27       	eor	r25, r25
    35c8:	6d e0       	ldi	r22, 0x0D	; 13
    35ca:	70 e0       	ldi	r23, 0x00	; 0
    35cc:	0e 94 29 20 	call	0x4052
    35d0:	f9 2f       	mov	r31, r25
    35d2:	e8 2f       	mov	r30, r24
    35d4:	e1 56       	subi	r30, 0x61	; 97
    35d6:	fe 4f       	sbci	r31, 0xFE	; 254
    35d8:	22 81       	ldd	r18, Z+2	; 0x02
    35da:	33 81       	ldd	r19, Z+3	; 0x03
    35dc:	80 81       	ld	r24, Z
    35de:	91 81       	ldd	r25, Z+1	; 0x01
    35e0:	28 17       	cp	r18, r24
    35e2:	39 07       	cpc	r19, r25
    35e4:	d9 f0       	breq	.+54     	; 0x361c
    35e6:	8b e0       	ldi	r24, 0x0B	; 11
    35e8:	80 93 70 00 	sts	0x0070, r24
    35ec:	81 e0       	ldi	r24, 0x01	; 1
    35ee:	80 93 9e 01 	sts	0x019E, r24
    35f2:	67 e0       	ldi	r22, 0x07	; 7
    35f4:	93 2f       	mov	r25, r19
    35f6:	82 2f       	mov	r24, r18
    35f8:	0e 94 0a 0c 	call	0x1814
    35fc:	80 91 be 02 	lds	r24, 0x02BE
    3600:	99 27       	eor	r25, r25
    3602:	6d e0       	ldi	r22, 0x0D	; 13
    3604:	70 e0       	ldi	r23, 0x00	; 0
    3606:	0e 94 29 20 	call	0x4052
    360a:	f9 2f       	mov	r31, r25
    360c:	e8 2f       	mov	r30, r24
    360e:	e1 56       	subi	r30, 0x61	; 97
    3610:	fe 4f       	sbci	r31, 0xFE	; 254
    3612:	80 81       	ld	r24, Z
    3614:	91 81       	ldd	r25, Z+1	; 0x01
    3616:	82 83       	std	Z+2, r24	; 0x02
    3618:	93 83       	std	Z+3, r25	; 0x03
    361a:	a0 c0       	rjmp	.+320    	; 0x375c
    361c:	80 91 be 02 	lds	r24, 0x02BE
    3620:	99 27       	eor	r25, r25
    3622:	6d e0       	ldi	r22, 0x0D	; 13
    3624:	70 e0       	ldi	r23, 0x00	; 0
    3626:	0e 94 29 20 	call	0x4052
    362a:	f9 2f       	mov	r31, r25
    362c:	e8 2f       	mov	r30, r24
    362e:	e1 56       	subi	r30, 0x61	; 97
    3630:	fe 4f       	sbci	r31, 0xFE	; 254
    3632:	22 81       	ldd	r18, Z+2	; 0x02
    3634:	33 81       	ldd	r19, Z+3	; 0x03
    3636:	81 e0       	ldi	r24, 0x01	; 1
    3638:	80 93 9e 01 	sts	0x019E, r24
    363c:	65 e0       	ldi	r22, 0x05	; 5
    363e:	93 2f       	mov	r25, r19
    3640:	82 2f       	mov	r24, r18
    3642:	0e 94 0a 0c 	call	0x1814
    3646:	8a c0       	rjmp	.+276    	; 0x375c
    3648:	99 27       	eor	r25, r25
    364a:	87 30       	cpi	r24, 0x07	; 7
    364c:	91 05       	cpc	r25, r1
    364e:	09 f1       	breq	.+66     	; 0x3692
    3650:	88 30       	cpi	r24, 0x08	; 8
    3652:	91 05       	cpc	r25, r1
    3654:	9c f4       	brge	.+38     	; 0x367c
    3656:	83 30       	cpi	r24, 0x03	; 3
    3658:	91 05       	cpc	r25, r1
    365a:	09 f4       	brne	.+2      	; 0x365e
    365c:	78 c0       	rjmp	.+240    	; 0x374e
    365e:	84 30       	cpi	r24, 0x04	; 4
    3660:	91 05       	cpc	r25, r1
    3662:	24 f4       	brge	.+8      	; 0x366c
    3664:	89 2b       	or	r24, r25
    3666:	09 f4       	brne	.+2      	; 0x366a
    3668:	5a c0       	rjmp	.+180    	; 0x371e
    366a:	78 c0       	rjmp	.+240    	; 0x375c
    366c:	84 30       	cpi	r24, 0x04	; 4
    366e:	91 05       	cpc	r25, r1
    3670:	09 f4       	brne	.+2      	; 0x3674
    3672:	55 c0       	rjmp	.+170    	; 0x371e
    3674:	06 97       	sbiw	r24, 0x06	; 6
    3676:	09 f4       	brne	.+2      	; 0x367a
    3678:	52 c0       	rjmp	.+164    	; 0x371e
    367a:	70 c0       	rjmp	.+224    	; 0x375c
    367c:	89 30       	cpi	r24, 0x09	; 9
    367e:	91 05       	cpc	r25, r1
    3680:	41 f0       	breq	.+16     	; 0x3692
    3682:	89 30       	cpi	r24, 0x09	; 9
    3684:	91 05       	cpc	r25, r1
    3686:	0c f4       	brge	.+2      	; 0x368a
    3688:	54 c0       	rjmp	.+168    	; 0x3732
    368a:	0c 97       	sbiw	r24, 0x0c	; 12
    368c:	0c f0       	brlt	.+2      	; 0x3690
    368e:	66 c0       	rjmp	.+204    	; 0x375c
    3690:	50 c0       	rjmp	.+160    	; 0x3732
    3692:	10 91 be 02 	lds	r17, 0x02BE
    3696:	40 91 9a 01 	lds	r20, 0x019A
    369a:	50 91 9b 01 	lds	r21, 0x019B
    369e:	60 91 9c 01 	lds	r22, 0x019C
    36a2:	70 91 9d 01 	lds	r23, 0x019D
    36a6:	80 91 bf 02 	lds	r24, 0x02BF
    36aa:	90 91 c0 02 	lds	r25, 0x02C0
    36ae:	a0 91 c1 02 	lds	r26, 0x02C1
    36b2:	b0 91 c2 02 	lds	r27, 0x02C2
    36b6:	48 1b       	sub	r20, r24
    36b8:	59 0b       	sbc	r21, r25
    36ba:	6a 0b       	sbc	r22, r26
    36bc:	7b 0b       	sbc	r23, r27
    36be:	2c 2f       	mov	r18, r28
    36c0:	81 2f       	mov	r24, r17
    36c2:	0e 94 a8 0a 	call	0x1550
    36c6:	81 2f       	mov	r24, r17
    36c8:	99 27       	eor	r25, r25
    36ca:	89 2b       	or	r24, r25
    36cc:	09 f0       	breq	.+2      	; 0x36d0
    36ce:	46 c0       	rjmp	.+140    	; 0x375c
    36d0:	c0 93 90 01 	sts	0x0190, r28
    36d4:	80 91 ac 02 	lds	r24, 0x02AC
    36d8:	99 27       	eor	r25, r25
    36da:	81 30       	cpi	r24, 0x01	; 1
    36dc:	91 05       	cpc	r25, r1
    36de:	59 f0       	breq	.+22     	; 0x36f6
    36e0:	82 30       	cpi	r24, 0x02	; 2
    36e2:	91 05       	cpc	r25, r1
    36e4:	1c f4       	brge	.+6      	; 0x36ec
    36e6:	89 2b       	or	r24, r25
    36e8:	21 f0       	breq	.+8      	; 0x36f2
    36ea:	38 c0       	rjmp	.+112    	; 0x375c
    36ec:	02 97       	sbiw	r24, 0x02	; 2
    36ee:	29 f0       	breq	.+10     	; 0x36fa
    36f0:	35 c0       	rjmp	.+106    	; 0x375c
    36f2:	80 e0       	ldi	r24, 0x00	; 0
    36f4:	0c c0       	rjmp	.+24     	; 0x370e
    36f6:	83 e0       	ldi	r24, 0x03	; 3
    36f8:	0a c0       	rjmp	.+20     	; 0x370e
    36fa:	80 91 7d 00 	lds	r24, 0x007D
    36fe:	99 27       	eor	r25, r25
    3700:	81 30       	cpi	r24, 0x01	; 1
    3702:	91 05       	cpc	r25, r1
    3704:	19 f0       	breq	.+6      	; 0x370c
    3706:	02 97       	sbiw	r24, 0x02	; 2
    3708:	29 f0       	breq	.+10     	; 0x3714
    370a:	28 c0       	rjmp	.+80     	; 0x375c
    370c:	84 e0       	ldi	r24, 0x04	; 4
    370e:	0e 94 89 0f 	call	0x1f12
    3712:	24 c0       	rjmp	.+72     	; 0x375c
    3714:	60 e0       	ldi	r22, 0x00	; 0
    3716:	82 e0       	ldi	r24, 0x02	; 2
    3718:	0e 94 9f 0f 	call	0x1f3e
    371c:	1f c0       	rjmp	.+62     	; 0x375c
    371e:	80 91 62 03 	lds	r24, 0x0362
    3722:	90 91 63 03 	lds	r25, 0x0363
    3726:	0e 94 5a 10 	call	0x20b4
    372a:	8c 2f       	mov	r24, r28
    372c:	0e 94 25 12 	call	0x244a
    3730:	15 c0       	rjmp	.+42     	; 0x375c
    3732:	10 91 be 02 	lds	r17, 0x02BE
    3736:	6c 2f       	mov	r22, r28
    3738:	81 2f       	mov	r24, r17
    373a:	0e 94 2f 19 	call	0x325e
    373e:	81 2f       	mov	r24, r17
    3740:	99 27       	eor	r25, r25
    3742:	89 2b       	or	r24, r25
    3744:	59 f4       	brne	.+22     	; 0x375c
    3746:	8c 2f       	mov	r24, r28
    3748:	0e 94 82 19 	call	0x3304
    374c:	07 c0       	rjmp	.+14     	; 0x375c
    374e:	80 91 be 02 	lds	r24, 0x02BE
    3752:	4c 2f       	mov	r20, r28
    3754:	60 e0       	ldi	r22, 0x00	; 0
    3756:	70 e0       	ldi	r23, 0x00	; 0
    3758:	0e 94 b2 1b 	call	0x3764
    375c:	cf 91       	pop	r28
    375e:	1f 91       	pop	r17
    3760:	0f 91       	pop	r16
    3762:	08 95       	ret

00003764 <Write$IFileWrite2$truncated>:
    3764:	26 2f       	mov	r18, r22
    3766:	37 2f       	mov	r19, r23
    3768:	44 23       	and	r20, r20
    376a:	89 f4       	brne	.+34     	; 0x378e
    376c:	6a 52       	subi	r22, 0x2A	; 42
    376e:	76 40       	sbci	r23, 0x06	; 6
    3770:	71 f0       	breq	.+28     	; 0x378e
    3772:	82 e0       	ldi	r24, 0x02	; 2
    3774:	80 93 ac 02 	sts	0x02AC, r24
    3778:	10 92 69 00 	sts	0x0069, r1
    377c:	10 92 68 00 	sts	0x0068, r1
    3780:	60 e0       	ldi	r22, 0x00	; 0
    3782:	70 e0       	ldi	r23, 0x00	; 0
    3784:	93 2f       	mov	r25, r19
    3786:	82 2f       	mov	r24, r18
    3788:	0e 94 e0 0f 	call	0x1fc0
    378c:	08 95       	ret
    378e:	60 e0       	ldi	r22, 0x00	; 0
    3790:	70 e0       	ldi	r23, 0x00	; 0
    3792:	80 e0       	ldi	r24, 0x00	; 0
    3794:	90 e0       	ldi	r25, 0x00	; 0
    3796:	0e 94 3c 10 	call	0x2078
    379a:	08 95       	ret

0000379c <NoCRCPacket$ByteComm$rxByteReady>:
    379c:	38 2f       	mov	r19, r24
    379e:	66 23       	and	r22, r22
    37a0:	39 f0       	breq	.+14     	; 0x37b0
    37a2:	8f b7       	in	r24, 0x3f	; 63
    37a4:	f8 94       	cli
    37a6:	99 27       	eor	r25, r25
    37a8:	10 92 21 03 	sts	0x0321, r1
    37ac:	8f bf       	out	0x3f, r24	; 63
    37ae:	47 c0       	rjmp	.+142    	; 0x383e
    37b0:	8f b7       	in	r24, 0x3f	; 63
    37b2:	f8 94       	cli
    37b4:	a8 2f       	mov	r26, r24
    37b6:	bb 27       	eor	r27, r27
    37b8:	80 91 21 03 	lds	r24, 0x0321
    37bc:	88 23       	and	r24, r24
    37be:	31 f4       	brne	.+12     	; 0x37cc
    37c0:	e0 91 95 00 	lds	r30, 0x0095
    37c4:	f0 91 96 00 	lds	r31, 0x0096
    37c8:	44 a3       	std	Z+36, r20	; 0x24
    37ca:	55 a3       	std	Z+37, r21	; 0x25
    37cc:	20 91 21 03 	lds	r18, 0x0321
    37d0:	22 30       	cpi	r18, 0x02	; 2
    37d2:	21 f4       	brne	.+8      	; 0x37dc
    37d4:	84 e2       	ldi	r24, 0x24	; 36
    37d6:	90 e0       	ldi	r25, 0x00	; 0
    37d8:	80 93 91 01 	sts	0x0191, r24
    37dc:	e0 91 95 00 	lds	r30, 0x0095
    37e0:	f0 91 96 00 	lds	r31, 0x0096
    37e4:	e2 0f       	add	r30, r18
    37e6:	f1 1d       	adc	r31, r1
    37e8:	30 83       	st	Z, r19
    37ea:	92 2f       	mov	r25, r18
    37ec:	9f 5f       	subi	r25, 0xFF	; 255
    37ee:	90 93 21 03 	sts	0x0321, r25
    37f2:	26 2f       	mov	r18, r22
    37f4:	80 91 91 01 	lds	r24, 0x0191
    37f8:	98 17       	cp	r25, r24
    37fa:	09 f4       	brne	.+2      	; 0x37fe
    37fc:	21 e0       	ldi	r18, 0x01	; 1
    37fe:	af bf       	out	0x3f, r26	; 63
    3800:	22 23       	and	r18, r18
    3802:	01 f1       	breq	.+64     	; 0x3844
    3804:	8f b7       	in	r24, 0x3f	; 63
    3806:	f8 94       	cli
    3808:	28 2f       	mov	r18, r24
    380a:	33 27       	eor	r19, r19
    380c:	80 91 9b 03 	lds	r24, 0x039B
    3810:	91 e0       	ldi	r25, 0x01	; 1
    3812:	89 27       	eor	r24, r25
    3814:	80 93 9b 03 	sts	0x039B, r24
    3818:	e8 2f       	mov	r30, r24
    381a:	ff 27       	eor	r31, r31
    381c:	ee 0f       	add	r30, r30
    381e:	ff 1f       	adc	r31, r31
    3820:	ec 59       	subi	r30, 0x9C	; 156
    3822:	fc 4f       	sbci	r31, 0xFC	; 252
    3824:	80 81       	ld	r24, Z
    3826:	91 81       	ldd	r25, Z+1	; 0x01
    3828:	90 93 96 00 	sts	0x0096, r25
    382c:	80 93 95 00 	sts	0x0095, r24
    3830:	60 93 21 03 	sts	0x0321, r22
    3834:	2f bf       	out	0x3f, r18	; 63
    3836:	82 e6       	ldi	r24, 0x62	; 98
    3838:	9f e1       	ldi	r25, 0x1F	; 31
    383a:	0e 94 a1 01 	call	0x342
    383e:	80 e0       	ldi	r24, 0x00	; 0
    3840:	90 e0       	ldi	r25, 0x00	; 0
    3842:	08 95       	ret
    3844:	81 e0       	ldi	r24, 0x01	; 1
    3846:	90 e0       	ldi	r25, 0x00	; 0
    3848:	08 95       	ret

0000384a <UARTM$HPLUART$putDone>:
    384a:	8f b7       	in	r24, 0x3f	; 63
    384c:	f8 94       	cli
    384e:	99 27       	eor	r25, r25
    3850:	20 91 98 01 	lds	r18, 0x0198
    3854:	10 92 98 01 	sts	0x0198, r1
    3858:	8f bf       	out	0x3f, r24	; 63
    385a:	22 23       	and	r18, r18
    385c:	a1 f1       	breq	.+104    	; 0x38c6
    385e:	8f b7       	in	r24, 0x3f	; 63
    3860:	f8 94       	cli
    3862:	28 2f       	mov	r18, r24
    3864:	33 27       	eor	r19, r19
    3866:	40 e0       	ldi	r20, 0x00	; 0
    3868:	90 91 5f 03 	lds	r25, 0x035F
    386c:	80 91 8a 03 	lds	r24, 0x038A
    3870:	98 17       	cp	r25, r24
    3872:	09 f4       	brne	.+2      	; 0x3876
    3874:	41 e0       	ldi	r20, 0x01	; 1
    3876:	2f bf       	out	0x3f, r18	; 63
    3878:	44 23       	and	r20, r20
    387a:	19 f0       	breq	.+6      	; 0x3882
    387c:	81 e0       	ldi	r24, 0x01	; 1
    387e:	0e 94 66 1c 	call	0x38cc
    3882:	8f b7       	in	r24, 0x3f	; 63
    3884:	f8 94       	cli
    3886:	99 27       	eor	r25, r25
    3888:	30 91 5f 03 	lds	r19, 0x035F
    388c:	20 91 8a 03 	lds	r18, 0x038A
    3890:	8f bf       	out	0x3f, r24	; 63
    3892:	33 23       	and	r19, r19
    3894:	c1 f0       	breq	.+48     	; 0x38c6
    3896:	32 17       	cp	r19, r18
    3898:	b0 f4       	brcc	.+44     	; 0x38c6
    389a:	8f b7       	in	r24, 0x3f	; 63
    389c:	f8 94       	cli
    389e:	99 27       	eor	r25, r25
    38a0:	e0 91 9c 03 	lds	r30, 0x039C
    38a4:	f0 91 9d 03 	lds	r31, 0x039D
    38a8:	e3 0f       	add	r30, r19
    38aa:	f1 1d       	adc	r31, r1
    38ac:	20 81       	ld	r18, Z
    38ae:	3f 5f       	subi	r19, 0xFF	; 255
    38b0:	30 93 5f 03 	sts	0x035F, r19
    38b4:	8f bf       	out	0x3f, r24	; 63
    38b6:	82 2f       	mov	r24, r18
    38b8:	0e 94 5f 09 	call	0x12be
    38bc:	99 27       	eor	r25, r25
    38be:	88 23       	and	r24, r24
    38c0:	11 f4       	brne	.+4      	; 0x38c6
    38c2:	0e 94 66 1c 	call	0x38cc
    38c6:	81 e0       	ldi	r24, 0x01	; 1
    38c8:	90 e0       	ldi	r25, 0x00	; 0
    38ca:	08 95       	ret

000038cc <NoCRCPacket$sendComplete>:
    38cc:	38 2f       	mov	r19, r24
    38ce:	8f b7       	in	r24, 0x3f	; 63
    38d0:	f8 94       	cli
    38d2:	99 27       	eor	r25, r25
    38d4:	20 91 9e 00 	lds	r18, 0x009E
    38d8:	8f bf       	out	0x3f, r24	; 63
    38da:	21 30       	cpi	r18, 0x01	; 1
    38dc:	99 f4       	brne	.+38     	; 0x3904
    38de:	33 23       	and	r19, r19
    38e0:	61 f0       	breq	.+24     	; 0x38fa
    38e2:	8f b7       	in	r24, 0x3f	; 63
    38e4:	f8 94       	cli
    38e6:	99 27       	eor	r25, r25
    38e8:	e0 91 9c 03 	lds	r30, 0x039C
    38ec:	f0 91 9d 03 	lds	r31, 0x039D
    38f0:	26 a3       	std	Z+38, r18	; 0x26
    38f2:	8f bf       	out	0x3f, r24	; 63
    38f4:	87 e4       	ldi	r24, 0x47	; 71
    38f6:	9f e1       	ldi	r25, 0x1F	; 31
    38f8:	02 c0       	rjmp	.+4      	; 0x38fe
    38fa:	8e e3       	ldi	r24, 0x3E	; 62
    38fc:	9f e1       	ldi	r25, 0x1F	; 31
    38fe:	0e 94 a1 01 	call	0x342
    3902:	08 95       	ret
    3904:	22 30       	cpi	r18, 0x02	; 2
    3906:	41 f4       	brne	.+16     	; 0x3918
    3908:	33 23       	and	r19, r19
    390a:	19 f0       	breq	.+6      	; 0x3912
    390c:	89 e5       	ldi	r24, 0x59	; 89
    390e:	9f e1       	ldi	r25, 0x1F	; 31
    3910:	f6 cf       	rjmp	.-20     	; 0x38fe
    3912:	80 e5       	ldi	r24, 0x50	; 80
    3914:	9f e1       	ldi	r25, 0x1F	; 31
    3916:	f3 cf       	rjmp	.-26     	; 0x38fe
    3918:	8f b7       	in	r24, 0x3f	; 63
    391a:	f8 94       	cli
    391c:	99 27       	eor	r25, r25
    391e:	10 92 5f 03 	sts	0x035F, r1
    3922:	10 92 9e 00 	sts	0x009E, r1
    3926:	8f bf       	out	0x3f, r24	; 63
    3928:	08 95       	ret

0000392a <__vector_15>:
    392a:	78 94       	sei
    392c:	1f 92       	push	r1
    392e:	0f 92       	push	r0
    3930:	0f b6       	in	r0, 0x3f	; 63
    3932:	0f 92       	push	r0
    3934:	11 24       	eor	r1, r1
    3936:	2f 93       	push	r18
    3938:	3f 93       	push	r19
    393a:	8f 93       	push	r24
    393c:	9f 93       	push	r25
    393e:	af 93       	push	r26
    3940:	bf 93       	push	r27
    3942:	8f b7       	in	r24, 0x3f	; 63
    3944:	f8 94       	cli
    3946:	28 2f       	mov	r18, r24
    3948:	33 27       	eor	r19, r19
    394a:	80 91 a3 00 	lds	r24, 0x00A3
    394e:	88 23       	and	r24, r24
    3950:	69 f0       	breq	.+26     	; 0x396c
    3952:	80 91 8f 01 	lds	r24, 0x018F
    3956:	80 93 22 03 	sts	0x0322, r24
    395a:	88 60       	ori	r24, 0x08	; 8
    395c:	80 93 8f 01 	sts	0x018F, r24
    3960:	83 bf       	out	0x33, r24	; 51
    3962:	80 91 b4 00 	lds	r24, 0x00B4
    3966:	81 bf       	out	0x31, r24	; 49
    3968:	10 92 a3 00 	sts	0x00A3, r1
    396c:	2f bf       	out	0x3f, r18	; 63
    396e:	8f b7       	in	r24, 0x3f	; 63
    3970:	f8 94       	cli
    3972:	28 2f       	mov	r18, r24
    3974:	33 27       	eor	r19, r19
    3976:	80 91 5b 03 	lds	r24, 0x035B
    397a:	90 91 5c 03 	lds	r25, 0x035C
    397e:	a0 91 5d 03 	lds	r26, 0x035D
    3982:	b0 91 5e 03 	lds	r27, 0x035E
    3986:	01 96       	adiw	r24, 0x01	; 1
    3988:	a1 1d       	adc	r26, r1
    398a:	b1 1d       	adc	r27, r1
    398c:	80 93 5b 03 	sts	0x035B, r24
    3990:	90 93 5c 03 	sts	0x035C, r25
    3994:	a0 93 5d 03 	sts	0x035D, r26
    3998:	b0 93 5e 03 	sts	0x035E, r27
    399c:	2f bf       	out	0x3f, r18	; 63
    399e:	bf 91       	pop	r27
    39a0:	af 91       	pop	r26
    39a2:	9f 91       	pop	r25
    39a4:	8f 91       	pop	r24
    39a6:	3f 91       	pop	r19
    39a8:	2f 91       	pop	r18
    39aa:	0f 90       	pop	r0
    39ac:	0f be       	out	0x3f, r0	; 63
    39ae:	0f 90       	pop	r0
    39b0:	1f 90       	pop	r1
    39b2:	18 95       	reti

000039b4 <__nesc_atomic_end>:
    39b4:	8f bf       	out	0x3f, r24	; 63
    39b6:	08 95       	ret

000039b8 <__nesc_atomic_start>:
    39b8:	8f b7       	in	r24, 0x3f	; 63
    39ba:	f8 94       	cli
    39bc:	99 27       	eor	r25, r25
    39be:	08 95       	ret

000039c0 <MetaData$boot>:
    39c0:	0f 93       	push	r16
    39c2:	1f 93       	push	r17
    39c4:	10 92 52 03 	sts	0x0352, r1
    39c8:	10 92 51 03 	sts	0x0351, r1
    39cc:	60 e0       	ldi	r22, 0x00	; 0
    39ce:	70 e0       	ldi	r23, 0x00	; 0
    39d0:	70 93 1a 03 	sts	0x031A, r23
    39d4:	60 93 19 03 	sts	0x0319, r22
    39d8:	10 92 6c 00 	sts	0x006C, r1
    39dc:	10 92 6d 00 	sts	0x006D, r1
    39e0:	10 92 6e 00 	sts	0x006E, r1
    39e4:	10 92 6f 00 	sts	0x006F, r1
    39e8:	10 92 6a 03 	sts	0x036A, r1
    39ec:	83 e0       	ldi	r24, 0x03	; 3
    39ee:	80 93 9e 01 	sts	0x019E, r24
    39f2:	70 93 c2 00 	sts	0x00C2, r23
    39f6:	60 93 c1 00 	sts	0x00C1, r22
    39fa:	01 e0       	ldi	r16, 0x01	; 1
    39fc:	10 e0       	ldi	r17, 0x00	; 0
    39fe:	25 eb       	ldi	r18, 0xB5	; 181
    3a00:	32 e0       	ldi	r19, 0x02	; 2
    3a02:	42 e0       	ldi	r20, 0x02	; 2
    3a04:	51 e0       	ldi	r21, 0x01	; 1
    3a06:	81 e0       	ldi	r24, 0x01	; 1
    3a08:	0e 94 2f 04 	call	0x85e
    3a0c:	1f 91       	pop	r17
    3a0e:	0f 91       	pop	r16
    3a10:	08 95       	ret

00003a12 <MetaData$noFiles>:
    3a12:	80 91 6c 03 	lds	r24, 0x036C
    3a16:	99 27       	eor	r25, r25
    3a18:	82 30       	cpi	r24, 0x02	; 2
    3a1a:	91 05       	cpc	r25, r1
    3a1c:	e9 f0       	breq	.+58     	; 0x3a58
    3a1e:	83 30       	cpi	r24, 0x03	; 3
    3a20:	91 05       	cpc	r25, r1
    3a22:	2c f4       	brge	.+10     	; 0x3a2e
    3a24:	00 97       	sbiw	r24, 0x00	; 0
    3a26:	61 f0       	breq	.+24     	; 0x3a40
    3a28:	01 97       	sbiw	r24, 0x01	; 1
    3a2a:	81 f0       	breq	.+32     	; 0x3a4c
    3a2c:	08 95       	ret
    3a2e:	84 30       	cpi	r24, 0x04	; 4
    3a30:	91 05       	cpc	r25, r1
    3a32:	f1 f0       	breq	.+60     	; 0x3a70
    3a34:	84 30       	cpi	r24, 0x04	; 4
    3a36:	91 05       	cpc	r25, r1
    3a38:	ac f0       	brlt	.+42     	; 0x3a64
    3a3a:	05 97       	sbiw	r24, 0x05	; 5
    3a3c:	69 f1       	breq	.+90     	; 0x3a98
    3a3e:	08 95       	ret
    3a40:	61 e0       	ldi	r22, 0x01	; 1
    3a42:	85 e8       	ldi	r24, 0x85	; 133
    3a44:	90 e0       	ldi	r25, 0x00	; 0
    3a46:	0e 94 18 0a 	call	0x1430
    3a4a:	08 95       	ret
    3a4c:	61 e0       	ldi	r22, 0x01	; 1
    3a4e:	85 e8       	ldi	r24, 0x85	; 133
    3a50:	90 e0       	ldi	r25, 0x00	; 0
    3a52:	0e 94 0d 13 	call	0x261a
    3a56:	08 95       	ret
    3a58:	61 e0       	ldi	r22, 0x01	; 1
    3a5a:	85 e8       	ldi	r24, 0x85	; 133
    3a5c:	90 e0       	ldi	r25, 0x00	; 0
    3a5e:	0e 94 12 13 	call	0x2624
    3a62:	08 95       	ret
    3a64:	61 e0       	ldi	r22, 0x01	; 1
    3a66:	85 e8       	ldi	r24, 0x85	; 133
    3a68:	90 e0       	ldi	r25, 0x00	; 0
    3a6a:	0e 94 b0 13 	call	0x2760
    3a6e:	08 95       	ret
    3a70:	80 91 7d 00 	lds	r24, 0x007D
    3a74:	99 27       	eor	r25, r25
    3a76:	00 97       	sbiw	r24, 0x00	; 0
    3a78:	19 f0       	breq	.+6      	; 0x3a80
    3a7a:	01 97       	sbiw	r24, 0x01	; 1
    3a7c:	39 f0       	breq	.+14     	; 0x3a8c
    3a7e:	08 95       	ret
    3a80:	61 e0       	ldi	r22, 0x01	; 1
