
main.exe:     file format elf32-avr

Sections:
Idx Name          Size      VMA       LMA       File off  Algn
  0 .text         00004086  00000000  00000000  00000094  2**0
                  CONTENTS, ALLOC, LOAD, READONLY, CODE
  1 .data         00000112  00800060  00004086  0000411a  2**0
                  CONTENTS, ALLOC, LOAD, DATA
  2 .bss          0000031b  00800172  00800172  0000422c  2**0
                  ALLOC
  3 .noinit       00000000  0080048d  0080048d  0000422c  2**0
                  CONTENTS
  4 .eeprom       00000000  00810000  00810000  0000422c  2**0
                  CONTENTS
  5 .stab         00000360  00000000  00000000  0000422c  2**2
                  CONTENTS, READONLY, DEBUGGING
  6 .stabstr      00000051  00000000  00000000  0000458c  2**0
                  CONTENTS, READONLY, DEBUGGING
Disassembly of section .text:

00000000 <__vectors>:
       0:	0c 94 30 01 	jmp	0x260
       4:	0c 94 50 01 	jmp	0x2a0
       8:	0c 94 50 01 	jmp	0x2a0
       c:	0c 94 50 01 	jmp	0x2a0
      10:	0c 94 50 01 	jmp	0x2a0
      14:	0c 94 50 01 	jmp	0x2a0
      18:	0c 94 50 01 	jmp	0x2a0
      1c:	0c 94 50 01 	jmp	0x2a0
      20:	0c 94 50 01 	jmp	0x2a0
      24:	0c 94 7b 05 	jmp	0xaf6
      28:	0c 94 50 01 	jmp	0x2a0
      2c:	0c 94 50 01 	jmp	0x2a0
      30:	0c 94 50 01 	jmp	0x2a0
      34:	0c 94 50 01 	jmp	0x2a0
      38:	0c 94 50 01 	jmp	0x2a0
      3c:	0c 94 27 19 	jmp	0x324e
      40:	0c 94 50 01 	jmp	0x2a0
      44:	0c 94 52 01 	jmp	0x2a4
      48:	0c 94 dd 01 	jmp	0x3ba
      4c:	0c 94 50 01 	jmp	0x2a0
      50:	0c 94 07 02 	jmp	0x40e
      54:	0c 94 50 01 	jmp	0x2a0
      58:	0c 94 50 01 	jmp	0x2a0
      5c:	0c 94 50 01 	jmp	0x2a0

00000060 <__ctors_end>:
      60:	00 00       	nop
      62:	21 10       	cpse	r2, r1
      64:	42 20       	and	r4, r2
      66:	63 30       	cpi	r22, 0x03	; 3
      68:	84 40       	sbci	r24, 0x04	; 4
      6a:	a5 50       	subi	r26, 0x05	; 5
      6c:	c6 60       	ori	r28, 0x06	; 6
      6e:	e7 70       	andi	r30, 0x07	; 7
      70:	08 81       	ld	r16, Y
      72:	29 91       	ld	r18, Y+
      74:	4a a1       	ldd	r20, Y+34	; 0x22
      76:	6b b1       	in	r22, 0x0b	; 11
      78:	8c c1       	rjmp	.+792    	; 0x392
      7a:	ad d1       	rcall	.+858    	; 0x3d6
      7c:	ce e1       	ldi	r28, 0x1E	; 30
      7e:	ef f1       	brie	.+122    	; 0xfa
      80:	31 12       	cpse	r3, r17
      82:	10 02       	muls	r17, r16
      84:	73 32       	cpi	r23, 0x23	; 35
      86:	52 22       	and	r5, r18
      88:	b5 52       	subi	r27, 0x25	; 37
      8a:	94 42       	sbci	r25, 0x24	; 36
      8c:	f7 72       	andi	r31, 0x27	; 39
      8e:	d6 62       	ori	r29, 0x26	; 38
      90:	39 93       	st	Y+, r19
      92:	18 83       	st	Y, r17
      94:	7b b3       	in	r23, 0x1b	; 27
      96:	5a a3       	std	Y+34, r21	; 0x22
      98:	bd d3       	rcall	.+1914   	; 0x814
      9a:	9c c3       	rjmp	.+1848   	; 0x7d4
      9c:	ff f3       	brie	.-2      	; 0x9c
      9e:	de e3       	ldi	r29, 0x3E	; 62
      a0:	62 24       	eor	r6, r2
      a2:	43 34       	cpi	r20, 0x43	; 67
      a4:	20 04       	cpc	r2, r0
      a6:	01 14       	cp	r0, r1
      a8:	e6 64       	ori	r30, 0x46	; 70
      aa:	c7 74       	andi	r28, 0x47	; 71
      ac:	a4 44       	sbci	r26, 0x44	; 68
      ae:	85 54       	subi	r24, 0x45	; 69
      b0:	6a a5       	ldd	r22, Y+42	; 0x2a
      b2:	4b b5       	in	r20, 0x2b	; 43
      b4:	28 85       	ldd	r18, Y+8	; 0x08
      b6:	09 95       	icall
      b8:	ee e5       	ldi	r30, 0x5E	; 94
      ba:	cf f5       	brid	.+114    	; 0x12e
      bc:	ac c5       	rjmp	.+2904   	; 0xc16
      be:	8d d5       	rcall	.+2842   	; 0xbda
      c0:	53 36       	cpi	r21, 0x63	; 99
      c2:	72 26       	eor	r7, r18
      c4:	11 16       	cp	r1, r17
      c6:	30 06       	cpc	r3, r16
      c8:	d7 76       	andi	r29, 0x67	; 103
      ca:	f6 66       	ori	r31, 0x66	; 102
      cc:	95 56       	subi	r25, 0x65	; 101
      ce:	b4 46       	sbci	r27, 0x64	; 100
      d0:	5b b7       	in	r21, 0x3b	; 59
      d2:	7a a7       	std	Y+42, r23	; 0x2a
      d4:	19 97       	sbiw	r26, 0x09	; 9
      d6:	38 87       	std	Y+8, r19	; 0x08
      d8:	df f7       	brid	.-10     	; 0xd0
      da:	fe e7       	ldi	r31, 0x7E	; 126
      dc:	9d d7       	rcall	.+3898   	; 0x1018
      de:	bc c7       	rjmp	.+3960   	; 0x1058
      e0:	c4 48       	sbci	r28, 0x84	; 132
      e2:	e5 58       	subi	r30, 0x85	; 133
      e4:	86 68       	ori	r24, 0x86	; 134
      e6:	a7 78       	andi	r26, 0x87	; 135
      e8:	40 08       	sbc	r4, r0
      ea:	61 18       	sub	r6, r1
      ec:	02 28       	or	r0, r2
      ee:	23 38       	cpi	r18, 0x83	; 131
      f0:	cc c9       	rjmp	.-3176   	; 0xfffff48a
      f2:	ed d9       	rcall	.-3110   	; 0xfffff4ce
      f4:	8e e9       	ldi	r24, 0x9E	; 158
      f6:	af f9       	.word	0xf9af	; ????
      f8:	48 89       	ldd	r20, Y+16	; 0x10
      fa:	69 99       	sbic	0x0d, 1	; 13
      fc:	0a a9       	ldd	r16, Y+50	; 0x32
      fe:	2b b9       	out	0x0b, r18	; 11
     100:	f5 5a       	subi	r31, 0xA5	; 165
     102:	d4 4a       	sbci	r29, 0xA4	; 164
     104:	b7 7a       	andi	r27, 0xA7	; 167
     106:	96 6a       	ori	r25, 0xA6	; 166
     108:	71 1a       	sub	r7, r17
     10a:	50 0a       	sbc	r5, r16
     10c:	33 3a       	cpi	r19, 0xA3	; 163
     10e:	12 2a       	or	r1, r18
     110:	fd db       	rcall	.-2054   	; 0xfffff90c
     112:	dc cb       	rjmp	.-2120   	; 0xfffff8cc
     114:	bf fb       	.word	0xfbbf	; ????
     116:	9e eb       	ldi	r25, 0xBE	; 190
     118:	79 9b       	sbis	0x0f, 1	; 15
     11a:	58 8b       	std	Y+16, r21	; 0x10
     11c:	3b bb       	out	0x1b, r19	; 27
     11e:	1a ab       	std	Y+50, r17	; 0x32
     120:	a6 6c       	ori	r26, 0xC6	; 198
     122:	87 7c       	andi	r24, 0xC7	; 199
     124:	e4 4c       	sbci	r30, 0xC4	; 196
     126:	c5 5c       	subi	r28, 0xC5	; 197
     128:	22 2c       	mov	r2, r2
     12a:	03 3c       	cpi	r16, 0xC3	; 195
     12c:	60 0c       	add	r6, r0
     12e:	41 1c       	adc	r4, r1
     130:	ae ed       	ldi	r26, 0xDE	; 222
     132:	8f fd       	.word	0xfd8f	; ????
     134:	ec cd       	rjmp	.-1064   	; 0xfffffd0e
     136:	cd dd       	rcall	.-1126   	; 0xfffffcd2
     138:	2a ad       	ldd	r18, Y+58	; 0x3a
     13a:	0b bd       	out	0x2b, r16	; 43
     13c:	68 8d       	ldd	r22, Y+24	; 0x18
     13e:	49 9d       	mul	r20, r9
     140:	97 7e       	andi	r25, 0xE7	; 231
     142:	b6 6e       	ori	r27, 0xE6	; 230
     144:	d5 5e       	subi	r29, 0xE5	; 229
     146:	f4 4e       	sbci	r31, 0xE4	; 228
     148:	13 3e       	cpi	r17, 0xE3	; 227
     14a:	32 2e       	mov	r3, r18
     14c:	51 1e       	adc	r5, r17
     14e:	70 0e       	add	r7, r16
     150:	9f ff       	.word	0xff9f	; ????
     152:	be ef       	ldi	r27, 0xFE	; 254
     154:	dd df       	rcall	.-70     	; 0x110
     156:	fc cf       	rjmp	.-8      	; 0x150
     158:	1b bf       	out	0x3b, r17	; 59
     15a:	3a af       	std	Y+58, r19	; 0x3a
     15c:	59 9f       	mul	r21, r25
     15e:	78 8f       	std	Y+24, r23	; 0x18
     160:	88 91       	.word	0x9188	; ????
     162:	a9 81       	ldd	r26, Y+1	; 0x01
     164:	ca b1       	in	r28, 0x0a	; 10
     166:	eb a1       	ldd	r30, Y+35	; 0x23
     168:	0c d1       	rcall	.+536    	; 0x382
     16a:	2d c1       	rjmp	.+602    	; 0x3c6
     16c:	4e f1       	brts	.+82     	; 0x1c0
     16e:	6f e1       	ldi	r22, 0x1F	; 31
     170:	80 10       	cpse	r8, r0
     172:	a1 00       	.word	0x00a1	; ????
     174:	c2 30       	cpi	r28, 0x02	; 2
     176:	e3 20       	and	r14, r3
     178:	04 50       	subi	r16, 0x04	; 4
     17a:	25 40       	sbci	r18, 0x05	; 5
     17c:	46 70       	andi	r20, 0x06	; 6
     17e:	67 60       	ori	r22, 0x07	; 7
     180:	b9 83       	std	Y+1, r27	; 0x01
     182:	98 93       	.word	0x9398	; ????
     184:	fb a3       	std	Y+35, r31	; 0x23
     186:	da b3       	in	r29, 0x1a	; 26
     188:	3d c3       	rjmp	.+1658   	; 0x804
     18a:	1c d3       	rcall	.+1592   	; 0x7c4
     18c:	7f e3       	ldi	r23, 0x3F	; 63
     18e:	5e f3       	brts	.-42     	; 0x166
     190:	b1 02       	muls	r27, r17
     192:	90 12       	cpse	r9, r16
     194:	f3 22       	and	r15, r19
     196:	d2 32       	cpi	r29, 0x22	; 34
     198:	35 42       	sbci	r19, 0x25	; 37
     19a:	14 52       	subi	r17, 0x24	; 36
     19c:	77 62       	ori	r23, 0x27	; 39
     19e:	56 72       	andi	r21, 0x26	; 38
     1a0:	ea b5       	in	r30, 0x2a	; 42
     1a2:	cb a5       	ldd	r28, Y+43	; 0x2b
     1a4:	a8 95       	wdr
     1a6:	89 85       	ldd	r24, Y+9	; 0x09
     1a8:	6e f5       	brtc	.+90     	; 0x204
     1aa:	4f e5       	ldi	r20, 0x5F	; 95
     1ac:	2c d5       	rcall	.+2648   	; 0xc06
     1ae:	0d c5       	rjmp	.+2586   	; 0xbca
     1b0:	e2 34       	cpi	r30, 0x42	; 66
     1b2:	c3 24       	eor	r12, r3
     1b4:	a0 14       	cp	r10, r0
     1b6:	81 04       	cpc	r8, r1
     1b8:	66 74       	andi	r22, 0x46	; 70
     1ba:	47 64       	ori	r20, 0x47	; 71
     1bc:	24 54       	subi	r18, 0x44	; 68
     1be:	05 44       	sbci	r16, 0x45	; 69
     1c0:	db a7       	std	Y+43, r29	; 0x2b
     1c2:	fa b7       	in	r31, 0x3a	; 58
     1c4:	99 87       	std	Y+9, r25	; 0x09
     1c6:	b8 97       	sbiw	r30, 0x28	; 40
     1c8:	5f e7       	ldi	r21, 0x7F	; 127
     1ca:	7e f7       	brtc	.-34     	; 0x1aa
     1cc:	1d c7       	rjmp	.+3642   	; 0x1008
     1ce:	3c d7       	rcall	.+3704   	; 0x1048
     1d0:	d3 26       	eor	r13, r19
     1d2:	f2 36       	cpi	r31, 0x62	; 98
     1d4:	91 06       	cpc	r9, r17
     1d6:	b0 16       	cp	r11, r16
     1d8:	57 66       	ori	r21, 0x67	; 103
     1da:	76 76       	andi	r23, 0x66	; 102
     1dc:	15 46       	sbci	r17, 0x65	; 101
     1de:	34 56       	subi	r19, 0x64	; 100
     1e0:	4c d9       	rcall	.-3432   	; 0xfffff47a
     1e2:	6d c9       	rjmp	.-3366   	; 0xfffff4be
     1e4:	0e f9       	.word	0xf90e	; ????
     1e6:	2f e9       	ldi	r18, 0x9F	; 159
     1e8:	c8 99       	sbic	0x19, 0	; 25
     1ea:	e9 89       	ldd	r30, Y+17	; 0x11
     1ec:	8a b9       	out	0x0a, r24	; 10
     1ee:	ab a9       	ldd	r26, Y+51	; 0x33
     1f0:	44 58       	subi	r20, 0x84	; 132
     1f2:	65 48       	sbci	r22, 0x85	; 133
     1f4:	06 78       	andi	r16, 0x86	; 134
     1f6:	27 68       	ori	r18, 0x87	; 135
     1f8:	c0 18       	sub	r12, r0
     1fa:	e1 08       	sbc	r14, r1
     1fc:	82 38       	cpi	r24, 0x82	; 130
     1fe:	a3 28       	or	r10, r3
     200:	7d cb       	rjmp	.-2310   	; 0xfffff8fc
     202:	5c db       	rcall	.-2376   	; 0xfffff8bc
     204:	3f eb       	ldi	r19, 0xBF	; 191
     206:	1e fb       	.word	0xfb1e	; ????
     208:	f9 8b       	std	Y+17, r31	; 0x11
     20a:	d8 9b       	sbis	0x1b, 0	; 27
     20c:	bb ab       	std	Y+51, r27	; 0x33
     20e:	9a bb       	out	0x1a, r25	; 26
     210:	75 4a       	sbci	r23, 0xA5	; 165
     212:	54 5a       	subi	r21, 0xA4	; 164
     214:	37 6a       	ori	r19, 0xA7	; 167
     216:	16 7a       	andi	r17, 0xA6	; 166
     218:	f1 0a       	sbc	r15, r17
     21a:	d0 1a       	sub	r13, r16
     21c:	b3 2a       	or	r11, r19
     21e:	92 3a       	cpi	r25, 0xA2	; 162
     220:	2e fd       	.word	0xfd2e	; ????
     222:	0f ed       	ldi	r16, 0xDF	; 223
     224:	6c dd       	rcall	.-1320   	; 0xfffffcfe
     226:	4d cd       	rjmp	.-1382   	; 0xfffffcc2
     228:	aa bd       	out	0x2a, r26	; 42
     22a:	8b ad       	ldd	r24, Y+59	; 0x3b
     22c:	e8 9d       	mul	r30, r8
     22e:	c9 8d       	ldd	r28, Y+25	; 0x19
     230:	26 7c       	andi	r18, 0xC6	; 198
     232:	07 6c       	ori	r16, 0xC7	; 199
     234:	64 5c       	subi	r22, 0xC4	; 196
     236:	45 4c       	sbci	r20, 0xC5	; 197
     238:	a2 3c       	cpi	r26, 0xC2	; 194
     23a:	83 2c       	mov	r8, r3
     23c:	e0 1c       	adc	r14, r0
     23e:	c1 0c       	add	r12, r1
     240:	1f ef       	ldi	r17, 0xFF	; 255
     242:	3e ff       	.word	0xff3e	; ????
     244:	5d cf       	rjmp	.-326    	; 0x100
     246:	7c df       	rcall	.-264    	; 0x140
     248:	9b af       	std	Y+59, r25	; 0x3b
     24a:	ba bf       	out	0x3a, r27	; 58
     24c:	d9 8f       	std	Y+25, r29	; 0x19
     24e:	f8 9f       	mul	r31, r24
     250:	17 6e       	ori	r17, 0xE7	; 231
     252:	36 7e       	andi	r19, 0xE6	; 230
     254:	55 4e       	sbci	r21, 0xE5	; 229
     256:	74 5e       	subi	r23, 0xE4	; 228
     258:	93 2e       	mov	r9, r19
     25a:	b2 3e       	cpi	r27, 0xE2	; 226
     25c:	d1 0e       	add	r13, r17
     25e:	f0 1e       	adc	r15, r16

00000260 <__init>:
     260:	11 24       	eor	r1, r1
     262:	1f be       	out	0x3f, r1	; 63
     264:	cf ef       	ldi	r28, 0xFF	; 255
     266:	df e0       	ldi	r29, 0x0F	; 15
     268:	de bf       	out	0x3e, r29	; 62
     26a:	cd bf       	out	0x3d, r28	; 61

0000026c <__do_copy_data>:
     26c:	11 e0       	ldi	r17, 0x01	; 1
     26e:	a0 e6       	ldi	r26, 0x60	; 96
     270:	b0 e0       	ldi	r27, 0x00	; 0
     272:	e6 e8       	ldi	r30, 0x86	; 134
     274:	f0 e4       	ldi	r31, 0x40	; 64
     276:	0f ef       	ldi	r16, 0xFF	; 255

00000278 <.__do_copy_data_carry>:
     278:	03 95       	inc	r16
     27a:	0b bf       	out	0x3b, r16	; 59
     27c:	04 c0       	rjmp	.+8      	; 0x286

0000027e <.__do_copy_data_loop>:
     27e:	d8 95       	elpm
     280:	0d 92       	st	X+, r0
     282:	31 96       	adiw	r30, 0x01	; 1
     284:	c8 f3       	brcs	.-14     	; 0x278

00000286 <.__do_copy_data_start>:
     286:	a2 37       	cpi	r26, 0x72	; 114
     288:	b1 07       	cpc	r27, r17
     28a:	c9 f7       	brne	.-14     	; 0x27e

0000028c <__do_clear_bss>:
     28c:	14 e0       	ldi	r17, 0x04	; 4
     28e:	a2 e7       	ldi	r26, 0x72	; 114
     290:	b1 e0       	ldi	r27, 0x01	; 1
     292:	01 c0       	rjmp	.+2      	; 0x296

00000294 <.do_clear_bss_loop>:
     294:	1d 92       	st	X+, r1

00000296 <.do_clear_bss_start>:
     296:	ad 38       	cpi	r26, 0x8D	; 141
     298:	b1 07       	cpc	r27, r17
     29a:	e1 f7       	brne	.-8      	; 0x294
     29c:	0c 94 55 02 	jmp	0x4aa

000002a0 <__bad_interrupt>:
     2a0:	0c 94 00 00 	jmp	0x0

000002a4 <__vector_17>:
     2a4:	1f 92       	push	r1
     2a6:	0f 92       	push	r0
     2a8:	0f b6       	in	r0, 0x3f	; 63
     2aa:	0f 92       	push	r0
     2ac:	11 24       	eor	r1, r1
     2ae:	2f 93       	push	r18
     2b0:	3f 93       	push	r19
     2b2:	4f 93       	push	r20
     2b4:	5f 93       	push	r21
     2b6:	6f 93       	push	r22
     2b8:	7f 93       	push	r23
     2ba:	8f 93       	push	r24
     2bc:	9f 93       	push	r25
     2be:	af 93       	push	r26
     2c0:	bf 93       	push	r27
     2c2:	ef 93       	push	r30
     2c4:	ff 93       	push	r31
     2c6:	8f b1       	in	r24, 0x0f	; 15
     2c8:	90 91 8b 04 	lds	r25, 0x048B
     2cc:	9f b9       	out	0x0f, r25	; 15
     2ce:	92 e0       	ldi	r25, 0x02	; 2
     2d0:	90 93 d9 01 	sts	0x01D9, r25
     2d4:	0e 94 34 0a 	call	0x1468
     2d8:	ff 91       	pop	r31
     2da:	ef 91       	pop	r30
     2dc:	bf 91       	pop	r27
     2de:	af 91       	pop	r26
     2e0:	9f 91       	pop	r25
     2e2:	8f 91       	pop	r24
     2e4:	7f 91       	pop	r23
     2e6:	6f 91       	pop	r22
     2e8:	5f 91       	pop	r21
     2ea:	4f 91       	pop	r20
     2ec:	3f 91       	pop	r19
     2ee:	2f 91       	pop	r18
     2f0:	0f 90       	pop	r0
     2f2:	0f be       	out	0x3f, r0	; 63
     2f4:	0f 90       	pop	r0
     2f6:	1f 90       	pop	r1
     2f8:	18 95       	reti

000002fa <TimerM$adjustInterval>:
     2fa:	af 92       	push	r10
     2fc:	bf 92       	push	r11
     2fe:	cf 92       	push	r12
     300:	df 92       	push	r13
     302:	ef 92       	push	r14
     304:	ff 92       	push	r15
     306:	0f 93       	push	r16
     308:	1f 93       	push	r17
     30a:	cf 93       	push	r28
     30c:	df 93       	push	r29
     30e:	86 ee       	ldi	r24, 0xE6	; 230
     310:	f8 2e       	mov	r15, r24
     312:	a0 90 4f 04 	lds	r10, 0x044F
     316:	b0 90 50 04 	lds	r11, 0x0450
     31a:	c0 90 51 04 	lds	r12, 0x0451
     31e:	d0 90 52 04 	lds	r13, 0x0452
     322:	a1 14       	cp	r10, r1
     324:	b1 04       	cpc	r11, r1
     326:	c1 04       	cpc	r12, r1
     328:	d1 04       	cpc	r13, r1
     32a:	89 f1       	breq	.+98     	; 0x38e
     32c:	ee 24       	eor	r14, r14
     32e:	6f ec       	ldi	r22, 0xCF	; 207
     330:	72 e0       	ldi	r23, 0x02	; 2
     332:	00 e0       	ldi	r16, 0x00	; 0
     334:	10 e0       	ldi	r17, 0x00	; 0
     336:	81 e0       	ldi	r24, 0x01	; 1
     338:	90 e0       	ldi	r25, 0x00	; 0
     33a:	00 2e       	mov	r0, r16
     33c:	02 c0       	rjmp	.+4      	; 0x342
     33e:	88 0f       	add	r24, r24
     340:	99 1f       	adc	r25, r25
     342:	0a 94       	dec	r0
     344:	e2 f7       	brpl	.-8      	; 0x33e
     346:	aa 27       	eor	r26, r26
     348:	97 fd       	sbrc	r25, 7
     34a:	a0 95       	com	r26
     34c:	ba 2f       	mov	r27, r26
     34e:	8a 21       	and	r24, r10
     350:	9b 21       	and	r25, r11
     352:	ac 21       	and	r26, r12
     354:	bd 21       	and	r27, r13
     356:	00 97       	sbiw	r24, 0x00	; 0
     358:	a1 05       	cpc	r26, r1
     35a:	b1 05       	cpc	r27, r1
     35c:	81 f0       	breq	.+32     	; 0x37e
     35e:	2f 2d       	mov	r18, r15
     360:	33 27       	eor	r19, r19
     362:	44 27       	eor	r20, r20
     364:	55 27       	eor	r21, r21
     366:	f7 2f       	mov	r31, r23
     368:	e6 2f       	mov	r30, r22
     36a:	85 81       	ldd	r24, Z+5	; 0x05
     36c:	96 81       	ldd	r25, Z+6	; 0x06
     36e:	a7 81       	ldd	r26, Z+7	; 0x07
     370:	b0 85       	ldd	r27, Z+8	; 0x08
     372:	82 17       	cp	r24, r18
     374:	93 07       	cpc	r25, r19
     376:	a4 07       	cpc	r26, r20
     378:	b5 07       	cpc	r27, r21
     37a:	0c f4       	brge	.+2      	; 0x37e
     37c:	f5 80       	ldd	r15, Z+5	; 0x05
     37e:	e3 94       	inc	r14
     380:	0f 5f       	subi	r16, 0xFF	; 255
     382:	1f 4f       	sbci	r17, 0xFF	; 255
     384:	67 5f       	subi	r22, 0xF7	; 247
     386:	7f 4f       	sbci	r23, 0xFF	; 255
     388:	f2 e0       	ldi	r31, 0x02	; 2
     38a:	fe 15       	cp	r31, r14
     38c:	a0 f6       	brcc	.-88     	; 0x336
     38e:	8f b7       	in	r24, 0x3f	; 63
     390:	f8 94       	cli
     392:	99 27       	eor	r25, r25
     394:	f0 92 2b 03 	sts	0x032B, r15
     398:	f1 be       	out	0x31, r15	; 49
     39a:	10 92 f8 02 	sts	0x02F8, r1
     39e:	8f bf       	out	0x3f, r24	; 63
     3a0:	0e 94 ac 04 	call	0x958
     3a4:	df 91       	pop	r29
     3a6:	cf 91       	pop	r28
     3a8:	1f 91       	pop	r17
     3aa:	0f 91       	pop	r16
     3ac:	ff 90       	pop	r15
     3ae:	ef 90       	pop	r14
     3b0:	df 90       	pop	r13
     3b2:	cf 90       	pop	r12
     3b4:	bf 90       	pop	r11
     3b6:	af 90       	pop	r10
     3b8:	08 95       	ret

000003ba <__vector_18>:
     3ba:	1f 92       	push	r1
     3bc:	0f 92       	push	r0
     3be:	0f b6       	in	r0, 0x3f	; 63
     3c0:	0f 92       	push	r0
     3c2:	11 24       	eor	r1, r1
     3c4:	2f 93       	push	r18
     3c6:	3f 93       	push	r19
     3c8:	4f 93       	push	r20
     3ca:	5f 93       	push	r21
     3cc:	6f 93       	push	r22
     3ce:	7f 93       	push	r23
     3d0:	8f 93       	push	r24
     3d2:	9f 93       	push	r25
     3d4:	af 93       	push	r26
     3d6:	bf 93       	push	r27
     3d8:	ef 93       	push	r30
     3da:	ff 93       	push	r31
     3dc:	5f 9b       	sbis	0x0b, 7	; 11
     3de:	06 c0       	rjmp	.+12     	; 0x3ec
     3e0:	8c b1       	in	r24, 0x0c	; 12
     3e2:	40 e0       	ldi	r20, 0x00	; 0
     3e4:	50 e0       	ldi	r21, 0x00	; 0
     3e6:	60 e0       	ldi	r22, 0x00	; 0
     3e8:	0e 94 11 1a 	call	0x3422
     3ec:	ff 91       	pop	r31
     3ee:	ef 91       	pop	r30
     3f0:	bf 91       	pop	r27
     3f2:	af 91       	pop	r26
     3f4:	9f 91       	pop	r25
     3f6:	8f 91       	pop	r24
     3f8:	7f 91       	pop	r23
     3fa:	6f 91       	pop	r22
     3fc:	5f 91       	pop	r21
     3fe:	4f 91       	pop	r20
     400:	3f 91       	pop	r19
     402:	2f 91       	pop	r18
     404:	0f 90       	pop	r0
     406:	0f be       	out	0x3f, r0	; 63
     408:	0f 90       	pop	r0
     40a:	1f 90       	pop	r1
     40c:	18 95       	reti

0000040e <__vector_20>:
     40e:	78 94       	sei
     410:	1f 92       	push	r1
     412:	0f 92       	push	r0
     414:	0f b6       	in	r0, 0x3f	; 63
     416:	0f 92       	push	r0
     418:	11 24       	eor	r1, r1
     41a:	2f 93       	push	r18
     41c:	3f 93       	push	r19
     41e:	4f 93       	push	r20
     420:	5f 93       	push	r21
     422:	6f 93       	push	r22
     424:	7f 93       	push	r23
     426:	8f 93       	push	r24
     428:	9f 93       	push	r25
     42a:	af 93       	push	r26
     42c:	bf 93       	push	r27
     42e:	ef 93       	push	r30
     430:	ff 93       	push	r31
     432:	0e 94 e6 1b 	call	0x37cc
     436:	ff 91       	pop	r31
     438:	ef 91       	pop	r30
     43a:	bf 91       	pop	r27
     43c:	af 91       	pop	r26
     43e:	9f 91       	pop	r25
     440:	8f 91       	pop	r24
     442:	7f 91       	pop	r23
     444:	6f 91       	pop	r22
     446:	5f 91       	pop	r21
     448:	4f 91       	pop	r20
     44a:	3f 91       	pop	r19
     44c:	2f 91       	pop	r18
     44e:	0f 90       	pop	r0
     450:	0f be       	out	0x3f, r0	; 63
     452:	0f 90       	pop	r0
     454:	1f 90       	pop	r1
     456:	18 95       	reti

00000458 <TOS_post>:
     458:	48 2f       	mov	r20, r24
     45a:	59 2f       	mov	r21, r25
     45c:	8f b7       	in	r24, 0x3f	; 63
     45e:	f8 94       	cli
     460:	28 2f       	mov	r18, r24
     462:	33 27       	eor	r19, r19
     464:	e0 91 f6 02 	lds	r30, 0x02F6
     468:	80 91 f6 02 	lds	r24, 0x02F6
     46c:	8f 5f       	subi	r24, 0xFF	; 255
     46e:	80 93 f6 02 	sts	0x02F6, r24
     472:	80 91 f6 02 	lds	r24, 0x02F6
     476:	87 70       	andi	r24, 0x07	; 7
     478:	80 93 f6 02 	sts	0x02F6, r24
     47c:	90 91 f6 02 	lds	r25, 0x02F6
     480:	80 91 c4 02 	lds	r24, 0x02C4
     484:	98 17       	cp	r25, r24
     486:	59 f0       	breq	.+22     	; 0x49e
     488:	2f bf       	out	0x3f, r18	; 63
     48a:	ff 27       	eor	r31, r31
     48c:	ee 0f       	add	r30, r30
     48e:	ff 1f       	adc	r31, r31
     490:	e6 55       	subi	r30, 0x56	; 86
     492:	fd 4f       	sbci	r31, 0xFD	; 253
     494:	40 83       	st	Z, r20
     496:	51 83       	std	Z+1, r21	; 0x01
     498:	81 e0       	ldi	r24, 0x01	; 1
     49a:	90 e0       	ldi	r25, 0x00	; 0
     49c:	08 95       	ret
     49e:	e0 93 f6 02 	sts	0x02F6, r30
     4a2:	2f bf       	out	0x3f, r18	; 63
     4a4:	80 e0       	ldi	r24, 0x00	; 0
     4a6:	90 e0       	ldi	r25, 0x00	; 0
     4a8:	08 95       	ret

000004aa <main>:
     4aa:	cf ee       	ldi	r28, 0xEF	; 239
     4ac:	df e0       	ldi	r29, 0x0F	; 15
     4ae:	de bf       	out	0x3e, r29	; 62
     4b0:	cd bf       	out	0x3d, r28	; 61
     4b2:	1a ba       	out	0x1a, r1	; 26
     4b4:	17 ba       	out	0x17, r1	; 23
     4b6:	11 ba       	out	0x11, r1	; 17
     4b8:	82 e0       	ldi	r24, 0x02	; 2
     4ba:	82 b9       	out	0x02, r24	; 2
     4bc:	83 b9       	out	0x03, r24	; 3
     4be:	d2 9a       	sbi	0x1a, 2	; 26
     4c0:	d0 9a       	sbi	0x1a, 0	; 26
     4c2:	d1 9a       	sbi	0x1a, 1	; 26
     4c4:	8d 9a       	sbi	0x11, 5	; 17
     4c6:	17 9a       	sbi	0x02, 7	; 2
     4c8:	8f 9a       	sbi	0x11, 7	; 17
     4ca:	8e 9a       	sbi	0x11, 6	; 17
     4cc:	bb 9a       	sbi	0x17, 3	; 23
     4ce:	1f 9a       	sbi	0x03, 7	; 3
     4d0:	b8 98       	cbi	0x17, 0	; 23
     4d2:	da 9a       	sbi	0x1b, 2	; 27
     4d4:	d8 9a       	sbi	0x1b, 0	; 27
     4d6:	d9 9a       	sbi	0x1b, 1	; 27
     4d8:	14 9a       	sbi	0x02, 4	; 2
     4da:	1c 9a       	sbi	0x03, 4	; 3
     4dc:	15 98       	cbi	0x02, 5	; 2
     4de:	1d 9a       	sbi	0x03, 5	; 3
     4e0:	80 e0       	ldi	r24, 0x00	; 0
     4e2:	d9 9a       	sbi	0x1b, 1	; 27
     4e4:	95 98       	cbi	0x12, 5	; 18
     4e6:	da 9a       	sbi	0x1b, 2	; 27
     4e8:	da 98       	cbi	0x1b, 2	; 27
     4ea:	95 9a       	sbi	0x12, 5	; 18
     4ec:	8f 5f       	subi	r24, 0xFF	; 255
     4ee:	87 39       	cpi	r24, 0x97	; 151
     4f0:	c0 f3       	brcs	.-16     	; 0x4e2
     4f2:	80 e0       	ldi	r24, 0x00	; 0
     4f4:	d9 98       	cbi	0x1b, 1	; 27
     4f6:	95 98       	cbi	0x12, 5	; 18
     4f8:	da 9a       	sbi	0x1b, 2	; 27
     4fa:	da 98       	cbi	0x1b, 2	; 27
     4fc:	95 9a       	sbi	0x12, 5	; 18
     4fe:	8f 5f       	subi	r24, 0xFF	; 255
     500:	8a 30       	cpi	r24, 0x0A	; 10
     502:	c0 f3       	brcs	.-16     	; 0x4f4
     504:	d9 9a       	sbi	0x1b, 1	; 27
     506:	da 9a       	sbi	0x1b, 2	; 27
     508:	8a e0       	ldi	r24, 0x0A	; 10
     50a:	80 93 97 02 	sts	0x0297, r24
     50e:	10 92 f6 02 	sts	0x02F6, r1
     512:	10 92 c4 02 	sts	0x02C4, r1
     516:	8f b7       	in	r24, 0x3f	; 63
     518:	f8 94       	cli
     51a:	99 27       	eor	r25, r25
     51c:	10 92 7d 03 	sts	0x037D, r1
     520:	da 9a       	sbi	0x1b, 2	; 27
     522:	d8 9a       	sbi	0x1b, 0	; 27
     524:	d9 9a       	sbi	0x1b, 1	; 27
     526:	8f bf       	out	0x3f, r24	; 63
     528:	10 92 42 03 	sts	0x0342, r1
     52c:	80 e1       	ldi	r24, 0x10	; 16
     52e:	fd 2f       	mov	r31, r29
     530:	ec 2f       	mov	r30, r28
     532:	31 96       	adiw	r30, 0x01	; 1
     534:	11 92       	st	Z+, r1
     536:	8a 95       	dec	r24
     538:	e9 f7       	brne	.-6      	; 0x534
     53a:	84 e4       	ldi	r24, 0x44	; 68
     53c:	8b 83       	std	Y+3, r24	; 0x03
     53e:	8f e0       	ldi	r24, 0x0F	; 15
     540:	8b 87       	std	Y+11, r24	; 0x0b
     542:	85 e3       	ldi	r24, 0x35	; 53
     544:	88 8b       	std	Y+16, r24	; 0x10
     546:	48 e0       	ldi	r20, 0x08	; 8
     548:	50 e0       	ldi	r21, 0x00	; 0
     54a:	6c 2f       	mov	r22, r28
     54c:	7d 2f       	mov	r23, r29
     54e:	6f 5f       	subi	r22, 0xFF	; 255
     550:	7f 4f       	sbci	r23, 0xFF	; 255
     552:	8c e2       	ldi	r24, 0x2C	; 44
     554:	93 e0       	ldi	r25, 0x03	; 3
     556:	0e 94 d3 03 	call	0x7a6
     55a:	48 e0       	ldi	r20, 0x08	; 8
     55c:	50 e0       	ldi	r21, 0x00	; 0
     55e:	6c 2f       	mov	r22, r28
     560:	7d 2f       	mov	r23, r29
     562:	67 5f       	subi	r22, 0xF7	; 247
     564:	7f 4f       	sbci	r23, 0xFF	; 255
     566:	85 ec       	ldi	r24, 0xC5	; 197
     568:	92 e0       	ldi	r25, 0x02	; 2
     56a:	0e 94 d3 03 	call	0x7a6
     56e:	28 e0       	ldi	r18, 0x08	; 8
     570:	30 e0       	ldi	r19, 0x00	; 0
     572:	8f b7       	in	r24, 0x3f	; 63
     574:	f8 94       	cli
     576:	48 2f       	mov	r20, r24
     578:	20 93 ce 02 	sts	0x02CE, r18
     57c:	10 92 74 02 	sts	0x0274, r1
     580:	10 92 75 02 	sts	0x0275, r1
     584:	81 e1       	ldi	r24, 0x11	; 17
     586:	80 93 ea 02 	sts	0x02EA, r24
     58a:	84 e1       	ldi	r24, 0x14	; 20
     58c:	80 93 77 03 	sts	0x0377, r24
     590:	10 92 b0 03 	sts	0x03B0, r1
     594:	10 92 b1 03 	sts	0x03B1, r1
     598:	10 92 78 02 	sts	0x0278, r1
     59c:	e9 e7       	ldi	r30, 0x79	; 121
     59e:	f2 e0       	ldi	r31, 0x02	; 2
     5a0:	11 92       	st	Z+, r1
     5a2:	21 50       	subi	r18, 0x01	; 1
     5a4:	30 40       	sbci	r19, 0x00	; 0
     5a6:	e1 f7       	brne	.-8      	; 0x5a0
     5a8:	08 e0       	ldi	r16, 0x08	; 8
     5aa:	10 e0       	ldi	r17, 0x00	; 0
     5ac:	80 91 60 00 	lds	r24, 0x0060
     5b0:	90 91 61 00 	lds	r25, 0x0061
     5b4:	80 93 7b 02 	sts	0x027B, r24
     5b8:	89 2f       	mov	r24, r25
     5ba:	99 0f       	add	r25, r25
     5bc:	99 0b       	sbc	r25, r25
     5be:	80 93 7c 02 	sts	0x027C, r24
     5c2:	4f bf       	out	0x3f, r20	; 63
     5c4:	00 93 6c 02 	sts	0x026C, r16
     5c8:	40 2f       	mov	r20, r16
     5ca:	6c e2       	ldi	r22, 0x2C	; 44
     5cc:	73 e0       	ldi	r23, 0x03	; 3
     5ce:	8c ed       	ldi	r24, 0xDC	; 220
     5d0:	91 e0       	ldi	r25, 0x01	; 1
     5d2:	0e 94 ea 03 	call	0x7d4
     5d6:	e8 2e       	mov	r14, r24
     5d8:	ff 24       	eor	r15, r15
     5da:	40 2f       	mov	r20, r16
     5dc:	65 ec       	ldi	r22, 0xC5	; 197
     5de:	72 e0       	ldi	r23, 0x02	; 2
     5e0:	83 ec       	ldi	r24, 0xC3	; 195
     5e2:	93 e0       	ldi	r25, 0x03	; 3
     5e4:	0e 94 ea 03 	call	0x7d4
     5e8:	ee 20       	and	r14, r14
     5ea:	11 f0       	breq	.+4      	; 0x5f0
     5ec:	99 27       	eor	r25, r25
     5ee:	02 c0       	rjmp	.+4      	; 0x5f4
     5f0:	80 e0       	ldi	r24, 0x00	; 0
     5f2:	90 e0       	ldi	r25, 0x00	; 0
     5f4:	88 23       	and	r24, r24
     5f6:	19 f0       	breq	.+6      	; 0x5fe
     5f8:	81 e0       	ldi	r24, 0x01	; 1
     5fa:	90 e0       	ldi	r25, 0x00	; 0
     5fc:	02 c0       	rjmp	.+4      	; 0x602
     5fe:	80 e0       	ldi	r24, 0x00	; 0
     600:	90 e0       	ldi	r25, 0x00	; 0
     602:	88 23       	and	r24, r24
     604:	41 f0       	breq	.+16     	; 0x616
     606:	8f b7       	in	r24, 0x3f	; 63
     608:	f8 94       	cli
     60a:	28 2f       	mov	r18, r24
     60c:	33 27       	eor	r19, r19
     60e:	81 e0       	ldi	r24, 0x01	; 1
     610:	80 93 8c 02 	sts	0x028C, r24
     614:	2f bf       	out	0x3f, r18	; 63
     616:	8f b7       	in	r24, 0x3f	; 63
     618:	f8 94       	cli
     61a:	08 2f       	mov	r16, r24
     61c:	11 27       	eor	r17, r17
     61e:	0e 94 17 04 	call	0x82e
     622:	0e 94 46 04 	call	0x88c
     626:	8f b7       	in	r24, 0x3f	; 63
     628:	f8 94       	cli
     62a:	99 27       	eor	r25, r25
     62c:	10 92 25 03 	sts	0x0325, r1
     630:	8f bf       	out	0x3f, r24	; 63
     632:	8f b7       	in	r24, 0x3f	; 63
     634:	f8 94       	cli
     636:	28 2f       	mov	r18, r24
     638:	33 27       	eor	r19, r19
     63a:	8a ef       	ldi	r24, 0xFA	; 250
     63c:	92 e0       	ldi	r25, 0x02	; 2
     63e:	90 93 a4 02 	sts	0x02A4, r25
     642:	80 93 a3 02 	sts	0x02A3, r24
     646:	10 92 ba 02 	sts	0x02BA, r1
     64a:	10 92 b6 03 	sts	0x03B6, r1
     64e:	10 92 96 02 	sts	0x0296, r1
     652:	10 92 9a 02 	sts	0x029A, r1
     656:	2f bf       	out	0x3f, r18	; 63
     658:	8f b7       	in	r24, 0x3f	; 63
     65a:	f8 94       	cli
     65c:	28 2f       	mov	r18, r24
     65e:	33 27       	eor	r19, r19
     660:	8f ef       	ldi	r24, 0xFF	; 255
     662:	9f ef       	ldi	r25, 0xFF	; 255
     664:	90 93 bd 02 	sts	0x02BD, r25
     668:	80 93 bc 02 	sts	0x02BC, r24
     66c:	2f bf       	out	0x3f, r18	; 63
     66e:	0e 94 8c 04 	call	0x918
     672:	8f b7       	in	r24, 0x3f	; 63
     674:	f8 94       	cli
     676:	e8 2f       	mov	r30, r24
     678:	ff 27       	eor	r31, r31
     67a:	20 91 60 00 	lds	r18, 0x0060
     67e:	30 91 61 00 	lds	r19, 0x0061
     682:	93 2f       	mov	r25, r19
     684:	82 2f       	mov	r24, r18
     686:	61 e5       	ldi	r22, 0x51	; 81
     688:	77 e3       	ldi	r23, 0x37	; 55
     68a:	0e 94 08 20 	call	0x4010
     68e:	8f 5a       	subi	r24, 0xAF	; 175
     690:	98 4c       	sbci	r25, 0xC8	; 200
     692:	90 93 41 03 	sts	0x0341, r25
     696:	80 93 40 03 	sts	0x0340, r24
     69a:	90 93 8a 04 	sts	0x048A, r25
     69e:	80 93 89 04 	sts	0x0489, r24
     6a2:	93 2f       	mov	r25, r19
     6a4:	82 2f       	mov	r24, r18
     6a6:	65 e8       	ldi	r22, 0x85	; 133
     6a8:	7f e0       	ldi	r23, 0x0F	; 15
     6aa:	0e 94 08 20 	call	0x4010
     6ae:	8b 57       	subi	r24, 0x7B	; 123
     6b0:	90 4f       	sbci	r25, 0xF0	; 240
     6b2:	90 93 99 02 	sts	0x0299, r25
     6b6:	80 93 98 02 	sts	0x0298, r24
     6ba:	ef bf       	out	0x3f, r30	; 63
     6bc:	10 92 a5 02 	sts	0x02A5, r1
     6c0:	10 92 9c 02 	sts	0x029C, r1
     6c4:	10 92 9b 02 	sts	0x029B, r1
     6c8:	10 92 f2 02 	sts	0x02F2, r1
     6cc:	10 92 f1 02 	sts	0x02F1, r1
     6d0:	0f bf       	out	0x3f, r16	; 63
     6d2:	10 92 44 03 	sts	0x0344, r1
     6d6:	10 92 43 03 	sts	0x0343, r1
     6da:	0e 94 17 04 	call	0x82e
     6de:	0e 94 46 04 	call	0x88c
     6e2:	8c e0       	ldi	r24, 0x0C	; 12
     6e4:	89 b9       	out	0x09, r24	; 9
     6e6:	8c b1       	in	r24, 0x0c	; 12
     6e8:	88 ed       	ldi	r24, 0xD8	; 216
     6ea:	8a b9       	out	0x0a, r24	; 10
     6ec:	18 9a       	sbi	0x03, 0	; 3
     6ee:	8f b7       	in	r24, 0x3f	; 63
     6f0:	f8 94       	cli
     6f2:	08 2f       	mov	r16, r24
     6f4:	11 27       	eor	r17, r17
     6f6:	80 91 b6 03 	lds	r24, 0x03B6
     6fa:	8c 30       	cpi	r24, 0x0C	; 12
     6fc:	41 f4       	brne	.+16     	; 0x70e
     6fe:	10 92 b6 03 	sts	0x03B6, r1
     702:	10 92 ba 02 	sts	0x02BA, r1
     706:	0e 94 ac 04 	call	0x958
     70a:	0e 94 8c 04 	call	0x918
     70e:	0f bf       	out	0x3f, r16	; 63
     710:	28 ee       	ldi	r18, 0xE8	; 232
     712:	33 e0       	ldi	r19, 0x03	; 3
     714:	40 e0       	ldi	r20, 0x00	; 0
     716:	50 e0       	ldi	r21, 0x00	; 0
     718:	60 e0       	ldi	r22, 0x00	; 0
     71a:	81 e0       	ldi	r24, 0x01	; 1
     71c:	0e 94 be 04 	call	0x97c
     720:	8f b7       	in	r24, 0x3f	; 63
     722:	f8 94       	cli
     724:	99 27       	eor	r25, r25
     726:	10 92 a5 02 	sts	0x02A5, r1
     72a:	8f bf       	out	0x3f, r24	; 63
     72c:	0e 94 ac 04 	call	0x958
     730:	2a ef       	ldi	r18, 0xFA	; 250
     732:	30 e0       	ldi	r19, 0x00	; 0
     734:	40 e0       	ldi	r20, 0x00	; 0
     736:	50 e0       	ldi	r21, 0x00	; 0
     738:	60 e0       	ldi	r22, 0x00	; 0
     73a:	86 2f       	mov	r24, r22
     73c:	0e 94 be 04 	call	0x97c
     740:	78 94       	sei
     742:	90 91 c4 02 	lds	r25, 0x02C4
     746:	80 91 f6 02 	lds	r24, 0x02F6
     74a:	98 17       	cp	r25, r24
     74c:	19 f4       	brne	.+6      	; 0x754
     74e:	80 e0       	ldi	r24, 0x00	; 0
     750:	90 e0       	ldi	r25, 0x00	; 0
     752:	20 c0       	rjmp	.+64     	; 0x794
     754:	8f b7       	in	r24, 0x3f	; 63
     756:	f8 94       	cli
     758:	28 2f       	mov	r18, r24
     75a:	33 27       	eor	r19, r19
     75c:	90 91 c4 02 	lds	r25, 0x02C4
     760:	80 91 c4 02 	lds	r24, 0x02C4
     764:	8f 5f       	subi	r24, 0xFF	; 255
     766:	80 93 c4 02 	sts	0x02C4, r24
     76a:	80 91 c4 02 	lds	r24, 0x02C4
     76e:	87 70       	andi	r24, 0x07	; 7
     770:	80 93 c4 02 	sts	0x02C4, r24
     774:	e9 2f       	mov	r30, r25
     776:	ff 27       	eor	r31, r31
     778:	ee 0f       	add	r30, r30
     77a:	ff 1f       	adc	r31, r31
     77c:	e6 55       	subi	r30, 0x56	; 86
     77e:	fd 4f       	sbci	r31, 0xFD	; 253
     780:	80 81       	ld	r24, Z
     782:	91 81       	ldd	r25, Z+1	; 0x01
     784:	10 82       	st	Z, r1
     786:	11 82       	std	Z+1, r1	; 0x01
     788:	2f bf       	out	0x3f, r18	; 63
     78a:	e8 2f       	mov	r30, r24
     78c:	f9 2f       	mov	r31, r25
     78e:	09 95       	icall
     790:	81 e0       	ldi	r24, 0x01	; 1
     792:	90 e0       	ldi	r25, 0x00	; 0
     794:	88 23       	and	r24, r24
     796:	a9 f6       	brne	.-86     	; 0x742
     798:	85 b7       	in	r24, 0x35	; 53
     79a:	80 62       	ori	r24, 0x20	; 32
     79c:	85 bf       	out	0x35, r24	; 53
     79e:	88 95       	sleep
     7a0:	00 00       	nop
     7a2:	00 00       	nop
     7a4:	ce cf       	rjmp	.-100    	; 0x742

000007a6 <nmemcpy>:
     7a6:	28 2f       	mov	r18, r24
     7a8:	39 2f       	mov	r19, r25
     7aa:	b3 2f       	mov	r27, r19
     7ac:	a2 2f       	mov	r26, r18
     7ae:	f7 2f       	mov	r31, r23
     7b0:	e6 2f       	mov	r30, r22
     7b2:	41 50       	subi	r20, 0x01	; 1
     7b4:	50 40       	sbci	r21, 0x00	; 0
     7b6:	8f ef       	ldi	r24, 0xFF	; 255
     7b8:	4f 3f       	cpi	r20, 0xFF	; 255
     7ba:	58 07       	cpc	r21, r24
     7bc:	41 f0       	breq	.+16     	; 0x7ce
     7be:	81 91       	ld	r24, Z+
     7c0:	8d 93       	st	X+, r24
     7c2:	41 50       	subi	r20, 0x01	; 1
     7c4:	50 40       	sbci	r21, 0x00	; 0
     7c6:	8f ef       	ldi	r24, 0xFF	; 255
     7c8:	4f 3f       	cpi	r20, 0xFF	; 255
     7ca:	58 07       	cpc	r21, r24
     7cc:	c1 f7       	brne	.-16     	; 0x7be
     7ce:	93 2f       	mov	r25, r19
     7d0:	82 2f       	mov	r24, r18
     7d2:	08 95       	ret

000007d4 <SkipJackM$setupKey>:
     7d4:	0f 93       	push	r16
     7d6:	1f 93       	push	r17
     7d8:	cf 93       	push	r28
     7da:	df 93       	push	r29
     7dc:	08 2f       	mov	r16, r24
     7de:	19 2f       	mov	r17, r25
     7e0:	d7 2f       	mov	r29, r23
     7e2:	c6 2f       	mov	r28, r22
     7e4:	20 e0       	ldi	r18, 0x00	; 0
     7e6:	30 e0       	ldi	r19, 0x00	; 0
     7e8:	93 2f       	mov	r25, r19
     7ea:	82 2f       	mov	r24, r18
     7ec:	6a e0       	ldi	r22, 0x0A	; 10
     7ee:	70 e0       	ldi	r23, 0x00	; 0
     7f0:	0e 94 1a 20 	call	0x4034
     7f4:	f9 2f       	mov	r31, r25
     7f6:	e8 2f       	mov	r30, r24
     7f8:	84 2f       	mov	r24, r20
     7fa:	99 27       	eor	r25, r25
     7fc:	b1 2f       	mov	r27, r17
     7fe:	a0 2f       	mov	r26, r16
     800:	a2 0f       	add	r26, r18
     802:	b3 1f       	adc	r27, r19
     804:	2f 5f       	subi	r18, 0xFF	; 255
     806:	3f 4f       	sbci	r19, 0xFF	; 255
     808:	e8 17       	cp	r30, r24
     80a:	f9 07       	cpc	r31, r25
     80c:	14 f0       	brlt	.+4      	; 0x812
     80e:	1c 92       	st	X, r1
     810:	04 c0       	rjmp	.+8      	; 0x81a
     812:	ec 0f       	add	r30, r28
     814:	fd 1f       	adc	r31, r29
     816:	80 81       	ld	r24, Z
     818:	8c 93       	st	X, r24
     81a:	20 38       	cpi	r18, 0x80	; 128
     81c:	31 05       	cpc	r19, r1
     81e:	24 f3       	brlt	.-56     	; 0x7e8
     820:	81 e0       	ldi	r24, 0x01	; 1
     822:	90 e0       	ldi	r25, 0x00	; 0
     824:	df 91       	pop	r29
     826:	cf 91       	pop	r28
     828:	1f 91       	pop	r17
     82a:	0f 91       	pop	r16
     82c:	08 95       	ret

0000082e <TimerM$StdControl$init>:
     82e:	10 92 4f 04 	sts	0x044F, r1
     832:	10 92 50 04 	sts	0x0450, r1
     836:	10 92 51 04 	sts	0x0451, r1
     83a:	10 92 52 04 	sts	0x0452, r1
     83e:	10 92 f8 02 	sts	0x02F8, r1
     842:	8f ef       	ldi	r24, 0xFF	; 255
     844:	80 93 80 04 	sts	0x0480, r24
     848:	80 93 da 01 	sts	0x01DA, r24
     84c:	10 92 a7 02 	sts	0x02A7, r1
     850:	83 e0       	ldi	r24, 0x03	; 3
     852:	80 93 f9 02 	sts	0x02F9, r24
     856:	96 ee       	ldi	r25, 0xE6	; 230
     858:	90 93 2b 03 	sts	0x032B, r25
     85c:	8f b7       	in	r24, 0x3f	; 63
     85e:	f8 94       	cli
     860:	28 2f       	mov	r18, r24
     862:	33 27       	eor	r19, r19
     864:	87 b7       	in	r24, 0x37	; 55
     866:	8e 7f       	andi	r24, 0xFE	; 254
     868:	87 bf       	out	0x37, r24	; 55
     86a:	87 b7       	in	r24, 0x37	; 55
     86c:	8d 7f       	andi	r24, 0xFD	; 253
     86e:	87 bf       	out	0x37, r24	; 55
     870:	80 b7       	in	r24, 0x30	; 48
     872:	88 60       	ori	r24, 0x08	; 8
     874:	80 bf       	out	0x30, r24	; 48
     876:	8b e0       	ldi	r24, 0x0B	; 11
     878:	83 bf       	out	0x33, r24	; 51
     87a:	12 be       	out	0x32, r1	; 50
     87c:	91 bf       	out	0x31, r25	; 49
     87e:	87 b7       	in	r24, 0x37	; 55
     880:	82 60       	ori	r24, 0x02	; 2
     882:	87 bf       	out	0x37, r24	; 55
     884:	2f bf       	out	0x3f, r18	; 63
     886:	81 e0       	ldi	r24, 0x01	; 1
     888:	90 e0       	ldi	r25, 0x00	; 0
     88a:	08 95       	ret

0000088c <FramerM$HDLCInitialize>:
     88c:	8f b7       	in	r24, 0x3f	; 63
     88e:	f8 94       	cli
     890:	68 2f       	mov	r22, r24
     892:	80 e0       	ldi	r24, 0x00	; 0
     894:	90 e0       	ldi	r25, 0x00	; 0
     896:	41 e8       	ldi	r20, 0x81	; 129
     898:	51 e0       	ldi	r21, 0x01	; 1
     89a:	28 2f       	mov	r18, r24
     89c:	39 2f       	mov	r19, r25
     89e:	f3 2f       	mov	r31, r19
     8a0:	e2 2f       	mov	r30, r18
     8a2:	e8 0f       	add	r30, r24
     8a4:	f9 1f       	adc	r31, r25
     8a6:	ec 5c       	subi	r30, 0xCC	; 204
     8a8:	fc 4f       	sbci	r31, 0xFC	; 252
     8aa:	44 83       	std	Z+4, r20	; 0x04
     8ac:	55 83       	std	Z+5, r21	; 0x05
     8ae:	12 82       	std	Z+2, r1	; 0x02
     8b0:	13 82       	std	Z+3, r1	; 0x03
     8b2:	11 82       	std	Z+1, r1	; 0x01
     8b4:	01 96       	adiw	r24, 0x01	; 1
     8b6:	2b 5f       	subi	r18, 0xFB	; 251
     8b8:	3f 4f       	sbci	r19, 0xFF	; 255
     8ba:	45 5d       	subi	r20, 0xD5	; 213
     8bc:	5f 4f       	sbci	r21, 0xFF	; 255
     8be:	82 30       	cpi	r24, 0x02	; 2
     8c0:	91 05       	cpc	r25, r1
     8c2:	6c f3       	brlt	.-38     	; 0x89e
     8c4:	10 92 b5 03 	sts	0x03B5, r1
     8c8:	10 92 ed 02 	sts	0x02ED, r1
     8cc:	10 92 ec 02 	sts	0x02EC, r1
     8d0:	10 92 95 02 	sts	0x0295, r1
     8d4:	10 92 94 02 	sts	0x0294, r1
     8d8:	10 92 80 01 	sts	0x0180, r1
     8dc:	10 92 7f 01 	sts	0x017F, r1
     8e0:	10 92 d8 01 	sts	0x01D8, r1
     8e4:	10 92 d7 01 	sts	0x01D7, r1
     8e8:	10 92 b4 03 	sts	0x03B4, r1
     8ec:	10 92 26 03 	sts	0x0326, r1
     8f0:	10 92 b8 03 	sts	0x03B8, r1
     8f4:	10 92 9e 02 	sts	0x029E, r1
     8f8:	10 92 9d 02 	sts	0x029D, r1
     8fc:	10 92 bf 02 	sts	0x02BF, r1
     900:	10 92 be 02 	sts	0x02BE, r1
     904:	80 91 38 03 	lds	r24, 0x0338
     908:	90 91 39 03 	lds	r25, 0x0339
     90c:	90 93 7a 03 	sts	0x037A, r25
     910:	80 93 79 03 	sts	0x0379, r24
     914:	6f bf       	out	0x3f, r22	; 63
     916:	08 95       	ret

00000918 <ChannelMonC$ChannelMon$startSymbolSearch>:
     918:	8f b7       	in	r24, 0x3f	; 63
     91a:	f8 94       	cli
     91c:	28 2f       	mov	r18, r24
     91e:	33 27       	eor	r19, r19
     920:	10 92 a6 02 	sts	0x02A6, r1
     924:	97 9a       	sbi	0x12, 7	; 18
     926:	96 9a       	sbi	0x12, 6	; 18
     928:	c3 98       	cbi	0x18, 3	; 24
     92a:	9f e7       	ldi	r25, 0x7F	; 127
     92c:	87 b7       	in	r24, 0x37	; 55
     92e:	89 23       	and	r24, r25
     930:	87 bf       	out	0x37, r24	; 55
     932:	87 b7       	in	r24, 0x37	; 55
     934:	8f 7b       	andi	r24, 0xBF	; 191
     936:	87 bf       	out	0x37, r24	; 55
     938:	87 b7       	in	r24, 0x37	; 55
     93a:	89 23       	and	r24, r25
     93c:	87 bf       	out	0x37, r24	; 55
     93e:	89 e0       	ldi	r24, 0x09	; 9
     940:	85 bd       	out	0x25, r24	; 37
     942:	88 ec       	ldi	r24, 0xC8	; 200
     944:	83 bd       	out	0x23, r24	; 35
     946:	87 b7       	in	r24, 0x37	; 55
     948:	80 68       	ori	r24, 0x80	; 128
     94a:	87 bf       	out	0x37, r24	; 55
     94c:	14 bc       	out	0x24, r1	; 36
     94e:	be 9a       	sbi	0x17, 6	; 23
     950:	2f bf       	out	0x3f, r18	; 63
     952:	81 e0       	ldi	r24, 0x01	; 1
     954:	90 e0       	ldi	r25, 0x00	; 0
     956:	08 95       	ret

00000958 <HPLPowerManagementM$PowerManagement$adjustPower>:
     958:	80 91 71 01 	lds	r24, 0x0171
     95c:	88 23       	and	r24, r24
     95e:	29 f4       	brne	.+10     	; 0x96a
     960:	85 e9       	ldi	r24, 0x95	; 149
     962:	9d e1       	ldi	r25, 0x1D	; 29
     964:	0e 94 2c 02 	call	0x458
     968:	06 c0       	rjmp	.+12     	; 0x976
     96a:	85 b7       	in	r24, 0x35	; 53
     96c:	83 7e       	andi	r24, 0xE3	; 227
     96e:	85 bf       	out	0x35, r24	; 53
     970:	85 b7       	in	r24, 0x35	; 53
     972:	80 62       	ori	r24, 0x20	; 32
     974:	85 bf       	out	0x35, r24	; 53
     976:	80 e0       	ldi	r24, 0x00	; 0
     978:	90 e0       	ldi	r25, 0x00	; 0
     97a:	08 95       	ret

0000097c <TimerM$Timer$start>:
     97c:	cf 92       	push	r12
     97e:	df 92       	push	r13
     980:	ef 92       	push	r14
     982:	ff 92       	push	r15
     984:	0f 93       	push	r16
     986:	1f 93       	push	r17
     988:	cf 93       	push	r28
     98a:	df 93       	push	r29
     98c:	e2 2e       	mov	r14, r18
     98e:	f3 2e       	mov	r15, r19
     990:	04 2f       	mov	r16, r20
     992:	15 2f       	mov	r17, r21
     994:	83 30       	cpi	r24, 0x03	; 3
     996:	10 f4       	brcc	.+4      	; 0x99c
     998:	62 30       	cpi	r22, 0x02	; 2
     99a:	1c f0       	brlt	.+6      	; 0x9a2
     99c:	80 e0       	ldi	r24, 0x00	; 0
     99e:	90 e0       	ldi	r25, 0x00	; 0
     9a0:	57 c0       	rjmp	.+174    	; 0xa50
     9a2:	28 2f       	mov	r18, r24
     9a4:	33 27       	eor	r19, r19
     9a6:	f3 2f       	mov	r31, r19
     9a8:	e2 2f       	mov	r30, r18
     9aa:	43 e0       	ldi	r20, 0x03	; 3
     9ac:	ee 0f       	add	r30, r30
     9ae:	ff 1f       	adc	r31, r31
     9b0:	4a 95       	dec	r20
     9b2:	e1 f7       	brne	.-8      	; 0x9ac
     9b4:	e2 0f       	add	r30, r18
     9b6:	f3 1f       	adc	r31, r19
     9b8:	e1 53       	subi	r30, 0x31	; 49
     9ba:	fd 4f       	sbci	r31, 0xFD	; 253
     9bc:	e1 82       	std	Z+1, r14	; 0x01
     9be:	f2 82       	std	Z+2, r15	; 0x02
     9c0:	03 83       	std	Z+3, r16	; 0x03
     9c2:	14 83       	std	Z+4, r17	; 0x04
     9c4:	60 83       	st	Z, r22
     9c6:	8f b7       	in	r24, 0x3f	; 63
     9c8:	f8 94       	cli
     9ca:	c8 2f       	mov	r28, r24
     9cc:	dd 27       	eor	r29, r29
     9ce:	82 b7       	in	r24, 0x32	; 50
     9d0:	e8 0e       	add	r14, r24
     9d2:	f1 1c       	adc	r15, r1
     9d4:	01 1d       	adc	r16, r1
     9d6:	11 1d       	adc	r17, r1
     9d8:	e5 82       	std	Z+5, r14	; 0x05
     9da:	f6 82       	std	Z+6, r15	; 0x06
     9dc:	07 83       	std	Z+7, r16	; 0x07
     9de:	10 87       	std	Z+8, r17	; 0x08
     9e0:	31 e0       	ldi	r19, 0x01	; 1
     9e2:	c3 2e       	mov	r12, r19
     9e4:	d1 2c       	mov	r13, r1
     9e6:	9d 2d       	mov	r25, r13
     9e8:	8c 2d       	mov	r24, r12
     9ea:	02 c0       	rjmp	.+4      	; 0x9f0
     9ec:	88 0f       	add	r24, r24
     9ee:	99 1f       	adc	r25, r25
     9f0:	2a 95       	dec	r18
     9f2:	e2 f7       	brpl	.-8      	; 0x9ec
     9f4:	28 2f       	mov	r18, r24
     9f6:	39 2f       	mov	r19, r25
     9f8:	44 27       	eor	r20, r20
     9fa:	37 fd       	sbrc	r19, 7
     9fc:	40 95       	com	r20
     9fe:	54 2f       	mov	r21, r20
     a00:	80 91 4f 04 	lds	r24, 0x044F
     a04:	90 91 50 04 	lds	r25, 0x0450
     a08:	a0 91 51 04 	lds	r26, 0x0451
     a0c:	b0 91 52 04 	lds	r27, 0x0452
     a10:	82 2b       	or	r24, r18
     a12:	93 2b       	or	r25, r19
     a14:	a4 2b       	or	r26, r20
     a16:	b5 2b       	or	r27, r21
     a18:	80 93 4f 04 	sts	0x044F, r24
     a1c:	90 93 50 04 	sts	0x0450, r25
     a20:	a0 93 51 04 	sts	0x0451, r26
     a24:	b0 93 52 04 	sts	0x0452, r27
     a28:	80 91 2b 03 	lds	r24, 0x032B
     a2c:	99 27       	eor	r25, r25
     a2e:	aa 27       	eor	r26, r26
     a30:	bb 27       	eor	r27, r27
     a32:	e8 16       	cp	r14, r24
     a34:	f9 06       	cpc	r15, r25
     a36:	0a 07       	cpc	r16, r26
     a38:	1b 07       	cpc	r17, r27
     a3a:	38 f4       	brcc	.+14     	; 0xa4a
     a3c:	e0 92 2b 03 	sts	0x032B, r14
     a40:	e1 be       	out	0x31, r14	; 49
     a42:	10 92 f8 02 	sts	0x02F8, r1
     a46:	0e 94 ac 04 	call	0x958
     a4a:	cf bf       	out	0x3f, r28	; 63
     a4c:	9d 2d       	mov	r25, r13
     a4e:	8c 2d       	mov	r24, r12
     a50:	df 91       	pop	r29
     a52:	cf 91       	pop	r28
     a54:	1f 91       	pop	r17
     a56:	0f 91       	pop	r16
     a58:	ff 90       	pop	r15
     a5a:	ef 90       	pop	r14
     a5c:	df 90       	pop	r13
     a5e:	cf 90       	pop	r12
     a60:	08 95       	ret

00000a62 <received>:
     a62:	f9 2f       	mov	r31, r25
     a64:	e8 2f       	mov	r30, r24
     a66:	40 91 60 00 	lds	r20, 0x0060
     a6a:	50 91 61 00 	lds	r21, 0x0061
     a6e:	8f b7       	in	r24, 0x3f	; 63
     a70:	f8 94       	cli
     a72:	28 2f       	mov	r18, r24
     a74:	33 27       	eor	r19, r19
     a76:	80 91 f1 02 	lds	r24, 0x02F1
     a7a:	90 91 f2 02 	lds	r25, 0x02F2
     a7e:	01 96       	adiw	r24, 0x01	; 1
     a80:	90 93 f2 02 	sts	0x02F2, r25
     a84:	80 93 f1 02 	sts	0x02F1, r24
     a88:	2f bf       	out	0x3f, r18	; 63
     a8a:	82 a1       	ldd	r24, Z+34	; 0x22
     a8c:	93 a1       	ldd	r25, Z+35	; 0x23
     a8e:	01 97       	sbiw	r24, 0x01	; 1
     a90:	79 f5       	brne	.+94     	; 0xaf0
     a92:	93 81       	ldd	r25, Z+3	; 0x03
     a94:	80 91 62 00 	lds	r24, 0x0062
     a98:	98 17       	cp	r25, r24
     a9a:	51 f5       	brne	.+84     	; 0xaf0
     a9c:	80 81       	ld	r24, Z
     a9e:	91 81       	ldd	r25, Z+1	; 0x01
     aa0:	2f ef       	ldi	r18, 0xFF	; 255
     aa2:	8f 3f       	cpi	r24, 0xFF	; 255
     aa4:	92 07       	cpc	r25, r18
     aa6:	19 f0       	breq	.+6      	; 0xaae
     aa8:	84 17       	cp	r24, r20
     aaa:	95 07       	cpc	r25, r21
     aac:	09 f5       	brne	.+66     	; 0xaf0
     aae:	92 81       	ldd	r25, Z+2	; 0x02
     ab0:	83 e0       	ldi	r24, 0x03	; 3
     ab2:	8c 5f       	subi	r24, 0xFC	; 252
     ab4:	8b 32       	cpi	r24, 0x2B	; 43
     ab6:	e8 f3       	brcs	.-6      	; 0xab2
     ab8:	82 a5       	ldd	r24, Z+42	; 0x2a
     aba:	81 50       	subi	r24, 0x01	; 1
     abc:	82 30       	cpi	r24, 0x02	; 2
     abe:	c0 f4       	brcc	.+48     	; 0xaf0
     ac0:	94 30       	cpi	r25, 0x04	; 4
     ac2:	b1 f4       	brne	.+44     	; 0xaf0
     ac4:	8f b7       	in	r24, 0x3f	; 63
     ac6:	f8 94       	cli
     ac8:	38 2f       	mov	r19, r24
     aca:	20 91 7d 03 	lds	r18, 0x037D
     ace:	20 ff       	sbrs	r18, 0
     ad0:	06 c0       	rjmp	.+12     	; 0xade
     ad2:	8f b7       	in	r24, 0x3f	; 63
     ad4:	f8 94       	cli
     ad6:	99 27       	eor	r25, r25
     ad8:	da 9a       	sbi	0x1b, 2	; 27
     ada:	2e 7f       	andi	r18, 0xFE	; 254
     adc:	05 c0       	rjmp	.+10     	; 0xae8
     ade:	8f b7       	in	r24, 0x3f	; 63
     ae0:	f8 94       	cli
     ae2:	99 27       	eor	r25, r25
     ae4:	da 98       	cbi	0x1b, 2	; 27
     ae6:	21 60       	ori	r18, 0x01	; 1
     ae8:	20 93 7d 03 	sts	0x037D, r18
     aec:	8f bf       	out	0x3f, r24	; 63
     aee:	3f bf       	out	0x3f, r19	; 63
     af0:	8e 2f       	mov	r24, r30
     af2:	9f 2f       	mov	r25, r31
     af4:	08 95       	ret

00000af6 <__vector_9>:
     af6:	1f 92       	push	r1
     af8:	0f 92       	push	r0
     afa:	0f b6       	in	r0, 0x3f	; 63
     afc:	0f 92       	push	r0
     afe:	11 24       	eor	r1, r1
     b00:	bf 92       	push	r11
     b02:	cf 92       	push	r12
     b04:	df 92       	push	r13
     b06:	ef 92       	push	r14
     b08:	ff 92       	push	r15
     b0a:	0f 93       	push	r16
     b0c:	1f 93       	push	r17
     b0e:	2f 93       	push	r18
     b10:	3f 93       	push	r19
     b12:	4f 93       	push	r20
     b14:	5f 93       	push	r21
     b16:	6f 93       	push	r22
     b18:	7f 93       	push	r23
     b1a:	8f 93       	push	r24
     b1c:	9f 93       	push	r25
     b1e:	af 93       	push	r26
     b20:	bf 93       	push	r27
     b22:	ef 93       	push	r30
     b24:	ff 93       	push	r31
     b26:	cf 93       	push	r28
     b28:	df 93       	push	r29
     b2a:	cd b7       	in	r28, 0x3d	; 61
     b2c:	de b7       	in	r29, 0x3e	; 62
     b2e:	22 97       	sbiw	r28, 0x02	; 2
     b30:	de bf       	out	0x3e, r29	; 62
     b32:	cd bf       	out	0x3d, r28	; 61
     b34:	86 b3       	in	r24, 0x16	; 22
     b36:	28 2f       	mov	r18, r24
     b38:	33 27       	eor	r19, r19
     b3a:	36 95       	lsr	r19
     b3c:	27 95       	ror	r18
     b3e:	36 95       	lsr	r19
     b40:	27 95       	ror	r18
     b42:	21 70       	andi	r18, 0x01	; 1
     b44:	30 70       	andi	r19, 0x00	; 0
     b46:	92 2f       	mov	r25, r18
     b48:	8f b7       	in	r24, 0x3f	; 63
     b4a:	f8 94       	cli
     b4c:	b8 2e       	mov	r11, r24
     b4e:	10 91 a6 02 	lds	r17, 0x02A6
     b52:	11 23       	and	r17, r17
     b54:	09 f0       	breq	.+2      	; 0xb58
     b56:	30 c2       	rjmp	.+1120   	; 0xfb8
     b58:	20 91 be 03 	lds	r18, 0x03BE
     b5c:	30 91 bf 03 	lds	r19, 0x03BF
     b60:	22 0f       	add	r18, r18
     b62:	33 1f       	adc	r19, r19
     b64:	89 2f       	mov	r24, r25
     b66:	99 27       	eor	r25, r25
     b68:	81 70       	andi	r24, 0x01	; 1
     b6a:	90 70       	andi	r25, 0x00	; 0
     b6c:	28 2b       	or	r18, r24
     b6e:	39 2b       	or	r19, r25
     b70:	30 93 bf 03 	sts	0x03BF, r19
     b74:	20 93 be 03 	sts	0x03BE, r18
     b78:	80 91 bc 02 	lds	r24, 0x02BC
     b7c:	90 91 bd 02 	lds	r25, 0x02BD
     b80:	4f ef       	ldi	r20, 0xFF	; 255
     b82:	8f 3f       	cpi	r24, 0xFF	; 255
     b84:	94 07       	cpc	r25, r20
     b86:	09 f4       	brne	.+2      	; 0xb8a
     b88:	fe c1       	rjmp	.+1020   	; 0xf86
     b8a:	01 97       	sbiw	r24, 0x01	; 1
     b8c:	90 93 bd 02 	sts	0x02BD, r25
     b90:	80 93 bc 02 	sts	0x02BC, r24
     b94:	01 97       	sbiw	r24, 0x01	; 1
     b96:	09 f0       	breq	.+2      	; 0xb9a
     b98:	f6 c1       	rjmp	.+1004   	; 0xf86
     b9a:	3f 70       	andi	r19, 0x0F	; 15
     b9c:	23 2b       	or	r18, r19
     b9e:	09 f0       	breq	.+2      	; 0xba2
     ba0:	e9 c1       	rjmp	.+978    	; 0xf74
     ba2:	8f ef       	ldi	r24, 0xFF	; 255
     ba4:	9f ef       	ldi	r25, 0xFF	; 255
     ba6:	90 93 bd 02 	sts	0x02BD, r25
     baa:	80 93 bc 02 	sts	0x02BC, r24
     bae:	8f b7       	in	r24, 0x3f	; 63
     bb0:	f8 94       	cli
     bb2:	28 2f       	mov	r18, r24
     bb4:	33 27       	eor	r19, r19
     bb6:	f0 90 ba 02 	lds	r15, 0x02BA
     bba:	81 e0       	ldi	r24, 0x01	; 1
     bbc:	f8 16       	cp	r15, r24
     bbe:	29 f4       	brne	.+10     	; 0xbca
     bc0:	10 93 ba 02 	sts	0x02BA, r17
     bc4:	89 e0       	ldi	r24, 0x09	; 9
     bc6:	80 93 b6 03 	sts	0x03B6, r24
     bca:	2f bf       	out	0x3f, r18	; 63
     bcc:	91 e0       	ldi	r25, 0x01	; 1
     bce:	f9 16       	cp	r15, r25
     bd0:	09 f0       	breq	.+2      	; 0xbd4
     bd2:	b5 c0       	rjmp	.+362    	; 0xd3e
     bd4:	8f b7       	in	r24, 0x3f	; 63
     bd6:	f8 94       	cli
     bd8:	d8 2e       	mov	r13, r24
     bda:	e0 91 92 02 	lds	r30, 0x0292
     bde:	f0 91 93 02 	lds	r31, 0x0293
     be2:	00 81       	ld	r16, Z
     be4:	e0 90 65 01 	lds	r14, 0x0165
     be8:	10 93 7e 03 	sts	0x037E, r17
     bec:	10 93 29 03 	sts	0x0329, r17
     bf0:	10 93 b9 03 	sts	0x03B9, r17
     bf4:	80 2f       	mov	r24, r16
     bf6:	0e 94 d5 08 	call	0x11aa
     bfa:	10 93 b7 03 	sts	0x03B7, r17
     bfe:	a0 91 92 02 	lds	r26, 0x0292
     c02:	b0 91 93 02 	lds	r27, 0x0293
     c06:	13 96       	adiw	r26, 0x03	; 3
     c08:	8c 91       	ld	r24, X
     c0a:	13 97       	sbiw	r26, 0x03	; 3
     c0c:	87 ff       	sbrs	r24, 7
     c0e:	65 c0       	rjmp	.+202    	; 0xcda
     c10:	b0 93 90 02 	sts	0x0290, r27
     c14:	a0 93 8f 02 	sts	0x028F, r26
     c18:	86 e4       	ldi	r24, 0x46	; 70
     c1a:	93 e0       	ldi	r25, 0x03	; 3
     c1c:	90 93 f0 02 	sts	0x02F0, r25
     c20:	80 93 ef 02 	sts	0x02EF, r24
     c24:	8d 91       	ld	r24, X+
     c26:	9c 91       	ld	r25, X
     c28:	11 97       	sbiw	r26, 0x01	; 1
     c2a:	90 93 47 03 	sts	0x0347, r25
     c2e:	80 93 46 03 	sts	0x0346, r24
     c32:	13 96       	adiw	r26, 0x03	; 3
     c34:	8c 91       	ld	r24, X
     c36:	13 97       	sbiw	r26, 0x03	; 3
     c38:	80 93 49 03 	sts	0x0349, r24
     c3c:	12 96       	adiw	r26, 0x02	; 2
     c3e:	8c 91       	ld	r24, X
     c40:	12 97       	sbiw	r26, 0x02	; 2
     c42:	80 93 48 03 	sts	0x0348, r24
     c46:	13 96       	adiw	r26, 0x03	; 3
     c48:	2c 91       	ld	r18, X
     c4a:	13 97       	sbiw	r26, 0x03	; 3
     c4c:	82 2f       	mov	r24, r18
     c4e:	99 27       	eor	r25, r25
     c50:	8f 73       	andi	r24, 0x3F	; 63
     c52:	90 70       	andi	r25, 0x00	; 0
     c54:	90 93 7d 01 	sts	0x017D, r25
     c58:	80 93 7c 01 	sts	0x017C, r24
     c5c:	4e 97       	sbiw	r24, 0x1e	; 30
     c5e:	54 f0       	brlt	.+20     	; 0xc74
     c60:	8d e1       	ldi	r24, 0x1D	; 29
     c62:	90 e0       	ldi	r25, 0x00	; 0
     c64:	90 93 7d 01 	sts	0x017D, r25
     c68:	80 93 7c 01 	sts	0x017C, r24
     c6c:	20 74       	andi	r18, 0x40	; 64
     c6e:	2d 69       	ori	r18, 0x9D	; 157
     c70:	20 93 49 03 	sts	0x0349, r18
     c74:	e0 91 8f 02 	lds	r30, 0x028F
     c78:	f0 91 90 02 	lds	r31, 0x0290
     c7c:	83 81       	ldd	r24, Z+3	; 0x03
     c7e:	86 ff       	sbrs	r24, 6
     c80:	03 c0       	rjmp	.+6      	; 0xc88
     c82:	f0 92 63 00 	sts	0x0063, r15
     c86:	02 c0       	rjmp	.+4      	; 0xc8c
     c88:	10 93 63 00 	sts	0x0063, r17
     c8c:	80 91 ce 02 	lds	r24, 0x02CE
     c90:	48 2f       	mov	r20, r24
     c92:	55 27       	eor	r21, r21
     c94:	20 91 7c 01 	lds	r18, 0x017C
     c98:	30 91 7d 01 	lds	r19, 0x017D
     c9c:	24 17       	cp	r18, r20
     c9e:	35 07       	cpc	r19, r21
     ca0:	5c f4       	brge	.+22     	; 0xcb8
     ca2:	80 91 63 00 	lds	r24, 0x0063
     ca6:	88 23       	and	r24, r24
     ca8:	39 f0       	breq	.+14     	; 0xcb8
     caa:	48 5f       	subi	r20, 0xF8	; 248
     cac:	5f 4f       	sbci	r21, 0xFF	; 255
     cae:	50 93 73 01 	sts	0x0173, r21
     cb2:	40 93 72 01 	sts	0x0172, r20
     cb6:	06 c0       	rjmp	.+12     	; 0xcc4
     cb8:	28 5f       	subi	r18, 0xF8	; 248
     cba:	3f 4f       	sbci	r19, 0xFF	; 255
     cbc:	30 93 73 01 	sts	0x0173, r19
     cc0:	20 93 72 01 	sts	0x0172, r18
     cc4:	8f ef       	ldi	r24, 0xFF	; 255
     cc6:	9f ef       	ldi	r25, 0xFF	; 255
     cc8:	90 93 77 01 	sts	0x0177, r25
     ccc:	80 93 76 01 	sts	0x0176, r24
     cd0:	80 91 72 01 	lds	r24, 0x0172
     cd4:	90 91 73 01 	lds	r25, 0x0173
     cd8:	01 c0       	rjmp	.+2      	; 0xcdc
     cda:	8b 5f       	subi	r24, 0xFB	; 251
     cdc:	80 93 8d 02 	sts	0x028D, r24
     ce0:	12 96       	adiw	r26, 0x02	; 2
     ce2:	8c 91       	ld	r24, X
     ce4:	85 32       	cpi	r24, 0x25	; 37
     ce6:	11 f4       	brne	.+4      	; 0xcec
     ce8:	0e 94 71 09 	call	0x12e2
     cec:	df be       	out	0x3f, r13	; 63
     cee:	8e 2d       	mov	r24, r14
     cf0:	0e 94 f4 09 	call	0x13e8
     cf4:	8f b7       	in	r24, 0x3f	; 63
     cf6:	80 78       	andi	r24, 0x80	; 128
     cf8:	f8 94       	cli
     cfa:	4c b5       	in	r20, 0x2c	; 44
     cfc:	5d b5       	in	r21, 0x2d	; 45
     cfe:	88 23       	and	r24, r24
     d00:	09 f0       	breq	.+2      	; 0xd04
     d02:	78 94       	sei
     d04:	80 e0       	ldi	r24, 0x00	; 0
     d06:	90 e0       	ldi	r25, 0x00	; 0
     d08:	e0 e6       	ldi	r30, 0x60	; 96
     d0a:	f0 e0       	ldi	r31, 0x00	; 0
     d0c:	09 27       	eor	r16, r25
     d0e:	00 0f       	add	r16, r16
     d10:	f1 1d       	adc	r31, r1
     d12:	e0 0f       	add	r30, r16
     d14:	f1 1d       	adc	r31, r1
     d16:	c8 95       	lpm
     d18:	38 2f       	mov	r19, r24
     d1a:	20 2d       	mov	r18, r0
     d1c:	31 96       	adiw	r30, 0x01	; 1
     d1e:	c8 95       	lpm
     d20:	30 25       	eor	r19, r0
     d22:	8f b7       	in	r24, 0x3f	; 63
     d24:	f8 94       	cli
     d26:	99 27       	eor	r25, r25
     d28:	e0 91 92 02 	lds	r30, 0x0292
     d2c:	f0 91 93 02 	lds	r31, 0x0293
     d30:	47 a3       	std	Z+39, r20	; 0x27
     d32:	50 a7       	std	Z+40, r21	; 0x28
     d34:	30 93 7c 03 	sts	0x037C, r19
     d38:	20 93 7b 03 	sts	0x037B, r18
     d3c:	8f bf       	out	0x3f, r24	; 63
     d3e:	e0 91 92 02 	lds	r30, 0x0292
     d42:	f0 91 93 02 	lds	r31, 0x0293
     d46:	83 81       	ldd	r24, Z+3	; 0x03
     d48:	87 ff       	sbrs	r24, 7
     d4a:	1d c1       	rjmp	.+570    	; 0xf86
     d4c:	78 94       	sei
     d4e:	80 91 63 00 	lds	r24, 0x0063
     d52:	88 23       	and	r24, r24
     d54:	09 f4       	brne	.+2      	; 0xd58
     d56:	b4 c0       	rjmp	.+360    	; 0xec0
     d58:	04 e0       	ldi	r16, 0x04	; 4
     d5a:	10 e0       	ldi	r17, 0x00	; 0
     d5c:	80 91 ce 02 	lds	r24, 0x02CE
     d60:	99 27       	eor	r25, r25
     d62:	04 97       	sbiw	r24, 0x04	; 4
     d64:	80 17       	cp	r24, r16
     d66:	91 07       	cpc	r25, r17
     d68:	10 f4       	brcc	.+4      	; 0xd6e
     d6a:	08 2f       	mov	r16, r24
     d6c:	19 2f       	mov	r17, r25
     d6e:	80 91 ef 02 	lds	r24, 0x02EF
     d72:	90 91 f0 02 	lds	r25, 0x02F0
     d76:	04 96       	adiw	r24, 0x04	; 4
     d78:	44 e0       	ldi	r20, 0x04	; 4
     d7a:	50 e0       	ldi	r21, 0x00	; 0
     d7c:	69 e7       	ldi	r22, 0x79	; 121
     d7e:	72 e0       	ldi	r23, 0x02	; 2
     d80:	0e 94 d3 03 	call	0x7a6
     d84:	51 2f       	mov	r21, r17
     d86:	40 2f       	mov	r20, r16
     d88:	60 91 ef 02 	lds	r22, 0x02EF
     d8c:	70 91 f0 02 	lds	r23, 0x02F0
     d90:	8d e7       	ldi	r24, 0x7D	; 125
     d92:	92 e0       	ldi	r25, 0x02	; 2
     d94:	0e 94 d3 03 	call	0x7a6
     d98:	40 2f       	mov	r20, r16
     d9a:	4c 5f       	subi	r20, 0xFC	; 252
     d9c:	80 91 ce 02 	lds	r24, 0x02CE
     da0:	48 17       	cp	r20, r24
     da2:	40 f4       	brcc	.+16     	; 0xdb4
     da4:	e4 2f       	mov	r30, r20
     da6:	ff 27       	eor	r31, r31
     da8:	e7 58       	subi	r30, 0x87	; 135
     daa:	fd 4f       	sbci	r31, 0xFD	; 253
     dac:	10 82       	st	Z, r1
     dae:	4f 5f       	subi	r20, 0xFF	; 255
     db0:	48 17       	cp	r20, r24
     db2:	c0 f3       	brcs	.-16     	; 0xda4
     db4:	99 27       	eor	r25, r25
     db6:	e0 90 7c 01 	lds	r14, 0x017C
     dba:	f0 90 7d 01 	lds	r15, 0x017D
     dbe:	c0 90 8f 02 	lds	r12, 0x028F
     dc2:	d0 90 90 02 	lds	r13, 0x0290
     dc6:	e8 16       	cp	r14, r24
     dc8:	f9 06       	cpc	r15, r25
     dca:	0c f0       	brlt	.+2      	; 0xdce
     dcc:	59 c0       	rjmp	.+178    	; 0xe80
     dce:	0e 94 d9 17 	call	0x2fb2
     dd2:	89 83       	std	Y+1, r24	; 0x01
     dd4:	9a 83       	std	Y+2, r25	; 0x02
     dd6:	1e 2d       	mov	r17, r14
     dd8:	2e 2d       	mov	r18, r14
     dda:	33 27       	eor	r19, r19
     ddc:	80 91 ce 02 	lds	r24, 0x02CE
     de0:	99 27       	eor	r25, r25
     de2:	01 97       	sbiw	r24, 0x01	; 1
     de4:	28 17       	cp	r18, r24
     de6:	39 07       	cpc	r19, r25
     de8:	e4 f4       	brge	.+56     	; 0xe22
     dea:	2c 0d       	add	r18, r12
     dec:	3d 1d       	adc	r19, r13
     dee:	2b 5f       	subi	r18, 0xFB	; 251
     df0:	3f 4f       	sbci	r19, 0xFF	; 255
     df2:	42 e0       	ldi	r20, 0x02	; 2
     df4:	50 e0       	ldi	r21, 0x00	; 0
     df6:	6c 2f       	mov	r22, r28
     df8:	7d 2f       	mov	r23, r29
     dfa:	6f 5f       	subi	r22, 0xFF	; 255
     dfc:	7f 4f       	sbci	r23, 0xFF	; 255
     dfe:	93 2f       	mov	r25, r19
     e00:	82 2f       	mov	r24, r18
     e02:	0e 94 d3 03 	call	0x7a6
     e06:	0e 94 d9 17 	call	0x2fb2
     e0a:	89 83       	std	Y+1, r24	; 0x01
     e0c:	9a 83       	std	Y+2, r25	; 0x02
     e0e:	1e 5f       	subi	r17, 0xFE	; 254
     e10:	21 2f       	mov	r18, r17
     e12:	33 27       	eor	r19, r19
     e14:	80 91 ce 02 	lds	r24, 0x02CE
     e18:	99 27       	eor	r25, r25
     e1a:	01 97       	sbiw	r24, 0x01	; 1
     e1c:	28 17       	cp	r18, r24
     e1e:	39 07       	cpc	r19, r25
     e20:	24 f3       	brlt	.-56     	; 0xdea
     e22:	21 2f       	mov	r18, r17
     e24:	33 27       	eor	r19, r19
     e26:	80 91 ce 02 	lds	r24, 0x02CE
     e2a:	99 27       	eor	r25, r25
     e2c:	01 97       	sbiw	r24, 0x01	; 1
     e2e:	28 17       	cp	r18, r24
     e30:	39 07       	cpc	r19, r25
     e32:	81 f4       	brne	.+32     	; 0xe54
     e34:	c2 0e       	add	r12, r18
     e36:	d3 1e       	adc	r13, r19
     e38:	85 e0       	ldi	r24, 0x05	; 5
     e3a:	90 e0       	ldi	r25, 0x00	; 0
     e3c:	c8 0e       	add	r12, r24
     e3e:	d9 1e       	adc	r13, r25
     e40:	41 e0       	ldi	r20, 0x01	; 1
     e42:	50 e0       	ldi	r21, 0x00	; 0
     e44:	6c 2f       	mov	r22, r28
     e46:	7d 2f       	mov	r23, r29
     e48:	64 0f       	add	r22, r20
     e4a:	75 1f       	adc	r23, r21
     e4c:	9d 2d       	mov	r25, r13
     e4e:	8c 2d       	mov	r24, r12
     e50:	0e 94 d3 03 	call	0x7a6
     e54:	60 91 8f 02 	lds	r22, 0x028F
     e58:	70 91 90 02 	lds	r23, 0x0290
     e5c:	6b 5f       	subi	r22, 0xFB	; 251
     e5e:	7f 4f       	sbci	r23, 0xFF	; 255
     e60:	80 91 ef 02 	lds	r24, 0x02EF
     e64:	90 91 f0 02 	lds	r25, 0x02F0
     e68:	08 96       	adiw	r24, 0x08	; 8
     e6a:	20 91 ce 02 	lds	r18, 0x02CE
     e6e:	33 27       	eor	r19, r19
     e70:	09 e7       	ldi	r16, 0x79	; 121
     e72:	12 e0       	ldi	r17, 0x02	; 2
     e74:	48 2f       	mov	r20, r24
     e76:	59 2f       	mov	r21, r25
     e78:	14 c0       	rjmp	.+40     	; 0xea2
     e7a:	8f 5f       	subi	r24, 0xFF	; 255
     e7c:	80 83       	st	Z, r24
     e7e:	40 c0       	rjmp	.+128    	; 0xf00
     e80:	e5 e0       	ldi	r30, 0x05	; 5
     e82:	f0 e0       	ldi	r31, 0x00	; 0
     e84:	ce 0e       	add	r12, r30
     e86:	df 1e       	adc	r13, r31
     e88:	80 91 ef 02 	lds	r24, 0x02EF
     e8c:	90 91 f0 02 	lds	r25, 0x02F0
     e90:	08 96       	adiw	r24, 0x08	; 8
     e92:	09 e7       	ldi	r16, 0x79	; 121
     e94:	12 e0       	ldi	r17, 0x02	; 2
     e96:	3f 2d       	mov	r19, r15
     e98:	2e 2d       	mov	r18, r14
     e9a:	48 2f       	mov	r20, r24
     e9c:	59 2f       	mov	r21, r25
     e9e:	7d 2d       	mov	r23, r13
     ea0:	6c 2d       	mov	r22, r12
     ea2:	8c ed       	ldi	r24, 0xDC	; 220
     ea4:	91 e0       	ldi	r25, 0x01	; 1
     ea6:	0e 94 fd 17 	call	0x2ffa
     eaa:	40 e0       	ldi	r20, 0x00	; 0
     eac:	e9 e7       	ldi	r30, 0x79	; 121
     eae:	f2 e0       	ldi	r31, 0x02	; 2
     eb0:	80 81       	ld	r24, Z
     eb2:	8f 3f       	cpi	r24, 0xFF	; 255
     eb4:	11 f7       	brne	.-60     	; 0xe7a
     eb6:	11 92       	st	Z+, r1
     eb8:	4f 5f       	subi	r20, 0xFF	; 255
     eba:	42 30       	cpi	r20, 0x02	; 2
     ebc:	c8 f3       	brcs	.-14     	; 0xeb0
     ebe:	20 c0       	rjmp	.+64     	; 0xf00
     ec0:	e0 91 ef 02 	lds	r30, 0x02EF
     ec4:	f0 91 f0 02 	lds	r31, 0x02F0
     ec8:	34 96       	adiw	r30, 0x04	; 4
     eca:	83 e0       	ldi	r24, 0x03	; 3
     ecc:	90 e0       	ldi	r25, 0x00	; 0
     ece:	11 92       	st	Z+, r1
     ed0:	01 97       	sbiw	r24, 0x01	; 1
     ed2:	2f ef       	ldi	r18, 0xFF	; 255
     ed4:	8f 3f       	cpi	r24, 0xFF	; 255
     ed6:	92 07       	cpc	r25, r18
     ed8:	d1 f7       	brne	.-12     	; 0xece
     eda:	20 91 8f 02 	lds	r18, 0x028F
     ede:	30 91 90 02 	lds	r19, 0x0290
     ee2:	2b 5f       	subi	r18, 0xFB	; 251
     ee4:	3f 4f       	sbci	r19, 0xFF	; 255
     ee6:	80 91 ef 02 	lds	r24, 0x02EF
     eea:	90 91 f0 02 	lds	r25, 0x02F0
     eee:	08 96       	adiw	r24, 0x08	; 8
     ef0:	40 91 7c 01 	lds	r20, 0x017C
     ef4:	50 91 7d 01 	lds	r21, 0x017D
     ef8:	73 2f       	mov	r23, r19
     efa:	62 2f       	mov	r22, r18
     efc:	0e 94 d3 03 	call	0x7a6
     f00:	e0 90 ef 02 	lds	r14, 0x02EF
     f04:	f0 90 f0 02 	lds	r15, 0x02F0
     f08:	00 91 72 01 	lds	r16, 0x0172
     f0c:	10 91 73 01 	lds	r17, 0x0173
     f10:	79 e2       	ldi	r23, 0x29	; 41
     f12:	c7 2e       	mov	r12, r23
     f14:	d1 2c       	mov	r13, r1
     f16:	ce 0c       	add	r12, r14
     f18:	df 1c       	adc	r13, r15
     f1a:	71 2f       	mov	r23, r17
     f1c:	60 2f       	mov	r22, r16
     f1e:	83 ec       	ldi	r24, 0xC3	; 195
     f20:	93 e0       	ldi	r25, 0x03	; 3
     f22:	0e 94 d1 12 	call	0x25a2
     f26:	81 30       	cpi	r24, 0x01	; 1
     f28:	89 f4       	brne	.+34     	; 0xf4c
     f2a:	51 2f       	mov	r21, r17
     f2c:	40 2f       	mov	r20, r16
     f2e:	7f 2d       	mov	r23, r15
     f30:	6e 2d       	mov	r22, r14
     f32:	83 ec       	ldi	r24, 0xC3	; 195
     f34:	93 e0       	ldi	r25, 0x03	; 3
     f36:	0e 94 9f 14 	call	0x293e
     f3a:	81 30       	cpi	r24, 0x01	; 1
     f3c:	39 f4       	brne	.+14     	; 0xf4c
     f3e:	45 e0       	ldi	r20, 0x05	; 5
     f40:	7d 2d       	mov	r23, r13
     f42:	6c 2d       	mov	r22, r12
     f44:	83 ec       	ldi	r24, 0xC3	; 195
     f46:	93 e0       	ldi	r25, 0x03	; 3
     f48:	0e 94 f1 14 	call	0x29e2
     f4c:	80 91 ef 02 	lds	r24, 0x02EF
     f50:	90 91 f0 02 	lds	r25, 0x02F0
     f54:	28 2f       	mov	r18, r24
     f56:	39 2f       	mov	r19, r25
     f58:	2b 5d       	subi	r18, 0xDB	; 219
     f5a:	3f 4f       	sbci	r19, 0xFF	; 255
     f5c:	44 e0       	ldi	r20, 0x04	; 4
     f5e:	50 e0       	ldi	r21, 0x00	; 0
     f60:	89 96       	adiw	r24, 0x29	; 41
     f62:	68 2f       	mov	r22, r24
     f64:	79 2f       	mov	r23, r25
     f66:	93 2f       	mov	r25, r19
     f68:	82 2f       	mov	r24, r18
     f6a:	0e 94 d3 03 	call	0x7a6
     f6e:	8f b7       	in	r24, 0x3f	; 63
     f70:	f8 94       	cli
     f72:	09 c0       	rjmp	.+18     	; 0xf86
     f74:	0e 94 d9 17 	call	0x2fb2
     f78:	8f 71       	andi	r24, 0x1F	; 31
     f7a:	90 70       	andi	r25, 0x00	; 0
     f7c:	4e 96       	adiw	r24, 0x1e	; 30
     f7e:	90 93 bd 02 	sts	0x02BD, r25
     f82:	80 93 bc 02 	sts	0x02BC, r24
     f86:	80 91 be 03 	lds	r24, 0x03BE
     f8a:	90 91 bf 03 	lds	r25, 0x03BF
     f8e:	87 77       	andi	r24, 0x77	; 119
     f90:	97 70       	andi	r25, 0x07	; 7
     f92:	87 50       	subi	r24, 0x07	; 7
     f94:	97 40       	sbci	r25, 0x07	; 7
     f96:	09 f0       	breq	.+2      	; 0xf9a
     f98:	e9 c0       	rjmp	.+466    	; 0x116c
     f9a:	81 e0       	ldi	r24, 0x01	; 1
     f9c:	80 93 a6 02 	sts	0x02A6, r24
     fa0:	10 92 c1 03 	sts	0x03C1, r1
     fa4:	10 92 c0 03 	sts	0x03C0, r1
     fa8:	10 92 bf 03 	sts	0x03BF, r1
     fac:	10 92 be 03 	sts	0x03BE, r1
     fb0:	8e e1       	ldi	r24, 0x1E	; 30
     fb2:	80 93 8e 02 	sts	0x028E, r24
     fb6:	da c0       	rjmp	.+436    	; 0x116c
     fb8:	11 30       	cpi	r17, 0x01	; 1
     fba:	09 f0       	breq	.+2      	; 0xfbe
     fbc:	d7 c0       	rjmp	.+430    	; 0x116c
     fbe:	80 91 28 03 	lds	r24, 0x0328
     fc2:	e8 2f       	mov	r30, r24
     fc4:	ff 27       	eor	r31, r31
     fc6:	ee 0f       	add	r30, r30
     fc8:	ff 1f       	adc	r31, r31
     fca:	e2 54       	subi	r30, 0x42	; 66
     fcc:	fc 4f       	sbci	r31, 0xFC	; 252
     fce:	40 81       	ld	r20, Z
     fd0:	51 81       	ldd	r21, Z+1	; 0x01
     fd2:	80 91 8e 02 	lds	r24, 0x028E
     fd6:	81 50       	subi	r24, 0x01	; 1
     fd8:	80 93 8e 02 	sts	0x028E, r24
     fdc:	88 23       	and	r24, r24
     fde:	11 f4       	brne	.+4      	; 0xfe4
     fe0:	80 93 a6 02 	sts	0x02A6, r24
     fe4:	80 91 a6 02 	lds	r24, 0x02A6
     fe8:	88 23       	and	r24, r24
     fea:	09 f4       	brne	.+2      	; 0xfee
     fec:	bf c0       	rjmp	.+382    	; 0x116c
     fee:	44 0f       	add	r20, r20
     ff0:	55 1f       	adc	r21, r21
     ff2:	51 70       	andi	r21, 0x01	; 1
     ff4:	21 11       	cpse	r18, r1
     ff6:	41 60       	ori	r20, 0x01	; 1
     ff8:	81 e0       	ldi	r24, 0x01	; 1
     ffa:	45 33       	cpi	r20, 0x35	; 53
     ffc:	58 07       	cpc	r21, r24
     ffe:	09 f0       	breq	.+2      	; 0x1002
    1000:	a3 c0       	rjmp	.+326    	; 0x1148
    1002:	87 b7       	in	r24, 0x37	; 55
    1004:	8f 77       	andi	r24, 0x7F	; 127
    1006:	87 bf       	out	0x37, r24	; 55
    1008:	10 92 a6 02 	sts	0x02A6, r1
    100c:	8f b7       	in	r24, 0x3f	; 63
    100e:	f8 94       	cli
    1010:	28 2f       	mov	r18, r24
    1012:	33 27       	eor	r19, r19
    1014:	10 92 f7 02 	sts	0x02F7, r1
    1018:	10 92 cd 02 	sts	0x02CD, r1
    101c:	82 e0       	ldi	r24, 0x02	; 2
    101e:	80 93 b6 03 	sts	0x03B6, r24
    1022:	2f bf       	out	0x3f, r18	; 63
    1024:	bc 98       	cbi	0x17, 4	; 23
    1026:	b2 99       	sbic	0x16, 2	; 22
    1028:	fe cf       	rjmp	.-4      	; 0x1026
    102a:	81 e4       	ldi	r24, 0x41	; 65
    102c:	8e bd       	out	0x2e, r24	; 46
    102e:	80 e2       	ldi	r24, 0x20	; 32
    1030:	86 bf       	out	0x36, r24	; 54
    1032:	06 b6       	in	r0, 0x36	; 54
    1034:	05 fe       	sbrs	r0, 5
    1036:	fd cf       	rjmp	.-6      	; 0x1032
    1038:	c6 9a       	sbi	0x18, 6	; 24
    103a:	c6 98       	cbi	0x18, 6	; 24
    103c:	8f b7       	in	r24, 0x3f	; 63
    103e:	80 78       	andi	r24, 0x80	; 128
    1040:	f8 94       	cli
    1042:	66 b5       	in	r22, 0x26	; 38
    1044:	77 b5       	in	r23, 0x27	; 39
    1046:	88 23       	and	r24, r24
    1048:	09 f0       	breq	.+2      	; 0x104c
    104a:	78 94       	sei
    104c:	8f b7       	in	r24, 0x3f	; 63
    104e:	f8 94       	cli
    1050:	28 2f       	mov	r18, r24
    1052:	33 27       	eor	r19, r19
    1054:	90 91 d9 01 	lds	r25, 0x01D9
    1058:	99 23       	and	r25, r25
    105a:	19 f4       	brne	.+6      	; 0x1062
    105c:	83 e0       	ldi	r24, 0x03	; 3
    105e:	80 93 d9 01 	sts	0x01D9, r24
    1062:	2f bf       	out	0x3f, r18	; 63
    1064:	99 23       	and	r25, r25
    1066:	a1 f5       	brne	.+104    	; 0x10d0
    1068:	8f b7       	in	r24, 0x3f	; 63
    106a:	f8 94       	cli
    106c:	28 2f       	mov	r18, r24
    106e:	33 27       	eor	r19, r19
    1070:	80 91 ee 02 	lds	r24, 0x02EE
    1074:	81 50       	subi	r24, 0x01	; 1
    1076:	80 93 ee 02 	sts	0x02EE, r24
    107a:	15 9a       	sbi	0x02, 5	; 2
    107c:	1d 98       	cbi	0x03, 5	; 3
    107e:	2f bf       	out	0x3f, r18	; 63
    1080:	9d b9       	out	0x0d, r25	; 13
    1082:	c7 98       	cbi	0x18, 7	; 24
    1084:	bf 9a       	sbi	0x17, 7	; 23
    1086:	95 bd       	out	0x25, r25	; 37
    1088:	81 e0       	ldi	r24, 0x01	; 1
    108a:	84 bd       	out	0x24, r24	; 36
    108c:	82 e3       	ldi	r24, 0x32	; 50
    108e:	83 bd       	out	0x23, r24	; 35
    1090:	26 2f       	mov	r18, r22
    1092:	37 2f       	mov	r19, r23
    1094:	23 58       	subi	r18, 0x83	; 131
    1096:	3e 4f       	sbci	r19, 0xFE	; 254
    1098:	9f ef       	ldi	r25, 0xFF	; 255
    109a:	21 3f       	cpi	r18, 0xF1	; 241
    109c:	39 07       	cpc	r19, r25
    109e:	10 f0       	brcs	.+4      	; 0x10a4
    10a0:	20 ef       	ldi	r18, 0xF0	; 240
    10a2:	3f ef       	ldi	r19, 0xFF	; 255
    10a4:	89 e1       	ldi	r24, 0x19	; 25
    10a6:	85 bd       	out	0x25, r24	; 37
    10a8:	8e e1       	ldi	r24, 0x1E	; 30
    10aa:	84 bd       	out	0x24, r24	; 36
    10ac:	b7 99       	sbic	0x16, 7	; 22
    10ae:	fe cf       	rjmp	.-4      	; 0x10ac
    10b0:	8c b5       	in	r24, 0x2c	; 44
    10b2:	9d b5       	in	r25, 0x2d	; 45
    10b4:	82 17       	cp	r24, r18
    10b6:	93 07       	cpc	r25, r19
    10b8:	30 f4       	brcc	.+12     	; 0x10c6
    10ba:	14 bc       	out	0x24, r1	; 36
    10bc:	8c b5       	in	r24, 0x2c	; 44
    10be:	9d b5       	in	r25, 0x2d	; 45
    10c0:	82 17       	cp	r24, r18
    10c2:	93 07       	cpc	r25, r19
    10c4:	d0 f3       	brcs	.-12     	; 0x10ba
    10c6:	80 ec       	ldi	r24, 0xC0	; 192
    10c8:	8d b9       	out	0x0d, r24	; 13
    10ca:	1f b8       	out	0x0f, r1	; 15
    10cc:	c6 9a       	sbi	0x18, 6	; 24
    10ce:	c6 98       	cbi	0x18, 6	; 24
    10d0:	8f b7       	in	r24, 0x3f	; 63
    10d2:	f8 94       	cli
    10d4:	28 2f       	mov	r18, r24
    10d6:	33 27       	eor	r19, r19
    10d8:	82 e2       	ldi	r24, 0x22	; 34
    10da:	80 93 8d 02 	sts	0x028D, r24
    10de:	10 92 7c 03 	sts	0x037C, r1
    10e2:	10 92 7b 03 	sts	0x037B, r1
    10e6:	e0 91 a3 02 	lds	r30, 0x02A3
    10ea:	f0 91 a4 02 	lds	r31, 0x02A4
    10ee:	67 a3       	std	Z+39, r22	; 0x27
    10f0:	70 a7       	std	Z+40, r23	; 0x28
    10f2:	14 a2       	std	Z+36, r1	; 0x24
    10f4:	15 a2       	std	Z+37, r1	; 0x25
    10f6:	2f bf       	out	0x3f, r18	; 63
    10f8:	8f e7       	ldi	r24, 0x7F	; 127
    10fa:	93 e0       	ldi	r25, 0x03	; 3
    10fc:	90 93 a0 02 	sts	0x02A0, r25
    1100:	80 93 9f 02 	sts	0x029F, r24
    1104:	f0 93 a2 02 	sts	0x02A2, r31
    1108:	e0 93 a1 02 	sts	0x02A1, r30
    110c:	10 92 79 01 	sts	0x0179, r1
    1110:	10 92 78 01 	sts	0x0178, r1
    1114:	85 e2       	ldi	r24, 0x25	; 37
    1116:	90 e0       	ldi	r25, 0x00	; 0
    1118:	90 93 75 01 	sts	0x0175, r25
    111c:	80 93 74 01 	sts	0x0174, r24
    1120:	10 92 64 00 	sts	0x0064, r1
    1124:	10 92 ad 03 	sts	0x03AD, r1
    1128:	10 92 ae 03 	sts	0x03AE, r1
    112c:	10 92 af 03 	sts	0x03AF, r1
    1130:	10 92 74 02 	sts	0x0274, r1
    1134:	10 92 75 02 	sts	0x0275, r1
    1138:	10 92 b0 03 	sts	0x03B0, r1
    113c:	10 92 b1 03 	sts	0x03B1, r1
    1140:	10 92 78 02 	sts	0x0278, r1
    1144:	12 a2       	std	Z+34, r1	; 0x22
    1146:	13 a2       	std	Z+35, r1	; 0x23
    1148:	80 91 a6 02 	lds	r24, 0x02A6
    114c:	88 23       	and	r24, r24
    114e:	71 f0       	breq	.+28     	; 0x116c
    1150:	80 91 28 03 	lds	r24, 0x0328
    1154:	e8 2f       	mov	r30, r24
    1156:	ff 27       	eor	r31, r31
    1158:	ee 0f       	add	r30, r30
    115a:	ff 1f       	adc	r31, r31
    115c:	e2 54       	subi	r30, 0x42	; 66
    115e:	fc 4f       	sbci	r31, 0xFC	; 252
    1160:	40 83       	st	Z, r20
    1162:	51 83       	std	Z+1, r21	; 0x01
    1164:	91 e0       	ldi	r25, 0x01	; 1
    1166:	89 27       	eor	r24, r25
    1168:	80 93 28 03 	sts	0x0328, r24
    116c:	bf be       	out	0x3f, r11	; 63
    116e:	22 96       	adiw	r28, 0x02	; 2
    1170:	f8 94       	cli
    1172:	de bf       	out	0x3e, r29	; 62
    1174:	cd bf       	out	0x3d, r28	; 61
    1176:	df 91       	pop	r29
    1178:	cf 91       	pop	r28
    117a:	ff 91       	pop	r31
    117c:	ef 91       	pop	r30
    117e:	bf 91       	pop	r27
    1180:	af 91       	pop	r26
    1182:	9f 91       	pop	r25
    1184:	8f 91       	pop	r24
    1186:	7f 91       	pop	r23
    1188:	6f 91       	pop	r22
    118a:	5f 91       	pop	r21
    118c:	4f 91       	pop	r20
    118e:	3f 91       	pop	r19
    1190:	2f 91       	pop	r18
    1192:	1f 91       	pop	r17
    1194:	0f 91       	pop	r16
    1196:	ff 90       	pop	r15
    1198:	ef 90       	pop	r14
    119a:	df 90       	pop	r13
    119c:	cf 90       	pop	r12
    119e:	bf 90       	pop	r11
    11a0:	0f 90       	pop	r0
    11a2:	0f be       	out	0x3f, r0	; 63
    11a4:	0f 90       	pop	r0
    11a6:	1f 90       	pop	r1
    11a8:	18 95       	reti

000011aa <SecDedEncoding$Code$encode>:
    11aa:	1f 93       	push	r17
    11ac:	cf 93       	push	r28
    11ae:	48 2f       	mov	r20, r24
    11b0:	8f b7       	in	r24, 0x3f	; 63
    11b2:	f8 94       	cli
    11b4:	28 2f       	mov	r18, r24
    11b6:	33 27       	eor	r19, r19
    11b8:	90 91 c0 02 	lds	r25, 0x02C0
    11bc:	99 23       	and	r25, r25
    11be:	29 f4       	brne	.+10     	; 0x11ca
    11c0:	84 e0       	ldi	r24, 0x04	; 4
    11c2:	80 93 c0 02 	sts	0x02C0, r24
    11c6:	40 93 a9 02 	sts	0x02A9, r20
    11ca:	2f bf       	out	0x3f, r18	; 63
    11cc:	99 23       	and	r25, r25
    11ce:	09 f0       	breq	.+2      	; 0x11d2
    11d0:	68 c0       	rjmp	.+208    	; 0x12a2
    11d2:	49 2f       	mov	r20, r25
    11d4:	8f b7       	in	r24, 0x3f	; 63
    11d6:	f8 94       	cli
    11d8:	99 27       	eor	r25, r25
    11da:	50 91 a9 02 	lds	r21, 0x02A9
    11de:	8f bf       	out	0x3f, r24	; 63
    11e0:	25 2f       	mov	r18, r21
    11e2:	33 27       	eor	r19, r19
    11e4:	27 fd       	sbrc	r18, 7
    11e6:	30 95       	com	r19
    11e8:	20 ff       	sbrs	r18, 0
    11ea:	03 c0       	rjmp	.+6      	; 0x11f2
    11ec:	4b e5       	ldi	r20, 0x5B	; 91
    11ee:	11 e0       	ldi	r17, 0x01	; 1
    11f0:	01 c0       	rjmp	.+2      	; 0x11f4
    11f2:	12 e0       	ldi	r17, 0x02	; 2
    11f4:	21 ff       	sbrs	r18, 1
    11f6:	04 c0       	rjmp	.+8      	; 0x1200
    11f8:	88 e5       	ldi	r24, 0x58	; 88
    11fa:	48 27       	eor	r20, r24
    11fc:	14 60       	ori	r17, 0x04	; 4
    11fe:	01 c0       	rjmp	.+2      	; 0x1202
    1200:	18 60       	ori	r17, 0x08	; 8
    1202:	22 ff       	sbrs	r18, 2
    1204:	04 c0       	rjmp	.+8      	; 0x120e
    1206:	82 e5       	ldi	r24, 0x52	; 82
    1208:	48 27       	eor	r20, r24
    120a:	10 61       	ori	r17, 0x10	; 16
    120c:	01 c0       	rjmp	.+2      	; 0x1210
    120e:	10 62       	ori	r17, 0x20	; 32
    1210:	23 ff       	sbrs	r18, 3
    1212:	04 c0       	rjmp	.+8      	; 0x121c
    1214:	81 e5       	ldi	r24, 0x51	; 81
    1216:	48 27       	eor	r20, r24
    1218:	10 64       	ori	r17, 0x40	; 64
    121a:	01 c0       	rjmp	.+2      	; 0x121e
    121c:	10 68       	ori	r17, 0x80	; 128
    121e:	24 ff       	sbrs	r18, 4
    1220:	04 c0       	rjmp	.+8      	; 0x122a
    1222:	8a e4       	ldi	r24, 0x4A	; 74
    1224:	48 27       	eor	r20, r24
    1226:	c1 e0       	ldi	r28, 0x01	; 1
    1228:	01 c0       	rjmp	.+2      	; 0x122c
    122a:	c2 e0       	ldi	r28, 0x02	; 2
    122c:	25 ff       	sbrs	r18, 5
    122e:	04 c0       	rjmp	.+8      	; 0x1238
    1230:	89 e4       	ldi	r24, 0x49	; 73
    1232:	48 27       	eor	r20, r24
    1234:	c4 60       	ori	r28, 0x04	; 4
    1236:	01 c0       	rjmp	.+2      	; 0x123a
    1238:	c8 60       	ori	r28, 0x08	; 8
    123a:	26 ff       	sbrs	r18, 6
    123c:	04 c0       	rjmp	.+8      	; 0x1246
    123e:	83 e1       	ldi	r24, 0x13	; 19
    1240:	48 27       	eor	r20, r24
    1242:	c0 61       	ori	r28, 0x10	; 16
    1244:	01 c0       	rjmp	.+2      	; 0x1248
    1246:	c0 62       	ori	r28, 0x20	; 32
    1248:	57 ff       	sbrs	r21, 7
    124a:	04 c0       	rjmp	.+8      	; 0x1254
    124c:	8b e0       	ldi	r24, 0x0B	; 11
    124e:	48 27       	eor	r20, r24
    1250:	c0 64       	ori	r28, 0x40	; 64
    1252:	01 c0       	rjmp	.+2      	; 0x1256
    1254:	c0 68       	ori	r28, 0x80	; 128
    1256:	46 ff       	sbrs	r20, 6
    1258:	40 68       	ori	r20, 0x80	; 128
    125a:	84 2f       	mov	r24, r20
    125c:	99 27       	eor	r25, r25
    125e:	87 fd       	sbrc	r24, 7
    1260:	90 95       	com	r25
    1262:	80 75       	andi	r24, 0x50	; 80
    1264:	90 70       	andi	r25, 0x00	; 0
    1266:	89 2b       	or	r24, r25
    1268:	09 f4       	brne	.+2      	; 0x126c
    126a:	40 62       	ori	r20, 0x20	; 32
    126c:	84 2f       	mov	r24, r20
    126e:	99 27       	eor	r25, r25
    1270:	87 fd       	sbrc	r24, 7
    1272:	90 95       	com	r25
    1274:	8a 70       	andi	r24, 0x0A	; 10
    1276:	90 70       	andi	r25, 0x00	; 0
    1278:	89 2b       	or	r24, r25
    127a:	09 f4       	brne	.+2      	; 0x127e
    127c:	44 60       	ori	r20, 0x04	; 4
    127e:	8f b7       	in	r24, 0x3f	; 63
    1280:	f8 94       	cli
    1282:	99 27       	eor	r25, r25
    1284:	10 92 c0 02 	sts	0x02C0, r1
    1288:	8f bf       	out	0x3f, r24	; 63
    128a:	84 2f       	mov	r24, r20
    128c:	0e 94 56 09 	call	0x12ac
    1290:	8c 2f       	mov	r24, r28
    1292:	0e 94 56 09 	call	0x12ac
    1296:	81 2f       	mov	r24, r17
    1298:	0e 94 56 09 	call	0x12ac
    129c:	81 e0       	ldi	r24, 0x01	; 1
    129e:	90 e0       	ldi	r25, 0x00	; 0
    12a0:	02 c0       	rjmp	.+4      	; 0x12a6
    12a2:	80 e0       	ldi	r24, 0x00	; 0
    12a4:	90 e0       	ldi	r25, 0x00	; 0
    12a6:	cf 91       	pop	r28
    12a8:	1f 91       	pop	r17
    12aa:	08 95       	ret

000012ac <MicaHighSpeedRadioTinySecM$Code$encodeDone>:
    12ac:	98 2f       	mov	r25, r24
    12ae:	8f b7       	in	r24, 0x3f	; 63
    12b0:	f8 94       	cli
    12b2:	28 2f       	mov	r18, r24
    12b4:	33 27       	eor	r19, r19
    12b6:	80 91 29 03 	lds	r24, 0x0329
    12ba:	e8 2f       	mov	r30, r24
    12bc:	ff 27       	eor	r31, r31
    12be:	e7 fd       	sbrc	r30, 7
    12c0:	f0 95       	com	r31
    12c2:	e6 54       	subi	r30, 0x46	; 70
    12c4:	fc 4f       	sbci	r31, 0xFC	; 252
    12c6:	90 83       	st	Z, r25
    12c8:	8f 5f       	subi	r24, 0xFF	; 255
    12ca:	83 70       	andi	r24, 0x03	; 3
    12cc:	80 93 29 03 	sts	0x0329, r24
    12d0:	80 91 b9 03 	lds	r24, 0x03B9
    12d4:	8f 5f       	subi	r24, 0xFF	; 255
    12d6:	80 93 b9 03 	sts	0x03B9, r24
    12da:	2f bf       	out	0x3f, r18	; 63
    12dc:	81 e0       	ldi	r24, 0x01	; 1
    12de:	90 e0       	ldi	r25, 0x00	; 0
    12e0:	08 95       	ret

000012e2 <MicaHighSpeedRadioTinySecM$timeSyncFunctionHack>:
    12e2:	0f 93       	push	r16
    12e4:	1f 93       	push	r17
    12e6:	cf 93       	push	r28
    12e8:	df 93       	push	r29
    12ea:	cd b7       	in	r28, 0x3d	; 61
    12ec:	de b7       	in	r29, 0x3e	; 62
    12ee:	a8 97       	sbiw	r28, 0x28	; 40
    12f0:	0f b6       	in	r0, 0x3f	; 63
    12f2:	f8 94       	cli
    12f4:	de bf       	out	0x3e, r29	; 62
    12f6:	0f be       	out	0x3f, r0	; 63
    12f8:	cd bf       	out	0x3d, r28	; 61
    12fa:	00 91 92 02 	lds	r16, 0x0292
    12fe:	10 91 93 02 	lds	r17, 0x0293
    1302:	0b 5f       	subi	r16, 0xFB	; 251
    1304:	1f 4f       	sbci	r17, 0xFF	; 255
    1306:	8f b7       	in	r24, 0x3f	; 63
    1308:	f8 94       	cli
    130a:	99 27       	eor	r25, r25
    130c:	48 e0       	ldi	r20, 0x08	; 8
    130e:	2c 2f       	mov	r18, r28
    1310:	3d 2f       	mov	r19, r29
    1312:	2f 5d       	subi	r18, 0xDF	; 223
    1314:	3f 4f       	sbci	r19, 0xFF	; 255
    1316:	61 e8       	ldi	r22, 0x81	; 129
    1318:	74 e0       	ldi	r23, 0x04	; 4
    131a:	b3 2f       	mov	r27, r19
    131c:	a2 2f       	mov	r26, r18
    131e:	f7 2f       	mov	r31, r23
    1320:	e6 2f       	mov	r30, r22
    1322:	01 90       	ld	r0, Z+
    1324:	0d 92       	st	X+, r0
    1326:	4a 95       	dec	r20
    1328:	e1 f7       	brne	.-8      	; 0x1322
    132a:	8f bf       	out	0x3f, r24	; 63
    132c:	28 e0       	ldi	r18, 0x08	; 8
    132e:	8c 2f       	mov	r24, r28
    1330:	9d 2f       	mov	r25, r29
    1332:	49 96       	adiw	r24, 0x19	; 25
    1334:	4c 2f       	mov	r20, r28
    1336:	5d 2f       	mov	r21, r29
    1338:	4f 5d       	subi	r20, 0xDF	; 223
    133a:	5f 4f       	sbci	r21, 0xFF	; 255
    133c:	b9 2f       	mov	r27, r25
    133e:	a8 2f       	mov	r26, r24
    1340:	f5 2f       	mov	r31, r21
    1342:	e4 2f       	mov	r30, r20
    1344:	01 90       	ld	r0, Z+
    1346:	0d 92       	st	X+, r0
    1348:	2a 95       	dec	r18
    134a:	e1 f7       	brne	.-8      	; 0x1344
    134c:	28 e0       	ldi	r18, 0x08	; 8
    134e:	8c 2f       	mov	r24, r28
    1350:	9d 2f       	mov	r25, r29
    1352:	41 96       	adiw	r24, 0x11	; 17
    1354:	4c 2f       	mov	r20, r28
    1356:	5d 2f       	mov	r21, r29
    1358:	47 5e       	subi	r20, 0xE7	; 231
    135a:	5f 4f       	sbci	r21, 0xFF	; 255
    135c:	b9 2f       	mov	r27, r25
    135e:	a8 2f       	mov	r26, r24
    1360:	f5 2f       	mov	r31, r21
    1362:	e4 2f       	mov	r30, r20
    1364:	01 90       	ld	r0, Z+
    1366:	0d 92       	st	X+, r0
    1368:	2a 95       	dec	r18
    136a:	e1 f7       	brne	.-8      	; 0x1364
    136c:	28 e0       	ldi	r18, 0x08	; 8
    136e:	8c 2f       	mov	r24, r28
    1370:	9d 2f       	mov	r25, r29
    1372:	09 96       	adiw	r24, 0x09	; 9
    1374:	4c 2f       	mov	r20, r28
    1376:	5d 2f       	mov	r21, r29
    1378:	4f 5e       	subi	r20, 0xEF	; 239
    137a:	5f 4f       	sbci	r21, 0xFF	; 255
    137c:	b9 2f       	mov	r27, r25
    137e:	a8 2f       	mov	r26, r24
    1380:	f5 2f       	mov	r31, r21
    1382:	e4 2f       	mov	r30, r20
    1384:	01 90       	ld	r0, Z+
    1386:	0d 92       	st	X+, r0
    1388:	2a 95       	dec	r18
    138a:	e1 f7       	brne	.-8      	; 0x1384
    138c:	28 e0       	ldi	r18, 0x08	; 8
    138e:	8c 2f       	mov	r24, r28
    1390:	9d 2f       	mov	r25, r29
    1392:	01 96       	adiw	r24, 0x01	; 1
    1394:	4c 2f       	mov	r20, r28
    1396:	5d 2f       	mov	r21, r29
    1398:	47 5f       	subi	r20, 0xF7	; 247
    139a:	5f 4f       	sbci	r21, 0xFF	; 255
    139c:	b9 2f       	mov	r27, r25
    139e:	a8 2f       	mov	r26, r24
    13a0:	f5 2f       	mov	r31, r21
    13a2:	e4 2f       	mov	r30, r20
    13a4:	01 90       	ld	r0, Z+
    13a6:	0d 92       	st	X+, r0
    13a8:	2a 95       	dec	r18
    13aa:	e1 f7       	brne	.-8      	; 0x13a4
    13ac:	89 81       	ldd	r24, Y+1	; 0x01
    13ae:	9a 81       	ldd	r25, Y+2	; 0x02
    13b0:	ab 81       	ldd	r26, Y+3	; 0x03
    13b2:	bc 81       	ldd	r27, Y+4	; 0x04
    13b4:	f1 2f       	mov	r31, r17
    13b6:	e0 2f       	mov	r30, r16
    13b8:	82 83       	std	Z+2, r24	; 0x02
    13ba:	93 83       	std	Z+3, r25	; 0x03
    13bc:	a4 83       	std	Z+4, r26	; 0x04
    13be:	b5 83       	std	Z+5, r27	; 0x05
    13c0:	8d 81       	ldd	r24, Y+5	; 0x05
    13c2:	9e 81       	ldd	r25, Y+6	; 0x06
    13c4:	af 81       	ldd	r26, Y+7	; 0x07
    13c6:	b8 85       	ldd	r27, Y+8	; 0x08
    13c8:	86 83       	std	Z+6, r24	; 0x06
    13ca:	97 83       	std	Z+7, r25	; 0x07
    13cc:	a0 87       	std	Z+8, r26	; 0x08
    13ce:	b1 87       	std	Z+9, r27	; 0x09
    13d0:	13 86       	std	Z+11, r1	; 0x0b
    13d2:	a8 96       	adiw	r28, 0x28	; 40
    13d4:	0f b6       	in	r0, 0x3f	; 63
    13d6:	f8 94       	cli
    13d8:	de bf       	out	0x3e, r29	; 62
    13da:	0f be       	out	0x3f, r0	; 63
    13dc:	cd bf       	out	0x3d, r28	; 61
    13de:	df 91       	pop	r29
    13e0:	cf 91       	pop	r28
    13e2:	1f 91       	pop	r17
    13e4:	0f 91       	pop	r16
    13e6:	08 95       	ret

000013e8 <SpiByteFifoC$SpiByteFifo$send>:
    13e8:	0f 93       	push	r16
    13ea:	1f 93       	push	r17
    13ec:	cf 93       	push	r28
    13ee:	18 2f       	mov	r17, r24
    13f0:	c0 e0       	ldi	r28, 0x00	; 0
    13f2:	8f b7       	in	r24, 0x3f	; 63
    13f4:	f8 94       	cli
    13f6:	08 2f       	mov	r16, r24
    13f8:	80 91 d9 01 	lds	r24, 0x01D9
    13fc:	82 30       	cpi	r24, 0x02	; 2
    13fe:	31 f4       	brne	.+12     	; 0x140c
    1400:	10 93 8b 04 	sts	0x048B, r17
    1404:	81 e0       	ldi	r24, 0x01	; 1
    1406:	80 93 d9 01 	sts	0x01D9, r24
    140a:	26 c0       	rjmp	.+76     	; 0x1458
    140c:	88 23       	and	r24, r24
    140e:	29 f5       	brne	.+74     	; 0x145a
    1410:	82 e0       	ldi	r24, 0x02	; 2
    1412:	80 93 d9 01 	sts	0x01D9, r24
    1416:	8c 2f       	mov	r24, r28
    1418:	0e 94 34 0a 	call	0x1468
    141c:	8f b7       	in	r24, 0x3f	; 63
    141e:	f8 94       	cli
    1420:	28 2f       	mov	r18, r24
    1422:	33 27       	eor	r19, r19
    1424:	80 91 ee 02 	lds	r24, 0x02EE
    1428:	81 50       	subi	r24, 0x01	; 1
    142a:	80 93 ee 02 	sts	0x02EE, r24
    142e:	15 9a       	sbi	0x02, 5	; 2
    1430:	1d 98       	cbi	0x03, 5	; 3
    1432:	2f bf       	out	0x3f, r18	; 63
    1434:	c7 98       	cbi	0x18, 7	; 24
    1436:	bf 9a       	sbi	0x17, 7	; 23
    1438:	80 ec       	ldi	r24, 0xC0	; 192
    143a:	8d b9       	out	0x0d, r24	; 13
    143c:	1f b9       	out	0x0f, r17	; 15
    143e:	97 98       	cbi	0x12, 7	; 18
    1440:	96 9a       	sbi	0x12, 6	; 18
    1442:	87 b7       	in	r24, 0x37	; 55
    1444:	8f 7b       	andi	r24, 0xBF	; 191
    1446:	87 bf       	out	0x37, r24	; 55
    1448:	87 b7       	in	r24, 0x37	; 55
    144a:	8f 77       	andi	r24, 0x7F	; 127
    144c:	87 bf       	out	0x37, r24	; 55
    144e:	c4 bd       	out	0x24, r28	; 36
    1450:	82 e3       	ldi	r24, 0x32	; 50
    1452:	83 bd       	out	0x23, r24	; 35
    1454:	89 e1       	ldi	r24, 0x19	; 25
    1456:	85 bd       	out	0x25, r24	; 37
    1458:	c1 e0       	ldi	r28, 0x01	; 1
    145a:	0f bf       	out	0x3f, r16	; 63
    145c:	8c 2f       	mov	r24, r28
    145e:	99 27       	eor	r25, r25
    1460:	cf 91       	pop	r28
    1462:	1f 91       	pop	r17
    1464:	0f 91       	pop	r16
    1466:	08 95       	ret

00001468 <MicaHighSpeedRadioTinySecM$SpiByteFifo$dataReady>:
    1468:	ff 92       	push	r15
    146a:	0f 93       	push	r16
    146c:	1f 93       	push	r17
    146e:	cf 93       	push	r28
    1470:	18 2f       	mov	r17, r24
    1472:	8f b7       	in	r24, 0x3f	; 63
    1474:	f8 94       	cli
    1476:	f8 2e       	mov	r15, r24
    1478:	e0 91 b6 03 	lds	r30, 0x03B6
    147c:	e9 30       	cpi	r30, 0x09	; 9
    147e:	19 f5       	brne	.+70     	; 0x14c6
    1480:	80 91 eb 02 	lds	r24, 0x02EB
    1484:	e8 2f       	mov	r30, r24
    1486:	ff 27       	eor	r31, r31
    1488:	e7 fd       	sbrc	r30, 7
    148a:	f0 95       	com	r31
    148c:	eb 59       	subi	r30, 0x9B	; 155
    148e:	fe 4f       	sbci	r31, 0xFE	; 254
    1490:	80 81       	ld	r24, Z
    1492:	0e 94 f4 09 	call	0x13e8
    1496:	80 91 eb 02 	lds	r24, 0x02EB
    149a:	8f 5f       	subi	r24, 0xFF	; 255
    149c:	80 93 eb 02 	sts	0x02EB, r24
    14a0:	8c 30       	cpi	r24, 0x0C	; 12
    14a2:	09 f0       	breq	.+2      	; 0x14a6
    14a4:	b3 c2       	rjmp	.+1382   	; 0x1a0c
    14a6:	e0 91 92 02 	lds	r30, 0x0292
    14aa:	f0 91 93 02 	lds	r31, 0x0293
    14ae:	83 81       	ldd	r24, Z+3	; 0x03
    14b0:	87 ff       	sbrs	r24, 7
    14b2:	04 c0       	rjmp	.+8      	; 0x14bc
    14b4:	0e 94 0e 0d 	call	0x1a1c
    14b8:	86 e0       	ldi	r24, 0x06	; 6
    14ba:	01 c0       	rjmp	.+2      	; 0x14be
    14bc:	85 e0       	ldi	r24, 0x05	; 5
    14be:	80 93 b6 03 	sts	0x03B6, r24
    14c2:	81 e0       	ldi	r24, 0x01	; 1
    14c4:	9a c0       	rjmp	.+308    	; 0x15fa
    14c6:	e5 30       	cpi	r30, 0x05	; 5
    14c8:	09 f0       	breq	.+2      	; 0x14cc
    14ca:	68 c0       	rjmp	.+208    	; 0x159c
    14cc:	80 91 7e 03 	lds	r24, 0x037E
    14d0:	e8 2f       	mov	r30, r24
    14d2:	ff 27       	eor	r31, r31
    14d4:	e7 fd       	sbrc	r30, 7
    14d6:	f0 95       	com	r31
    14d8:	e6 54       	subi	r30, 0x46	; 70
    14da:	fc 4f       	sbci	r31, 0xFC	; 252
    14dc:	80 81       	ld	r24, Z
    14de:	0e 94 f4 09 	call	0x13e8
    14e2:	90 91 7e 03 	lds	r25, 0x037E
    14e6:	9f 5f       	subi	r25, 0xFF	; 255
    14e8:	93 70       	andi	r25, 0x03	; 3
    14ea:	90 93 7e 03 	sts	0x037E, r25
    14ee:	80 91 b9 03 	lds	r24, 0x03B9
    14f2:	81 50       	subi	r24, 0x01	; 1
    14f4:	80 93 b9 03 	sts	0x03B9, r24
    14f8:	82 30       	cpi	r24, 0x02	; 2
    14fa:	0c f0       	brlt	.+2      	; 0x14fe
    14fc:	87 c2       	rjmp	.+1294   	; 0x1a0c
    14fe:	80 91 eb 02 	lds	r24, 0x02EB
    1502:	84 32       	cpi	r24, 0x24	; 36
    1504:	0c f0       	brlt	.+2      	; 0x1508
    1506:	3c c0       	rjmp	.+120    	; 0x1580
    1508:	99 27       	eor	r25, r25
    150a:	87 fd       	sbrc	r24, 7
    150c:	90 95       	com	r25
    150e:	e0 91 92 02 	lds	r30, 0x0292
    1512:	f0 91 93 02 	lds	r31, 0x0293
    1516:	e8 0f       	add	r30, r24
    1518:	f9 1f       	adc	r31, r25
    151a:	10 81       	ld	r17, Z
    151c:	81 2f       	mov	r24, r17
    151e:	0e 94 d5 08 	call	0x11aa
    1522:	30 91 eb 02 	lds	r19, 0x02EB
    1526:	3f 5f       	subi	r19, 0xFF	; 255
    1528:	30 93 eb 02 	sts	0x02EB, r19
    152c:	40 91 8d 02 	lds	r20, 0x028D
    1530:	43 17       	cp	r20, r19
    1532:	ac f0       	brlt	.+42     	; 0x155e
    1534:	80 91 7b 03 	lds	r24, 0x037B
    1538:	90 91 7c 03 	lds	r25, 0x037C
    153c:	e0 e6       	ldi	r30, 0x60	; 96
    153e:	f0 e0       	ldi	r31, 0x00	; 0
    1540:	19 27       	eor	r17, r25
    1542:	11 0f       	add	r17, r17
    1544:	f1 1d       	adc	r31, r1
    1546:	e1 0f       	add	r30, r17
    1548:	f1 1d       	adc	r31, r1
    154a:	c8 95       	lpm
    154c:	98 2f       	mov	r25, r24
    154e:	80 2d       	mov	r24, r0
    1550:	31 96       	adiw	r30, 0x01	; 1
    1552:	c8 95       	lpm
    1554:	90 25       	eor	r25, r0
    1556:	90 93 7c 03 	sts	0x037C, r25
    155a:	80 93 7b 03 	sts	0x037B, r24
    155e:	34 17       	cp	r19, r20
    1560:	09 f0       	breq	.+2      	; 0x1564
    1562:	54 c2       	rjmp	.+1192   	; 0x1a0c
    1564:	82 e2       	ldi	r24, 0x22	; 34
    1566:	80 93 eb 02 	sts	0x02EB, r24
    156a:	e0 91 92 02 	lds	r30, 0x0292
    156e:	f0 91 93 02 	lds	r31, 0x0293
    1572:	80 91 7b 03 	lds	r24, 0x037B
    1576:	90 91 7c 03 	lds	r25, 0x037C
    157a:	82 a3       	std	Z+34, r24	; 0x22
    157c:	93 a3       	std	Z+35, r25	; 0x23
    157e:	46 c2       	rjmp	.+1164   	; 0x1a0c
    1580:	80 91 29 03 	lds	r24, 0x0329
    1584:	98 17       	cp	r25, r24
    1586:	09 f0       	breq	.+2      	; 0x158a
    1588:	41 c2       	rjmp	.+1154   	; 0x1a0c
    158a:	88 e0       	ldi	r24, 0x08	; 8
    158c:	80 93 b6 03 	sts	0x03B6, r24
    1590:	10 92 eb 02 	sts	0x02EB, r1
    1594:	81 e0       	ldi	r24, 0x01	; 1
    1596:	80 93 96 02 	sts	0x0296, r24
    159a:	38 c2       	rjmp	.+1136   	; 0x1a0c
    159c:	e6 30       	cpi	r30, 0x06	; 6
    159e:	d9 f5       	brne	.+118    	; 0x1616
    15a0:	80 91 7e 03 	lds	r24, 0x037E
    15a4:	e8 2f       	mov	r30, r24
    15a6:	ff 27       	eor	r31, r31
    15a8:	e7 fd       	sbrc	r30, 7
    15aa:	f0 95       	com	r31
    15ac:	e6 54       	subi	r30, 0x46	; 70
    15ae:	fc 4f       	sbci	r31, 0xFC	; 252
    15b0:	80 81       	ld	r24, Z
    15b2:	0e 94 f4 09 	call	0x13e8
    15b6:	90 91 7e 03 	lds	r25, 0x037E
    15ba:	9f 5f       	subi	r25, 0xFF	; 255
    15bc:	93 70       	andi	r25, 0x03	; 3
    15be:	90 93 7e 03 	sts	0x037E, r25
    15c2:	80 91 b9 03 	lds	r24, 0x03B9
    15c6:	81 50       	subi	r24, 0x01	; 1
    15c8:	80 93 b9 03 	sts	0x03B9, r24
    15cc:	82 30       	cpi	r24, 0x02	; 2
    15ce:	0c f0       	brlt	.+2      	; 0x15d2
    15d0:	1d c2       	rjmp	.+1082   	; 0x1a0c
    15d2:	80 91 eb 02 	lds	r24, 0x02EB
    15d6:	89 32       	cpi	r24, 0x29	; 41
    15d8:	9c f4       	brge	.+38     	; 0x1600
    15da:	0e 94 0e 0d 	call	0x1a1c
    15de:	99 27       	eor	r25, r25
    15e0:	0e 94 d5 08 	call	0x11aa
    15e4:	80 91 eb 02 	lds	r24, 0x02EB
    15e8:	8f 5f       	subi	r24, 0xFF	; 255
    15ea:	80 93 eb 02 	sts	0x02EB, r24
    15ee:	80 91 96 02 	lds	r24, 0x0296
    15f2:	88 23       	and	r24, r24
    15f4:	09 f4       	brne	.+2      	; 0x15f8
    15f6:	0a c2       	rjmp	.+1044   	; 0x1a0c
    15f8:	89 e2       	ldi	r24, 0x29	; 41
    15fa:	80 93 eb 02 	sts	0x02EB, r24
    15fe:	06 c2       	rjmp	.+1036   	; 0x1a0c
    1600:	80 91 29 03 	lds	r24, 0x0329
    1604:	98 17       	cp	r25, r24
    1606:	09 f0       	breq	.+2      	; 0x160a
    1608:	01 c2       	rjmp	.+1026   	; 0x1a0c
    160a:	88 e0       	ldi	r24, 0x08	; 8
    160c:	80 93 b6 03 	sts	0x03B6, r24
    1610:	10 92 eb 02 	sts	0x02EB, r1
    1614:	fb c1       	rjmp	.+1014   	; 0x1a0c
    1616:	e8 30       	cpi	r30, 0x08	; 8
    1618:	e9 f4       	brne	.+58     	; 0x1654
    161a:	80 91 eb 02 	lds	r24, 0x02EB
    161e:	8f 5f       	subi	r24, 0xFF	; 255
    1620:	80 93 eb 02 	sts	0x02EB, r24
    1624:	83 30       	cpi	r24, 0x03	; 3
    1626:	91 f4       	brne	.+36     	; 0x164c
    1628:	87 e0       	ldi	r24, 0x07	; 7
    162a:	80 93 b6 03 	sts	0x03B6, r24
    162e:	8f b7       	in	r24, 0x3f	; 63
    1630:	f8 94       	cli
    1632:	28 2f       	mov	r18, r24
    1634:	33 27       	eor	r19, r19
    1636:	94 b5       	in	r25, 0x24	; 36
    1638:	95 31       	cpi	r25, 0x15	; 21
    163a:	08 f0       	brcs	.+2      	; 0x163e
    163c:	94 51       	subi	r25, 0x14	; 20
    163e:	94 bd       	out	0x24, r25	; 36
    1640:	2f bf       	out	0x3f, r18	; 63
    1642:	81 e0       	ldi	r24, 0x01	; 1
    1644:	80 93 eb 02 	sts	0x02EB, r24
    1648:	80 e0       	ldi	r24, 0x00	; 0
    164a:	01 c0       	rjmp	.+2      	; 0x164e
    164c:	8f ef       	ldi	r24, 0xFF	; 255
    164e:	0e 94 f4 09 	call	0x13e8
    1652:	dc c1       	rjmp	.+952    	; 0x1a0c
    1654:	e7 30       	cpi	r30, 0x07	; 7
    1656:	39 f5       	brne	.+78     	; 0x16a6
    1658:	1f 77       	andi	r17, 0x7F	; 127
    165a:	80 e0       	ldi	r24, 0x00	; 0
    165c:	0e 94 f4 09 	call	0x13e8
    1660:	20 91 eb 02 	lds	r18, 0x02EB
    1664:	21 30       	cpi	r18, 0x01	; 1
    1666:	41 f4       	brne	.+16     	; 0x1678
    1668:	8f b7       	in	r24, 0x3f	; 63
    166a:	f8 94       	cli
    166c:	99 27       	eor	r25, r25
    166e:	c3 98       	cbi	0x18, 3	; 24
    1670:	bb 98       	cbi	0x17, 3	; 23
    1672:	97 9a       	sbi	0x12, 7	; 18
    1674:	96 9a       	sbi	0x12, 6	; 18
    1676:	8f bf       	out	0x3f, r24	; 63
    1678:	82 2f       	mov	r24, r18
    167a:	8f 5f       	subi	r24, 0xFF	; 255
    167c:	80 93 eb 02 	sts	0x02EB, r24
    1680:	86 30       	cpi	r24, 0x06	; 6
    1682:	09 f0       	breq	.+2      	; 0x1686
    1684:	c3 c1       	rjmp	.+902    	; 0x1a0c
    1686:	e0 91 92 02 	lds	r30, 0x0292
    168a:	f0 91 93 02 	lds	r31, 0x0293
    168e:	80 e0       	ldi	r24, 0x00	; 0
    1690:	15 35       	cpi	r17, 0x55	; 85
    1692:	09 f4       	brne	.+2      	; 0x1696
    1694:	81 e0       	ldi	r24, 0x01	; 1
    1696:	86 a3       	std	Z+38, r24	; 0x26
    1698:	10 92 b6 03 	sts	0x03B6, r1
    169c:	0e 94 54 0d 	call	0x1aa8
    16a0:	8d eb       	ldi	r24, 0xBD	; 189
    16a2:	9c e1       	ldi	r25, 0x1C	; 28
    16a4:	aa c1       	rjmp	.+852    	; 0x19fa
    16a6:	8e 2f       	mov	r24, r30
    16a8:	82 50       	subi	r24, 0x02	; 2
    16aa:	83 30       	cpi	r24, 0x03	; 3
    16ac:	08 f0       	brcs	.+2      	; 0x16b0
    16ae:	91 c1       	rjmp	.+802    	; 0x19d2
    16b0:	8f b7       	in	r24, 0x3f	; 63
    16b2:	f8 94       	cli
    16b4:	08 2f       	mov	r16, r24
    16b6:	50 91 c0 02 	lds	r21, 0x02C0
    16ba:	55 23       	and	r21, r21
    16bc:	31 f4       	brne	.+12     	; 0x16ca
    16be:	83 e0       	ldi	r24, 0x03	; 3
    16c0:	80 93 c0 02 	sts	0x02C0, r24
    16c4:	10 93 a9 02 	sts	0x02A9, r17
    16c8:	82 c1       	rjmp	.+772    	; 0x19ce
    16ca:	53 30       	cpi	r21, 0x03	; 3
    16cc:	31 f4       	brne	.+12     	; 0x16da
    16ce:	82 e0       	ldi	r24, 0x02	; 2
    16d0:	80 93 c0 02 	sts	0x02C0, r24
    16d4:	10 93 7f 04 	sts	0x047F, r17
    16d8:	7a c1       	rjmp	.+756    	; 0x19ce
    16da:	52 30       	cpi	r21, 0x02	; 2
    16dc:	09 f0       	breq	.+2      	; 0x16e0
    16de:	77 c1       	rjmp	.+750    	; 0x19ce
    16e0:	f1 e0       	ldi	r31, 0x01	; 1
    16e2:	f0 93 c0 02 	sts	0x02C0, r31
    16e6:	10 93 7e 04 	sts	0x047E, r17
    16ea:	60 e0       	ldi	r22, 0x00	; 0
    16ec:	70 e0       	ldi	r23, 0x00	; 0
    16ee:	8f b7       	in	r24, 0x3f	; 63
    16f0:	f8 94       	cli
    16f2:	99 27       	eor	r25, r25
    16f4:	40 91 a9 02 	lds	r20, 0x02A9
    16f8:	20 91 7f 04 	lds	r18, 0x047F
    16fc:	8f bf       	out	0x3f, r24	; 63
    16fe:	81 2f       	mov	r24, r17
    1700:	99 27       	eor	r25, r25
    1702:	87 fd       	sbrc	r24, 7
    1704:	90 95       	com	r25
    1706:	80 fd       	sbrc	r24, 0
    1708:	61 e0       	ldi	r22, 0x01	; 1
    170a:	82 fd       	sbrc	r24, 2
    170c:	62 60       	ori	r22, 0x02	; 2
    170e:	84 fd       	sbrc	r24, 4
    1710:	64 60       	ori	r22, 0x04	; 4
    1712:	86 fd       	sbrc	r24, 6
    1714:	68 60       	ori	r22, 0x08	; 8
    1716:	82 2f       	mov	r24, r18
    1718:	99 27       	eor	r25, r25
    171a:	87 fd       	sbrc	r24, 7
    171c:	90 95       	com	r25
    171e:	80 fd       	sbrc	r24, 0
    1720:	60 61       	ori	r22, 0x10	; 16
    1722:	82 fd       	sbrc	r24, 2
    1724:	60 62       	ori	r22, 0x20	; 32
    1726:	84 fd       	sbrc	r24, 4
    1728:	60 64       	ori	r22, 0x40	; 64
    172a:	86 fd       	sbrc	r24, 6
    172c:	60 68       	ori	r22, 0x80	; 128
    172e:	24 2f       	mov	r18, r20
    1730:	33 27       	eor	r19, r19
    1732:	27 fd       	sbrc	r18, 7
    1734:	30 95       	com	r19
    1736:	93 2f       	mov	r25, r19
    1738:	82 2f       	mov	r24, r18
    173a:	88 71       	andi	r24, 0x18	; 24
    173c:	90 70       	andi	r25, 0x00	; 0
    173e:	95 95       	asr	r25
    1740:	87 95       	ror	r24
    1742:	43 70       	andi	r20, 0x03	; 3
    1744:	48 2b       	or	r20, r24
    1746:	20 74       	andi	r18, 0x40	; 64
    1748:	30 70       	andi	r19, 0x00	; 0
    174a:	35 95       	asr	r19
    174c:	27 95       	ror	r18
    174e:	35 95       	asr	r19
    1750:	27 95       	ror	r18
    1752:	42 2b       	or	r20, r18
    1754:	b5 e0       	ldi	r27, 0x05	; 5
    1756:	66 0f       	add	r22, r22
    1758:	77 1f       	adc	r23, r23
    175a:	ba 95       	dec	r27
    175c:	e1 f7       	brne	.-8      	; 0x1756
    175e:	84 2f       	mov	r24, r20
    1760:	99 27       	eor	r25, r25
    1762:	87 fd       	sbrc	r24, 7
    1764:	90 95       	com	r25
    1766:	68 2b       	or	r22, r24
    1768:	79 2b       	or	r23, r25
    176a:	40 e0       	ldi	r20, 0x00	; 0
    176c:	60 fd       	sbrc	r22, 0
    176e:	4f 2f       	mov	r20, r31
    1770:	61 fd       	sbrc	r22, 1
    1772:	45 27       	eor	r20, r21
    1774:	62 ff       	sbrs	r22, 2
    1776:	02 c0       	rjmp	.+4      	; 0x177c
    1778:	84 e0       	ldi	r24, 0x04	; 4
    177a:	48 27       	eor	r20, r24
    177c:	63 ff       	sbrs	r22, 3
    177e:	02 c0       	rjmp	.+4      	; 0x1784
    1780:	88 e0       	ldi	r24, 0x08	; 8
    1782:	48 27       	eor	r20, r24
    1784:	64 ff       	sbrs	r22, 4
    1786:	02 c0       	rjmp	.+4      	; 0x178c
    1788:	80 e1       	ldi	r24, 0x10	; 16
    178a:	48 27       	eor	r20, r24
    178c:	65 ff       	sbrs	r22, 5
    178e:	02 c0       	rjmp	.+4      	; 0x1794
    1790:	8f e1       	ldi	r24, 0x1F	; 31
    1792:	48 27       	eor	r20, r24
    1794:	66 ff       	sbrs	r22, 6
    1796:	02 c0       	rjmp	.+4      	; 0x179c
    1798:	8c e1       	ldi	r24, 0x1C	; 28
    179a:	48 27       	eor	r20, r24
    179c:	86 2f       	mov	r24, r22
    179e:	80 78       	andi	r24, 0x80	; 128
    17a0:	11 f0       	breq	.+4      	; 0x17a6
    17a2:	8a e1       	ldi	r24, 0x1A	; 26
    17a4:	48 27       	eor	r20, r24
    17a6:	70 ff       	sbrs	r23, 0
    17a8:	02 c0       	rjmp	.+4      	; 0x17ae
    17aa:	89 e1       	ldi	r24, 0x19	; 25
    17ac:	48 27       	eor	r20, r24
    17ae:	71 ff       	sbrs	r23, 1
    17b0:	02 c0       	rjmp	.+4      	; 0x17b6
    17b2:	86 e1       	ldi	r24, 0x16	; 22
    17b4:	48 27       	eor	r20, r24
    17b6:	72 ff       	sbrs	r23, 2
    17b8:	02 c0       	rjmp	.+4      	; 0x17be
    17ba:	85 e1       	ldi	r24, 0x15	; 21
    17bc:	48 27       	eor	r20, r24
    17be:	73 ff       	sbrs	r23, 3
    17c0:	02 c0       	rjmp	.+4      	; 0x17c6
    17c2:	8b e0       	ldi	r24, 0x0B	; 11
    17c4:	48 27       	eor	r20, r24
    17c6:	74 ff       	sbrs	r23, 4
    17c8:	02 c0       	rjmp	.+4      	; 0x17ce
    17ca:	87 e0       	ldi	r24, 0x07	; 7
    17cc:	48 27       	eor	r20, r24
    17ce:	44 23       	and	r20, r20
    17d0:	09 f4       	brne	.+2      	; 0x17d4
    17d2:	42 c0       	rjmp	.+132    	; 0x1858
    17d4:	41 30       	cpi	r20, 0x01	; 1
    17d6:	19 f4       	brne	.+6      	; 0x17de
    17d8:	81 e0       	ldi	r24, 0x01	; 1
    17da:	90 e0       	ldi	r25, 0x00	; 0
    17dc:	3b c0       	rjmp	.+118    	; 0x1854
    17de:	42 30       	cpi	r20, 0x02	; 2
    17e0:	19 f4       	brne	.+6      	; 0x17e8
    17e2:	82 e0       	ldi	r24, 0x02	; 2
    17e4:	90 e0       	ldi	r25, 0x00	; 0
    17e6:	36 c0       	rjmp	.+108    	; 0x1854
    17e8:	44 30       	cpi	r20, 0x04	; 4
    17ea:	19 f4       	brne	.+6      	; 0x17f2
    17ec:	84 e0       	ldi	r24, 0x04	; 4
    17ee:	90 e0       	ldi	r25, 0x00	; 0
    17f0:	31 c0       	rjmp	.+98     	; 0x1854
    17f2:	48 30       	cpi	r20, 0x08	; 8
    17f4:	19 f4       	brne	.+6      	; 0x17fc
    17f6:	88 e0       	ldi	r24, 0x08	; 8
    17f8:	90 e0       	ldi	r25, 0x00	; 0
    17fa:	2c c0       	rjmp	.+88     	; 0x1854
    17fc:	40 31       	cpi	r20, 0x10	; 16
    17fe:	19 f4       	brne	.+6      	; 0x1806
    1800:	80 e1       	ldi	r24, 0x10	; 16
    1802:	90 e0       	ldi	r25, 0x00	; 0
    1804:	27 c0       	rjmp	.+78     	; 0x1854
    1806:	4f 31       	cpi	r20, 0x1F	; 31
    1808:	19 f4       	brne	.+6      	; 0x1810
    180a:	80 e2       	ldi	r24, 0x20	; 32
    180c:	90 e0       	ldi	r25, 0x00	; 0
    180e:	22 c0       	rjmp	.+68     	; 0x1854
    1810:	4c 31       	cpi	r20, 0x1C	; 28
    1812:	19 f4       	brne	.+6      	; 0x181a
    1814:	80 e4       	ldi	r24, 0x40	; 64
    1816:	90 e0       	ldi	r25, 0x00	; 0
    1818:	1d c0       	rjmp	.+58     	; 0x1854
    181a:	4a 31       	cpi	r20, 0x1A	; 26
    181c:	19 f4       	brne	.+6      	; 0x1824
    181e:	80 e8       	ldi	r24, 0x80	; 128
    1820:	90 e0       	ldi	r25, 0x00	; 0
    1822:	18 c0       	rjmp	.+48     	; 0x1854
    1824:	49 31       	cpi	r20, 0x19	; 25
    1826:	19 f4       	brne	.+6      	; 0x182e
    1828:	80 e0       	ldi	r24, 0x00	; 0
    182a:	91 e0       	ldi	r25, 0x01	; 1
    182c:	13 c0       	rjmp	.+38     	; 0x1854
    182e:	46 31       	cpi	r20, 0x16	; 22
    1830:	19 f4       	brne	.+6      	; 0x1838
    1832:	80 e0       	ldi	r24, 0x00	; 0
    1834:	92 e0       	ldi	r25, 0x02	; 2
    1836:	0e c0       	rjmp	.+28     	; 0x1854
    1838:	45 31       	cpi	r20, 0x15	; 21
    183a:	19 f4       	brne	.+6      	; 0x1842
    183c:	80 e0       	ldi	r24, 0x00	; 0
    183e:	94 e0       	ldi	r25, 0x04	; 4
    1840:	09 c0       	rjmp	.+18     	; 0x1854
    1842:	4b 30       	cpi	r20, 0x0B	; 11
    1844:	19 f4       	brne	.+6      	; 0x184c
    1846:	80 e0       	ldi	r24, 0x00	; 0
    1848:	98 e0       	ldi	r25, 0x08	; 8
    184a:	04 c0       	rjmp	.+8      	; 0x1854
    184c:	47 30       	cpi	r20, 0x07	; 7
    184e:	21 f4       	brne	.+8      	; 0x1858
    1850:	80 e0       	ldi	r24, 0x00	; 0
    1852:	90 e1       	ldi	r25, 0x10	; 16
    1854:	68 27       	eor	r22, r24
    1856:	79 27       	eor	r23, r25
    1858:	8f b7       	in	r24, 0x3f	; 63
    185a:	f8 94       	cli
    185c:	99 27       	eor	r25, r25
    185e:	10 92 c0 02 	sts	0x02C0, r1
    1862:	8f bf       	out	0x3f, r24	; 63
    1864:	46 2f       	mov	r20, r22
    1866:	57 2f       	mov	r21, r23
    1868:	a5 e0       	ldi	r26, 0x05	; 5
    186a:	55 95       	asr	r21
    186c:	47 95       	ror	r20
    186e:	aa 95       	dec	r26
    1870:	e1 f7       	brne	.-8      	; 0x186a
    1872:	24 2f       	mov	r18, r20
    1874:	8f b7       	in	r24, 0x3f	; 63
    1876:	f8 94       	cli
    1878:	c8 2f       	mov	r28, r24
    187a:	ee 23       	and	r30, r30
    187c:	09 f4       	brne	.+2      	; 0x1880
    187e:	a6 c0       	rjmp	.+332    	; 0x19cc
    1880:	e2 30       	cpi	r30, 0x02	; 2
    1882:	51 f5       	brne	.+84     	; 0x18d8
    1884:	80 91 cd 02 	lds	r24, 0x02CD
    1888:	99 27       	eor	r25, r25
    188a:	87 fd       	sbrc	r24, 7
    188c:	90 95       	com	r25
    188e:	e0 91 a3 02 	lds	r30, 0x02A3
    1892:	f0 91 a4 02 	lds	r31, 0x02A4
    1896:	e8 0f       	add	r30, r24
    1898:	f9 1f       	adc	r31, r25
    189a:	40 83       	st	Z, r20
    189c:	80 91 cd 02 	lds	r24, 0x02CD
    18a0:	8f 5f       	subi	r24, 0xFF	; 255
    18a2:	80 93 cd 02 	sts	0x02CD, r24
    18a6:	80 91 7b 03 	lds	r24, 0x037B
    18aa:	90 91 7c 03 	lds	r25, 0x037C
    18ae:	e0 e6       	ldi	r30, 0x60	; 96
    18b0:	f0 e0       	ldi	r31, 0x00	; 0
    18b2:	29 27       	eor	r18, r25
    18b4:	22 0f       	add	r18, r18
    18b6:	f1 1d       	adc	r31, r1
    18b8:	e2 0f       	add	r30, r18
    18ba:	f1 1d       	adc	r31, r1
    18bc:	c8 95       	lpm
    18be:	98 2f       	mov	r25, r24
    18c0:	80 2d       	mov	r24, r0
    18c2:	31 96       	adiw	r30, 0x01	; 1
    18c4:	c8 95       	lpm
    18c6:	90 25       	eor	r25, r0
    18c8:	90 93 7c 03 	sts	0x037C, r25
    18cc:	80 93 7b 03 	sts	0x037B, r24
    18d0:	84 2f       	mov	r24, r20
    18d2:	0e 94 ba 0d 	call	0x1b74
    18d6:	7a c0       	rjmp	.+244    	; 0x19cc
    18d8:	e4 30       	cpi	r30, 0x04	; 4
    18da:	09 f0       	breq	.+2      	; 0x18de
    18dc:	48 c0       	rjmp	.+144    	; 0x196e
    18de:	80 91 cd 02 	lds	r24, 0x02CD
    18e2:	99 27       	eor	r25, r25
    18e4:	87 fd       	sbrc	r24, 7
    18e6:	90 95       	com	r25
    18e8:	e0 91 a3 02 	lds	r30, 0x02A3
    18ec:	f0 91 a4 02 	lds	r31, 0x02A4
    18f0:	e8 0f       	add	r30, r24
    18f2:	f9 1f       	adc	r31, r25
    18f4:	40 83       	st	Z, r20
    18f6:	30 91 cd 02 	lds	r19, 0x02CD
    18fa:	3f 5f       	subi	r19, 0xFF	; 255
    18fc:	30 93 cd 02 	sts	0x02CD, r19
    1900:	34 32       	cpi	r19, 0x24	; 36
    1902:	ac f0       	brlt	.+42     	; 0x192e
    1904:	e0 91 a3 02 	lds	r30, 0x02A3
    1908:	f0 91 a4 02 	lds	r31, 0x02A4
    190c:	20 91 7b 03 	lds	r18, 0x037B
    1910:	30 91 7c 03 	lds	r19, 0x037C
    1914:	82 a1       	ldd	r24, Z+34	; 0x22
    1916:	93 a1       	ldd	r25, Z+35	; 0x23
    1918:	28 17       	cp	r18, r24
    191a:	39 07       	cpc	r19, r25
    191c:	29 f4       	brne	.+10     	; 0x1928
    191e:	81 e0       	ldi	r24, 0x01	; 1
    1920:	90 e0       	ldi	r25, 0x00	; 0
    1922:	82 a3       	std	Z+34, r24	; 0x22
    1924:	93 a3       	std	Z+35, r25	; 0x23
    1926:	40 c0       	rjmp	.+128    	; 0x19a8
    1928:	12 a2       	std	Z+34, r1	; 0x22
    192a:	13 a2       	std	Z+35, r1	; 0x23
    192c:	4c c0       	rjmp	.+152    	; 0x19c6
    192e:	33 32       	cpi	r19, 0x23	; 35
    1930:	0c f0       	brlt	.+2      	; 0x1934
    1932:	4c c0       	rjmp	.+152    	; 0x19cc
    1934:	80 91 7b 03 	lds	r24, 0x037B
    1938:	90 91 7c 03 	lds	r25, 0x037C
    193c:	e0 e6       	ldi	r30, 0x60	; 96
    193e:	f0 e0       	ldi	r31, 0x00	; 0
    1940:	29 27       	eor	r18, r25
    1942:	22 0f       	add	r18, r18
    1944:	f1 1d       	adc	r31, r1
    1946:	e2 0f       	add	r30, r18
    1948:	f1 1d       	adc	r31, r1
    194a:	c8 95       	lpm
    194c:	98 2f       	mov	r25, r24
    194e:	80 2d       	mov	r24, r0
    1950:	31 96       	adiw	r30, 0x01	; 1
    1952:	c8 95       	lpm
    1954:	90 25       	eor	r25, r0
    1956:	90 93 7c 03 	sts	0x037C, r25
    195a:	80 93 7b 03 	sts	0x037B, r24
    195e:	80 91 8d 02 	lds	r24, 0x028D
    1962:	38 17       	cp	r19, r24
    1964:	99 f5       	brne	.+102    	; 0x19cc
    1966:	82 e2       	ldi	r24, 0x22	; 34
    1968:	80 93 cd 02 	sts	0x02CD, r24
    196c:	2f c0       	rjmp	.+94     	; 0x19cc
    196e:	e3 30       	cpi	r30, 0x03	; 3
    1970:	69 f5       	brne	.+90     	; 0x19cc
    1972:	10 91 cd 02 	lds	r17, 0x02CD
    1976:	1f 5f       	subi	r17, 0xFF	; 255
    1978:	10 93 cd 02 	sts	0x02CD, r17
    197c:	84 2f       	mov	r24, r20
    197e:	0e 94 ba 0d 	call	0x1b74
    1982:	21 2f       	mov	r18, r17
    1984:	33 27       	eor	r19, r19
    1986:	80 91 8d 02 	lds	r24, 0x028D
    198a:	99 27       	eor	r25, r25
    198c:	87 fd       	sbrc	r24, 7
    198e:	90 95       	com	r25
    1990:	04 96       	adiw	r24, 0x04	; 4
    1992:	28 17       	cp	r18, r24
    1994:	39 07       	cpc	r19, r25
    1996:	d1 f4       	brne	.+52     	; 0x19cc
    1998:	e0 91 a3 02 	lds	r30, 0x02A3
    199c:	f0 91 a4 02 	lds	r31, 0x02A4
    19a0:	82 a1       	ldd	r24, Z+34	; 0x22
    19a2:	93 a1       	ldd	r25, Z+35	; 0x23
    19a4:	01 97       	sbiw	r24, 0x01	; 1
    19a6:	79 f4       	brne	.+30     	; 0x19c6
    19a8:	20 81       	ld	r18, Z
    19aa:	31 81       	ldd	r19, Z+1	; 0x01
    19ac:	80 91 60 00 	lds	r24, 0x0060
    19b0:	90 91 61 00 	lds	r25, 0x0061
    19b4:	28 17       	cp	r18, r24
    19b6:	39 07       	cpc	r19, r25
    19b8:	19 f0       	breq	.+6      	; 0x19c0
    19ba:	2f 5f       	subi	r18, 0xFF	; 255
    19bc:	3f 4f       	sbci	r19, 0xFF	; 255
    19be:	19 f4       	brne	.+6      	; 0x19c6
    19c0:	85 e5       	ldi	r24, 0x55	; 85
    19c2:	0e 94 f4 09 	call	0x13e8
    19c6:	8b e0       	ldi	r24, 0x0B	; 11
    19c8:	80 93 b6 03 	sts	0x03B6, r24
    19cc:	cf bf       	out	0x3f, r28	; 63
    19ce:	0f bf       	out	0x3f, r16	; 63
    19d0:	1d c0       	rjmp	.+58     	; 0x1a0c
    19d2:	eb 30       	cpi	r30, 0x0B	; 11
    19d4:	d9 f4       	brne	.+54     	; 0x1a0c
    19d6:	80 91 f7 02 	lds	r24, 0x02F7
    19da:	8f 5f       	subi	r24, 0xFF	; 255
    19dc:	80 93 f7 02 	sts	0x02F7, r24
    19e0:	86 30       	cpi	r24, 0x06	; 6
    19e2:	70 f0       	brcs	.+28     	; 0x1a00
    19e4:	8a e0       	ldi	r24, 0x0A	; 10
    19e6:	80 93 b6 03 	sts	0x03B6, r24
    19ea:	0e 94 54 0d 	call	0x1aa8
    19ee:	80 91 9a 02 	lds	r24, 0x029A
    19f2:	88 23       	and	r24, r24
    19f4:	59 f0       	breq	.+22     	; 0x1a0c
    19f6:	82 ea       	ldi	r24, 0xA2	; 162
    19f8:	97 e1       	ldi	r25, 0x17	; 23
    19fa:	0e 94 2c 02 	call	0x458
    19fe:	06 c0       	rjmp	.+12     	; 0x1a0c
    1a00:	8f b7       	in	r24, 0x3f	; 63
    1a02:	f8 94       	cli
    1a04:	99 27       	eor	r25, r25
    1a06:	97 98       	cbi	0x12, 7	; 18
    1a08:	96 9a       	sbi	0x12, 6	; 18
    1a0a:	8f bf       	out	0x3f, r24	; 63
    1a0c:	ff be       	out	0x3f, r15	; 63
    1a0e:	81 e0       	ldi	r24, 0x01	; 1
    1a10:	90 e0       	ldi	r25, 0x00	; 0
    1a12:	cf 91       	pop	r28
    1a14:	1f 91       	pop	r17
    1a16:	0f 91       	pop	r16
    1a18:	ff 90       	pop	r15
    1a1a:	08 95       	ret

00001a1c <TinySecM$TinySecRadio$getTransmitByte>:
    1a1c:	e0 e0       	ldi	r30, 0x00	; 0
    1a1e:	60 91 76 01 	lds	r22, 0x0176
    1a22:	70 91 77 01 	lds	r23, 0x0177
    1a26:	26 2f       	mov	r18, r22
    1a28:	37 2f       	mov	r19, r23
    1a2a:	2f 5f       	subi	r18, 0xFF	; 255
    1a2c:	3f 4f       	sbci	r19, 0xFF	; 255
    1a2e:	30 93 77 01 	sts	0x0177, r19
    1a32:	20 93 76 01 	sts	0x0176, r18
    1a36:	40 91 72 01 	lds	r20, 0x0172
    1a3a:	50 91 73 01 	lds	r21, 0x0173
    1a3e:	24 17       	cp	r18, r20
    1a40:	35 07       	cpc	r19, r21
    1a42:	ac f4       	brge	.+42     	; 0x1a6e
    1a44:	24 30       	cpi	r18, 0x04	; 4
    1a46:	31 05       	cpc	r19, r1
    1a48:	51 f4       	brne	.+20     	; 0x1a5e
    1a4a:	80 91 63 00 	lds	r24, 0x0063
    1a4e:	88 23       	and	r24, r24
    1a50:	31 f4       	brne	.+12     	; 0x1a5e
    1a52:	6b 5f       	subi	r22, 0xFB	; 251
    1a54:	7f 4f       	sbci	r23, 0xFF	; 255
    1a56:	70 93 77 01 	sts	0x0177, r23
    1a5a:	60 93 76 01 	sts	0x0176, r22
    1a5e:	e0 91 76 01 	lds	r30, 0x0176
    1a62:	f0 91 77 01 	lds	r31, 0x0177
    1a66:	ea 5b       	subi	r30, 0xBA	; 186
    1a68:	fc 4f       	sbci	r31, 0xFC	; 252
    1a6a:	e0 81       	ld	r30, Z
    1a6c:	1a c0       	rjmp	.+52     	; 0x1aa2
    1a6e:	95 2f       	mov	r25, r21
    1a70:	84 2f       	mov	r24, r20
    1a72:	04 96       	adiw	r24, 0x04	; 4
    1a74:	28 17       	cp	r18, r24
    1a76:	39 07       	cpc	r19, r25
    1a78:	64 f4       	brge	.+24     	; 0x1a92
    1a7a:	f3 2f       	mov	r31, r19
    1a7c:	e2 2f       	mov	r30, r18
    1a7e:	e4 1b       	sub	r30, r20
    1a80:	f5 0b       	sbc	r31, r21
    1a82:	ea 5b       	subi	r30, 0xBA	; 186
    1a84:	fc 4f       	sbci	r31, 0xFC	; 252
    1a86:	e5 a1       	ldd	r30, Z+37	; 0x25
    1a88:	4d 5f       	subi	r20, 0xFD	; 253
    1a8a:	5f 4f       	sbci	r21, 0xFF	; 255
    1a8c:	24 17       	cp	r18, r20
    1a8e:	35 07       	cpc	r19, r21
    1a90:	41 f4       	brne	.+16     	; 0x1aa2
    1a92:	8f b7       	in	r24, 0x3f	; 63
    1a94:	f8 94       	cli
    1a96:	28 2f       	mov	r18, r24
    1a98:	33 27       	eor	r19, r19
    1a9a:	81 e0       	ldi	r24, 0x01	; 1
    1a9c:	80 93 96 02 	sts	0x0296, r24
    1aa0:	2f bf       	out	0x3f, r18	; 63
    1aa2:	8e 2f       	mov	r24, r30
    1aa4:	99 27       	eor	r25, r25
    1aa6:	08 95       	ret

00001aa8 <SpiByteFifoC$SpiByteFifo$idle>:
    1aa8:	1f 93       	push	r17
    1aaa:	cf 93       	push	r28
    1aac:	8f b7       	in	r24, 0x3f	; 63
    1aae:	f8 94       	cli
    1ab0:	18 2f       	mov	r17, r24
    1ab2:	1d b8       	out	0x0d, r1	; 13
    1ab4:	1f b8       	out	0x0f, r1	; 15
    1ab6:	15 bc       	out	0x25, r1	; 37
    1ab8:	10 92 8b 04 	sts	0x048B, r1
    1abc:	8f b7       	in	r24, 0x3f	; 63
    1abe:	f8 94       	cli
    1ac0:	c8 2f       	mov	r28, r24
    1ac2:	80 91 ee 02 	lds	r24, 0x02EE
    1ac6:	8f 5f       	subi	r24, 0xFF	; 255
    1ac8:	80 93 ee 02 	sts	0x02EE, r24
    1acc:	90 91 c3 02 	lds	r25, 0x02C3
    1ad0:	18 16       	cp	r1, r24
    1ad2:	4c f4       	brge	.+18     	; 0x1ae6
    1ad4:	15 9a       	sbi	0x02, 5	; 2
    1ad6:	1d 9a       	sbi	0x03, 5	; 3
    1ad8:	99 23       	and	r25, r25
    1ada:	39 f0       	breq	.+14     	; 0x1aea
    1adc:	86 eb       	ldi	r24, 0xB6	; 182
    1ade:	9c e1       	ldi	r25, 0x1C	; 28
    1ae0:	0e 94 2c 02 	call	0x458
    1ae4:	02 c0       	rjmp	.+4      	; 0x1aea
    1ae6:	90 93 c3 02 	sts	0x02C3, r25
    1aea:	cf bf       	out	0x3f, r28	; 63
    1aec:	bb 9a       	sbi	0x17, 3	; 23
    1aee:	c3 98       	cbi	0x18, 3	; 24
    1af0:	97 98       	cbi	0x12, 7	; 18
    1af2:	96 98       	cbi	0x12, 6	; 18
    1af4:	10 92 d9 01 	sts	0x01D9, r1
    1af8:	10 92 8b 04 	sts	0x048B, r1
    1afc:	1f bf       	out	0x3f, r17	; 63
    1afe:	81 e0       	ldi	r24, 0x01	; 1
    1b00:	90 e0       	ldi	r25, 0x00	; 0
    1b02:	cf 91       	pop	r28
    1b04:	1f 91       	pop	r17
    1b06:	08 95       	ret

00001b08 <MicaHighSpeedRadioTinySecM$swapLengthAndGroup>:
    1b08:	f9 2f       	mov	r31, r25
    1b0a:	e8 2f       	mov	r30, r24
    1b0c:	93 81       	ldd	r25, Z+3	; 0x03
    1b0e:	84 81       	ldd	r24, Z+4	; 0x04
    1b10:	83 83       	std	Z+3, r24	; 0x03
    1b12:	94 83       	std	Z+4, r25	; 0x04
    1b14:	08 95       	ret

00001b16 <AMStandardTinySec$reportSendDone>:
    1b16:	f9 2f       	mov	r31, r25
    1b18:	e8 2f       	mov	r30, r24
    1b1a:	8f b7       	in	r24, 0x3f	; 63
    1b1c:	f8 94       	cli
    1b1e:	99 27       	eor	r25, r25
    1b20:	10 92 a5 02 	sts	0x02A5, r1
    1b24:	8f bf       	out	0x3f, r24	; 63
    1b26:	81 a5       	ldd	r24, Z+41	; 0x29
    1b28:	82 30       	cpi	r24, 0x02	; 2
    1b2a:	d1 f4       	brne	.+52     	; 0x1b60
    1b2c:	82 81       	ldd	r24, Z+2	; 0x02
    1b2e:	84 30       	cpi	r24, 0x04	; 4
    1b30:	f1 f4       	brne	.+60     	; 0x1b6e
    1b32:	8f b7       	in	r24, 0x3f	; 63
    1b34:	f8 94       	cli
    1b36:	38 2f       	mov	r19, r24
    1b38:	20 91 7d 03 	lds	r18, 0x037D
    1b3c:	21 ff       	sbrs	r18, 1
    1b3e:	06 c0       	rjmp	.+12     	; 0x1b4c
    1b40:	8f b7       	in	r24, 0x3f	; 63
    1b42:	f8 94       	cli
    1b44:	99 27       	eor	r25, r25
    1b46:	d9 9a       	sbi	0x1b, 1	; 27
    1b48:	2d 7f       	andi	r18, 0xFD	; 253
    1b4a:	05 c0       	rjmp	.+10     	; 0x1b56
    1b4c:	8f b7       	in	r24, 0x3f	; 63
    1b4e:	f8 94       	cli
    1b50:	99 27       	eor	r25, r25
    1b52:	d9 98       	cbi	0x1b, 1	; 27
    1b54:	22 60       	ori	r18, 0x02	; 2
    1b56:	20 93 7d 03 	sts	0x037D, r18
    1b5a:	8f bf       	out	0x3f, r24	; 63
    1b5c:	3f bf       	out	0x3f, r19	; 63
    1b5e:	07 c0       	rjmp	.+14     	; 0x1b6e
    1b60:	81 30       	cpi	r24, 0x01	; 1
    1b62:	29 f0       	breq	.+10     	; 0x1b6e
    1b64:	83 30       	cpi	r24, 0x03	; 3
    1b66:	19 f0       	breq	.+6      	; 0x1b6e
    1b68:	80 e0       	ldi	r24, 0x00	; 0
    1b6a:	90 e0       	ldi	r25, 0x00	; 0
    1b6c:	08 95       	ret
    1b6e:	81 e0       	ldi	r24, 0x01	; 1
    1b70:	90 e0       	ldi	r25, 0x00	; 0
    1b72:	08 95       	ret

00001b74 <TinySecM$TinySecRadio$byteReceived>:
    1b74:	1f 93       	push	r17
    1b76:	cf 93       	push	r28
    1b78:	48 2f       	mov	r20, r24
    1b7a:	cf ef       	ldi	r28, 0xFF	; 255
    1b7c:	6c 2f       	mov	r22, r28
    1b7e:	a0 91 78 01 	lds	r26, 0x0178
    1b82:	b0 91 79 01 	lds	r27, 0x0179
    1b86:	20 91 74 01 	lds	r18, 0x0174
    1b8a:	30 91 75 01 	lds	r19, 0x0175
    1b8e:	a2 17       	cp	r26, r18
    1b90:	b3 07       	cpc	r27, r19
    1b92:	0c f0       	brlt	.+2      	; 0x1b96
    1b94:	42 c0       	rjmp	.+132    	; 0x1c1a
    1b96:	80 91 64 00 	lds	r24, 0x0064
    1b9a:	88 23       	and	r24, r24
    1b9c:	29 f5       	brne	.+74     	; 0x1be8
    1b9e:	a4 30       	cpi	r26, 0x04	; 4
    1ba0:	b1 05       	cpc	r27, r1
    1ba2:	11 f5       	brne	.+68     	; 0x1be8
    1ba4:	8a 2f       	mov	r24, r26
    1ba6:	9b 2f       	mov	r25, r27
    1ba8:	04 96       	adiw	r24, 0x04	; 4
    1baa:	90 93 79 01 	sts	0x0179, r25
    1bae:	80 93 78 01 	sts	0x0178, r24
    1bb2:	e0 91 9f 02 	lds	r30, 0x029F
    1bb6:	f0 91 a0 02 	lds	r31, 0x02A0
    1bba:	e8 0f       	add	r30, r24
    1bbc:	f9 1f       	adc	r31, r25
    1bbe:	40 83       	st	Z, r20
    1bc0:	80 91 78 01 	lds	r24, 0x0178
    1bc4:	90 91 79 01 	lds	r25, 0x0179
    1bc8:	01 96       	adiw	r24, 0x01	; 1
    1bca:	90 93 79 01 	sts	0x0179, r25
    1bce:	80 93 78 01 	sts	0x0178, r24
    1bd2:	80 91 78 01 	lds	r24, 0x0178
    1bd6:	84 50       	subi	r24, 0x04	; 4
    1bd8:	60 91 ce 02 	lds	r22, 0x02CE
    1bdc:	6c 0f       	add	r22, r28
    1bde:	68 23       	and	r22, r24
    1be0:	6c 5f       	subi	r22, 0xFC	; 252
    1be2:	c8 2f       	mov	r28, r24
    1be4:	c4 50       	subi	r28, 0x04	; 4
    1be6:	32 c0       	rjmp	.+100    	; 0x1c4c
    1be8:	e0 91 9f 02 	lds	r30, 0x029F
    1bec:	f0 91 a0 02 	lds	r31, 0x02A0
    1bf0:	ea 0f       	add	r30, r26
    1bf2:	fb 1f       	adc	r31, r27
    1bf4:	40 83       	st	Z, r20
    1bf6:	80 91 78 01 	lds	r24, 0x0178
    1bfa:	90 91 79 01 	lds	r25, 0x0179
    1bfe:	01 96       	adiw	r24, 0x01	; 1
    1c00:	90 93 79 01 	sts	0x0179, r25
    1c04:	80 93 78 01 	sts	0x0178, r24
    1c08:	60 91 ce 02 	lds	r22, 0x02CE
    1c0c:	61 50       	subi	r22, 0x01	; 1
    1c0e:	80 91 78 01 	lds	r24, 0x0178
    1c12:	68 23       	and	r22, r24
    1c14:	c8 2f       	mov	r28, r24
    1c16:	c8 50       	subi	r28, 0x08	; 8
    1c18:	19 c0       	rjmp	.+50     	; 0x1c4c
    1c1a:	93 2f       	mov	r25, r19
    1c1c:	82 2f       	mov	r24, r18
    1c1e:	04 96       	adiw	r24, 0x04	; 4
    1c20:	a8 17       	cp	r26, r24
    1c22:	b9 07       	cpc	r27, r25
    1c24:	9c f4       	brge	.+38     	; 0x1c4c
    1c26:	80 91 9f 02 	lds	r24, 0x029F
    1c2a:	90 91 a0 02 	lds	r25, 0x02A0
    1c2e:	a2 1b       	sub	r26, r18
    1c30:	b3 0b       	sbc	r27, r19
    1c32:	a8 0f       	add	r26, r24
    1c34:	b9 1f       	adc	r27, r25
    1c36:	95 96       	adiw	r26, 0x25	; 37
    1c38:	4c 93       	st	X, r20
    1c3a:	80 91 78 01 	lds	r24, 0x0178
    1c3e:	90 91 79 01 	lds	r25, 0x0179
    1c42:	01 96       	adiw	r24, 0x01	; 1
    1c44:	90 93 79 01 	sts	0x0179, r25
    1c48:	80 93 78 01 	sts	0x0178, r24
    1c4c:	20 91 78 01 	lds	r18, 0x0178
    1c50:	30 91 79 01 	lds	r19, 0x0179
    1c54:	80 91 74 01 	lds	r24, 0x0174
    1c58:	90 91 75 01 	lds	r25, 0x0175
    1c5c:	28 17       	cp	r18, r24
    1c5e:	39 07       	cpc	r19, r25
    1c60:	0c f0       	brlt	.+2      	; 0x1c64
    1c62:	b1 c0       	rjmp	.+354    	; 0x1dc6
    1c64:	24 30       	cpi	r18, 0x04	; 4
    1c66:	31 05       	cpc	r19, r1
    1c68:	09 f0       	breq	.+2      	; 0x1c6c
    1c6a:	7a c0       	rjmp	.+244    	; 0x1d60
    1c6c:	e0 91 9f 02 	lds	r30, 0x029F
    1c70:	f0 91 a0 02 	lds	r31, 0x02A0
    1c74:	83 81       	ldd	r24, Z+3	; 0x03
    1c76:	99 27       	eor	r25, r25
    1c78:	8f 73       	andi	r24, 0x3F	; 63
    1c7a:	90 70       	andi	r25, 0x00	; 0
    1c7c:	90 93 7b 01 	sts	0x017B, r25
    1c80:	80 93 7a 01 	sts	0x017A, r24
    1c84:	4e 97       	sbiw	r24, 0x1e	; 30
    1c86:	34 f0       	brlt	.+12     	; 0x1c94
    1c88:	40 e0       	ldi	r20, 0x00	; 0
    1c8a:	60 e0       	ldi	r22, 0x00	; 0
    1c8c:	70 e0       	ldi	r23, 0x00	; 0
    1c8e:	84 2f       	mov	r24, r20
    1c90:	0e 94 7f 0f 	call	0x1efe
    1c94:	e0 91 9f 02 	lds	r30, 0x029F
    1c98:	f0 91 a0 02 	lds	r31, 0x02A0
    1c9c:	83 81       	ldd	r24, Z+3	; 0x03
    1c9e:	87 ff       	sbrs	r24, 7
    1ca0:	4f c0       	rjmp	.+158    	; 0x1d40
    1ca2:	86 ff       	sbrs	r24, 6
    1ca4:	04 c0       	rjmp	.+8      	; 0x1cae
    1ca6:	81 e0       	ldi	r24, 0x01	; 1
    1ca8:	80 93 64 00 	sts	0x0064, r24
    1cac:	02 c0       	rjmp	.+4      	; 0x1cb2
    1cae:	10 92 64 00 	sts	0x0064, r1
    1cb2:	88 e0       	ldi	r24, 0x08	; 8
    1cb4:	90 e0       	ldi	r25, 0x00	; 0
    1cb6:	90 93 75 01 	sts	0x0175, r25
    1cba:	80 93 74 01 	sts	0x0174, r24
    1cbe:	80 91 ce 02 	lds	r24, 0x02CE
    1cc2:	28 2f       	mov	r18, r24
    1cc4:	33 27       	eor	r19, r19
    1cc6:	40 91 7a 01 	lds	r20, 0x017A
    1cca:	50 91 7b 01 	lds	r21, 0x017B
    1cce:	42 17       	cp	r20, r18
    1cd0:	53 07       	cpc	r21, r19
    1cd2:	5c f4       	brge	.+22     	; 0x1cea
    1cd4:	80 91 64 00 	lds	r24, 0x0064
    1cd8:	88 23       	and	r24, r24
    1cda:	39 f0       	breq	.+14     	; 0x1cea
    1cdc:	28 5f       	subi	r18, 0xF8	; 248
    1cde:	3f 4f       	sbci	r19, 0xFF	; 255
    1ce0:	30 93 75 01 	sts	0x0175, r19
    1ce4:	20 93 74 01 	sts	0x0174, r18
    1ce8:	0a c0       	rjmp	.+20     	; 0x1cfe
    1cea:	80 91 74 01 	lds	r24, 0x0174
    1cee:	90 91 75 01 	lds	r25, 0x0175
    1cf2:	84 0f       	add	r24, r20
    1cf4:	95 1f       	adc	r25, r21
    1cf6:	90 93 75 01 	sts	0x0175, r25
    1cfa:	80 93 74 01 	sts	0x0174, r24
    1cfe:	80 91 64 00 	lds	r24, 0x0064
    1d02:	88 23       	and	r24, r24
    1d04:	29 f0       	breq	.+10     	; 0x1d10
    1d06:	80 91 74 01 	lds	r24, 0x0174
    1d0a:	90 91 75 01 	lds	r25, 0x0175
    1d0e:	0e c0       	rjmp	.+28     	; 0x1d2c
    1d10:	34 96       	adiw	r30, 0x04	; 4
    1d12:	83 e0       	ldi	r24, 0x03	; 3
    1d14:	90 e0       	ldi	r25, 0x00	; 0
    1d16:	11 92       	st	Z+, r1
    1d18:	01 97       	sbiw	r24, 0x01	; 1
    1d1a:	2f ef       	ldi	r18, 0xFF	; 255
    1d1c:	8f 3f       	cpi	r24, 0xFF	; 255
    1d1e:	92 07       	cpc	r25, r18
    1d20:	d1 f7       	brne	.-12     	; 0x1d16
    1d22:	80 91 74 01 	lds	r24, 0x0174
    1d26:	90 91 75 01 	lds	r25, 0x0175
    1d2a:	04 97       	sbiw	r24, 0x04	; 4
    1d2c:	41 e0       	ldi	r20, 0x01	; 1
    1d2e:	68 2f       	mov	r22, r24
    1d30:	79 2f       	mov	r23, r25
    1d32:	84 2f       	mov	r24, r20
    1d34:	0e 94 7f 0f 	call	0x1efe
    1d38:	81 e0       	ldi	r24, 0x01	; 1
    1d3a:	80 93 75 02 	sts	0x0275, r24
    1d3e:	40 c0       	rjmp	.+128    	; 0x1dc0
    1d40:	80 91 7a 01 	lds	r24, 0x017A
    1d44:	90 91 7b 01 	lds	r25, 0x017B
    1d48:	05 96       	adiw	r24, 0x05	; 5
    1d4a:	90 93 75 01 	sts	0x0175, r25
    1d4e:	80 93 74 01 	sts	0x0174, r24
    1d52:	40 e0       	ldi	r20, 0x00	; 0
    1d54:	68 2f       	mov	r22, r24
    1d56:	79 2f       	mov	r23, r25
    1d58:	81 e0       	ldi	r24, 0x01	; 1
    1d5a:	0e 94 7f 0f 	call	0x1efe
    1d5e:	30 c0       	rjmp	.+96     	; 0x1dc0
    1d60:	66 23       	and	r22, r22
    1d62:	11 f4       	brne	.+4      	; 0x1d68
    1d64:	60 91 ce 02 	lds	r22, 0x02CE
    1d68:	26 2f       	mov	r18, r22
    1d6a:	33 27       	eor	r19, r19
    1d6c:	27 fd       	sbrc	r18, 7
    1d6e:	30 95       	com	r19
    1d70:	40 91 ce 02 	lds	r20, 0x02CE
    1d74:	84 2f       	mov	r24, r20
    1d76:	99 27       	eor	r25, r25
    1d78:	28 17       	cp	r18, r24
    1d7a:	39 07       	cpc	r19, r25
    1d7c:	34 f0       	brlt	.+12     	; 0x1d8a
    1d7e:	80 91 78 01 	lds	r24, 0x0178
    1d82:	86 1b       	sub	r24, r22
    1d84:	64 2f       	mov	r22, r20
    1d86:	0e 94 a0 0f 	call	0x1f40
    1d8a:	80 91 64 00 	lds	r24, 0x0064
    1d8e:	88 23       	and	r24, r24
    1d90:	b9 f0       	breq	.+46     	; 0x1dc0
    1d92:	cc 23       	and	r28, r28
    1d94:	21 f4       	brne	.+8      	; 0x1d9e
    1d96:	81 e0       	ldi	r24, 0x01	; 1
    1d98:	80 93 b1 03 	sts	0x03B1, r24
    1d9c:	11 c0       	rjmp	.+34     	; 0x1dc0
    1d9e:	2c 2f       	mov	r18, r28
    1da0:	33 27       	eor	r19, r19
    1da2:	27 fd       	sbrc	r18, 7
    1da4:	30 95       	com	r19
    1da6:	60 91 ce 02 	lds	r22, 0x02CE
    1daa:	86 2f       	mov	r24, r22
    1dac:	99 27       	eor	r25, r25
    1dae:	01 97       	sbiw	r24, 0x01	; 1
    1db0:	28 23       	and	r18, r24
    1db2:	39 23       	and	r19, r25
    1db4:	23 2b       	or	r18, r19
    1db6:	21 f4       	brne	.+8      	; 0x1dc0
    1db8:	c6 1b       	sub	r28, r22
    1dba:	8c 2f       	mov	r24, r28
    1dbc:	0e 94 b5 0f 	call	0x1f6a
    1dc0:	0e 94 ca 0f 	call	0x1f94
    1dc4:	97 c0       	rjmp	.+302    	; 0x1ef4
    1dc6:	28 17       	cp	r18, r24
    1dc8:	39 07       	cpc	r19, r25
    1dca:	09 f0       	breq	.+2      	; 0x1dce
    1dcc:	64 c0       	rjmp	.+200    	; 0x1e96
    1dce:	66 23       	and	r22, r22
    1dd0:	11 f4       	brne	.+4      	; 0x1dd6
    1dd2:	60 91 ce 02 	lds	r22, 0x02CE
    1dd6:	80 91 78 01 	lds	r24, 0x0178
    1dda:	86 1b       	sub	r24, r22
    1ddc:	0e 94 a0 0f 	call	0x1f40
    1de0:	81 e0       	ldi	r24, 0x01	; 1
    1de2:	80 93 78 02 	sts	0x0278, r24
    1de6:	80 91 64 00 	lds	r24, 0x0064
    1dea:	88 23       	and	r24, r24
    1dec:	c1 f0       	breq	.+48     	; 0x1e1e
    1dee:	2c 2f       	mov	r18, r28
    1df0:	33 27       	eor	r19, r19
    1df2:	27 fd       	sbrc	r18, 7
    1df4:	30 95       	com	r19
    1df6:	60 91 ce 02 	lds	r22, 0x02CE
    1dfa:	86 2f       	mov	r24, r22
    1dfc:	99 27       	eor	r25, r25
    1dfe:	01 97       	sbiw	r24, 0x01	; 1
    1e00:	28 23       	and	r18, r24
    1e02:	39 23       	and	r19, r25
    1e04:	23 2b       	or	r18, r19
    1e06:	11 f4       	brne	.+4      	; 0x1e0c
    1e08:	c6 1b       	sub	r28, r22
    1e0a:	05 c0       	rjmp	.+10     	; 0x1e16
    1e0c:	86 2f       	mov	r24, r22
    1e0e:	81 50       	subi	r24, 0x01	; 1
    1e10:	8c 23       	and	r24, r28
    1e12:	c8 1b       	sub	r28, r24
    1e14:	68 2f       	mov	r22, r24
    1e16:	8c 2f       	mov	r24, r28
    1e18:	0e 94 b5 0f 	call	0x1f6a
    1e1c:	13 c0       	rjmp	.+38     	; 0x1e44
    1e1e:	20 91 9f 02 	lds	r18, 0x029F
    1e22:	30 91 a0 02 	lds	r19, 0x02A0
    1e26:	28 5f       	subi	r18, 0xF8	; 248
    1e28:	3f 4f       	sbci	r19, 0xFF	; 255
    1e2a:	80 91 a1 02 	lds	r24, 0x02A1
    1e2e:	90 91 a2 02 	lds	r25, 0x02A2
    1e32:	05 96       	adiw	r24, 0x05	; 5
    1e34:	40 91 7a 01 	lds	r20, 0x017A
    1e38:	50 91 7b 01 	lds	r21, 0x017B
    1e3c:	73 2f       	mov	r23, r19
    1e3e:	62 2f       	mov	r22, r18
    1e40:	0e 94 d3 03 	call	0x7a6
    1e44:	0e 94 ca 0f 	call	0x1f94
    1e48:	e0 91 9f 02 	lds	r30, 0x029F
    1e4c:	f0 91 a0 02 	lds	r31, 0x02A0
    1e50:	91 e0       	ldi	r25, 0x01	; 1
    1e52:	96 a7       	std	Z+46, r25	; 0x2e
    1e54:	e0 91 a1 02 	lds	r30, 0x02A1
    1e58:	f0 91 a2 02 	lds	r31, 0x02A2
    1e5c:	80 91 62 00 	lds	r24, 0x0062
    1e60:	84 83       	std	Z+4, r24	; 0x04
    1e62:	e0 91 9f 02 	lds	r30, 0x029F
    1e66:	f0 91 a0 02 	lds	r31, 0x02A0
    1e6a:	87 a5       	ldd	r24, Z+47	; 0x2f
    1e6c:	88 23       	and	r24, r24
    1e6e:	09 f4       	brne	.+2      	; 0x1e72
    1e70:	41 c0       	rjmp	.+130    	; 0x1ef4
    1e72:	8f b7       	in	r24, 0x3f	; 63
    1e74:	f8 94       	cli
    1e76:	c8 2f       	mov	r28, r24
    1e78:	80 91 b6 03 	lds	r24, 0x03B6
    1e7c:	8a 30       	cpi	r24, 0x0A	; 10
    1e7e:	39 f4       	brne	.+14     	; 0x1e8e
    1e80:	90 93 9a 02 	sts	0x029A, r25
    1e84:	82 ea       	ldi	r24, 0xA2	; 162
    1e86:	97 e1       	ldi	r25, 0x17	; 23
    1e88:	0e 94 2c 02 	call	0x458
    1e8c:	02 c0       	rjmp	.+4      	; 0x1e92
    1e8e:	90 93 9a 02 	sts	0x029A, r25
    1e92:	cf bf       	out	0x3f, r28	; 63
    1e94:	2f c0       	rjmp	.+94     	; 0x1ef4
    1e96:	04 96       	adiw	r24, 0x04	; 4
    1e98:	28 17       	cp	r18, r24
    1e9a:	39 07       	cpc	r19, r25
    1e9c:	41 f5       	brne	.+80     	; 0x1eee
    1e9e:	e0 91 9f 02 	lds	r30, 0x029F
    1ea2:	f0 91 a0 02 	lds	r31, 0x02A0
    1ea6:	c1 e0       	ldi	r28, 0x01	; 1
    1ea8:	c7 a7       	std	Z+47, r28	; 0x2f
    1eaa:	e0 91 9f 02 	lds	r30, 0x029F
    1eae:	f0 91 a0 02 	lds	r31, 0x02A0
    1eb2:	80 a9       	ldd	r24, Z+48	; 0x30
    1eb4:	88 23       	and	r24, r24
    1eb6:	11 f0       	breq	.+4      	; 0x1ebc
    1eb8:	0e 94 3b 15 	call	0x2a76
    1ebc:	e0 91 9f 02 	lds	r30, 0x029F
    1ec0:	f0 91 a0 02 	lds	r31, 0x02A0
    1ec4:	86 a5       	ldd	r24, Z+46	; 0x2e
    1ec6:	88 23       	and	r24, r24
    1ec8:	a9 f0       	breq	.+42     	; 0x1ef4
    1eca:	8f b7       	in	r24, 0x3f	; 63
    1ecc:	f8 94       	cli
    1ece:	18 2f       	mov	r17, r24
    1ed0:	80 91 b6 03 	lds	r24, 0x03B6
    1ed4:	8a 30       	cpi	r24, 0x0A	; 10
    1ed6:	39 f4       	brne	.+14     	; 0x1ee6
    1ed8:	c0 93 9a 02 	sts	0x029A, r28
    1edc:	82 ea       	ldi	r24, 0xA2	; 162
    1ede:	97 e1       	ldi	r25, 0x17	; 23
    1ee0:	0e 94 2c 02 	call	0x458
    1ee4:	02 c0       	rjmp	.+4      	; 0x1eea
    1ee6:	c0 93 9a 02 	sts	0x029A, r28
    1eea:	1f bf       	out	0x3f, r17	; 63
    1eec:	03 c0       	rjmp	.+6      	; 0x1ef4
    1eee:	80 e0       	ldi	r24, 0x00	; 0
    1ef0:	90 e0       	ldi	r25, 0x00	; 0
    1ef2:	02 c0       	rjmp	.+4      	; 0x1ef8
    1ef4:	81 e0       	ldi	r24, 0x01	; 1
    1ef6:	90 e0       	ldi	r25, 0x00	; 0
    1ef8:	cf 91       	pop	r28
    1efa:	1f 91       	pop	r17
    1efc:	08 95       	ret

00001efe <MicaHighSpeedRadioTinySecM$TinySec$receiveInitDone>:
    1efe:	98 2f       	mov	r25, r24
    1f00:	8f b7       	in	r24, 0x3f	; 63
    1f02:	f8 94       	cli
    1f04:	58 2f       	mov	r21, r24
    1f06:	60 93 8d 02 	sts	0x028D, r22
    1f0a:	10 92 9a 02 	sts	0x029A, r1
    1f0e:	91 30       	cpi	r25, 0x01	; 1
    1f10:	61 f4       	brne	.+24     	; 0x1f2a
    1f12:	44 23       	and	r20, r20
    1f14:	21 f0       	breq	.+8      	; 0x1f1e
    1f16:	83 e0       	ldi	r24, 0x03	; 3
    1f18:	80 93 b6 03 	sts	0x03B6, r24
    1f1c:	0d c0       	rjmp	.+26     	; 0x1f38
    1f1e:	84 e0       	ldi	r24, 0x04	; 4
    1f20:	80 93 b6 03 	sts	0x03B6, r24
    1f24:	90 93 9a 02 	sts	0x029A, r25
    1f28:	07 c0       	rjmp	.+14     	; 0x1f38
    1f2a:	e0 91 a3 02 	lds	r30, 0x02A3
    1f2e:	f0 91 a4 02 	lds	r31, 0x02A4
    1f32:	13 82       	std	Z+3, r1	; 0x03
    1f34:	10 92 b6 03 	sts	0x03B6, r1
    1f38:	5f bf       	out	0x3f, r21	; 63
    1f3a:	81 e0       	ldi	r24, 0x01	; 1
    1f3c:	90 e0       	ldi	r25, 0x00	; 0
    1f3e:	08 95       	ret

00001f40 <TinySecM$postIncrementalMAC>:
    1f40:	98 2f       	mov	r25, r24
    1f42:	80 91 74 02 	lds	r24, 0x0274
    1f46:	88 23       	and	r24, r24
    1f48:	31 f0       	breq	.+12     	; 0x1f56
    1f4a:	80 91 76 02 	lds	r24, 0x0276
    1f4e:	86 0f       	add	r24, r22
    1f50:	80 93 76 02 	sts	0x0276, r24
    1f54:	07 c0       	rjmp	.+14     	; 0x1f64
    1f56:	81 e0       	ldi	r24, 0x01	; 1
    1f58:	80 93 74 02 	sts	0x0274, r24
    1f5c:	90 93 76 02 	sts	0x0276, r25
    1f60:	60 93 77 02 	sts	0x0277, r22
    1f64:	81 e0       	ldi	r24, 0x01	; 1
    1f66:	90 e0       	ldi	r25, 0x00	; 0
    1f68:	08 95       	ret

00001f6a <TinySecM$postIncrementalDecrypt>:
    1f6a:	98 2f       	mov	r25, r24
    1f6c:	80 91 b0 03 	lds	r24, 0x03B0
    1f70:	88 23       	and	r24, r24
    1f72:	31 f0       	breq	.+12     	; 0x1f80
    1f74:	80 91 b3 03 	lds	r24, 0x03B3
    1f78:	86 0f       	add	r24, r22
    1f7a:	80 93 b3 03 	sts	0x03B3, r24
    1f7e:	07 c0       	rjmp	.+14     	; 0x1f8e
    1f80:	81 e0       	ldi	r24, 0x01	; 1
    1f82:	80 93 b0 03 	sts	0x03B0, r24
    1f86:	90 93 b2 03 	sts	0x03B2, r25
    1f8a:	60 93 b3 03 	sts	0x03B3, r22
    1f8e:	81 e0       	ldi	r24, 0x01	; 1
    1f90:	90 e0       	ldi	r25, 0x00	; 0
    1f92:	08 95       	ret

00001f94 <TinySecM$checkQueuedCrypto>:
    1f94:	2f 92       	push	r2
    1f96:	3f 92       	push	r3
    1f98:	4f 92       	push	r4
    1f9a:	5f 92       	push	r5
    1f9c:	6f 92       	push	r6
    1f9e:	7f 92       	push	r7
    1fa0:	8f 92       	push	r8
    1fa2:	9f 92       	push	r9
    1fa4:	af 92       	push	r10
    1fa6:	bf 92       	push	r11
    1fa8:	cf 92       	push	r12
    1faa:	df 92       	push	r13
    1fac:	ef 92       	push	r14
    1fae:	ff 92       	push	r15
    1fb0:	0f 93       	push	r16
    1fb2:	1f 93       	push	r17
    1fb4:	cf 93       	push	r28
    1fb6:	df 93       	push	r29
    1fb8:	cd b7       	in	r28, 0x3d	; 61
    1fba:	de b7       	in	r29, 0x3e	; 62
    1fbc:	24 97       	sbiw	r28, 0x04	; 4
    1fbe:	0f b6       	in	r0, 0x3f	; 63
    1fc0:	f8 94       	cli
    1fc2:	de bf       	out	0x3e, r29	; 62
    1fc4:	0f be       	out	0x3f, r0	; 63
    1fc6:	cd bf       	out	0x3d, r28	; 61
    1fc8:	21 e0       	ldi	r18, 0x01	; 1
    1fca:	2b 83       	std	Y+3, r18	; 0x03
    1fcc:	90 91 ea 02 	lds	r25, 0x02EA
    1fd0:	93 31       	cpi	r25, 0x13	; 19
    1fd2:	21 f0       	breq	.+8      	; 0x1fdc
    1fd4:	80 91 77 03 	lds	r24, 0x0377
    1fd8:	86 31       	cpi	r24, 0x16	; 22
    1fda:	19 f4       	brne	.+6      	; 0x1fe2
    1fdc:	81 e0       	ldi	r24, 0x01	; 1
    1fde:	90 e0       	ldi	r25, 0x00	; 0
    1fe0:	c7 c2       	rjmp	.+1422   	; 0x2570
    1fe2:	80 91 75 02 	lds	r24, 0x0275
    1fe6:	88 23       	and	r24, r24
    1fe8:	51 f1       	breq	.+84     	; 0x203e
    1fea:	10 92 75 02 	sts	0x0275, r1
    1fee:	91 31       	cpi	r25, 0x11	; 17
    1ff0:	21 f4       	brne	.+8      	; 0x1ffa
    1ff2:	80 91 8c 02 	lds	r24, 0x028C
    1ff6:	88 23       	and	r24, r24
    1ff8:	19 f4       	brne	.+6      	; 0x2000
    1ffa:	80 e0       	ldi	r24, 0x00	; 0
    1ffc:	90 e0       	ldi	r25, 0x00	; 0
    1ffe:	1e c0       	rjmp	.+60     	; 0x203c
    2000:	83 e1       	ldi	r24, 0x13	; 19
    2002:	80 93 ea 02 	sts	0x02EA, r24
    2006:	78 94       	sei
    2008:	80 91 74 01 	lds	r24, 0x0174
    200c:	90 91 75 01 	lds	r25, 0x0175
    2010:	68 2f       	mov	r22, r24
    2012:	79 2f       	mov	r23, r25
    2014:	83 ec       	ldi	r24, 0xC3	; 195
    2016:	93 e0       	ldi	r25, 0x03	; 3
    2018:	0e 94 d1 12 	call	0x25a2
    201c:	08 2f       	mov	r16, r24
    201e:	11 27       	eor	r17, r17
    2020:	8f b7       	in	r24, 0x3f	; 63
    2022:	f8 94       	cli
    2024:	82 e1       	ldi	r24, 0x12	; 18
    2026:	80 93 ea 02 	sts	0x02EA, r24
    202a:	0e 94 ca 0f 	call	0x1f94
    202e:	00 23       	and	r16, r16
    2030:	11 f0       	breq	.+4      	; 0x2036
    2032:	99 27       	eor	r25, r25
    2034:	02 c0       	rjmp	.+4      	; 0x203a
    2036:	80 e0       	ldi	r24, 0x00	; 0
    2038:	90 e0       	ldi	r25, 0x00	; 0
    203a:	99 27       	eor	r25, r25
    203c:	8b 83       	std	Y+3, r24	; 0x03
    203e:	80 91 74 02 	lds	r24, 0x0274
    2042:	88 23       	and	r24, r24
    2044:	09 f4       	brne	.+2      	; 0x2048
    2046:	42 c0       	rjmp	.+132    	; 0x20cc
    2048:	10 92 74 02 	sts	0x0274, r1
    204c:	40 91 76 02 	lds	r20, 0x0276
    2050:	90 91 77 02 	lds	r25, 0x0277
    2054:	80 91 8c 02 	lds	r24, 0x028C
    2058:	88 23       	and	r24, r24
    205a:	71 f1       	breq	.+92     	; 0x20b8
    205c:	45 32       	cpi	r20, 0x25	; 37
    205e:	60 f5       	brcc	.+88     	; 0x20b8
    2060:	f0 90 ea 02 	lds	r15, 0x02EA
    2064:	61 e1       	ldi	r22, 0x11	; 17
    2066:	f6 16       	cp	r15, r22
    2068:	39 f1       	breq	.+78     	; 0x20b8
    206a:	82 e1       	ldi	r24, 0x12	; 18
    206c:	f8 16       	cp	r15, r24
    206e:	21 f5       	brne	.+72     	; 0x20b8
    2070:	83 e1       	ldi	r24, 0x13	; 19
    2072:	80 93 ea 02 	sts	0x02EA, r24
    2076:	78 94       	sei
    2078:	20 91 9f 02 	lds	r18, 0x029F
    207c:	30 91 a0 02 	lds	r19, 0x02A0
    2080:	24 0f       	add	r18, r20
    2082:	31 1d       	adc	r19, r1
    2084:	89 2f       	mov	r24, r25
    2086:	99 27       	eor	r25, r25
    2088:	48 2f       	mov	r20, r24
    208a:	59 2f       	mov	r21, r25
    208c:	73 2f       	mov	r23, r19
    208e:	62 2f       	mov	r22, r18
    2090:	83 ec       	ldi	r24, 0xC3	; 195
    2092:	93 e0       	ldi	r25, 0x03	; 3
    2094:	0e 94 9f 14 	call	0x293e
    2098:	08 2f       	mov	r16, r24
    209a:	11 27       	eor	r17, r17
    209c:	8f b7       	in	r24, 0x3f	; 63
    209e:	f8 94       	cli
    20a0:	f0 92 ea 02 	sts	0x02EA, r15
    20a4:	0e 94 ca 0f 	call	0x1f94
    20a8:	00 23       	and	r16, r16
    20aa:	11 f0       	breq	.+4      	; 0x20b0
    20ac:	99 27       	eor	r25, r25
    20ae:	02 c0       	rjmp	.+4      	; 0x20b4
    20b0:	80 e0       	ldi	r24, 0x00	; 0
    20b2:	90 e0       	ldi	r25, 0x00	; 0
    20b4:	99 27       	eor	r25, r25
    20b6:	02 c0       	rjmp	.+4      	; 0x20bc
    20b8:	80 e0       	ldi	r24, 0x00	; 0
    20ba:	90 e0       	ldi	r25, 0x00	; 0
    20bc:	9b 81       	ldd	r25, Y+3	; 0x03
    20be:	99 23       	and	r25, r25
    20c0:	11 f0       	breq	.+4      	; 0x20c6
    20c2:	99 27       	eor	r25, r25
    20c4:	02 c0       	rjmp	.+4      	; 0x20ca
    20c6:	80 e0       	ldi	r24, 0x00	; 0
    20c8:	90 e0       	ldi	r25, 0x00	; 0
    20ca:	8b 83       	std	Y+3, r24	; 0x03
    20cc:	80 91 78 02 	lds	r24, 0x0278
    20d0:	88 23       	and	r24, r24
    20d2:	09 f4       	brne	.+2      	; 0x20d6
    20d4:	46 c0       	rjmp	.+140    	; 0x2162
    20d6:	10 92 78 02 	sts	0x0278, r1
    20da:	80 91 8c 02 	lds	r24, 0x028C
    20de:	88 23       	and	r24, r24
    20e0:	b1 f1       	breq	.+108    	; 0x214e
    20e2:	80 91 ea 02 	lds	r24, 0x02EA
    20e6:	81 31       	cpi	r24, 0x11	; 17
    20e8:	91 f1       	breq	.+100    	; 0x214e
    20ea:	82 31       	cpi	r24, 0x12	; 18
    20ec:	81 f5       	brne	.+96     	; 0x214e
    20ee:	83 e1       	ldi	r24, 0x13	; 19
    20f0:	80 93 ea 02 	sts	0x02EA, r24
    20f4:	78 94       	sei
    20f6:	80 91 9f 02 	lds	r24, 0x029F
    20fa:	90 91 a0 02 	lds	r25, 0x02A0
    20fe:	89 96       	adiw	r24, 0x29	; 41
    2100:	45 e0       	ldi	r20, 0x05	; 5
    2102:	68 2f       	mov	r22, r24
    2104:	79 2f       	mov	r23, r25
    2106:	83 ec       	ldi	r24, 0xC3	; 195
    2108:	93 e0       	ldi	r25, 0x03	; 3
    210a:	0e 94 f1 14 	call	0x29e2
    210e:	08 2f       	mov	r16, r24
    2110:	11 27       	eor	r17, r17
    2112:	8f b7       	in	r24, 0x3f	; 63
    2114:	f8 94       	cli
    2116:	e0 91 9f 02 	lds	r30, 0x029F
    211a:	f0 91 a0 02 	lds	r31, 0x02A0
    211e:	81 e0       	ldi	r24, 0x01	; 1
    2120:	80 ab       	std	Z+48, r24	; 0x30
    2122:	e0 91 9f 02 	lds	r30, 0x029F
    2126:	f0 91 a0 02 	lds	r31, 0x02A0
    212a:	87 a5       	ldd	r24, Z+47	; 0x2f
    212c:	88 23       	and	r24, r24
    212e:	11 f0       	breq	.+4      	; 0x2134
    2130:	0e 94 3b 15 	call	0x2a76
    2134:	81 e1       	ldi	r24, 0x11	; 17
    2136:	80 93 ea 02 	sts	0x02EA, r24
    213a:	0e 94 ca 0f 	call	0x1f94
    213e:	00 23       	and	r16, r16
    2140:	11 f0       	breq	.+4      	; 0x2146
    2142:	99 27       	eor	r25, r25
    2144:	02 c0       	rjmp	.+4      	; 0x214a
    2146:	80 e0       	ldi	r24, 0x00	; 0
    2148:	90 e0       	ldi	r25, 0x00	; 0
    214a:	99 27       	eor	r25, r25
    214c:	02 c0       	rjmp	.+4      	; 0x2152
    214e:	80 e0       	ldi	r24, 0x00	; 0
    2150:	90 e0       	ldi	r25, 0x00	; 0
    2152:	eb 81       	ldd	r30, Y+3	; 0x03
    2154:	ee 23       	and	r30, r30
    2156:	11 f0       	breq	.+4      	; 0x215c
    2158:	99 27       	eor	r25, r25
    215a:	02 c0       	rjmp	.+4      	; 0x2160
    215c:	80 e0       	ldi	r24, 0x00	; 0
    215e:	90 e0       	ldi	r25, 0x00	; 0
    2160:	8b 83       	std	Y+3, r24	; 0x03
    2162:	80 91 b1 03 	lds	r24, 0x03B1
    2166:	88 23       	and	r24, r24
    2168:	61 f0       	breq	.+24     	; 0x2182
    216a:	10 92 b1 03 	sts	0x03B1, r1
    216e:	0e 94 6d 15 	call	0x2ada
    2172:	fb 81       	ldd	r31, Y+3	; 0x03
    2174:	ff 23       	and	r31, r31
    2176:	11 f0       	breq	.+4      	; 0x217c
    2178:	99 27       	eor	r25, r25
    217a:	02 c0       	rjmp	.+4      	; 0x2180
    217c:	80 e0       	ldi	r24, 0x00	; 0
    217e:	90 e0       	ldi	r25, 0x00	; 0
    2180:	8b 83       	std	Y+3, r24	; 0x03
    2182:	80 91 b0 03 	lds	r24, 0x03B0
    2186:	88 23       	and	r24, r24
    2188:	09 f4       	brne	.+2      	; 0x218c
    218a:	ef c1       	rjmp	.+990    	; 0x256a
    218c:	10 92 b0 03 	sts	0x03B0, r1
    2190:	80 91 77 03 	lds	r24, 0x0377
    2194:	85 31       	cpi	r24, 0x15	; 21
    2196:	09 f0       	breq	.+2      	; 0x219a
    2198:	d8 c1       	rjmp	.+944    	; 0x254a
    219a:	90 91 b2 03 	lds	r25, 0x03B2
    219e:	40 91 b3 03 	lds	r20, 0x03B3
    21a2:	80 91 8c 02 	lds	r24, 0x028C
    21a6:	88 23       	and	r24, r24
    21a8:	19 f4       	brne	.+6      	; 0x21b0
    21aa:	80 e0       	ldi	r24, 0x00	; 0
    21ac:	90 e0       	ldi	r25, 0x00	; 0
    21ae:	c9 c1       	rjmp	.+914    	; 0x2542
    21b0:	86 e1       	ldi	r24, 0x16	; 22
    21b2:	80 93 77 03 	sts	0x0377, r24
    21b6:	78 94       	sei
    21b8:	a0 90 9f 02 	lds	r10, 0x029F
    21bc:	b0 90 a0 02 	lds	r11, 0x02A0
    21c0:	a9 0e       	add	r10, r25
    21c2:	b1 1c       	adc	r11, r1
    21c4:	60 90 a1 02 	lds	r6, 0x02A1
    21c8:	70 90 a2 02 	lds	r7, 0x02A2
    21cc:	85 e0       	ldi	r24, 0x05	; 5
    21ce:	90 e0       	ldi	r25, 0x00	; 0
    21d0:	68 0e       	add	r6, r24
    21d2:	79 1e       	adc	r7, r25
    21d4:	e8 e0       	ldi	r30, 0x08	; 8
    21d6:	f0 e0       	ldi	r31, 0x00	; 0
    21d8:	ae 0e       	add	r10, r30
    21da:	bf 1e       	adc	r11, r31
    21dc:	e4 2e       	mov	r14, r20
    21de:	ff 24       	eor	r15, r15
    21e0:	5c e5       	ldi	r21, 0x5C	; 92
    21e2:	45 2e       	mov	r4, r21
    21e4:	52 e0       	ldi	r21, 0x02	; 2
    21e6:	55 2e       	mov	r5, r21
    21e8:	f0 91 6c 02 	lds	r31, 0x026C
    21ec:	fc 83       	std	Y+4, r31	; 0x04
    21ee:	c0 90 6f 02 	lds	r12, 0x026F
    21f2:	d0 90 70 02 	lds	r13, 0x0270
    21f6:	e1 14       	cp	r14, r1
    21f8:	f1 04       	cpc	r15, r1
    21fa:	09 f4       	brne	.+2      	; 0x21fe
    21fc:	79 c1       	rjmp	.+754    	; 0x24f0
    21fe:	80 91 6d 02 	lds	r24, 0x026D
    2202:	90 91 6e 02 	lds	r25, 0x026E
    2206:	8e 15       	cp	r24, r14
    2208:	9f 05       	cpc	r25, r15
    220a:	f8 f4       	brcc	.+62     	; 0x224a
    220c:	1b c0       	rjmp	.+54     	; 0x2244
    220e:	5f 2d       	mov	r21, r15
    2210:	4e 2d       	mov	r20, r14
    2212:	7b 2d       	mov	r23, r11
    2214:	6a 2d       	mov	r22, r10
    2216:	8e 2f       	mov	r24, r30
    2218:	9f 2f       	mov	r25, r31
    221a:	0e 94 d3 03 	call	0x7a6
    221e:	f5 2d       	mov	r31, r5
    2220:	e4 2d       	mov	r30, r4
    2222:	c3 8a       	std	Z+19, r12	; 0x13
    2224:	d4 8a       	std	Z+20, r13	; 0x14
    2226:	c9 82       	std	Y+1, r12	; 0x01
    2228:	da 82       	std	Y+2, r13	; 0x02
    222a:	80 91 72 02 	lds	r24, 0x0272
    222e:	8e 0d       	add	r24, r14
    2230:	86 8b       	std	Z+22, r24	; 0x16
    2232:	80 91 6d 02 	lds	r24, 0x026D
    2236:	90 91 6e 02 	lds	r25, 0x026E
    223a:	8e 19       	sub	r24, r14
    223c:	9f 09       	sbc	r25, r15
    223e:	81 8b       	std	Z+17, r24	; 0x11
    2240:	92 8b       	std	Z+18, r25	; 0x12
    2242:	58 c1       	rjmp	.+688    	; 0x24f4
    2244:	80 e0       	ldi	r24, 0x00	; 0
    2246:	90 e0       	ldi	r25, 0x00	; 0
    2248:	57 c1       	rjmp	.+686    	; 0x24f8
    224a:	e1 14       	cp	r14, r1
    224c:	f1 04       	cpc	r15, r1
    224e:	09 f4       	brne	.+2      	; 0x2252
    2250:	4b c1       	rjmp	.+662    	; 0x24e8
    2252:	80 91 71 02 	lds	r24, 0x0271
    2256:	90 91 73 02 	lds	r25, 0x0273
    225a:	88 23       	and	r24, r24
    225c:	41 f0       	breq	.+16     	; 0x226e
    225e:	4c e5       	ldi	r20, 0x5C	; 92
    2260:	84 2e       	mov	r8, r20
    2262:	42 e0       	ldi	r20, 0x02	; 2
    2264:	94 2e       	mov	r9, r20
    2266:	38 e0       	ldi	r19, 0x08	; 8
    2268:	23 2e       	mov	r2, r19
    226a:	31 2c       	mov	r3, r1
    226c:	08 c0       	rjmp	.+16     	; 0x227e
    226e:	24 e6       	ldi	r18, 0x64	; 100
    2270:	82 2e       	mov	r8, r18
    2272:	22 e0       	ldi	r18, 0x02	; 2
    2274:	92 2e       	mov	r9, r18
    2276:	88 ef       	ldi	r24, 0xF8	; 248
    2278:	28 2e       	mov	r2, r24
    227a:	8f ef       	ldi	r24, 0xFF	; 255
    227c:	38 2e       	mov	r3, r24
    227e:	28 0c       	add	r2, r8
    2280:	39 1c       	adc	r3, r9
    2282:	93 30       	cpi	r25, 0x03	; 3
    2284:	71 f1       	breq	.+92     	; 0x22e2
    2286:	80 91 72 02 	lds	r24, 0x0272
    228a:	48 2f       	mov	r20, r24
    228c:	55 27       	eor	r21, r21
    228e:	95 2f       	mov	r25, r21
    2290:	84 2f       	mov	r24, r20
    2292:	8e 0d       	add	r24, r14
    2294:	9f 1d       	adc	r25, r15
    2296:	fc 81       	ldd	r31, Y+4	; 0x04
    2298:	2f 2f       	mov	r18, r31
    229a:	33 27       	eor	r19, r19
    229c:	f9 2d       	mov	r31, r9
    229e:	e8 2d       	mov	r30, r8
    22a0:	e4 0f       	add	r30, r20
    22a2:	f5 1f       	adc	r31, r21
    22a4:	82 17       	cp	r24, r18
    22a6:	93 07       	cpc	r25, r19
    22a8:	08 f4       	brcc	.+2      	; 0x22ac
    22aa:	b1 cf       	rjmp	.-158    	; 0x220e
    22ac:	02 2f       	mov	r16, r18
    22ae:	13 2f       	mov	r17, r19
    22b0:	04 1b       	sub	r16, r20
    22b2:	15 0b       	sbc	r17, r21
    22b4:	51 2f       	mov	r21, r17
    22b6:	40 2f       	mov	r20, r16
    22b8:	7b 2d       	mov	r23, r11
    22ba:	6a 2d       	mov	r22, r10
    22bc:	8e 2f       	mov	r24, r30
    22be:	9f 2f       	mov	r25, r31
    22c0:	0e 94 d3 03 	call	0x7a6
    22c4:	80 91 6d 02 	lds	r24, 0x026D
    22c8:	90 91 6e 02 	lds	r25, 0x026E
    22cc:	80 1b       	sub	r24, r16
    22ce:	91 0b       	sbc	r25, r17
    22d0:	f5 2d       	mov	r31, r5
    22d2:	e4 2d       	mov	r30, r4
    22d4:	81 8b       	std	Z+17, r24	; 0x11
    22d6:	92 8b       	std	Z+18, r25	; 0x12
    22d8:	a0 0e       	add	r10, r16
    22da:	b1 1e       	adc	r11, r17
    22dc:	e0 1a       	sub	r14, r16
    22de:	f1 0a       	sbc	r15, r17
    22e0:	16 8a       	std	Z+22, r1	; 0x16
    22e2:	80 91 73 02 	lds	r24, 0x0273
    22e6:	88 23       	and	r24, r24
    22e8:	29 f5       	brne	.+74     	; 0x2334
    22ea:	57 2d       	mov	r21, r7
    22ec:	46 2d       	mov	r20, r6
    22ee:	79 2d       	mov	r23, r9
    22f0:	68 2d       	mov	r22, r8
    22f2:	8c ed       	ldi	r24, 0xDC	; 220
    22f4:	91 e0       	ldi	r25, 0x01	; 1
    22f6:	0e 94 2e 16 	call	0x2c5c
    22fa:	81 30       	cpi	r24, 0x01	; 1
    22fc:	09 f0       	breq	.+2      	; 0x2300
    22fe:	a2 cf       	rjmp	.-188    	; 0x2244
    2300:	fc 81       	ldd	r31, Y+4	; 0x04
    2302:	4f 2f       	mov	r20, r31
    2304:	55 27       	eor	r21, r21
    2306:	41 15       	cp	r20, r1
    2308:	51 05       	cpc	r21, r1
    230a:	69 f0       	breq	.+26     	; 0x2326
    230c:	b3 2d       	mov	r27, r3
    230e:	a2 2d       	mov	r26, r2
    2310:	f7 2d       	mov	r31, r7
    2312:	e6 2d       	mov	r30, r6
    2314:	24 2f       	mov	r18, r20
    2316:	35 2f       	mov	r19, r21
    2318:	80 81       	ld	r24, Z
    231a:	9d 91       	ld	r25, X+
    231c:	89 27       	eor	r24, r25
    231e:	81 93       	st	Z+, r24
    2320:	21 50       	subi	r18, 0x01	; 1
    2322:	30 40       	sbci	r19, 0x00	; 0
    2324:	c9 f7       	brne	.-14     	; 0x2318
    2326:	f5 2d       	mov	r31, r5
    2328:	e4 2d       	mov	r30, r4
    232a:	43 8b       	std	Z+19, r20	; 0x13
    232c:	54 8b       	std	Z+20, r21	; 0x14
    232e:	49 83       	std	Y+1, r20	; 0x01
    2330:	5a 83       	std	Y+2, r21	; 0x02
    2332:	e0 c0       	rjmp	.+448    	; 0x24f4
    2334:	81 30       	cpi	r24, 0x01	; 1
    2336:	c1 f5       	brne	.+112    	; 0x23a8
    2338:	17 2d       	mov	r17, r7
    233a:	06 2d       	mov	r16, r6
    233c:	0c 0d       	add	r16, r12
    233e:	1d 1d       	adc	r17, r13
    2340:	51 2f       	mov	r21, r17
    2342:	40 2f       	mov	r20, r16
    2344:	79 2d       	mov	r23, r9
    2346:	68 2d       	mov	r22, r8
    2348:	8c ed       	ldi	r24, 0xDC	; 220
    234a:	91 e0       	ldi	r25, 0x01	; 1
    234c:	0e 94 2e 16 	call	0x2c5c
    2350:	81 30       	cpi	r24, 0x01	; 1
    2352:	09 f0       	breq	.+2      	; 0x2356
    2354:	77 cf       	rjmp	.-274    	; 0x2244
    2356:	fc 81       	ldd	r31, Y+4	; 0x04
    2358:	4f 2f       	mov	r20, r31
    235a:	55 27       	eor	r21, r21
    235c:	41 15       	cp	r20, r1
    235e:	51 05       	cpc	r21, r1
    2360:	69 f0       	breq	.+26     	; 0x237c
    2362:	b3 2d       	mov	r27, r3
    2364:	a2 2d       	mov	r26, r2
    2366:	f1 2f       	mov	r31, r17
    2368:	e0 2f       	mov	r30, r16
    236a:	24 2f       	mov	r18, r20
    236c:	35 2f       	mov	r19, r21
    236e:	80 81       	ld	r24, Z
    2370:	9d 91       	ld	r25, X+
    2372:	89 27       	eor	r24, r25
    2374:	81 93       	st	Z+, r24
    2376:	21 50       	subi	r18, 0x01	; 1
    2378:	30 40       	sbci	r19, 0x00	; 0
    237a:	c9 f7       	brne	.-14     	; 0x236e
    237c:	c4 0e       	add	r12, r20
    237e:	d5 1e       	adc	r13, r21
    2380:	90 e0       	ldi	r25, 0x00	; 0
    2382:	80 91 71 02 	lds	r24, 0x0271
    2386:	88 23       	and	r24, r24
    2388:	09 f4       	brne	.+2      	; 0x238c
    238a:	91 e0       	ldi	r25, 0x01	; 1
    238c:	f5 2d       	mov	r31, r5
    238e:	e4 2d       	mov	r30, r4
    2390:	95 8b       	std	Z+21, r25	; 0x15
    2392:	44 0f       	add	r20, r20
    2394:	55 1f       	adc	r21, r21
    2396:	80 91 6d 02 	lds	r24, 0x026D
    239a:	90 91 6e 02 	lds	r25, 0x026E
    239e:	48 17       	cp	r20, r24
    23a0:	59 07       	cpc	r21, r25
    23a2:	10 f0       	brcs	.+4      	; 0x23a8
    23a4:	82 e0       	ldi	r24, 0x02	; 2
    23a6:	12 c0       	rjmp	.+36     	; 0x23cc
    23a8:	80 91 73 02 	lds	r24, 0x0273
    23ac:	82 30       	cpi	r24, 0x02	; 2
    23ae:	81 f4       	brne	.+32     	; 0x23d0
    23b0:	59 2d       	mov	r21, r9
    23b2:	48 2d       	mov	r20, r8
    23b4:	79 2d       	mov	r23, r9
    23b6:	68 2d       	mov	r22, r8
    23b8:	8c ed       	ldi	r24, 0xDC	; 220
    23ba:	91 e0       	ldi	r25, 0x01	; 1
    23bc:	0e 94 2e 16 	call	0x2c5c
    23c0:	81 30       	cpi	r24, 0x01	; 1
    23c2:	09 f0       	breq	.+2      	; 0x23c6
    23c4:	3f cf       	rjmp	.-386    	; 0x2244
    23c6:	83 e0       	ldi	r24, 0x03	; 3
    23c8:	f5 2d       	mov	r31, r5
    23ca:	e4 2d       	mov	r30, r4
    23cc:	87 8b       	std	Z+23, r24	; 0x17
    23ce:	88 c0       	rjmp	.+272    	; 0x24e0
    23d0:	83 30       	cpi	r24, 0x03	; 3
    23d2:	09 f0       	breq	.+2      	; 0x23d6
    23d4:	85 c0       	rjmp	.+266    	; 0x24e0
    23d6:	80 91 72 02 	lds	r24, 0x0272
    23da:	99 27       	eor	r25, r25
    23dc:	08 2f       	mov	r16, r24
    23de:	19 2f       	mov	r17, r25
    23e0:	0e 0d       	add	r16, r14
    23e2:	1f 1d       	adc	r17, r15
    23e4:	28 2f       	mov	r18, r24
    23e6:	39 2f       	mov	r19, r25
    23e8:	80 17       	cp	r24, r16
    23ea:	91 07       	cpc	r25, r17
    23ec:	84 f5       	brge	.+96     	; 0x244e
    23ee:	48 2f       	mov	r20, r24
    23f0:	59 2f       	mov	r21, r25
    23f2:	48 0d       	add	r20, r8
    23f4:	59 1d       	adc	r21, r9
    23f6:	bd 2d       	mov	r27, r13
    23f8:	ac 2d       	mov	r26, r12
    23fa:	fc 81       	ldd	r31, Y+4	; 0x04
    23fc:	af 0f       	add	r26, r31
    23fe:	b1 1d       	adc	r27, r1
    2400:	a2 0f       	add	r26, r18
    2402:	b3 1f       	adc	r27, r19
    2404:	a6 0d       	add	r26, r6
    2406:	b7 1d       	adc	r27, r7
    2408:	80 91 72 02 	lds	r24, 0x0272
    240c:	73 2f       	mov	r23, r19
    240e:	62 2f       	mov	r22, r18
    2410:	68 1b       	sub	r22, r24
    2412:	71 09       	sbc	r23, r1
    2414:	6a 0d       	add	r22, r10
    2416:	7b 1d       	adc	r23, r11
    2418:	f5 2f       	mov	r31, r21
    241a:	e4 2f       	mov	r30, r20
    241c:	80 81       	ld	r24, Z
    241e:	f7 2f       	mov	r31, r23
    2420:	e6 2f       	mov	r30, r22
    2422:	90 81       	ld	r25, Z
    2424:	89 27       	eor	r24, r25
    2426:	8c 93       	st	X, r24
    2428:	80 91 72 02 	lds	r24, 0x0272
    242c:	f3 2f       	mov	r31, r19
    242e:	e2 2f       	mov	r30, r18
    2430:	e8 1b       	sub	r30, r24
    2432:	f1 09       	sbc	r31, r1
    2434:	ea 0d       	add	r30, r10
    2436:	fb 1d       	adc	r31, r11
    2438:	80 81       	ld	r24, Z
    243a:	f5 2f       	mov	r31, r21
    243c:	e4 2f       	mov	r30, r20
    243e:	81 93       	st	Z+, r24
    2440:	4e 2f       	mov	r20, r30
    2442:	5f 2f       	mov	r21, r31
    2444:	2f 5f       	subi	r18, 0xFF	; 255
    2446:	3f 4f       	sbci	r19, 0xFF	; 255
    2448:	20 17       	cp	r18, r16
    244a:	31 07       	cpc	r19, r17
    244c:	a4 f2       	brlt	.-88     	; 0x23f6
    244e:	00 91 6d 02 	lds	r16, 0x026D
    2452:	10 91 6e 02 	lds	r17, 0x026E
    2456:	0e 19       	sub	r16, r14
    2458:	1f 09       	sbc	r17, r15
    245a:	f5 2d       	mov	r31, r5
    245c:	e4 2d       	mov	r30, r4
    245e:	01 8b       	std	Z+17, r16	; 0x11
    2460:	12 8b       	std	Z+18, r17	; 0x12
    2462:	01 15       	cp	r16, r1
    2464:	11 05       	cpc	r17, r1
    2466:	39 f0       	breq	.+14     	; 0x2476
    2468:	80 91 72 02 	lds	r24, 0x0272
    246c:	8e 0d       	add	r24, r14
    246e:	86 8b       	std	Z+22, r24	; 0x16
    2470:	ee 24       	eor	r14, r14
    2472:	ff 24       	eor	r15, r15
    2474:	35 c0       	rjmp	.+106    	; 0x24e0
    2476:	c6 0c       	add	r12, r6
    2478:	d7 1c       	adc	r13, r7
    247a:	5d 2d       	mov	r21, r13
    247c:	4c 2d       	mov	r20, r12
    247e:	79 2d       	mov	r23, r9
    2480:	68 2d       	mov	r22, r8
    2482:	8c ed       	ldi	r24, 0xDC	; 220
    2484:	91 e0       	ldi	r25, 0x01	; 1
    2486:	0e 94 2e 16 	call	0x2c5c
    248a:	81 30       	cpi	r24, 0x01	; 1
    248c:	09 f0       	breq	.+2      	; 0x2490
    248e:	da ce       	rjmp	.-588    	; 0x2244
    2490:	fc 81       	ldd	r31, Y+4	; 0x04
    2492:	4f 2f       	mov	r20, r31
    2494:	55 27       	eor	r21, r21
    2496:	04 17       	cp	r16, r20
    2498:	15 07       	cpc	r17, r21
    249a:	6c f4       	brge	.+26     	; 0x24b6
    249c:	b3 2d       	mov	r27, r3
    249e:	a2 2d       	mov	r26, r2
    24a0:	fd 2d       	mov	r31, r13
    24a2:	ec 2d       	mov	r30, r12
    24a4:	24 2f       	mov	r18, r20
    24a6:	35 2f       	mov	r19, r21
    24a8:	80 81       	ld	r24, Z
    24aa:	9d 91       	ld	r25, X+
    24ac:	89 27       	eor	r24, r25
    24ae:	81 93       	st	Z+, r24
    24b0:	21 50       	subi	r18, 0x01	; 1
    24b2:	30 40       	sbci	r19, 0x00	; 0
    24b4:	c9 f7       	brne	.-14     	; 0x24a8
    24b6:	f5 2d       	mov	r31, r5
    24b8:	e4 2d       	mov	r30, r4
    24ba:	11 8a       	std	Z+17, r1	; 0x11
    24bc:	12 8a       	std	Z+18, r1	; 0x12
    24be:	4e 0d       	add	r20, r14
    24c0:	5f 1d       	adc	r21, r15
    24c2:	80 91 72 02 	lds	r24, 0x0272
    24c6:	48 0f       	add	r20, r24
    24c8:	51 1d       	adc	r21, r1
    24ca:	80 91 6f 02 	lds	r24, 0x026F
    24ce:	90 91 70 02 	lds	r25, 0x0270
    24d2:	84 0f       	add	r24, r20
    24d4:	95 1f       	adc	r25, r21
    24d6:	83 8b       	std	Z+19, r24	; 0x13
    24d8:	94 8b       	std	Z+20, r25	; 0x14
    24da:	89 83       	std	Y+1, r24	; 0x01
    24dc:	9a 83       	std	Y+2, r25	; 0x02
    24de:	0a c0       	rjmp	.+20     	; 0x24f4
    24e0:	e1 14       	cp	r14, r1
    24e2:	f1 04       	cpc	r15, r1
    24e4:	09 f0       	breq	.+2      	; 0x24e8
    24e6:	b5 ce       	rjmp	.-662    	; 0x2252
    24e8:	f5 2d       	mov	r31, r5
    24ea:	e4 2d       	mov	r30, r4
    24ec:	c3 8a       	std	Z+19, r12	; 0x13
    24ee:	d4 8a       	std	Z+20, r13	; 0x14
    24f0:	c9 82       	std	Y+1, r12	; 0x01
    24f2:	da 82       	std	Y+2, r13	; 0x02
    24f4:	81 e0       	ldi	r24, 0x01	; 1
    24f6:	90 e0       	ldi	r25, 0x00	; 0
    24f8:	18 2f       	mov	r17, r24
    24fa:	8f b7       	in	r24, 0x3f	; 63
    24fc:	f8 94       	cli
    24fe:	85 e1       	ldi	r24, 0x15	; 21
    2500:	80 93 77 03 	sts	0x0377, r24
    2504:	80 91 ce 02 	lds	r24, 0x02CE
    2508:	99 27       	eor	r25, r25
    250a:	20 91 7a 01 	lds	r18, 0x017A
    250e:	30 91 7b 01 	lds	r19, 0x017B
    2512:	49 81       	ldd	r20, Y+1	; 0x01
    2514:	5a 81       	ldd	r21, Y+2	; 0x02
    2516:	28 17       	cp	r18, r24
    2518:	39 07       	cpc	r19, r25
    251a:	24 f4       	brge	.+8      	; 0x2524
    251c:	48 17       	cp	r20, r24
    251e:	59 07       	cpc	r21, r25
    2520:	39 f4       	brne	.+14     	; 0x2530
    2522:	03 c0       	rjmp	.+6      	; 0x252a
    2524:	42 17       	cp	r20, r18
    2526:	53 07       	cpc	r21, r19
    2528:	19 f4       	brne	.+6      	; 0x2530
    252a:	84 e1       	ldi	r24, 0x14	; 20
    252c:	80 93 77 03 	sts	0x0377, r24
    2530:	0e 94 ca 0f 	call	0x1f94
    2534:	11 23       	and	r17, r17
    2536:	11 f0       	breq	.+4      	; 0x253c
    2538:	99 27       	eor	r25, r25
    253a:	02 c0       	rjmp	.+4      	; 0x2540
    253c:	80 e0       	ldi	r24, 0x00	; 0
    253e:	90 e0       	ldi	r25, 0x00	; 0
    2540:	99 27       	eor	r25, r25
    2542:	fb 81       	ldd	r31, Y+3	; 0x03
    2544:	ff 23       	and	r31, r31
    2546:	41 f4       	brne	.+16     	; 0x2558
    2548:	09 c0       	rjmp	.+18     	; 0x255c
    254a:	84 31       	cpi	r24, 0x14	; 20
    254c:	59 f4       	brne	.+22     	; 0x2564
    254e:	0e 94 6d 15 	call	0x2ada
    2552:	2b 81       	ldd	r18, Y+3	; 0x03
    2554:	22 23       	and	r18, r18
    2556:	11 f0       	breq	.+4      	; 0x255c
    2558:	99 27       	eor	r25, r25
    255a:	02 c0       	rjmp	.+4      	; 0x2560
    255c:	80 e0       	ldi	r24, 0x00	; 0
    255e:	90 e0       	ldi	r25, 0x00	; 0
    2560:	8b 83       	std	Y+3, r24	; 0x03
    2562:	03 c0       	rjmp	.+6      	; 0x256a
    2564:	80 e0       	ldi	r24, 0x00	; 0
    2566:	90 e0       	ldi	r25, 0x00	; 0
    2568:	03 c0       	rjmp	.+6      	; 0x2570
    256a:	6b 81       	ldd	r22, Y+3	; 0x03
    256c:	86 2f       	mov	r24, r22
    256e:	99 27       	eor	r25, r25
    2570:	24 96       	adiw	r28, 0x04	; 4
    2572:	0f b6       	in	r0, 0x3f	; 63
    2574:	f8 94       	cli
    2576:	de bf       	out	0x3e, r29	; 62
    2578:	0f be       	out	0x3f, r0	; 63
    257a:	cd bf       	out	0x3d, r28	; 61
    257c:	df 91       	pop	r29
    257e:	cf 91       	pop	r28
    2580:	1f 91       	pop	r17
    2582:	0f 91       	pop	r16
    2584:	ff 90       	pop	r15
    2586:	ef 90       	pop	r14
    2588:	df 90       	pop	r13
    258a:	cf 90       	pop	r12
    258c:	bf 90       	pop	r11
    258e:	af 90       	pop	r10
    2590:	9f 90       	pop	r9
    2592:	8f 90       	pop	r8
    2594:	7f 90       	pop	r7
    2596:	6f 90       	pop	r6
    2598:	5f 90       	pop	r5
    259a:	4f 90       	pop	r4
    259c:	3f 90       	pop	r3
    259e:	2f 90       	pop	r2
    25a0:	08 95       	ret

000025a2 <CBCMAC$MAC$initIncrementalMAC>:
    25a2:	0f 93       	push	r16
    25a4:	1f 93       	push	r17
    25a6:	cf 93       	push	r28
    25a8:	df 93       	push	r29
    25aa:	cd b7       	in	r28, 0x3d	; 61
    25ac:	de b7       	in	r29, 0x3e	; 62
    25ae:	28 97       	sbiw	r28, 0x08	; 8
    25b0:	0f b6       	in	r0, 0x3f	; 63
    25b2:	f8 94       	cli
    25b4:	de bf       	out	0x3e, r29	; 62
    25b6:	0f be       	out	0x3f, r0	; 63
    25b8:	cd bf       	out	0x3d, r28	; 61
    25ba:	b9 2f       	mov	r27, r25
    25bc:	a8 2f       	mov	r26, r24
    25be:	97 2f       	mov	r25, r23
    25c0:	86 2f       	mov	r24, r22
    25c2:	e3 e0       	ldi	r30, 0x03	; 3
    25c4:	96 95       	lsr	r25
    25c6:	87 95       	ror	r24
    25c8:	ea 95       	dec	r30
    25ca:	e1 f7       	brne	.-8      	; 0x25c4
    25cc:	0c 2f       	mov	r16, r28
    25ce:	1d 2f       	mov	r17, r29
    25d0:	0f 5f       	subi	r16, 0xFF	; 255
    25d2:	1f 4f       	sbci	r17, 0xFF	; 255
    25d4:	f1 2f       	mov	r31, r17
    25d6:	e0 2f       	mov	r30, r16
    25d8:	25 e0       	ldi	r18, 0x05	; 5
    25da:	30 e0       	ldi	r19, 0x00	; 0
    25dc:	11 92       	st	Z+, r1
    25de:	21 50       	subi	r18, 0x01	; 1
    25e0:	30 40       	sbci	r19, 0x00	; 0
    25e2:	9f ef       	ldi	r25, 0xFF	; 255
    25e4:	2f 3f       	cpi	r18, 0xFF	; 255
    25e6:	39 07       	cpc	r19, r25
    25e8:	c9 f7       	brne	.-14     	; 0x25dc
    25ea:	1f 82       	std	Y+7, r1	; 0x07
    25ec:	88 87       	std	Y+8, r24	; 0x08
    25ee:	fb 2f       	mov	r31, r27
    25f0:	ea 2f       	mov	r30, r26
    25f2:	e0 58       	subi	r30, 0x80	; 128
    25f4:	ff 4f       	sbci	r31, 0xFF	; 255
    25f6:	60 87       	std	Z+8, r22	; 0x08
    25f8:	71 87       	std	Z+9, r23	; 0x09
    25fa:	12 86       	std	Z+10, r1	; 0x0a
    25fc:	4e 2f       	mov	r20, r30
    25fe:	5f 2f       	mov	r21, r31
    2600:	71 2f       	mov	r23, r17
    2602:	60 2f       	mov	r22, r16
    2604:	8a 2f       	mov	r24, r26
    2606:	9b 2f       	mov	r25, r27
    2608:	0e 94 12 13 	call	0x2624
    260c:	99 27       	eor	r25, r25
    260e:	28 96       	adiw	r28, 0x08	; 8
    2610:	0f b6       	in	r0, 0x3f	; 63
    2612:	f8 94       	cli
    2614:	de bf       	out	0x3e, r29	; 62
    2616:	0f be       	out	0x3f, r0	; 63
    2618:	cd bf       	out	0x3d, r28	; 61
    261a:	df 91       	pop	r29
    261c:	cf 91       	pop	r28
    261e:	1f 91       	pop	r17
    2620:	0f 91       	pop	r16
    2622:	08 95       	ret

00002624 <SkipJackM$BlockCipher$encrypt>:
    2624:	8f 92       	push	r8
    2626:	9f 92       	push	r9
    2628:	af 92       	push	r10
    262a:	bf 92       	push	r11
    262c:	cf 92       	push	r12
    262e:	df 92       	push	r13
    2630:	ef 92       	push	r14
    2632:	ff 92       	push	r15
    2634:	0f 93       	push	r16
    2636:	1f 93       	push	r17
    2638:	cf 93       	push	r28
    263a:	df 93       	push	r29
    263c:	88 2e       	mov	r8, r24
    263e:	99 2e       	mov	r9, r25
    2640:	f7 2f       	mov	r31, r23
    2642:	e6 2f       	mov	r30, r22
    2644:	e4 2e       	mov	r14, r20
    2646:	f5 2e       	mov	r15, r21
    2648:	51 e0       	ldi	r21, 0x01	; 1
    264a:	b9 2f       	mov	r27, r25
    264c:	a8 2f       	mov	r26, r24
    264e:	80 81       	ld	r24, Z
    2650:	99 27       	eor	r25, r25
    2652:	78 2f       	mov	r23, r24
    2654:	66 27       	eor	r22, r22
    2656:	81 81       	ldd	r24, Z+1	; 0x01
    2658:	99 27       	eor	r25, r25
    265a:	68 2b       	or	r22, r24
    265c:	79 2b       	or	r23, r25
    265e:	32 96       	adiw	r30, 0x02	; 2
    2660:	80 81       	ld	r24, Z
    2662:	99 27       	eor	r25, r25
    2664:	38 2f       	mov	r19, r24
    2666:	22 27       	eor	r18, r18
    2668:	81 81       	ldd	r24, Z+1	; 0x01
    266a:	99 27       	eor	r25, r25
    266c:	28 2b       	or	r18, r24
    266e:	39 2b       	or	r19, r25
    2670:	32 96       	adiw	r30, 0x02	; 2
    2672:	80 81       	ld	r24, Z
    2674:	99 27       	eor	r25, r25
    2676:	18 2f       	mov	r17, r24
    2678:	00 27       	eor	r16, r16
    267a:	81 81       	ldd	r24, Z+1	; 0x01
    267c:	99 27       	eor	r25, r25
    267e:	08 2b       	or	r16, r24
    2680:	19 2b       	or	r17, r25
    2682:	32 96       	adiw	r30, 0x02	; 2
    2684:	80 81       	ld	r24, Z
    2686:	99 27       	eor	r25, r25
    2688:	d8 2e       	mov	r13, r24
    268a:	cc 24       	eor	r12, r12
    268c:	81 81       	ldd	r24, Z+1	; 0x01
    268e:	99 27       	eor	r25, r25
    2690:	c8 2a       	or	r12, r24
    2692:	d9 2a       	or	r13, r25
    2694:	41 e0       	ldi	r20, 0x01	; 1
    2696:	a4 2e       	mov	r10, r20
    2698:	b1 2c       	mov	r11, r1
    269a:	dd 2d       	mov	r29, r13
    269c:	cc 2d       	mov	r28, r12
    269e:	c0 2e       	mov	r12, r16
    26a0:	d1 2e       	mov	r13, r17
    26a2:	02 2f       	mov	r16, r18
    26a4:	13 2f       	mov	r17, r19
    26a6:	87 2f       	mov	r24, r23
    26a8:	99 27       	eor	r25, r25
    26aa:	98 2f       	mov	r25, r24
    26ac:	46 2f       	mov	r20, r22
    26ae:	8c 91       	ld	r24, X
    26b0:	86 27       	eor	r24, r22
    26b2:	e8 2f       	mov	r30, r24
    26b4:	ff 27       	eor	r31, r31
    26b6:	eb 59       	subi	r30, 0x9B	; 155
    26b8:	ff 4f       	sbci	r31, 0xFF	; 255
    26ba:	80 81       	ld	r24, Z
    26bc:	98 27       	eor	r25, r24
    26be:	11 96       	adiw	r26, 0x01	; 1
    26c0:	8c 91       	ld	r24, X
    26c2:	11 97       	sbiw	r26, 0x01	; 1
    26c4:	89 27       	eor	r24, r25
    26c6:	e8 2f       	mov	r30, r24
    26c8:	ff 27       	eor	r31, r31
    26ca:	eb 59       	subi	r30, 0x9B	; 155
    26cc:	ff 4f       	sbci	r31, 0xFF	; 255
    26ce:	80 81       	ld	r24, Z
    26d0:	48 27       	eor	r20, r24
    26d2:	12 96       	adiw	r26, 0x02	; 2
    26d4:	8c 91       	ld	r24, X
    26d6:	12 97       	sbiw	r26, 0x02	; 2
    26d8:	84 27       	eor	r24, r20
    26da:	e8 2f       	mov	r30, r24
    26dc:	ff 27       	eor	r31, r31
    26de:	eb 59       	subi	r30, 0x9B	; 155
    26e0:	ff 4f       	sbci	r31, 0xFF	; 255
    26e2:	80 81       	ld	r24, Z
    26e4:	98 27       	eor	r25, r24
    26e6:	13 96       	adiw	r26, 0x03	; 3
    26e8:	8c 91       	ld	r24, X
    26ea:	13 97       	sbiw	r26, 0x03	; 3
    26ec:	89 27       	eor	r24, r25
    26ee:	e8 2f       	mov	r30, r24
    26f0:	ff 27       	eor	r31, r31
    26f2:	eb 59       	subi	r30, 0x9B	; 155
    26f4:	ff 4f       	sbci	r31, 0xFF	; 255
    26f6:	80 81       	ld	r24, Z
    26f8:	48 27       	eor	r20, r24
    26fa:	89 2f       	mov	r24, r25
    26fc:	99 27       	eor	r25, r25
    26fe:	38 2f       	mov	r19, r24
    2700:	22 27       	eor	r18, r18
    2702:	84 2f       	mov	r24, r20
    2704:	99 27       	eor	r25, r25
    2706:	28 2b       	or	r18, r24
    2708:	39 2b       	or	r19, r25
    270a:	6c 2f       	mov	r22, r28
    270c:	7d 2f       	mov	r23, r29
    270e:	62 27       	eor	r22, r18
    2710:	73 27       	eor	r23, r19
    2712:	6a 25       	eor	r22, r10
    2714:	7b 25       	eor	r23, r11
    2716:	5f 5f       	subi	r21, 0xFF	; 255
    2718:	08 94       	sec
    271a:	a1 1c       	adc	r10, r1
    271c:	b1 1c       	adc	r11, r1
    271e:	14 96       	adiw	r26, 0x04	; 4
    2720:	59 30       	cpi	r21, 0x09	; 9
    2722:	08 f4       	brcc	.+2      	; 0x2726
    2724:	ba cf       	rjmp	.-140    	; 0x269a
    2726:	b9 2d       	mov	r27, r9
    2728:	a8 2d       	mov	r26, r8
    272a:	90 96       	adiw	r26, 0x20	; 32
    272c:	59 e0       	ldi	r21, 0x09	; 9
    272e:	d7 2f       	mov	r29, r23
    2730:	c6 2f       	mov	r28, r22
    2732:	7d 2d       	mov	r23, r13
    2734:	6c 2d       	mov	r22, r12
    2736:	c0 2e       	mov	r12, r16
    2738:	d1 2e       	mov	r13, r17
    273a:	0c 2f       	mov	r16, r28
    273c:	1d 2f       	mov	r17, r29
    273e:	02 27       	eor	r16, r18
    2740:	13 27       	eor	r17, r19
    2742:	85 2f       	mov	r24, r21
    2744:	99 27       	eor	r25, r25
    2746:	08 27       	eor	r16, r24
    2748:	19 27       	eor	r17, r25
    274a:	8d 2f       	mov	r24, r29
    274c:	99 27       	eor	r25, r25
    274e:	98 2f       	mov	r25, r24
    2750:	4c 2f       	mov	r20, r28
    2752:	8c 91       	ld	r24, X
    2754:	8c 27       	eor	r24, r28
    2756:	e8 2f       	mov	r30, r24
    2758:	ff 27       	eor	r31, r31
    275a:	eb 59       	subi	r30, 0x9B	; 155
    275c:	ff 4f       	sbci	r31, 0xFF	; 255
    275e:	80 81       	ld	r24, Z
    2760:	98 27       	eor	r25, r24
    2762:	11 96       	adiw	r26, 0x01	; 1
    2764:	8c 91       	ld	r24, X
    2766:	11 97       	sbiw	r26, 0x01	; 1
    2768:	89 27       	eor	r24, r25
    276a:	e8 2f       	mov	r30, r24
    276c:	ff 27       	eor	r31, r31
    276e:	eb 59       	subi	r30, 0x9B	; 155
    2770:	ff 4f       	sbci	r31, 0xFF	; 255
    2772:	80 81       	ld	r24, Z
    2774:	48 27       	eor	r20, r24
    2776:	12 96       	adiw	r26, 0x02	; 2
    2778:	8c 91       	ld	r24, X
    277a:	12 97       	sbiw	r26, 0x02	; 2
    277c:	84 27       	eor	r24, r20
    277e:	e8 2f       	mov	r30, r24
    2780:	ff 27       	eor	r31, r31
    2782:	eb 59       	subi	r30, 0x9B	; 155
    2784:	ff 4f       	sbci	r31, 0xFF	; 255
    2786:	80 81       	ld	r24, Z
    2788:	98 27       	eor	r25, r24
    278a:	13 96       	adiw	r26, 0x03	; 3
    278c:	8c 91       	ld	r24, X
    278e:	13 97       	sbiw	r26, 0x03	; 3
    2790:	89 27       	eor	r24, r25
    2792:	e8 2f       	mov	r30, r24
    2794:	ff 27       	eor	r31, r31
    2796:	eb 59       	subi	r30, 0x9B	; 155
    2798:	ff 4f       	sbci	r31, 0xFF	; 255
    279a:	80 81       	ld	r24, Z
    279c:	48 27       	eor	r20, r24
    279e:	89 2f       	mov	r24, r25
    27a0:	99 27       	eor	r25, r25
    27a2:	38 2f       	mov	r19, r24
    27a4:	22 27       	eor	r18, r18
    27a6:	84 2f       	mov	r24, r20
    27a8:	99 27       	eor	r25, r25
    27aa:	28 2b       	or	r18, r24
    27ac:	39 2b       	or	r19, r25
    27ae:	5f 5f       	subi	r21, 0xFF	; 255
    27b0:	14 96       	adiw	r26, 0x04	; 4
    27b2:	51 31       	cpi	r21, 0x11	; 17
    27b4:	08 f4       	brcc	.+2      	; 0x27b8
    27b6:	bb cf       	rjmp	.-138    	; 0x272e
    27b8:	59 31       	cpi	r21, 0x19	; 25
    27ba:	08 f0       	brcs	.+2      	; 0x27be
    27bc:	45 c0       	rjmp	.+138    	; 0x2848
    27be:	dd 2d       	mov	r29, r13
    27c0:	cc 2d       	mov	r28, r12
    27c2:	c0 2e       	mov	r12, r16
    27c4:	d1 2e       	mov	r13, r17
    27c6:	02 2f       	mov	r16, r18
    27c8:	13 2f       	mov	r17, r19
    27ca:	87 2f       	mov	r24, r23
    27cc:	99 27       	eor	r25, r25
    27ce:	98 2f       	mov	r25, r24
    27d0:	46 2f       	mov	r20, r22
    27d2:	8c 91       	ld	r24, X
    27d4:	86 27       	eor	r24, r22
    27d6:	e8 2f       	mov	r30, r24
    27d8:	ff 27       	eor	r31, r31
    27da:	eb 59       	subi	r30, 0x9B	; 155
    27dc:	ff 4f       	sbci	r31, 0xFF	; 255
    27de:	80 81       	ld	r24, Z
    27e0:	98 27       	eor	r25, r24
    27e2:	11 96       	adiw	r26, 0x01	; 1
    27e4:	8c 91       	ld	r24, X
    27e6:	11 97       	sbiw	r26, 0x01	; 1
    27e8:	89 27       	eor	r24, r25
    27ea:	e8 2f       	mov	r30, r24
    27ec:	ff 27       	eor	r31, r31
    27ee:	eb 59       	subi	r30, 0x9B	; 155
    27f0:	ff 4f       	sbci	r31, 0xFF	; 255
    27f2:	80 81       	ld	r24, Z
    27f4:	48 27       	eor	r20, r24
    27f6:	12 96       	adiw	r26, 0x02	; 2
    27f8:	8c 91       	ld	r24, X
    27fa:	12 97       	sbiw	r26, 0x02	; 2
    27fc:	84 27       	eor	r24, r20
    27fe:	e8 2f       	mov	r30, r24
    2800:	ff 27       	eor	r31, r31
    2802:	eb 59       	subi	r30, 0x9B	; 155
    2804:	ff 4f       	sbci	r31, 0xFF	; 255
    2806:	80 81       	ld	r24, Z
    2808:	98 27       	eor	r25, r24
    280a:	13 96       	adiw	r26, 0x03	; 3
    280c:	8c 91       	ld	r24, X
    280e:	13 97       	sbiw	r26, 0x03	; 3
    2810:	89 27       	eor	r24, r25
    2812:	e8 2f       	mov	r30, r24
    2814:	ff 27       	eor	r31, r31
    2816:	eb 59       	subi	r30, 0x9B	; 155
    2818:	ff 4f       	sbci	r31, 0xFF	; 255
    281a:	80 81       	ld	r24, Z
    281c:	48 27       	eor	r20, r24
    281e:	89 2f       	mov	r24, r25
    2820:	99 27       	eor	r25, r25
    2822:	38 2f       	mov	r19, r24
    2824:	22 27       	eor	r18, r18
    2826:	84 2f       	mov	r24, r20
    2828:	99 27       	eor	r25, r25
    282a:	28 2b       	or	r18, r24
    282c:	39 2b       	or	r19, r25
    282e:	6c 2f       	mov	r22, r28
    2830:	7d 2f       	mov	r23, r29
    2832:	62 27       	eor	r22, r18
    2834:	73 27       	eor	r23, r19
    2836:	85 2f       	mov	r24, r21
    2838:	99 27       	eor	r25, r25
    283a:	68 27       	eor	r22, r24
    283c:	79 27       	eor	r23, r25
    283e:	5f 5f       	subi	r21, 0xFF	; 255
    2840:	14 96       	adiw	r26, 0x04	; 4
    2842:	59 31       	cpi	r21, 0x19	; 25
    2844:	08 f4       	brcc	.+2      	; 0x2848
    2846:	bb cf       	rjmp	.-138    	; 0x27be
    2848:	51 32       	cpi	r21, 0x21	; 33
    284a:	08 f0       	brcs	.+2      	; 0x284e
    284c:	45 c0       	rjmp	.+138    	; 0x28d8
    284e:	d7 2f       	mov	r29, r23
    2850:	c6 2f       	mov	r28, r22
    2852:	7d 2d       	mov	r23, r13
    2854:	6c 2d       	mov	r22, r12
    2856:	c0 2e       	mov	r12, r16
    2858:	d1 2e       	mov	r13, r17
    285a:	0c 2f       	mov	r16, r28
    285c:	1d 2f       	mov	r17, r29
    285e:	02 27       	eor	r16, r18
    2860:	13 27       	eor	r17, r19
    2862:	85 2f       	mov	r24, r21
    2864:	99 27       	eor	r25, r25
    2866:	08 27       	eor	r16, r24
    2868:	19 27       	eor	r17, r25
    286a:	8d 2f       	mov	r24, r29
    286c:	99 27       	eor	r25, r25
    286e:	98 2f       	mov	r25, r24
    2870:	4c 2f       	mov	r20, r28
    2872:	8c 91       	ld	r24, X
    2874:	8c 27       	eor	r24, r28
    2876:	e8 2f       	mov	r30, r24
    2878:	ff 27       	eor	r31, r31
    287a:	eb 59       	subi	r30, 0x9B	; 155
    287c:	ff 4f       	sbci	r31, 0xFF	; 255
    287e:	80 81       	ld	r24, Z
    2880:	98 27       	eor	r25, r24
    2882:	11 96       	adiw	r26, 0x01	; 1
    2884:	8c 91       	ld	r24, X
    2886:	11 97       	sbiw	r26, 0x01	; 1
    2888:	89 27       	eor	r24, r25
    288a:	e8 2f       	mov	r30, r24
    288c:	ff 27       	eor	r31, r31
    288e:	eb 59       	subi	r30, 0x9B	; 155
    2890:	ff 4f       	sbci	r31, 0xFF	; 255
    2892:	80 81       	ld	r24, Z
    2894:	48 27       	eor	r20, r24
    2896:	12 96       	adiw	r26, 0x02	; 2
    2898:	8c 91       	ld	r24, X
    289a:	12 97       	sbiw	r26, 0x02	; 2
    289c:	84 27       	eor	r24, r20
    289e:	e8 2f       	mov	r30, r24
    28a0:	ff 27       	eor	r31, r31
    28a2:	eb 59       	subi	r30, 0x9B	; 155
    28a4:	ff 4f       	sbci	r31, 0xFF	; 255
    28a6:	80 81       	ld	r24, Z
    28a8:	98 27       	eor	r25, r24
    28aa:	13 96       	adiw	r26, 0x03	; 3
    28ac:	8c 91       	ld	r24, X
    28ae:	13 97       	sbiw	r26, 0x03	; 3
    28b0:	89 27       	eor	r24, r25
    28b2:	e8 2f       	mov	r30, r24
    28b4:	ff 27       	eor	r31, r31
    28b6:	eb 59       	subi	r30, 0x9B	; 155
    28b8:	ff 4f       	sbci	r31, 0xFF	; 255
    28ba:	80 81       	ld	r24, Z
    28bc:	48 27       	eor	r20, r24
    28be:	89 2f       	mov	r24, r25
    28c0:	99 27       	eor	r25, r25
    28c2:	38 2f       	mov	r19, r24
    28c4:	22 27       	eor	r18, r18
    28c6:	84 2f       	mov	r24, r20
    28c8:	99 27       	eor	r25, r25
    28ca:	28 2b       	or	r18, r24
    28cc:	39 2b       	or	r19, r25
    28ce:	5f 5f       	subi	r21, 0xFF	; 255
    28d0:	14 96       	adiw	r26, 0x04	; 4
    28d2:	51 32       	cpi	r21, 0x21	; 33
    28d4:	08 f4       	brcc	.+2      	; 0x28d8
    28d6:	bb cf       	rjmp	.-138    	; 0x284e
    28d8:	87 2f       	mov	r24, r23
    28da:	99 27       	eor	r25, r25
    28dc:	ff 2d       	mov	r31, r15
    28de:	ee 2d       	mov	r30, r14
    28e0:	80 83       	st	Z, r24
    28e2:	61 83       	std	Z+1, r22	; 0x01
    28e4:	82 e0       	ldi	r24, 0x02	; 2
    28e6:	90 e0       	ldi	r25, 0x00	; 0
    28e8:	e8 0e       	add	r14, r24
    28ea:	f9 1e       	adc	r15, r25
    28ec:	83 2f       	mov	r24, r19
    28ee:	99 27       	eor	r25, r25
    28f0:	ff 2d       	mov	r31, r15
    28f2:	ee 2d       	mov	r30, r14
    28f4:	80 83       	st	Z, r24
    28f6:	21 83       	std	Z+1, r18	; 0x01
    28f8:	82 e0       	ldi	r24, 0x02	; 2
    28fa:	90 e0       	ldi	r25, 0x00	; 0
    28fc:	e8 0e       	add	r14, r24
    28fe:	f9 1e       	adc	r15, r25
    2900:	81 2f       	mov	r24, r17
    2902:	99 27       	eor	r25, r25
    2904:	ff 2d       	mov	r31, r15
    2906:	ee 2d       	mov	r30, r14
    2908:	80 83       	st	Z, r24
    290a:	01 83       	std	Z+1, r16	; 0x01
    290c:	82 e0       	ldi	r24, 0x02	; 2
    290e:	90 e0       	ldi	r25, 0x00	; 0
    2910:	e8 0e       	add	r14, r24
    2912:	f9 1e       	adc	r15, r25
    2914:	8d 2d       	mov	r24, r13
    2916:	99 27       	eor	r25, r25
    2918:	ff 2d       	mov	r31, r15
    291a:	ee 2d       	mov	r30, r14
    291c:	80 83       	st	Z, r24
    291e:	c1 82       	std	Z+1, r12	; 0x01
    2920:	81 e0       	ldi	r24, 0x01	; 1
    2922:	90 e0       	ldi	r25, 0x00	; 0
    2924:	df 91       	pop	r29
    2926:	cf 91       	pop	r28
    2928:	1f 91       	pop	r17
    292a:	0f 91       	pop	r16
    292c:	ff 90       	pop	r15
    292e:	ef 90       	pop	r14
    2930:	df 90       	pop	r13
    2932:	cf 90       	pop	r12
    2934:	bf 90       	pop	r11
    2936:	af 90       	pop	r10
    2938:	9f 90       	pop	r9
    293a:	8f 90       	pop	r8
    293c:	08 95       	ret

0000293e <CBCMAC$MAC$incrementalMAC>:
    293e:	af 92       	push	r10
    2940:	bf 92       	push	r11
    2942:	cf 92       	push	r12
    2944:	df 92       	push	r13
    2946:	ff 92       	push	r15
    2948:	0f 93       	push	r16
    294a:	1f 93       	push	r17
    294c:	cf 93       	push	r28
    294e:	df 93       	push	r29
    2950:	c8 2e       	mov	r12, r24
    2952:	d9 2e       	mov	r13, r25
    2954:	a6 2e       	mov	r10, r22
    2956:	b7 2e       	mov	r11, r23
    2958:	04 2f       	mov	r16, r20
    295a:	15 2f       	mov	r17, r21
    295c:	d9 2f       	mov	r29, r25
    295e:	c8 2f       	mov	r28, r24
    2960:	c0 58       	subi	r28, 0x80	; 128
    2962:	df 4f       	sbci	r29, 0xFF	; 255
    2964:	2a 85       	ldd	r18, Y+10	; 0x0a
    2966:	88 85       	ldd	r24, Y+8	; 0x08
    2968:	99 85       	ldd	r25, Y+9	; 0x09
    296a:	84 17       	cp	r24, r20
    296c:	95 07       	cpc	r25, r21
    296e:	18 f4       	brcc	.+6      	; 0x2976
    2970:	80 e0       	ldi	r24, 0x00	; 0
    2972:	90 e0       	ldi	r25, 0x00	; 0
    2974:	2c c0       	rjmp	.+88     	; 0x29ce
    2976:	ff 24       	eor	r15, r15
    2978:	45 2b       	or	r20, r21
    297a:	01 f1       	breq	.+64     	; 0x29bc
    297c:	ac 2f       	mov	r26, r28
    297e:	bd 2f       	mov	r27, r29
    2980:	a2 0f       	add	r26, r18
    2982:	b1 1d       	adc	r27, r1
    2984:	fb 2d       	mov	r31, r11
    2986:	ea 2d       	mov	r30, r10
    2988:	ef 0d       	add	r30, r15
    298a:	f1 1d       	adc	r31, r1
    298c:	8c 91       	ld	r24, X
    298e:	90 81       	ld	r25, Z
    2990:	89 27       	eor	r24, r25
    2992:	8c 93       	st	X, r24
    2994:	2f 5f       	subi	r18, 0xFF	; 255
    2996:	27 30       	cpi	r18, 0x07	; 7
    2998:	59 f4       	brne	.+22     	; 0x29b0
    299a:	4c 2f       	mov	r20, r28
    299c:	5d 2f       	mov	r21, r29
    299e:	6c 2f       	mov	r22, r28
    29a0:	7d 2f       	mov	r23, r29
    29a2:	9d 2d       	mov	r25, r13
    29a4:	8c 2d       	mov	r24, r12
    29a6:	0e 94 12 13 	call	0x2624
    29aa:	88 23       	and	r24, r24
    29ac:	09 f3       	breq	.-62     	; 0x2970
    29ae:	20 e0       	ldi	r18, 0x00	; 0
    29b0:	f3 94       	inc	r15
    29b2:	8f 2d       	mov	r24, r15
    29b4:	99 27       	eor	r25, r25
    29b6:	80 17       	cp	r24, r16
    29b8:	91 07       	cpc	r25, r17
    29ba:	00 f3       	brcs	.-64     	; 0x297c
    29bc:	88 85       	ldd	r24, Y+8	; 0x08
    29be:	99 85       	ldd	r25, Y+9	; 0x09
    29c0:	80 1b       	sub	r24, r16
    29c2:	91 0b       	sbc	r25, r17
    29c4:	88 87       	std	Y+8, r24	; 0x08
    29c6:	99 87       	std	Y+9, r25	; 0x09
    29c8:	2a 87       	std	Y+10, r18	; 0x0a
    29ca:	81 e0       	ldi	r24, 0x01	; 1
    29cc:	90 e0       	ldi	r25, 0x00	; 0
    29ce:	df 91       	pop	r29
    29d0:	cf 91       	pop	r28
    29d2:	1f 91       	pop	r17
    29d4:	0f 91       	pop	r16
    29d6:	ff 90       	pop	r15
    29d8:	df 90       	pop	r13
    29da:	cf 90       	pop	r12
    29dc:	bf 90       	pop	r11
    29de:	af 90       	pop	r10
    29e0:	08 95       	ret

000029e2 <CBCMAC$MAC$getIncrementalMAC>:
    29e2:	df 92       	push	r13
    29e4:	ef 92       	push	r14
    29e6:	ff 92       	push	r15
    29e8:	0f 93       	push	r16
    29ea:	1f 93       	push	r17
    29ec:	cf 93       	push	r28
    29ee:	df 93       	push	r29
    29f0:	28 2f       	mov	r18, r24
    29f2:	39 2f       	mov	r19, r25
    29f4:	e6 2e       	mov	r14, r22
    29f6:	f7 2e       	mov	r15, r23
    29f8:	d4 2e       	mov	r13, r20
    29fa:	d9 2f       	mov	r29, r25
    29fc:	c8 2f       	mov	r28, r24
    29fe:	c0 58       	subi	r28, 0x80	; 128
    2a00:	df 4f       	sbci	r29, 0xFF	; 255
    2a02:	9a 85       	ldd	r25, Y+10	; 0x0a
    2a04:	84 2f       	mov	r24, r20
    2a06:	81 50       	subi	r24, 0x01	; 1
    2a08:	88 30       	cpi	r24, 0x08	; 8
    2a0a:	28 f4       	brcc	.+10     	; 0x2a16
    2a0c:	08 85       	ldd	r16, Y+8	; 0x08
    2a0e:	19 85       	ldd	r17, Y+9	; 0x09
    2a10:	01 15       	cp	r16, r1
    2a12:	11 05       	cpc	r17, r1
    2a14:	19 f0       	breq	.+6      	; 0x2a1c
    2a16:	80 e0       	ldi	r24, 0x00	; 0
    2a18:	90 e0       	ldi	r25, 0x00	; 0
    2a1a:	25 c0       	rjmp	.+74     	; 0x2a66
    2a1c:	99 23       	and	r25, r25
    2a1e:	b9 f0       	breq	.+46     	; 0x2a4e
    2a20:	9f 5f       	subi	r25, 0xFF	; 255
    2a22:	fd 2f       	mov	r31, r29
    2a24:	ec 2f       	mov	r30, r28
    2a26:	e9 0f       	add	r30, r25
    2a28:	f1 1d       	adc	r31, r1
    2a2a:	80 81       	ld	r24, Z
    2a2c:	91 e0       	ldi	r25, 0x01	; 1
    2a2e:	89 27       	eor	r24, r25
    2a30:	80 83       	st	Z, r24
    2a32:	4c 2f       	mov	r20, r28
    2a34:	5d 2f       	mov	r21, r29
    2a36:	6c 2f       	mov	r22, r28
    2a38:	7d 2f       	mov	r23, r29
    2a3a:	93 2f       	mov	r25, r19
    2a3c:	82 2f       	mov	r24, r18
    2a3e:	0e 94 12 13 	call	0x2624
    2a42:	88 23       	and	r24, r24
    2a44:	19 f4       	brne	.+6      	; 0x2a4c
    2a46:	91 2f       	mov	r25, r17
    2a48:	80 2f       	mov	r24, r16
    2a4a:	0d c0       	rjmp	.+26     	; 0x2a66
    2a4c:	1a 86       	std	Y+10, r1	; 0x0a
    2a4e:	8d 2d       	mov	r24, r13
    2a50:	99 27       	eor	r25, r25
    2a52:	48 2f       	mov	r20, r24
    2a54:	59 2f       	mov	r21, r25
    2a56:	6c 2f       	mov	r22, r28
    2a58:	7d 2f       	mov	r23, r29
    2a5a:	9f 2d       	mov	r25, r15
    2a5c:	8e 2d       	mov	r24, r14
    2a5e:	0e 94 d3 03 	call	0x7a6
    2a62:	81 e0       	ldi	r24, 0x01	; 1
    2a64:	90 e0       	ldi	r25, 0x00	; 0
    2a66:	df 91       	pop	r29
    2a68:	cf 91       	pop	r28
    2a6a:	1f 91       	pop	r17
    2a6c:	0f 91       	pop	r16
    2a6e:	ff 90       	pop	r15
    2a70:	ef 90       	pop	r14
    2a72:	df 90       	pop	r13
    2a74:	08 95       	ret

00002a76 <TinySecM$verifyMAC>:
    2a76:	80 91 8c 02 	lds	r24, 0x028C
    2a7a:	88 23       	and	r24, r24
    2a7c:	49 f0       	breq	.+18     	; 0x2a90
    2a7e:	a0 91 9f 02 	lds	r26, 0x029F
    2a82:	b0 91 a0 02 	lds	r27, 0x02A0
    2a86:	d0 96       	adiw	r26, 0x30	; 48
    2a88:	8c 91       	ld	r24, X
    2a8a:	d0 97       	sbiw	r26, 0x30	; 48
    2a8c:	88 23       	and	r24, r24
    2a8e:	71 f4       	brne	.+28     	; 0x2aac
    2a90:	80 e0       	ldi	r24, 0x00	; 0
    2a92:	90 e0       	ldi	r25, 0x00	; 0
    2a94:	08 95       	ret
    2a96:	d0 96       	adiw	r26, 0x30	; 48
    2a98:	1c 92       	st	X, r1
    2a9a:	e0 91 a1 02 	lds	r30, 0x02A1
    2a9e:	f0 91 a2 02 	lds	r31, 0x02A2
    2aa2:	12 a2       	std	Z+34, r1	; 0x22
    2aa4:	13 a2       	std	Z+35, r1	; 0x23
    2aa6:	81 e0       	ldi	r24, 0x01	; 1
    2aa8:	90 e0       	ldi	r25, 0x00	; 0
    2aaa:	08 95       	ret
    2aac:	fb 2f       	mov	r31, r27
    2aae:	ea 2f       	mov	r30, r26
    2ab0:	2a 2f       	mov	r18, r26
    2ab2:	3b 2f       	mov	r19, r27
    2ab4:	2d 5f       	subi	r18, 0xFD	; 253
    2ab6:	3f 4f       	sbci	r19, 0xFF	; 255
    2ab8:	91 a5       	ldd	r25, Z+41	; 0x29
    2aba:	85 a1       	ldd	r24, Z+37	; 0x25
    2abc:	98 17       	cp	r25, r24
    2abe:	59 f7       	brne	.-42     	; 0x2a96
    2ac0:	31 96       	adiw	r30, 0x01	; 1
    2ac2:	2e 17       	cp	r18, r30
    2ac4:	3f 07       	cpc	r19, r31
    2ac6:	c4 f7       	brge	.-16     	; 0x2ab8
    2ac8:	e0 91 a1 02 	lds	r30, 0x02A1
    2acc:	f0 91 a2 02 	lds	r31, 0x02A2
    2ad0:	81 e0       	ldi	r24, 0x01	; 1
    2ad2:	90 e0       	ldi	r25, 0x00	; 0
    2ad4:	82 a3       	std	Z+34, r24	; 0x22
    2ad6:	93 a3       	std	Z+35, r25	; 0x23
    2ad8:	08 95       	ret

00002ada <TinySecM$decryptIncrementalInit>:
    2ada:	0f 93       	push	r16
    2adc:	1f 93       	push	r17
    2ade:	cf 93       	push	r28
    2ae0:	df 93       	push	r29
    2ae2:	cd b7       	in	r28, 0x3d	; 61
    2ae4:	de b7       	in	r29, 0x3e	; 62
    2ae6:	60 97       	sbiw	r28, 0x10	; 16
    2ae8:	0f b6       	in	r0, 0x3f	; 63
    2aea:	f8 94       	cli
    2aec:	de bf       	out	0x3e, r29	; 62
    2aee:	0f be       	out	0x3f, r0	; 63
    2af0:	cd bf       	out	0x3d, r28	; 61
    2af2:	04 e0       	ldi	r16, 0x04	; 4
    2af4:	10 e0       	ldi	r17, 0x00	; 0
    2af6:	10 92 7e 01 	sts	0x017E, r1
    2afa:	80 91 77 03 	lds	r24, 0x0377
    2afe:	84 31       	cpi	r24, 0x14	; 20
    2b00:	21 f4       	brne	.+8      	; 0x2b0a
    2b02:	80 91 8c 02 	lds	r24, 0x028C
    2b06:	88 23       	and	r24, r24
    2b08:	19 f4       	brne	.+6      	; 0x2b10
    2b0a:	80 e0       	ldi	r24, 0x00	; 0
    2b0c:	90 e0       	ldi	r25, 0x00	; 0
    2b0e:	5d c0       	rjmp	.+186    	; 0x2bca
    2b10:	86 e1       	ldi	r24, 0x16	; 22
    2b12:	80 93 77 03 	sts	0x0377, r24
    2b16:	78 94       	sei
    2b18:	80 91 ce 02 	lds	r24, 0x02CE
    2b1c:	99 27       	eor	r25, r25
    2b1e:	04 97       	sbiw	r24, 0x04	; 4
    2b20:	80 17       	cp	r24, r16
    2b22:	91 07       	cpc	r25, r17
    2b24:	10 f4       	brcc	.+4      	; 0x2b2a
    2b26:	08 2f       	mov	r16, r24
    2b28:	19 2f       	mov	r17, r25
    2b2a:	80 91 9f 02 	lds	r24, 0x029F
    2b2e:	90 91 a0 02 	lds	r25, 0x02A0
    2b32:	04 96       	adiw	r24, 0x04	; 4
    2b34:	44 e0       	ldi	r20, 0x04	; 4
    2b36:	50 e0       	ldi	r21, 0x00	; 0
    2b38:	68 2f       	mov	r22, r24
    2b3a:	79 2f       	mov	r23, r25
    2b3c:	8c 2f       	mov	r24, r28
    2b3e:	9d 2f       	mov	r25, r29
    2b40:	01 96       	adiw	r24, 0x01	; 1
    2b42:	0e 94 d3 03 	call	0x7a6
    2b46:	51 2f       	mov	r21, r17
    2b48:	40 2f       	mov	r20, r16
    2b4a:	60 91 9f 02 	lds	r22, 0x029F
    2b4e:	70 91 a0 02 	lds	r23, 0x02A0
    2b52:	8c 2f       	mov	r24, r28
    2b54:	9d 2f       	mov	r25, r29
    2b56:	05 96       	adiw	r24, 0x05	; 5
    2b58:	0e 94 d3 03 	call	0x7a6
    2b5c:	51 2f       	mov	r21, r17
    2b5e:	40 2f       	mov	r20, r16
    2b60:	4c 5f       	subi	r20, 0xFC	; 252
    2b62:	5f 4f       	sbci	r21, 0xFF	; 255
    2b64:	20 91 ce 02 	lds	r18, 0x02CE
    2b68:	82 2f       	mov	r24, r18
    2b6a:	99 27       	eor	r25, r25
    2b6c:	48 17       	cp	r20, r24
    2b6e:	59 07       	cpc	r21, r25
    2b70:	54 f4       	brge	.+20     	; 0x2b86
    2b72:	fd 2f       	mov	r31, r29
    2b74:	ec 2f       	mov	r30, r28
    2b76:	e4 0f       	add	r30, r20
    2b78:	f5 1f       	adc	r31, r21
    2b7a:	11 82       	std	Z+1, r1	; 0x01
    2b7c:	4f 5f       	subi	r20, 0xFF	; 255
    2b7e:	5f 4f       	sbci	r21, 0xFF	; 255
    2b80:	48 17       	cp	r20, r24
    2b82:	59 07       	cpc	r21, r25
    2b84:	b4 f3       	brlt	.-20     	; 0x2b72
    2b86:	82 2f       	mov	r24, r18
    2b88:	99 27       	eor	r25, r25
    2b8a:	40 91 7a 01 	lds	r20, 0x017A
    2b8e:	50 91 7b 01 	lds	r21, 0x017B
    2b92:	6c 2f       	mov	r22, r28
    2b94:	7d 2f       	mov	r23, r29
    2b96:	6f 5f       	subi	r22, 0xFF	; 255
    2b98:	7f 4f       	sbci	r23, 0xFF	; 255
    2b9a:	48 17       	cp	r20, r24
    2b9c:	59 07       	cpc	r21, r25
    2b9e:	14 f4       	brge	.+4      	; 0x2ba4
    2ba0:	48 2f       	mov	r20, r24
    2ba2:	59 2f       	mov	r21, r25
    2ba4:	8c ed       	ldi	r24, 0xDC	; 220
    2ba6:	91 e0       	ldi	r25, 0x01	; 1
    2ba8:	0e 94 f0 15 	call	0x2be0
    2bac:	18 2f       	mov	r17, r24
    2bae:	8f b7       	in	r24, 0x3f	; 63
    2bb0:	f8 94       	cli
    2bb2:	85 e1       	ldi	r24, 0x15	; 21
    2bb4:	80 93 77 03 	sts	0x0377, r24
    2bb8:	0e 94 ca 0f 	call	0x1f94
    2bbc:	11 23       	and	r17, r17
    2bbe:	11 f0       	breq	.+4      	; 0x2bc4
    2bc0:	99 27       	eor	r25, r25
    2bc2:	02 c0       	rjmp	.+4      	; 0x2bc8
    2bc4:	80 e0       	ldi	r24, 0x00	; 0
    2bc6:	90 e0       	ldi	r25, 0x00	; 0
    2bc8:	99 27       	eor	r25, r25
    2bca:	60 96       	adiw	r28, 0x10	; 16
    2bcc:	0f b6       	in	r0, 0x3f	; 63
    2bce:	f8 94       	cli
    2bd0:	de bf       	out	0x3e, r29	; 62
    2bd2:	0f be       	out	0x3f, r0	; 63
    2bd4:	cd bf       	out	0x3d, r28	; 61
    2bd6:	df 91       	pop	r29
    2bd8:	cf 91       	pop	r28
    2bda:	1f 91       	pop	r17
    2bdc:	0f 91       	pop	r16
    2bde:	08 95       	ret

00002be0 <CBCModeM$BlockCipherMode$initIncrementalDecrypt>:
    2be0:	0f 93       	push	r16
    2be2:	1f 93       	push	r17
    2be4:	cf 93       	push	r28
    2be6:	df 93       	push	r29
    2be8:	28 2f       	mov	r18, r24
    2bea:	39 2f       	mov	r19, r25
    2bec:	04 2f       	mov	r16, r20
    2bee:	15 2f       	mov	r17, r21
    2bf0:	d9 2f       	mov	r29, r25
    2bf2:	c8 2f       	mov	r28, r24
    2bf4:	c0 58       	subi	r28, 0x80	; 128
    2bf6:	df 4f       	sbci	r29, 0xFF	; 255
    2bf8:	41 15       	cp	r20, r1
    2bfa:	51 05       	cpc	r21, r1
    2bfc:	41 f1       	breq	.+80     	; 0x2c4e
    2bfe:	88 89       	ldd	r24, Y+16	; 0x10
    2c00:	99 27       	eor	r25, r25
    2c02:	48 17       	cp	r20, r24
    2c04:	59 07       	cpc	r21, r25
    2c06:	60 f0       	brcs	.+24     	; 0x2c20
    2c08:	49 8b       	std	Y+17, r20	; 0x11
    2c0a:	5a 8b       	std	Y+18, r21	; 0x12
    2c0c:	4c 2f       	mov	r20, r28
    2c0e:	5d 2f       	mov	r21, r29
    2c10:	93 2f       	mov	r25, r19
    2c12:	82 2f       	mov	r24, r18
    2c14:	0e 94 12 13 	call	0x2624
    2c18:	28 2f       	mov	r18, r24
    2c1a:	33 27       	eor	r19, r19
    2c1c:	21 30       	cpi	r18, 0x01	; 1
    2c1e:	19 f0       	breq	.+6      	; 0x2c26
    2c20:	80 e0       	ldi	r24, 0x00	; 0
    2c22:	90 e0       	ldi	r25, 0x00	; 0
    2c24:	16 c0       	rjmp	.+44     	; 0x2c52
    2c26:	1b 8a       	std	Y+19, r1	; 0x13
    2c28:	1c 8a       	std	Y+20, r1	; 0x14
    2c2a:	1e 8a       	std	Y+22, r1	; 0x16
    2c2c:	1d 8a       	std	Y+21, r1	; 0x15
    2c2e:	88 89       	ldd	r24, Y+16	; 0x10
    2c30:	99 27       	eor	r25, r25
    2c32:	08 17       	cp	r16, r24
    2c34:	19 07       	cpc	r17, r25
    2c36:	11 f4       	brne	.+4      	; 0x2c3c
    2c38:	1f 8a       	std	Y+23, r1	; 0x17
    2c3a:	09 c0       	rjmp	.+18     	; 0x2c4e
    2c3c:	88 0f       	add	r24, r24
    2c3e:	99 1f       	adc	r25, r25
    2c40:	80 17       	cp	r24, r16
    2c42:	91 07       	cpc	r25, r17
    2c44:	18 f0       	brcs	.+6      	; 0x2c4c
    2c46:	82 e0       	ldi	r24, 0x02	; 2
    2c48:	8f 8b       	std	Y+23, r24	; 0x17
    2c4a:	01 c0       	rjmp	.+2      	; 0x2c4e
    2c4c:	2f 8b       	std	Y+23, r18	; 0x17
    2c4e:	81 e0       	ldi	r24, 0x01	; 1
    2c50:	90 e0       	ldi	r25, 0x00	; 0
    2c52:	df 91       	pop	r29
    2c54:	cf 91       	pop	r28
    2c56:	1f 91       	pop	r17
    2c58:	0f 91       	pop	r16
    2c5a:	08 95       	ret

00002c5c <SkipJackM$BlockCipher$decrypt>:
    2c5c:	af 92       	push	r10
    2c5e:	bf 92       	push	r11
    2c60:	df 92       	push	r13
    2c62:	ef 92       	push	r14
    2c64:	ff 92       	push	r15
    2c66:	0f 93       	push	r16
    2c68:	1f 93       	push	r17
    2c6a:	cf 93       	push	r28
    2c6c:	df 93       	push	r29
    2c6e:	b9 2f       	mov	r27, r25
    2c70:	a8 2f       	mov	r26, r24
    2c72:	f7 2f       	mov	r31, r23
    2c74:	e6 2f       	mov	r30, r22
    2c76:	d5 2f       	mov	r29, r21
    2c78:	c4 2f       	mov	r28, r20
    2c7a:	80 e2       	ldi	r24, 0x20	; 32
    2c7c:	d8 2e       	mov	r13, r24
    2c7e:	a4 58       	subi	r26, 0x84	; 132
    2c80:	bf 4f       	sbci	r27, 0xFF	; 255
    2c82:	80 81       	ld	r24, Z
    2c84:	99 27       	eor	r25, r25
    2c86:	58 2f       	mov	r21, r24
    2c88:	44 27       	eor	r20, r20
    2c8a:	81 81       	ldd	r24, Z+1	; 0x01
    2c8c:	99 27       	eor	r25, r25
    2c8e:	48 2b       	or	r20, r24
    2c90:	59 2b       	or	r21, r25
    2c92:	32 96       	adiw	r30, 0x02	; 2
    2c94:	80 81       	ld	r24, Z
    2c96:	99 27       	eor	r25, r25
    2c98:	38 2f       	mov	r19, r24
    2c9a:	22 27       	eor	r18, r18
    2c9c:	81 81       	ldd	r24, Z+1	; 0x01
    2c9e:	99 27       	eor	r25, r25
    2ca0:	28 2b       	or	r18, r24
    2ca2:	39 2b       	or	r19, r25
    2ca4:	32 96       	adiw	r30, 0x02	; 2
    2ca6:	80 81       	ld	r24, Z
    2ca8:	99 27       	eor	r25, r25
    2caa:	18 2f       	mov	r17, r24
    2cac:	00 27       	eor	r16, r16
    2cae:	81 81       	ldd	r24, Z+1	; 0x01
    2cb0:	99 27       	eor	r25, r25
    2cb2:	08 2b       	or	r16, r24
    2cb4:	19 2b       	or	r17, r25
    2cb6:	32 96       	adiw	r30, 0x02	; 2
    2cb8:	80 81       	ld	r24, Z
    2cba:	99 27       	eor	r25, r25
    2cbc:	78 2f       	mov	r23, r24
    2cbe:	66 27       	eor	r22, r22
    2cc0:	81 81       	ldd	r24, Z+1	; 0x01
    2cc2:	99 27       	eor	r25, r25
    2cc4:	68 2b       	or	r22, r24
    2cc6:	79 2b       	or	r23, r25
    2cc8:	90 e2       	ldi	r25, 0x20	; 32
    2cca:	a9 2e       	mov	r10, r25
    2ccc:	b1 2c       	mov	r11, r1
    2cce:	e4 2e       	mov	r14, r20
    2cd0:	f5 2e       	mov	r15, r21
    2cd2:	83 2f       	mov	r24, r19
    2cd4:	99 27       	eor	r25, r25
    2cd6:	98 2f       	mov	r25, r24
    2cd8:	13 96       	adiw	r26, 0x03	; 3
    2cda:	8c 91       	ld	r24, X
    2cdc:	13 97       	sbiw	r26, 0x03	; 3
    2cde:	89 27       	eor	r24, r25
    2ce0:	e8 2f       	mov	r30, r24
    2ce2:	ff 27       	eor	r31, r31
    2ce4:	eb 59       	subi	r30, 0x9B	; 155
    2ce6:	ff 4f       	sbci	r31, 0xFF	; 255
    2ce8:	80 81       	ld	r24, Z
    2cea:	28 27       	eor	r18, r24
    2cec:	12 96       	adiw	r26, 0x02	; 2
    2cee:	8c 91       	ld	r24, X
    2cf0:	12 97       	sbiw	r26, 0x02	; 2
    2cf2:	82 27       	eor	r24, r18
    2cf4:	e8 2f       	mov	r30, r24
    2cf6:	ff 27       	eor	r31, r31
    2cf8:	eb 59       	subi	r30, 0x9B	; 155
    2cfa:	ff 4f       	sbci	r31, 0xFF	; 255
    2cfc:	80 81       	ld	r24, Z
    2cfe:	98 27       	eor	r25, r24
    2d00:	11 96       	adiw	r26, 0x01	; 1
    2d02:	8c 91       	ld	r24, X
    2d04:	11 97       	sbiw	r26, 0x01	; 1
    2d06:	89 27       	eor	r24, r25
    2d08:	e8 2f       	mov	r30, r24
    2d0a:	ff 27       	eor	r31, r31
    2d0c:	eb 59       	subi	r30, 0x9B	; 155
    2d0e:	ff 4f       	sbci	r31, 0xFF	; 255
    2d10:	80 81       	ld	r24, Z
    2d12:	28 27       	eor	r18, r24
    2d14:	8c 91       	ld	r24, X
    2d16:	82 27       	eor	r24, r18
    2d18:	e8 2f       	mov	r30, r24
    2d1a:	ff 27       	eor	r31, r31
    2d1c:	eb 59       	subi	r30, 0x9B	; 155
    2d1e:	ff 4f       	sbci	r31, 0xFF	; 255
    2d20:	80 81       	ld	r24, Z
    2d22:	98 27       	eor	r25, r24
    2d24:	89 2f       	mov	r24, r25
    2d26:	99 27       	eor	r25, r25
    2d28:	58 2f       	mov	r21, r24
    2d2a:	44 27       	eor	r20, r20
    2d2c:	82 2f       	mov	r24, r18
    2d2e:	99 27       	eor	r25, r25
    2d30:	48 2b       	or	r20, r24
    2d32:	59 2b       	or	r21, r25
    2d34:	24 2f       	mov	r18, r20
    2d36:	35 2f       	mov	r19, r21
    2d38:	20 27       	eor	r18, r16
    2d3a:	31 27       	eor	r19, r17
    2d3c:	2a 25       	eor	r18, r10
    2d3e:	3b 25       	eor	r19, r11
    2d40:	06 2f       	mov	r16, r22
    2d42:	17 2f       	mov	r17, r23
    2d44:	7f 2d       	mov	r23, r15
    2d46:	6e 2d       	mov	r22, r14
    2d48:	da 94       	dec	r13
    2d4a:	08 94       	sec
    2d4c:	a1 08       	sbc	r10, r1
    2d4e:	b1 08       	sbc	r11, r1
    2d50:	14 97       	sbiw	r26, 0x04	; 4
    2d52:	f8 e1       	ldi	r31, 0x18	; 24
    2d54:	fd 15       	cp	r31, r13
    2d56:	08 f4       	brcc	.+2      	; 0x2d5a
    2d58:	ba cf       	rjmp	.-140    	; 0x2cce
    2d5a:	df 2e       	mov	r13, r31
    2d5c:	e6 2e       	mov	r14, r22
    2d5e:	f7 2e       	mov	r15, r23
    2d60:	75 2f       	mov	r23, r21
    2d62:	64 2f       	mov	r22, r20
    2d64:	62 27       	eor	r22, r18
    2d66:	73 27       	eor	r23, r19
    2d68:	8d 2d       	mov	r24, r13
    2d6a:	99 27       	eor	r25, r25
    2d6c:	68 27       	eor	r22, r24
    2d6e:	79 27       	eor	r23, r25
    2d70:	83 2f       	mov	r24, r19
    2d72:	99 27       	eor	r25, r25
    2d74:	98 2f       	mov	r25, r24
    2d76:	13 96       	adiw	r26, 0x03	; 3
    2d78:	8c 91       	ld	r24, X
    2d7a:	13 97       	sbiw	r26, 0x03	; 3
    2d7c:	89 27       	eor	r24, r25
    2d7e:	e8 2f       	mov	r30, r24
    2d80:	ff 27       	eor	r31, r31
    2d82:	eb 59       	subi	r30, 0x9B	; 155
    2d84:	ff 4f       	sbci	r31, 0xFF	; 255
    2d86:	80 81       	ld	r24, Z
    2d88:	28 27       	eor	r18, r24
    2d8a:	12 96       	adiw	r26, 0x02	; 2
    2d8c:	8c 91       	ld	r24, X
    2d8e:	12 97       	sbiw	r26, 0x02	; 2
    2d90:	82 27       	eor	r24, r18
    2d92:	e8 2f       	mov	r30, r24
    2d94:	ff 27       	eor	r31, r31
    2d96:	eb 59       	subi	r30, 0x9B	; 155
    2d98:	ff 4f       	sbci	r31, 0xFF	; 255
    2d9a:	80 81       	ld	r24, Z
    2d9c:	98 27       	eor	r25, r24
    2d9e:	11 96       	adiw	r26, 0x01	; 1
    2da0:	8c 91       	ld	r24, X
    2da2:	11 97       	sbiw	r26, 0x01	; 1
    2da4:	89 27       	eor	r24, r25
    2da6:	e8 2f       	mov	r30, r24
    2da8:	ff 27       	eor	r31, r31
    2daa:	eb 59       	subi	r30, 0x9B	; 155
    2dac:	ff 4f       	sbci	r31, 0xFF	; 255
    2dae:	80 81       	ld	r24, Z
    2db0:	28 27       	eor	r18, r24
    2db2:	8c 91       	ld	r24, X
    2db4:	82 27       	eor	r24, r18
    2db6:	e8 2f       	mov	r30, r24
    2db8:	ff 27       	eor	r31, r31
    2dba:	eb 59       	subi	r30, 0x9B	; 155
    2dbc:	ff 4f       	sbci	r31, 0xFF	; 255
    2dbe:	80 81       	ld	r24, Z
    2dc0:	98 27       	eor	r25, r24
    2dc2:	89 2f       	mov	r24, r25
    2dc4:	99 27       	eor	r25, r25
    2dc6:	58 2f       	mov	r21, r24
    2dc8:	44 27       	eor	r20, r20
    2dca:	82 2f       	mov	r24, r18
    2dcc:	99 27       	eor	r25, r25
    2dce:	48 2b       	or	r20, r24
    2dd0:	59 2b       	or	r21, r25
    2dd2:	31 2f       	mov	r19, r17
    2dd4:	20 2f       	mov	r18, r16
    2dd6:	1f 2d       	mov	r17, r15
    2dd8:	0e 2d       	mov	r16, r14
    2dda:	da 94       	dec	r13
    2ddc:	14 97       	sbiw	r26, 0x04	; 4
    2dde:	f0 e1       	ldi	r31, 0x10	; 16
    2de0:	fd 15       	cp	r31, r13
    2de2:	08 f4       	brcc	.+2      	; 0x2de6
    2de4:	bb cf       	rjmp	.-138    	; 0x2d5c
    2de6:	88 e0       	ldi	r24, 0x08	; 8
    2de8:	8d 15       	cp	r24, r13
    2dea:	08 f0       	brcs	.+2      	; 0x2dee
    2dec:	45 c0       	rjmp	.+138    	; 0x2e78
    2dee:	e4 2e       	mov	r14, r20
    2df0:	f5 2e       	mov	r15, r21
    2df2:	83 2f       	mov	r24, r19
    2df4:	99 27       	eor	r25, r25
    2df6:	98 2f       	mov	r25, r24
    2df8:	13 96       	adiw	r26, 0x03	; 3
    2dfa:	8c 91       	ld	r24, X
    2dfc:	13 97       	sbiw	r26, 0x03	; 3
    2dfe:	89 27       	eor	r24, r25
    2e00:	e8 2f       	mov	r30, r24
    2e02:	ff 27       	eor	r31, r31
    2e04:	eb 59       	subi	r30, 0x9B	; 155
    2e06:	ff 4f       	sbci	r31, 0xFF	; 255
    2e08:	80 81       	ld	r24, Z
    2e0a:	28 27       	eor	r18, r24
    2e0c:	12 96       	adiw	r26, 0x02	; 2
    2e0e:	8c 91       	ld	r24, X
    2e10:	12 97       	sbiw	r26, 0x02	; 2
    2e12:	82 27       	eor	r24, r18
    2e14:	e8 2f       	mov	r30, r24
    2e16:	ff 27       	eor	r31, r31
    2e18:	eb 59       	subi	r30, 0x9B	; 155
    2e1a:	ff 4f       	sbci	r31, 0xFF	; 255
    2e1c:	80 81       	ld	r24, Z
    2e1e:	98 27       	eor	r25, r24
    2e20:	11 96       	adiw	r26, 0x01	; 1
    2e22:	8c 91       	ld	r24, X
    2e24:	11 97       	sbiw	r26, 0x01	; 1
    2e26:	89 27       	eor	r24, r25
    2e28:	e8 2f       	mov	r30, r24
    2e2a:	ff 27       	eor	r31, r31
    2e2c:	eb 59       	subi	r30, 0x9B	; 155
    2e2e:	ff 4f       	sbci	r31, 0xFF	; 255
    2e30:	80 81       	ld	r24, Z
    2e32:	28 27       	eor	r18, r24
    2e34:	8c 91       	ld	r24, X
    2e36:	82 27       	eor	r24, r18
    2e38:	e8 2f       	mov	r30, r24
    2e3a:	ff 27       	eor	r31, r31
    2e3c:	eb 59       	subi	r30, 0x9B	; 155
    2e3e:	ff 4f       	sbci	r31, 0xFF	; 255
    2e40:	80 81       	ld	r24, Z
    2e42:	98 27       	eor	r25, r24
    2e44:	89 2f       	mov	r24, r25
    2e46:	99 27       	eor	r25, r25
    2e48:	58 2f       	mov	r21, r24
    2e4a:	44 27       	eor	r20, r20
    2e4c:	82 2f       	mov	r24, r18
    2e4e:	99 27       	eor	r25, r25
    2e50:	48 2b       	or	r20, r24
    2e52:	59 2b       	or	r21, r25
    2e54:	24 2f       	mov	r18, r20
    2e56:	35 2f       	mov	r19, r21
    2e58:	20 27       	eor	r18, r16
    2e5a:	31 27       	eor	r19, r17
    2e5c:	8d 2d       	mov	r24, r13
    2e5e:	99 27       	eor	r25, r25
    2e60:	28 27       	eor	r18, r24
    2e62:	39 27       	eor	r19, r25
    2e64:	06 2f       	mov	r16, r22
    2e66:	17 2f       	mov	r17, r23
    2e68:	7f 2d       	mov	r23, r15
    2e6a:	6e 2d       	mov	r22, r14
    2e6c:	da 94       	dec	r13
    2e6e:	14 97       	sbiw	r26, 0x04	; 4
    2e70:	f8 e0       	ldi	r31, 0x08	; 8
    2e72:	fd 15       	cp	r31, r13
    2e74:	08 f4       	brcc	.+2      	; 0x2e78
    2e76:	bb cf       	rjmp	.-138    	; 0x2dee
    2e78:	dd 20       	and	r13, r13
    2e7a:	09 f4       	brne	.+2      	; 0x2e7e
    2e7c:	44 c0       	rjmp	.+136    	; 0x2f06
    2e7e:	e6 2e       	mov	r14, r22
    2e80:	f7 2e       	mov	r15, r23
    2e82:	75 2f       	mov	r23, r21
    2e84:	64 2f       	mov	r22, r20
    2e86:	62 27       	eor	r22, r18
    2e88:	73 27       	eor	r23, r19
    2e8a:	8d 2d       	mov	r24, r13
    2e8c:	99 27       	eor	r25, r25
    2e8e:	68 27       	eor	r22, r24
    2e90:	79 27       	eor	r23, r25
    2e92:	83 2f       	mov	r24, r19
    2e94:	99 27       	eor	r25, r25
    2e96:	98 2f       	mov	r25, r24
    2e98:	13 96       	adiw	r26, 0x03	; 3
    2e9a:	8c 91       	ld	r24, X
    2e9c:	13 97       	sbiw	r26, 0x03	; 3
    2e9e:	89 27       	eor	r24, r25
    2ea0:	e8 2f       	mov	r30, r24
    2ea2:	ff 27       	eor	r31, r31
    2ea4:	eb 59       	subi	r30, 0x9B	; 155
    2ea6:	ff 4f       	sbci	r31, 0xFF	; 255
    2ea8:	80 81       	ld	r24, Z
    2eaa:	28 27       	eor	r18, r24
    2eac:	12 96       	adiw	r26, 0x02	; 2
    2eae:	8c 91       	ld	r24, X
    2eb0:	12 97       	sbiw	r26, 0x02	; 2
    2eb2:	82 27       	eor	r24, r18
    2eb4:	e8 2f       	mov	r30, r24
    2eb6:	ff 27       	eor	r31, r31
    2eb8:	eb 59       	subi	r30, 0x9B	; 155
    2eba:	ff 4f       	sbci	r31, 0xFF	; 255
    2ebc:	80 81       	ld	r24, Z
    2ebe:	98 27       	eor	r25, r24
    2ec0:	11 96       	adiw	r26, 0x01	; 1
    2ec2:	8c 91       	ld	r24, X
    2ec4:	11 97       	sbiw	r26, 0x01	; 1
    2ec6:	89 27       	eor	r24, r25
    2ec8:	e8 2f       	mov	r30, r24
    2eca:	ff 27       	eor	r31, r31
    2ecc:	eb 59       	subi	r30, 0x9B	; 155
    2ece:	ff 4f       	sbci	r31, 0xFF	; 255
    2ed0:	80 81       	ld	r24, Z
    2ed2:	28 27       	eor	r18, r24
    2ed4:	8c 91       	ld	r24, X
    2ed6:	82 27       	eor	r24, r18
    2ed8:	e8 2f       	mov	r30, r24
    2eda:	ff 27       	eor	r31, r31
    2edc:	eb 59       	subi	r30, 0x9B	; 155
    2ede:	ff 4f       	sbci	r31, 0xFF	; 255
    2ee0:	80 81       	ld	r24, Z
    2ee2:	98 27       	eor	r25, r24
    2ee4:	89 2f       	mov	r24, r25
    2ee6:	99 27       	eor	r25, r25
    2ee8:	58 2f       	mov	r21, r24
    2eea:	44 27       	eor	r20, r20
    2eec:	82 2f       	mov	r24, r18
    2eee:	99 27       	eor	r25, r25
    2ef0:	48 2b       	or	r20, r24
    2ef2:	59 2b       	or	r21, r25
    2ef4:	31 2f       	mov	r19, r17
    2ef6:	20 2f       	mov	r18, r16
    2ef8:	1f 2d       	mov	r17, r15
    2efa:	0e 2d       	mov	r16, r14
    2efc:	da 94       	dec	r13
    2efe:	14 97       	sbiw	r26, 0x04	; 4
    2f00:	dd 20       	and	r13, r13
    2f02:	09 f0       	breq	.+2      	; 0x2f06
    2f04:	bc cf       	rjmp	.-136    	; 0x2e7e
    2f06:	85 2f       	mov	r24, r21
    2f08:	99 27       	eor	r25, r25
    2f0a:	88 83       	st	Y, r24
    2f0c:	49 83       	std	Y+1, r20	; 0x01
    2f0e:	22 96       	adiw	r28, 0x02	; 2
    2f10:	83 2f       	mov	r24, r19
    2f12:	99 27       	eor	r25, r25
    2f14:	88 83       	st	Y, r24
    2f16:	29 83       	std	Y+1, r18	; 0x01
    2f18:	22 96       	adiw	r28, 0x02	; 2
    2f1a:	81 2f       	mov	r24, r17
    2f1c:	99 27       	eor	r25, r25
    2f1e:	88 83       	st	Y, r24
    2f20:	09 83       	std	Y+1, r16	; 0x01
    2f22:	22 96       	adiw	r28, 0x02	; 2
    2f24:	87 2f       	mov	r24, r23
    2f26:	99 27       	eor	r25, r25
    2f28:	88 83       	st	Y, r24
    2f2a:	69 83       	std	Y+1, r22	; 0x01
    2f2c:	81 e0       	ldi	r24, 0x01	; 1
    2f2e:	90 e0       	ldi	r25, 0x00	; 0
    2f30:	df 91       	pop	r29
    2f32:	cf 91       	pop	r28
    2f34:	1f 91       	pop	r17
    2f36:	0f 91       	pop	r16
    2f38:	ff 90       	pop	r15
    2f3a:	ef 90       	pop	r14
    2f3c:	df 90       	pop	r13
    2f3e:	bf 90       	pop	r11
    2f40:	af 90       	pop	r10
    2f42:	08 95       	ret

00002f44 <MicaHighSpeedRadioTinySecM$packetReceived>:
    2f44:	0f 93       	push	r16
    2f46:	1f 93       	push	r17
    2f48:	cf 93       	push	r28
    2f4a:	df 93       	push	r29
    2f4c:	8f b7       	in	r24, 0x3f	; 63
    2f4e:	f8 94       	cli
    2f50:	08 2f       	mov	r16, r24
    2f52:	11 27       	eor	r17, r17
    2f54:	c0 91 a3 02 	lds	r28, 0x02A3
    2f58:	d0 91 a4 02 	lds	r29, 0x02A4
    2f5c:	8c 2f       	mov	r24, r28
    2f5e:	9d 2f       	mov	r25, r29
    2f60:	0e 94 84 0d 	call	0x1b08
    2f64:	10 92 b6 03 	sts	0x03B6, r1
    2f68:	0f bf       	out	0x3f, r16	; 63
    2f6a:	9c 81       	ldd	r25, Y+4	; 0x04
    2f6c:	97 ff       	sbrs	r25, 7
    2f6e:	06 c0       	rjmp	.+12     	; 0x2f7c
    2f70:	96 ff       	sbrs	r25, 6
    2f72:	02 c0       	rjmp	.+4      	; 0x2f78
    2f74:	82 e0       	ldi	r24, 0x02	; 2
    2f76:	03 c0       	rjmp	.+6      	; 0x2f7e
    2f78:	81 e0       	ldi	r24, 0x01	; 1
    2f7a:	01 c0       	rjmp	.+2      	; 0x2f7e
    2f7c:	83 e0       	ldi	r24, 0x03	; 3
    2f7e:	8a a7       	std	Y+42, r24	; 0x2a
    2f80:	9f 73       	andi	r25, 0x3F	; 63
    2f82:	9c 83       	std	Y+4, r25	; 0x04
    2f84:	8c 2f       	mov	r24, r28
    2f86:	9d 2f       	mov	r25, r29
    2f88:	0e 94 31 05 	call	0xa62
    2f8c:	28 2f       	mov	r18, r24
    2f8e:	39 2f       	mov	r19, r25
    2f90:	89 2b       	or	r24, r25
    2f92:	41 f0       	breq	.+16     	; 0x2fa4
    2f94:	8f b7       	in	r24, 0x3f	; 63
    2f96:	f8 94       	cli
    2f98:	99 27       	eor	r25, r25
    2f9a:	30 93 a4 02 	sts	0x02A4, r19
    2f9e:	20 93 a3 02 	sts	0x02A3, r18
    2fa2:	8f bf       	out	0x3f, r24	; 63
    2fa4:	0e 94 8c 04 	call	0x918
    2fa8:	df 91       	pop	r29
    2faa:	cf 91       	pop	r28
    2fac:	1f 91       	pop	r17
    2fae:	0f 91       	pop	r16
    2fb0:	08 95       	ret

00002fb2 <RandomLFSR$Random$rand>:
    2fb2:	8f b7       	in	r24, 0x3f	; 63
    2fb4:	f8 94       	cli
    2fb6:	48 2f       	mov	r20, r24
    2fb8:	55 27       	eor	r21, r21
    2fba:	20 91 40 03 	lds	r18, 0x0340
    2fbe:	30 91 41 03 	lds	r19, 0x0341
    2fc2:	83 2f       	mov	r24, r19
    2fc4:	88 1f       	adc	r24, r24
    2fc6:	88 27       	eor	r24, r24
    2fc8:	88 1f       	adc	r24, r24
    2fca:	22 0f       	add	r18, r18
    2fcc:	33 1f       	adc	r19, r19
    2fce:	88 23       	and	r24, r24
    2fd0:	21 f0       	breq	.+8      	; 0x2fda
    2fd2:	8b e0       	ldi	r24, 0x0B	; 11
    2fd4:	90 e1       	ldi	r25, 0x10	; 16
    2fd6:	28 27       	eor	r18, r24
    2fd8:	39 27       	eor	r19, r25
    2fda:	2f 5f       	subi	r18, 0xFF	; 255
    2fdc:	3f 4f       	sbci	r19, 0xFF	; 255
    2fde:	30 93 41 03 	sts	0x0341, r19
    2fe2:	20 93 40 03 	sts	0x0340, r18
    2fe6:	80 91 98 02 	lds	r24, 0x0298
    2fea:	90 91 99 02 	lds	r25, 0x0299
    2fee:	28 27       	eor	r18, r24
    2ff0:	39 27       	eor	r19, r25
    2ff2:	4f bf       	out	0x3f, r20	; 63
    2ff4:	93 2f       	mov	r25, r19
    2ff6:	82 2f       	mov	r24, r18
    2ff8:	08 95       	ret

00002ffa <CBCModeM$BlockCipherMode$encrypt>:
    2ffa:	2f 92       	push	r2
    2ffc:	3f 92       	push	r3
    2ffe:	4f 92       	push	r4
    3000:	5f 92       	push	r5
    3002:	6f 92       	push	r6
    3004:	7f 92       	push	r7
    3006:	8f 92       	push	r8
    3008:	9f 92       	push	r9
    300a:	af 92       	push	r10
    300c:	bf 92       	push	r11
    300e:	cf 92       	push	r12
    3010:	df 92       	push	r13
    3012:	ef 92       	push	r14
    3014:	ff 92       	push	r15
    3016:	0f 93       	push	r16
    3018:	1f 93       	push	r17
    301a:	cf 93       	push	r28
    301c:	df 93       	push	r29
    301e:	cd b7       	in	r28, 0x3d	; 61
    3020:	de b7       	in	r29, 0x3e	; 62
    3022:	62 97       	sbiw	r28, 0x12	; 18
    3024:	0f b6       	in	r0, 0x3f	; 63
    3026:	f8 94       	cli
    3028:	de bf       	out	0x3e, r29	; 62
    302a:	0f be       	out	0x3f, r0	; 63
    302c:	cd bf       	out	0x3d, r28	; 61
    302e:	88 2e       	mov	r8, r24
    3030:	99 2e       	mov	r9, r25
    3032:	69 8b       	std	Y+17, r22	; 0x11
    3034:	7a 8b       	std	Y+18, r23	; 0x12
    3036:	44 2e       	mov	r4, r20
    3038:	55 2e       	mov	r5, r21
    303a:	e2 2e       	mov	r14, r18
    303c:	f3 2e       	mov	r15, r19
    303e:	cc 24       	eor	r12, r12
    3040:	dd 24       	eor	r13, r13
    3042:	80 e8       	ldi	r24, 0x80	; 128
    3044:	90 e0       	ldi	r25, 0x00	; 0
    3046:	88 0e       	add	r8, r24
    3048:	99 1e       	adc	r9, r25
    304a:	f9 2d       	mov	r31, r9
    304c:	e8 2d       	mov	r30, r8
    304e:	30 88       	ldd	r3, Z+16	; 0x10
    3050:	80 e8       	ldi	r24, 0x80	; 128
    3052:	9f ef       	ldi	r25, 0xFF	; 255
    3054:	88 0e       	add	r8, r24
    3056:	99 1e       	adc	r9, r25
    3058:	23 2c       	mov	r2, r3
    305a:	23 0c       	add	r2, r3
    305c:	23 2b       	or	r18, r19
    305e:	09 f4       	brne	.+2      	; 0x3062
    3060:	d9 c0       	rjmp	.+434    	; 0x3214
    3062:	8f 2d       	mov	r24, r15
    3064:	99 27       	eor	r25, r25
    3066:	63 2c       	mov	r6, r3
    3068:	77 24       	eor	r7, r7
    306a:	68 16       	cp	r6, r24
    306c:	79 06       	cpc	r7, r25
    306e:	08 f4       	brcc	.+2      	; 0x3072
    3070:	ce c0       	rjmp	.+412    	; 0x320e
    3072:	e6 14       	cp	r14, r6
    3074:	f7 04       	cpc	r15, r7
    3076:	08 f4       	brcc	.+2      	; 0x307a
    3078:	ca c0       	rjmp	.+404    	; 0x320e
    307a:	29 e0       	ldi	r18, 0x09	; 9
    307c:	a2 2e       	mov	r10, r18
    307e:	b1 2c       	mov	r11, r1
    3080:	ac 0e       	add	r10, r28
    3082:	bd 1e       	adc	r11, r29
    3084:	5b 2d       	mov	r21, r11
    3086:	4a 2d       	mov	r20, r10
    3088:	71 2f       	mov	r23, r17
    308a:	60 2f       	mov	r22, r16
    308c:	99 2d       	mov	r25, r9
    308e:	88 2d       	mov	r24, r8
    3090:	0e 94 12 13 	call	0x2624
    3094:	88 23       	and	r24, r24
    3096:	09 f4       	brne	.+2      	; 0x309a
    3098:	ba c0       	rjmp	.+372    	; 0x320e
    309a:	1b 2d       	mov	r17, r11
    309c:	0a 2d       	mov	r16, r10
    309e:	e6 14       	cp	r14, r6
    30a0:	f7 04       	cpc	r15, r7
    30a2:	e9 f4       	brne	.+58     	; 0x30de
    30a4:	40 e0       	ldi	r20, 0x00	; 0
    30a6:	43 15       	cp	r20, r3
    30a8:	a8 f4       	brcc	.+42     	; 0x30d4
    30aa:	e4 2f       	mov	r30, r20
    30ac:	ff 27       	eor	r31, r31
    30ae:	35 2d       	mov	r19, r5
    30b0:	24 2d       	mov	r18, r4
    30b2:	2e 0f       	add	r18, r30
    30b4:	3f 1f       	adc	r19, r31
    30b6:	a9 89       	ldd	r26, Y+17	; 0x11
    30b8:	ba 89       	ldd	r27, Y+18	; 0x12
    30ba:	ae 0f       	add	r26, r30
    30bc:	bf 1f       	adc	r27, r31
    30be:	ea 0d       	add	r30, r10
    30c0:	fb 1d       	adc	r31, r11
    30c2:	8c 91       	ld	r24, X
    30c4:	90 81       	ld	r25, Z
    30c6:	89 27       	eor	r24, r25
    30c8:	f3 2f       	mov	r31, r19
    30ca:	e2 2f       	mov	r30, r18
    30cc:	80 83       	st	Z, r24
    30ce:	4f 5f       	subi	r20, 0xFF	; 255
    30d0:	43 15       	cp	r20, r3
    30d2:	58 f3       	brcs	.-42     	; 0x30aa
    30d4:	55 2d       	mov	r21, r5
    30d6:	44 2d       	mov	r20, r4
    30d8:	75 2d       	mov	r23, r5
    30da:	64 2d       	mov	r22, r4
    30dc:	92 c0       	rjmp	.+292    	; 0x3202
    30de:	a2 2c       	mov	r10, r2
    30e0:	bb 24       	eor	r11, r11
    30e2:	ae 14       	cp	r10, r14
    30e4:	bf 04       	cpc	r11, r15
    30e6:	d8 f5       	brcc	.+118    	; 0x315e
    30e8:	9f 2d       	mov	r25, r15
    30ea:	8e 2d       	mov	r24, r14
    30ec:	8a 19       	sub	r24, r10
    30ee:	9b 09       	sbc	r25, r11
    30f0:	c8 16       	cp	r12, r24
    30f2:	d9 06       	cpc	r13, r25
    30f4:	a0 f5       	brcc	.+104    	; 0x315e
    30f6:	40 e0       	ldi	r20, 0x00	; 0
    30f8:	43 15       	cp	r20, r3
    30fa:	c8 f4       	brcc	.+50     	; 0x312e
    30fc:	a4 2f       	mov	r26, r20
    30fe:	bb 27       	eor	r27, r27
    3100:	fd 2d       	mov	r31, r13
    3102:	ec 2d       	mov	r30, r12
    3104:	ea 0f       	add	r30, r26
    3106:	fb 1f       	adc	r31, r27
    3108:	35 2d       	mov	r19, r5
    310a:	24 2d       	mov	r18, r4
    310c:	2e 0f       	add	r18, r30
    310e:	3f 1f       	adc	r19, r31
    3110:	89 89       	ldd	r24, Y+17	; 0x11
    3112:	9a 89       	ldd	r25, Y+18	; 0x12
    3114:	e8 0f       	add	r30, r24
    3116:	f9 1f       	adc	r31, r25
    3118:	a0 0f       	add	r26, r16
    311a:	b1 1f       	adc	r27, r17
    311c:	80 81       	ld	r24, Z
    311e:	9c 91       	ld	r25, X
    3120:	89 27       	eor	r24, r25
    3122:	f3 2f       	mov	r31, r19
    3124:	e2 2f       	mov	r30, r18
    3126:	80 83       	st	Z, r24
    3128:	4f 5f       	subi	r20, 0xFF	; 255
    312a:	43 15       	cp	r20, r3
    312c:	38 f3       	brcs	.-50     	; 0x30fc
    312e:	15 2d       	mov	r17, r5
    3130:	04 2d       	mov	r16, r4
    3132:	0c 0d       	add	r16, r12
    3134:	1d 1d       	adc	r17, r13
    3136:	51 2f       	mov	r21, r17
    3138:	40 2f       	mov	r20, r16
    313a:	71 2f       	mov	r23, r17
    313c:	60 2f       	mov	r22, r16
    313e:	99 2d       	mov	r25, r9
    3140:	88 2d       	mov	r24, r8
    3142:	0e 94 12 13 	call	0x2624
    3146:	88 23       	and	r24, r24
    3148:	09 f4       	brne	.+2      	; 0x314c
    314a:	61 c0       	rjmp	.+194    	; 0x320e
    314c:	c6 0c       	add	r12, r6
    314e:	d7 1c       	adc	r13, r7
    3150:	9f 2d       	mov	r25, r15
    3152:	8e 2d       	mov	r24, r14
    3154:	8a 19       	sub	r24, r10
    3156:	9b 09       	sbc	r25, r11
    3158:	c8 16       	cp	r12, r24
    315a:	d9 06       	cpc	r13, r25
    315c:	60 f2       	brcs	.-104    	; 0x30f6
    315e:	40 e0       	ldi	r20, 0x00	; 0
    3160:	43 15       	cp	r20, r3
    3162:	c8 f4       	brcc	.+50     	; 0x3196
    3164:	a4 2f       	mov	r26, r20
    3166:	bb 27       	eor	r27, r27
    3168:	2c 2f       	mov	r18, r28
    316a:	3d 2f       	mov	r19, r29
    316c:	2a 0f       	add	r18, r26
    316e:	3b 1f       	adc	r19, r27
    3170:	fd 2d       	mov	r31, r13
    3172:	ec 2d       	mov	r30, r12
    3174:	ea 0f       	add	r30, r26
    3176:	fb 1f       	adc	r31, r27
    3178:	89 89       	ldd	r24, Y+17	; 0x11
    317a:	9a 89       	ldd	r25, Y+18	; 0x12
    317c:	e8 0f       	add	r30, r24
    317e:	f9 1f       	adc	r31, r25
    3180:	a0 0f       	add	r26, r16
    3182:	b1 1f       	adc	r27, r17
    3184:	80 81       	ld	r24, Z
    3186:	9c 91       	ld	r25, X
    3188:	89 27       	eor	r24, r25
    318a:	f3 2f       	mov	r31, r19
    318c:	e2 2f       	mov	r30, r18
    318e:	81 83       	std	Z+1, r24	; 0x01
    3190:	4f 5f       	subi	r20, 0xFF	; 255
    3192:	43 15       	cp	r20, r3
    3194:	38 f3       	brcs	.-50     	; 0x3164
    3196:	0c 2f       	mov	r16, r28
    3198:	1d 2f       	mov	r17, r29
    319a:	0f 5f       	subi	r16, 0xFF	; 255
    319c:	1f 4f       	sbci	r17, 0xFF	; 255
    319e:	51 2f       	mov	r21, r17
    31a0:	40 2f       	mov	r20, r16
    31a2:	71 2f       	mov	r23, r17
    31a4:	60 2f       	mov	r22, r16
    31a6:	99 2d       	mov	r25, r9
    31a8:	88 2d       	mov	r24, r8
    31aa:	0e 94 12 13 	call	0x2624
    31ae:	88 23       	and	r24, r24
    31b0:	71 f1       	breq	.+92     	; 0x320e
    31b2:	4e 2d       	mov	r20, r14
    31b4:	4c 19       	sub	r20, r12
    31b6:	43 19       	sub	r20, r3
    31b8:	30 e0       	ldi	r19, 0x00	; 0
    31ba:	34 17       	cp	r19, r20
    31bc:	d0 f4       	brcc	.+52     	; 0x31f2
    31be:	83 2f       	mov	r24, r19
    31c0:	99 27       	eor	r25, r25
    31c2:	bd 2d       	mov	r27, r13
    31c4:	ac 2d       	mov	r26, r12
    31c6:	a3 0d       	add	r26, r3
    31c8:	b1 1d       	adc	r27, r1
    31ca:	a8 0f       	add	r26, r24
    31cc:	b9 1f       	adc	r27, r25
    31ce:	e9 89       	ldd	r30, Y+17	; 0x11
    31d0:	fa 89       	ldd	r31, Y+18	; 0x12
    31d2:	ea 0f       	add	r30, r26
    31d4:	fb 1f       	adc	r31, r27
    31d6:	20 81       	ld	r18, Z
    31d8:	a4 0d       	add	r26, r4
    31da:	b5 1d       	adc	r27, r5
    31dc:	f1 2f       	mov	r31, r17
    31de:	e0 2f       	mov	r30, r16
    31e0:	e8 0f       	add	r30, r24
    31e2:	f9 1f       	adc	r31, r25
    31e4:	80 81       	ld	r24, Z
    31e6:	8c 93       	st	X, r24
    31e8:	82 27       	eor	r24, r18
    31ea:	80 83       	st	Z, r24
    31ec:	3f 5f       	subi	r19, 0xFF	; 255
    31ee:	34 17       	cp	r19, r20
    31f0:	30 f3       	brcs	.-52     	; 0x31be
    31f2:	c4 0c       	add	r12, r4
    31f4:	d5 1c       	adc	r13, r5
    31f6:	5d 2d       	mov	r21, r13
    31f8:	4c 2d       	mov	r20, r12
    31fa:	6c 2f       	mov	r22, r28
    31fc:	7d 2f       	mov	r23, r29
    31fe:	6f 5f       	subi	r22, 0xFF	; 255
    3200:	7f 4f       	sbci	r23, 0xFF	; 255
    3202:	99 2d       	mov	r25, r9
    3204:	88 2d       	mov	r24, r8
    3206:	0e 94 12 13 	call	0x2624
    320a:	88 23       	and	r24, r24
    320c:	19 f4       	brne	.+6      	; 0x3214
    320e:	40 e0       	ldi	r20, 0x00	; 0
    3210:	50 e0       	ldi	r21, 0x00	; 0
    3212:	02 c0       	rjmp	.+4      	; 0x3218
    3214:	41 e0       	ldi	r20, 0x01	; 1
    3216:	50 e0       	ldi	r21, 0x00	; 0
    3218:	95 2f       	mov	r25, r21
    321a:	84 2f       	mov	r24, r20
    321c:	62 96       	adiw	r28, 0x12	; 18
    321e:	0f b6       	in	r0, 0x3f	; 63
    3220:	f8 94       	cli
    3222:	de bf       	out	0x3e, r29	; 62
    3224:	0f be       	out	0x3f, r0	; 63
    3226:	cd bf       	out	0x3d, r28	; 61
    3228:	df 91       	pop	r29
    322a:	cf 91       	pop	r28
    322c:	1f 91       	pop	r17
    322e:	0f 91       	pop	r16
    3230:	ff 90       	pop	r15
    3232:	ef 90       	pop	r14
    3234:	df 90       	pop	r13
    3236:	cf 90       	pop	r12
    3238:	bf 90       	pop	r11
    323a:	af 90       	pop	r10
    323c:	9f 90       	pop	r9
    323e:	8f 90       	pop	r8
    3240:	7f 90       	pop	r7
    3242:	6f 90       	pop	r6
    3244:	5f 90       	pop	r5
    3246:	4f 90       	pop	r4
    3248:	3f 90       	pop	r3
    324a:	2f 90       	pop	r2
    324c:	08 95       	ret

0000324e <__vector_15>:
    324e:	78 94       	sei
    3250:	1f 92       	push	r1
    3252:	0f 92       	push	r0
    3254:	0f b6       	in	r0, 0x3f	; 63
    3256:	0f 92       	push	r0
    3258:	11 24       	eor	r1, r1
    325a:	2f 93       	push	r18
    325c:	3f 93       	push	r19
    325e:	4f 93       	push	r20
    3260:	5f 93       	push	r21
    3262:	6f 93       	push	r22
    3264:	7f 93       	push	r23
    3266:	8f 93       	push	r24
    3268:	9f 93       	push	r25
    326a:	af 93       	push	r26
    326c:	bf 93       	push	r27
    326e:	ef 93       	push	r30
    3270:	ff 93       	push	r31
    3272:	8f b7       	in	r24, 0x3f	; 63
    3274:	f8 94       	cli
    3276:	28 2f       	mov	r18, r24
    3278:	33 27       	eor	r19, r19
    327a:	80 91 a8 02 	lds	r24, 0x02A8
    327e:	88 23       	and	r24, r24
    3280:	69 f0       	breq	.+26     	; 0x329c
    3282:	80 91 f3 02 	lds	r24, 0x02F3
    3286:	80 93 78 03 	sts	0x0378, r24
    328a:	88 60       	ori	r24, 0x08	; 8
    328c:	80 93 f3 02 	sts	0x02F3, r24
    3290:	83 bf       	out	0x33, r24	; 51
    3292:	80 91 bb 02 	lds	r24, 0x02BB
    3296:	81 bf       	out	0x31, r24	; 49
    3298:	10 92 a8 02 	sts	0x02A8, r1
    329c:	2f bf       	out	0x3f, r18	; 63
    329e:	85 ee       	ldi	r24, 0xE5	; 229
    32a0:	9c e1       	ldi	r25, 0x1C	; 28
    32a2:	0e 94 2c 02 	call	0x458
    32a6:	ff 91       	pop	r31
    32a8:	ef 91       	pop	r30
    32aa:	bf 91       	pop	r27
    32ac:	af 91       	pop	r26
    32ae:	9f 91       	pop	r25
    32b0:	8f 91       	pop	r24
    32b2:	7f 91       	pop	r23
    32b4:	6f 91       	pop	r22
    32b6:	5f 91       	pop	r21
    32b8:	4f 91       	pop	r20
    32ba:	3f 91       	pop	r19
    32bc:	2f 91       	pop	r18
    32be:	0f 90       	pop	r0
    32c0:	0f be       	out	0x3f, r0	; 63
    32c2:	0f 90       	pop	r0
    32c4:	1f 90       	pop	r1
    32c6:	18 95       	reti

000032c8 <FramerM$StartTx>:
    32c8:	cf 93       	push	r28
    32ca:	c1 e0       	ldi	r28, 0x01	; 1
    32cc:	20 e0       	ldi	r18, 0x00	; 0
    32ce:	8f b7       	in	r24, 0x3f	; 63
    32d0:	f8 94       	cli
    32d2:	38 2f       	mov	r19, r24
    32d4:	80 91 b5 03 	lds	r24, 0x03B5
    32d8:	88 23       	and	r24, r24
    32da:	91 f5       	brne	.+100    	; 0x3340
    32dc:	80 91 8c 04 	lds	r24, 0x048C
    32e0:	99 27       	eor	r25, r25
    32e2:	81 ff       	sbrs	r24, 1
    32e4:	08 c0       	rjmp	.+16     	; 0x32f6
    32e6:	87 e2       	ldi	r24, 0x27	; 39
    32e8:	93 e0       	ldi	r25, 0x03	; 3
    32ea:	90 93 c2 02 	sts	0x02C2, r25
    32ee:	80 93 c1 02 	sts	0x02C1, r24
    32f2:	80 e4       	ldi	r24, 0x40	; 64
    32f4:	1a c0       	rjmp	.+52     	; 0x332a
    32f6:	82 ff       	sbrs	r24, 2
    32f8:	0f c0       	rjmp	.+30     	; 0x3318
    32fa:	e0 91 d7 01 	lds	r30, 0x01D7
    32fe:	f0 91 d8 01 	lds	r31, 0x01D8
    3302:	f0 93 c2 02 	sts	0x02C2, r31
    3306:	e0 93 c1 02 	sts	0x02C1, r30
    330a:	82 e4       	ldi	r24, 0x42	; 66
    330c:	80 93 db 01 	sts	0x01DB, r24
    3310:	84 81       	ldd	r24, Z+4	; 0x04
    3312:	99 27       	eor	r25, r25
    3314:	05 96       	adiw	r24, 0x05	; 5
    3316:	0d c0       	rjmp	.+26     	; 0x3332
    3318:	83 ff       	sbrs	r24, 3
    331a:	12 c0       	rjmp	.+36     	; 0x3340
    331c:	81 e9       	ldi	r24, 0x91	; 145
    331e:	92 e0       	ldi	r25, 0x02	; 2
    3320:	90 93 c2 02 	sts	0x02C2, r25
    3324:	80 93 c1 02 	sts	0x02C1, r24
    3328:	8f ef       	ldi	r24, 0xFF	; 255
    332a:	80 93 db 01 	sts	0x01DB, r24
    332e:	81 e0       	ldi	r24, 0x01	; 1
    3330:	90 e0       	ldi	r25, 0x00	; 0
    3332:	90 93 95 02 	sts	0x0295, r25
    3336:	80 93 94 02 	sts	0x0294, r24
    333a:	2c 2f       	mov	r18, r28
    333c:	c0 93 b5 03 	sts	0x03B5, r28
    3340:	3f bf       	out	0x3f, r19	; 63
    3342:	22 23       	and	r18, r18
    3344:	f1 f0       	breq	.+60     	; 0x3382
    3346:	8f b7       	in	r24, 0x3f	; 63
    3348:	f8 94       	cli
    334a:	99 27       	eor	r25, r25
    334c:	10 92 80 01 	sts	0x0180, r1
    3350:	10 92 7f 01 	sts	0x017F, r1
    3354:	10 92 ed 02 	sts	0x02ED, r1
    3358:	10 92 ec 02 	sts	0x02EC, r1
    335c:	8f bf       	out	0x3f, r24	; 63
    335e:	8e e7       	ldi	r24, 0x7E	; 126
    3360:	0e 94 c5 19 	call	0x338a
    3364:	c8 2f       	mov	r28, r24
    3366:	81 30       	cpi	r24, 0x01	; 1
    3368:	61 f0       	breq	.+24     	; 0x3382
    336a:	8f b7       	in	r24, 0x3f	; 63
    336c:	f8 94       	cli
    336e:	28 2f       	mov	r18, r24
    3370:	33 27       	eor	r19, r19
    3372:	88 e0       	ldi	r24, 0x08	; 8
    3374:	80 93 b5 03 	sts	0x03B5, r24
    3378:	2f bf       	out	0x3f, r18	; 63
    337a:	8a ed       	ldi	r24, 0xDA	; 218
    337c:	99 e1       	ldi	r25, 0x19	; 25
    337e:	0e 94 2c 02 	call	0x458
    3382:	8c 2f       	mov	r24, r28
    3384:	99 27       	eor	r25, r25
    3386:	cf 91       	pop	r28
    3388:	08 95       	ret

0000338a <UARTM$ByteComm$txByte>:
    338a:	48 2f       	mov	r20, r24
    338c:	8f b7       	in	r24, 0x3f	; 63
    338e:	f8 94       	cli
    3390:	28 2f       	mov	r18, r24
    3392:	33 27       	eor	r19, r19
    3394:	90 91 25 03 	lds	r25, 0x0325
    3398:	81 e0       	ldi	r24, 0x01	; 1
    339a:	80 93 25 03 	sts	0x0325, r24
    339e:	2f bf       	out	0x3f, r18	; 63
    33a0:	99 23       	and	r25, r25
    33a2:	19 f0       	breq	.+6      	; 0x33aa
    33a4:	80 e0       	ldi	r24, 0x00	; 0
    33a6:	90 e0       	ldi	r25, 0x00	; 0
    33a8:	08 95       	ret
    33aa:	5e 9a       	sbi	0x0b, 6	; 11
    33ac:	4c b9       	out	0x0c, r20	; 12
    33ae:	81 e0       	ldi	r24, 0x01	; 1
    33b0:	90 e0       	ldi	r25, 0x00	; 0
    33b2:	08 95       	ret

000033b4 <FramerM$PacketSent>:
    33b4:	61 e0       	ldi	r22, 0x01	; 1
    33b6:	8f b7       	in	r24, 0x3f	; 63
    33b8:	f8 94       	cli
    33ba:	28 2f       	mov	r18, r24
    33bc:	33 27       	eor	r19, r19
    33be:	80 91 b5 03 	lds	r24, 0x03B5
    33c2:	88 30       	cpi	r24, 0x08	; 8
    33c4:	19 f4       	brne	.+6      	; 0x33cc
    33c6:	60 e0       	ldi	r22, 0x00	; 0
    33c8:	60 93 b5 03 	sts	0x03B5, r22
    33cc:	2f bf       	out	0x3f, r18	; 63
    33ce:	80 91 db 01 	lds	r24, 0x01DB
    33d2:	90 91 8c 04 	lds	r25, 0x048C
    33d6:	80 34       	cpi	r24, 0x40	; 64
    33d8:	51 f4       	brne	.+20     	; 0x33ee
    33da:	8f b7       	in	r24, 0x3f	; 63
    33dc:	f8 94       	cli
    33de:	28 2f       	mov	r18, r24
    33e0:	33 27       	eor	r19, r19
    33e2:	82 e0       	ldi	r24, 0x02	; 2
    33e4:	98 27       	eor	r25, r24
    33e6:	90 93 8c 04 	sts	0x048C, r25
    33ea:	2f bf       	out	0x3f, r18	; 63
    33ec:	17 c0       	rjmp	.+46     	; 0x341c
    33ee:	8f b7       	in	r24, 0x3f	; 63
    33f0:	f8 94       	cli
    33f2:	28 2f       	mov	r18, r24
    33f4:	33 27       	eor	r19, r19
    33f6:	84 e0       	ldi	r24, 0x04	; 4
    33f8:	98 27       	eor	r25, r24
    33fa:	90 93 8c 04 	sts	0x048C, r25
    33fe:	2f bf       	out	0x3f, r18	; 63
    3400:	80 91 d7 01 	lds	r24, 0x01D7
    3404:	90 91 d8 01 	lds	r25, 0x01D8
    3408:	0e 94 8b 0d 	call	0x1b16
    340c:	8f b7       	in	r24, 0x3f	; 63
    340e:	f8 94       	cli
    3410:	99 27       	eor	r25, r25
    3412:	10 92 d8 01 	sts	0x01D8, r1
    3416:	10 92 d7 01 	sts	0x01D7, r1
    341a:	8f bf       	out	0x3f, r24	; 63
    341c:	0e 94 64 19 	call	0x32c8
    3420:	08 95       	ret

00003422 <FramerM$ByteComm$rxByteReady>:
    3422:	38 2f       	mov	r19, r24
    3424:	80 91 b4 03 	lds	r24, 0x03B4
    3428:	99 27       	eor	r25, r25
    342a:	82 30       	cpi	r24, 0x02	; 2
    342c:	91 05       	cpc	r25, r1
    342e:	09 f4       	brne	.+2      	; 0x3432
    3430:	6d c0       	rjmp	.+218    	; 0x350c
    3432:	83 30       	cpi	r24, 0x03	; 3
    3434:	91 05       	cpc	r25, r1
    3436:	2c f4       	brge	.+10     	; 0x3442
    3438:	00 97       	sbiw	r24, 0x00	; 0
    343a:	59 f0       	breq	.+22     	; 0x3452
    343c:	01 97       	sbiw	r24, 0x01	; 1
    343e:	89 f1       	breq	.+98     	; 0x34a2
    3440:	c0 c1       	rjmp	.+896    	; 0x37c2
    3442:	83 30       	cpi	r24, 0x03	; 3
    3444:	91 05       	cpc	r25, r1
    3446:	09 f4       	brne	.+2      	; 0x344a
    3448:	a0 c0       	rjmp	.+320    	; 0x358a
    344a:	04 97       	sbiw	r24, 0x04	; 4
    344c:	09 f4       	brne	.+2      	; 0x3450
    344e:	61 c1       	rjmp	.+706    	; 0x3712
    3450:	b8 c1       	rjmp	.+880    	; 0x37c2
    3452:	3e 37       	cpi	r19, 0x7E	; 126
    3454:	09 f0       	breq	.+2      	; 0x3458
    3456:	b7 c1       	rjmp	.+878    	; 0x37c6
    3458:	80 91 26 03 	lds	r24, 0x0326
    345c:	99 27       	eor	r25, r25
    345e:	f9 2f       	mov	r31, r25
    3460:	e8 2f       	mov	r30, r24
    3462:	ee 0f       	add	r30, r30
    3464:	ff 1f       	adc	r31, r31
    3466:	ee 0f       	add	r30, r30
    3468:	ff 1f       	adc	r31, r31
    346a:	e8 0f       	add	r30, r24
    346c:	f9 1f       	adc	r31, r25
    346e:	e8 0f       	add	r30, r24
    3470:	f9 1f       	adc	r31, r25
    3472:	ec 5c       	subi	r30, 0xCC	; 204
    3474:	fc 4f       	sbci	r31, 0xFC	; 252
    3476:	82 81       	ldd	r24, Z+2	; 0x02
    3478:	93 81       	ldd	r25, Z+3	; 0x03
    347a:	00 97       	sbiw	r24, 0x00	; 0
    347c:	09 f0       	breq	.+2      	; 0x3480
    347e:	a3 c1       	rjmp	.+838    	; 0x37c6
    3480:	11 82       	std	Z+1, r1	; 0x01
    3482:	90 93 bf 02 	sts	0x02BF, r25
    3486:	80 93 be 02 	sts	0x02BE, r24
    348a:	90 93 9e 02 	sts	0x029E, r25
    348e:	80 93 9d 02 	sts	0x029D, r24
    3492:	84 81       	ldd	r24, Z+4	; 0x04
    3494:	95 81       	ldd	r25, Z+5	; 0x05
    3496:	90 93 7a 03 	sts	0x037A, r25
    349a:	80 93 79 03 	sts	0x0379, r24
    349e:	81 e0       	ldi	r24, 0x01	; 1
    34a0:	8d c1       	rjmp	.+794    	; 0x37bc
    34a2:	3e 37       	cpi	r19, 0x7E	; 126
    34a4:	09 f4       	brne	.+2      	; 0x34a8
    34a6:	8f c1       	rjmp	.+798    	; 0x37c6
    34a8:	80 91 26 03 	lds	r24, 0x0326
    34ac:	99 27       	eor	r25, r25
    34ae:	f9 2f       	mov	r31, r25
    34b0:	e8 2f       	mov	r30, r24
    34b2:	ee 0f       	add	r30, r30
    34b4:	ff 1f       	adc	r31, r31
    34b6:	ee 0f       	add	r30, r30
    34b8:	ff 1f       	adc	r31, r31
    34ba:	e8 0f       	add	r30, r24
    34bc:	f9 1f       	adc	r31, r25
    34be:	e8 0f       	add	r30, r24
    34c0:	f9 1f       	adc	r31, r25
    34c2:	ec 5c       	subi	r30, 0xCC	; 204
    34c4:	fc 4f       	sbci	r31, 0xFC	; 252
    34c6:	30 83       	st	Z, r19
    34c8:	80 91 be 02 	lds	r24, 0x02BE
    34cc:	90 91 bf 02 	lds	r25, 0x02BF
    34d0:	e0 e6       	ldi	r30, 0x60	; 96
    34d2:	f0 e0       	ldi	r31, 0x00	; 0
    34d4:	23 2f       	mov	r18, r19
    34d6:	29 27       	eor	r18, r25
    34d8:	22 0f       	add	r18, r18
    34da:	f1 1d       	adc	r31, r1
    34dc:	e2 0f       	add	r30, r18
    34de:	f1 1d       	adc	r31, r1
    34e0:	c8 95       	lpm
    34e2:	98 2f       	mov	r25, r24
    34e4:	80 2d       	mov	r24, r0
    34e6:	31 96       	adiw	r30, 0x01	; 1
    34e8:	c8 95       	lpm
    34ea:	90 25       	eor	r25, r0
    34ec:	90 93 bf 02 	sts	0x02BF, r25
    34f0:	80 93 be 02 	sts	0x02BE, r24
    34f4:	83 2f       	mov	r24, r19
    34f6:	99 27       	eor	r25, r25
    34f8:	81 34       	cpi	r24, 0x41	; 65
    34fa:	91 05       	cpc	r25, r1
    34fc:	29 f0       	breq	.+10     	; 0x3508
    34fe:	82 34       	cpi	r24, 0x42	; 66
    3500:	91 05       	cpc	r25, r1
    3502:	09 f4       	brne	.+2      	; 0x3506
    3504:	5a c1       	rjmp	.+692    	; 0x37ba
    3506:	5d c1       	rjmp	.+698    	; 0x37c2
    3508:	82 e0       	ldi	r24, 0x02	; 2
    350a:	58 c1       	rjmp	.+688    	; 0x37bc
    350c:	3e 37       	cpi	r19, 0x7E	; 126
    350e:	09 f4       	brne	.+2      	; 0x3512
    3510:	58 c1       	rjmp	.+688    	; 0x37c2
    3512:	60 91 26 03 	lds	r22, 0x0326
    3516:	3d 37       	cpi	r19, 0x7D	; 125
    3518:	89 f4       	brne	.+34     	; 0x353c
    351a:	86 2f       	mov	r24, r22
    351c:	99 27       	eor	r25, r25
    351e:	f9 2f       	mov	r31, r25
    3520:	e8 2f       	mov	r30, r24
    3522:	ee 0f       	add	r30, r30
    3524:	ff 1f       	adc	r31, r31
    3526:	ee 0f       	add	r30, r30
    3528:	ff 1f       	adc	r31, r31
    352a:	e8 0f       	add	r30, r24
    352c:	f9 1f       	adc	r31, r25
    352e:	e8 0f       	add	r30, r24
    3530:	f9 1f       	adc	r31, r25
    3532:	ec 5c       	subi	r30, 0xCC	; 204
    3534:	fc 4f       	sbci	r31, 0xFC	; 252
    3536:	80 e2       	ldi	r24, 0x20	; 32
    3538:	81 83       	std	Z+1, r24	; 0x01
    353a:	45 c1       	rjmp	.+650    	; 0x37c6
    353c:	86 2f       	mov	r24, r22
    353e:	99 27       	eor	r25, r25
    3540:	f9 2f       	mov	r31, r25
    3542:	e8 2f       	mov	r30, r24
    3544:	ee 0f       	add	r30, r30
    3546:	ff 1f       	adc	r31, r31
    3548:	ee 0f       	add	r30, r30
    354a:	ff 1f       	adc	r31, r31
    354c:	e8 0f       	add	r30, r24
    354e:	f9 1f       	adc	r31, r25
    3550:	e8 0f       	add	r30, r24
    3552:	f9 1f       	adc	r31, r25
    3554:	ec 5c       	subi	r30, 0xCC	; 204
    3556:	fc 4f       	sbci	r31, 0xFC	; 252
    3558:	21 81       	ldd	r18, Z+1	; 0x01
    355a:	23 27       	eor	r18, r19
    355c:	21 83       	std	Z+1, r18	; 0x01
    355e:	80 91 be 02 	lds	r24, 0x02BE
    3562:	90 91 bf 02 	lds	r25, 0x02BF
    3566:	e0 e6       	ldi	r30, 0x60	; 96
    3568:	f0 e0       	ldi	r31, 0x00	; 0
    356a:	29 27       	eor	r18, r25
    356c:	22 0f       	add	r18, r18
    356e:	f1 1d       	adc	r31, r1
    3570:	e2 0f       	add	r30, r18
    3572:	f1 1d       	adc	r31, r1
    3574:	c8 95       	lpm
    3576:	98 2f       	mov	r25, r24
    3578:	80 2d       	mov	r24, r0
    357a:	31 96       	adiw	r30, 0x01	; 1
    357c:	c8 95       	lpm
    357e:	90 25       	eor	r25, r0
    3580:	90 93 bf 02 	sts	0x02BF, r25
    3584:	80 93 be 02 	sts	0x02BE, r24
    3588:	18 c1       	rjmp	.+560    	; 0x37ba
    358a:	40 91 9d 02 	lds	r20, 0x029D
    358e:	50 91 9e 02 	lds	r21, 0x029E
    3592:	4c 32       	cpi	r20, 0x2C	; 44
    3594:	51 05       	cpc	r21, r1
    3596:	08 f0       	brcs	.+2      	; 0x359a
    3598:	be c0       	rjmp	.+380    	; 0x3716
    359a:	3d 37       	cpi	r19, 0x7D	; 125
    359c:	11 f4       	brne	.+4      	; 0x35a2
    359e:	84 e0       	ldi	r24, 0x04	; 4
    35a0:	0d c1       	rjmp	.+538    	; 0x37bc
    35a2:	3e 37       	cpi	r19, 0x7E	; 126
    35a4:	09 f0       	breq	.+2      	; 0x35a8
    35a6:	83 c0       	rjmp	.+262    	; 0x36ae
    35a8:	42 30       	cpi	r20, 0x02	; 2
    35aa:	51 05       	cpc	r21, r1
    35ac:	08 f4       	brcc	.+2      	; 0x35b0
    35ae:	62 c0       	rjmp	.+196    	; 0x3674
    35b0:	e0 91 79 03 	lds	r30, 0x0379
    35b4:	f0 91 7a 03 	lds	r31, 0x037A
    35b8:	e4 0f       	add	r30, r20
    35ba:	f5 1f       	adc	r31, r21
    35bc:	82 91       	ld	r24, -Z
    35be:	99 27       	eor	r25, r25
    35c0:	38 2f       	mov	r19, r24
    35c2:	22 27       	eor	r18, r18
    35c4:	82 91       	ld	r24, -Z
    35c6:	99 27       	eor	r25, r25
    35c8:	28 2b       	or	r18, r24
    35ca:	39 2b       	or	r19, r25
    35cc:	80 91 be 02 	lds	r24, 0x02BE
    35d0:	90 91 bf 02 	lds	r25, 0x02BF
    35d4:	60 91 26 03 	lds	r22, 0x0326
    35d8:	28 17       	cp	r18, r24
    35da:	39 07       	cpc	r19, r25
    35dc:	e9 f4       	brne	.+58     	; 0x3618
    35de:	86 2f       	mov	r24, r22
    35e0:	99 27       	eor	r25, r25
    35e2:	f9 2f       	mov	r31, r25
    35e4:	e8 2f       	mov	r30, r24
    35e6:	ee 0f       	add	r30, r30
    35e8:	ff 1f       	adc	r31, r31
    35ea:	ee 0f       	add	r30, r30
    35ec:	ff 1f       	adc	r31, r31
    35ee:	e8 0f       	add	r30, r24
    35f0:	f9 1f       	adc	r31, r25
    35f2:	e8 0f       	add	r30, r24
    35f4:	f9 1f       	adc	r31, r25
    35f6:	ec 5c       	subi	r30, 0xCC	; 204
    35f8:	fc 4f       	sbci	r31, 0xFC	; 252
    35fa:	42 50       	subi	r20, 0x02	; 2
    35fc:	50 40       	sbci	r21, 0x00	; 0
    35fe:	42 83       	std	Z+2, r20	; 0x02
    3600:	53 83       	std	Z+3, r21	; 0x03
    3602:	82 ed       	ldi	r24, 0xD2	; 210
    3604:	9d e1       	ldi	r25, 0x1D	; 29
    3606:	0e 94 2c 02 	call	0x458
    360a:	80 91 26 03 	lds	r24, 0x0326
    360e:	8f 5f       	subi	r24, 0xFF	; 255
    3610:	81 70       	andi	r24, 0x01	; 1
    3612:	80 93 26 03 	sts	0x0326, r24
    3616:	11 c0       	rjmp	.+34     	; 0x363a
    3618:	86 2f       	mov	r24, r22
    361a:	99 27       	eor	r25, r25
    361c:	f9 2f       	mov	r31, r25
    361e:	e8 2f       	mov	r30, r24
    3620:	ee 0f       	add	r30, r30
    3622:	ff 1f       	adc	r31, r31
    3624:	ee 0f       	add	r30, r30
    3626:	ff 1f       	adc	r31, r31
    3628:	e8 0f       	add	r30, r24
    362a:	f9 1f       	adc	r31, r25
    362c:	e8 0f       	add	r30, r24
    362e:	f9 1f       	adc	r31, r25
    3630:	ec 5c       	subi	r30, 0xCC	; 204
    3632:	fc 4f       	sbci	r31, 0xFC	; 252
    3634:	12 82       	std	Z+2, r1	; 0x02
    3636:	13 82       	std	Z+3, r1	; 0x03
    3638:	11 82       	std	Z+1, r1	; 0x01
    363a:	80 91 26 03 	lds	r24, 0x0326
    363e:	99 27       	eor	r25, r25
    3640:	f9 2f       	mov	r31, r25
    3642:	e8 2f       	mov	r30, r24
    3644:	ee 0f       	add	r30, r30
    3646:	ff 1f       	adc	r31, r31
    3648:	ee 0f       	add	r30, r30
    364a:	ff 1f       	adc	r31, r31
    364c:	e8 0f       	add	r30, r24
    364e:	f9 1f       	adc	r31, r25
    3650:	e8 0f       	add	r30, r24
    3652:	f9 1f       	adc	r31, r25
    3654:	ec 5c       	subi	r30, 0xCC	; 204
    3656:	fc 4f       	sbci	r31, 0xFC	; 252
    3658:	82 81       	ldd	r24, Z+2	; 0x02
    365a:	93 81       	ldd	r25, Z+3	; 0x03
    365c:	89 2b       	or	r24, r25
    365e:	e1 f4       	brne	.+56     	; 0x3698
    3660:	84 81       	ldd	r24, Z+4	; 0x04
    3662:	95 81       	ldd	r25, Z+5	; 0x05
    3664:	90 93 7a 03 	sts	0x037A, r25
    3668:	80 93 79 03 	sts	0x0379, r24
    366c:	81 e0       	ldi	r24, 0x01	; 1
    366e:	80 93 b4 03 	sts	0x03B4, r24
    3672:	14 c0       	rjmp	.+40     	; 0x369c
    3674:	80 91 26 03 	lds	r24, 0x0326
    3678:	99 27       	eor	r25, r25
    367a:	f9 2f       	mov	r31, r25
    367c:	e8 2f       	mov	r30, r24
    367e:	ee 0f       	add	r30, r30
    3680:	ff 1f       	adc	r31, r31
    3682:	ee 0f       	add	r30, r30
    3684:	ff 1f       	adc	r31, r31
    3686:	e8 0f       	add	r30, r24
    3688:	f9 1f       	adc	r31, r25
    368a:	e8 0f       	add	r30, r24
    368c:	f9 1f       	adc	r31, r25
    368e:	ec 5c       	subi	r30, 0xCC	; 204
    3690:	fc 4f       	sbci	r31, 0xFC	; 252
    3692:	12 82       	std	Z+2, r1	; 0x02
    3694:	13 82       	std	Z+3, r1	; 0x03
    3696:	11 82       	std	Z+1, r1	; 0x01
    3698:	10 92 b4 03 	sts	0x03B4, r1
    369c:	10 92 bf 02 	sts	0x02BF, r1
    36a0:	10 92 be 02 	sts	0x02BE, r1
    36a4:	10 92 9e 02 	sts	0x029E, r1
    36a8:	10 92 9d 02 	sts	0x029D, r1
    36ac:	8c c0       	rjmp	.+280    	; 0x37c6
    36ae:	e0 91 79 03 	lds	r30, 0x0379
    36b2:	f0 91 7a 03 	lds	r31, 0x037A
    36b6:	e4 0f       	add	r30, r20
    36b8:	f5 1f       	adc	r31, r21
    36ba:	30 83       	st	Z, r19
    36bc:	40 91 9d 02 	lds	r20, 0x029D
    36c0:	50 91 9e 02 	lds	r21, 0x029E
    36c4:	42 30       	cpi	r20, 0x02	; 2
    36c6:	51 05       	cpc	r21, r1
    36c8:	e8 f0       	brcs	.+58     	; 0x3704
    36ca:	20 91 be 02 	lds	r18, 0x02BE
    36ce:	30 91 bf 02 	lds	r19, 0x02BF
    36d2:	e0 91 79 03 	lds	r30, 0x0379
    36d6:	f0 91 7a 03 	lds	r31, 0x037A
    36da:	e4 0f       	add	r30, r20
    36dc:	f5 1f       	adc	r31, r21
    36de:	32 97       	sbiw	r30, 0x02	; 2
    36e0:	80 81       	ld	r24, Z
    36e2:	e0 e6       	ldi	r30, 0x60	; 96
    36e4:	f0 e0       	ldi	r31, 0x00	; 0
    36e6:	83 27       	eor	r24, r19
    36e8:	88 0f       	add	r24, r24
    36ea:	f1 1d       	adc	r31, r1
    36ec:	e8 0f       	add	r30, r24
    36ee:	f1 1d       	adc	r31, r1
    36f0:	c8 95       	lpm
    36f2:	32 2f       	mov	r19, r18
    36f4:	20 2d       	mov	r18, r0
    36f6:	31 96       	adiw	r30, 0x01	; 1
    36f8:	c8 95       	lpm
    36fa:	30 25       	eor	r19, r0
    36fc:	30 93 bf 02 	sts	0x02BF, r19
    3700:	20 93 be 02 	sts	0x02BE, r18
    3704:	4f 5f       	subi	r20, 0xFF	; 255
    3706:	5f 4f       	sbci	r21, 0xFF	; 255
    3708:	50 93 9e 02 	sts	0x029E, r21
    370c:	40 93 9d 02 	sts	0x029D, r20
    3710:	5a c0       	rjmp	.+180    	; 0x37c6
    3712:	3e 37       	cpi	r19, 0x7E	; 126
    3714:	d9 f4       	brne	.+54     	; 0x374c
    3716:	10 92 bf 02 	sts	0x02BF, r1
    371a:	10 92 be 02 	sts	0x02BE, r1
    371e:	10 92 9e 02 	sts	0x029E, r1
    3722:	10 92 9d 02 	sts	0x029D, r1
    3726:	80 91 26 03 	lds	r24, 0x0326
    372a:	99 27       	eor	r25, r25
    372c:	f9 2f       	mov	r31, r25
    372e:	e8 2f       	mov	r30, r24
    3730:	ee 0f       	add	r30, r30
    3732:	ff 1f       	adc	r31, r31
    3734:	ee 0f       	add	r30, r30
    3736:	ff 1f       	adc	r31, r31
    3738:	e8 0f       	add	r30, r24
    373a:	f9 1f       	adc	r31, r25
    373c:	e8 0f       	add	r30, r24
    373e:	f9 1f       	adc	r31, r25
    3740:	ec 5c       	subi	r30, 0xCC	; 204
    3742:	fc 4f       	sbci	r31, 0xFC	; 252
    3744:	12 82       	std	Z+2, r1	; 0x02
    3746:	13 82       	std	Z+3, r1	; 0x03
    3748:	11 82       	std	Z+1, r1	; 0x01
    374a:	3b c0       	rjmp	.+118    	; 0x37c2
    374c:	80 e2       	ldi	r24, 0x20	; 32
    374e:	83 27       	eor	r24, r19
    3750:	e0 91 79 03 	lds	r30, 0x0379
    3754:	f0 91 7a 03 	lds	r31, 0x037A
    3758:	20 91 9d 02 	lds	r18, 0x029D
    375c:	30 91 9e 02 	lds	r19, 0x029E
    3760:	e2 0f       	add	r30, r18
    3762:	f3 1f       	adc	r31, r19
    3764:	80 83       	st	Z, r24
    3766:	40 91 9d 02 	lds	r20, 0x029D
    376a:	50 91 9e 02 	lds	r21, 0x029E
    376e:	42 30       	cpi	r20, 0x02	; 2
    3770:	51 05       	cpc	r21, r1
    3772:	e8 f0       	brcs	.+58     	; 0x37ae
    3774:	20 91 be 02 	lds	r18, 0x02BE
    3778:	30 91 bf 02 	lds	r19, 0x02BF
    377c:	e0 91 79 03 	lds	r30, 0x0379
    3780:	f0 91 7a 03 	lds	r31, 0x037A
    3784:	e4 0f       	add	r30, r20
    3786:	f5 1f       	adc	r31, r21
    3788:	32 97       	sbiw	r30, 0x02	; 2
    378a:	80 81       	ld	r24, Z
    378c:	e0 e6       	ldi	r30, 0x60	; 96
    378e:	f0 e0       	ldi	r31, 0x00	; 0
    3790:	83 27       	eor	r24, r19
    3792:	88 0f       	add	r24, r24
    3794:	f1 1d       	adc	r31, r1
    3796:	e8 0f       	add	r30, r24
    3798:	f1 1d       	adc	r31, r1
    379a:	c8 95       	lpm
    379c:	32 2f       	mov	r19, r18
    379e:	20 2d       	mov	r18, r0
    37a0:	31 96       	adiw	r30, 0x01	; 1
    37a2:	c8 95       	lpm
    37a4:	30 25       	eor	r19, r0
    37a6:	30 93 bf 02 	sts	0x02BF, r19
    37aa:	20 93 be 02 	sts	0x02BE, r18
    37ae:	4f 5f       	subi	r20, 0xFF	; 255
    37b0:	5f 4f       	sbci	r21, 0xFF	; 255
    37b2:	50 93 9e 02 	sts	0x029E, r21
    37b6:	40 93 9d 02 	sts	0x029D, r20
    37ba:	83 e0       	ldi	r24, 0x03	; 3
    37bc:	80 93 b4 03 	sts	0x03B4, r24
    37c0:	02 c0       	rjmp	.+4      	; 0x37c6
    37c2:	10 92 b4 03 	sts	0x03B4, r1
    37c6:	81 e0       	ldi	r24, 0x01	; 1
    37c8:	90 e0       	ldi	r25, 0x00	; 0
    37ca:	08 95       	ret

000037cc <UARTM$HPLUART$putDone>:
    37cc:	8f b7       	in	r24, 0x3f	; 63
    37ce:	f8 94       	cli
    37d0:	99 27       	eor	r25, r25
    37d2:	20 91 25 03 	lds	r18, 0x0325
    37d6:	10 92 25 03 	sts	0x0325, r1
    37da:	8f bf       	out	0x3f, r24	; 63
    37dc:	22 23       	and	r18, r18
    37de:	09 f4       	brne	.+2      	; 0x37e2
    37e0:	a4 c0       	rjmp	.+328    	; 0x392a
    37e2:	80 91 b5 03 	lds	r24, 0x03B5
    37e6:	87 30       	cpi	r24, 0x07	; 7
    37e8:	31 f4       	brne	.+12     	; 0x37f6
    37ea:	10 92 b5 03 	sts	0x03B5, r1
    37ee:	8a ed       	ldi	r24, 0xDA	; 218
    37f0:	99 e1       	ldi	r25, 0x19	; 25
    37f2:	0e 94 2c 02 	call	0x458
    37f6:	21 e0       	ldi	r18, 0x01	; 1
    37f8:	80 91 b5 03 	lds	r24, 0x03B5
    37fc:	99 27       	eor	r25, r25
    37fe:	84 30       	cpi	r24, 0x04	; 4
    3800:	91 05       	cpc	r25, r1
    3802:	09 f4       	brne	.+2      	; 0x3806
    3804:	6e c0       	rjmp	.+220    	; 0x38e2
    3806:	85 30       	cpi	r24, 0x05	; 5
    3808:	91 05       	cpc	r25, r1
    380a:	54 f4       	brge	.+20     	; 0x3820
    380c:	82 30       	cpi	r24, 0x02	; 2
    380e:	91 05       	cpc	r25, r1
    3810:	61 f1       	breq	.+88     	; 0x386a
    3812:	83 30       	cpi	r24, 0x03	; 3
    3814:	91 05       	cpc	r25, r1
    3816:	0c f0       	brlt	.+2      	; 0x381a
    3818:	58 c0       	rjmp	.+176    	; 0x38ca
    381a:	01 97       	sbiw	r24, 0x01	; 1
    381c:	49 f0       	breq	.+18     	; 0x3830
    381e:	7c c0       	rjmp	.+248    	; 0x3918
    3820:	86 30       	cpi	r24, 0x06	; 6
    3822:	91 05       	cpc	r25, r1
    3824:	09 f4       	brne	.+2      	; 0x3828
    3826:	71 c0       	rjmp	.+226    	; 0x390a
    3828:	06 97       	sbiw	r24, 0x06	; 6
    382a:	0c f4       	brge	.+2      	; 0x382e
    382c:	63 c0       	rjmp	.+198    	; 0x38f4
    382e:	74 c0       	rjmp	.+232    	; 0x3918
    3830:	82 e0       	ldi	r24, 0x02	; 2
    3832:	80 93 b5 03 	sts	0x03B5, r24
    3836:	20 91 7f 01 	lds	r18, 0x017F
    383a:	30 91 80 01 	lds	r19, 0x0180
    383e:	80 91 db 01 	lds	r24, 0x01DB
    3842:	e0 e6       	ldi	r30, 0x60	; 96
    3844:	f0 e0       	ldi	r31, 0x00	; 0
    3846:	83 27       	eor	r24, r19
    3848:	88 0f       	add	r24, r24
    384a:	f1 1d       	adc	r31, r1
    384c:	e8 0f       	add	r30, r24
    384e:	f1 1d       	adc	r31, r1
    3850:	c8 95       	lpm
    3852:	32 2f       	mov	r19, r18
    3854:	20 2d       	mov	r18, r0
    3856:	31 96       	adiw	r30, 0x01	; 1
    3858:	c8 95       	lpm
    385a:	30 25       	eor	r19, r0
    385c:	30 93 80 01 	sts	0x0180, r19
    3860:	20 93 7f 01 	sts	0x017F, r18
    3864:	80 91 db 01 	lds	r24, 0x01DB
    3868:	54 c0       	rjmp	.+168    	; 0x3912
    386a:	e0 91 c1 02 	lds	r30, 0x02C1
    386e:	f0 91 c2 02 	lds	r31, 0x02C2
    3872:	20 91 ec 02 	lds	r18, 0x02EC
    3876:	30 91 ed 02 	lds	r19, 0x02ED
    387a:	e2 0f       	add	r30, r18
    387c:	f3 1f       	adc	r31, r19
    387e:	50 81       	ld	r21, Z
    3880:	80 91 7f 01 	lds	r24, 0x017F
    3884:	90 91 80 01 	lds	r25, 0x0180
    3888:	e0 e6       	ldi	r30, 0x60	; 96
    388a:	f0 e0       	ldi	r31, 0x00	; 0
    388c:	45 2f       	mov	r20, r21
    388e:	49 27       	eor	r20, r25
    3890:	44 0f       	add	r20, r20
    3892:	f1 1d       	adc	r31, r1
    3894:	e4 0f       	add	r30, r20
    3896:	f1 1d       	adc	r31, r1
    3898:	c8 95       	lpm
    389a:	98 2f       	mov	r25, r24
    389c:	80 2d       	mov	r24, r0
    389e:	31 96       	adiw	r30, 0x01	; 1
    38a0:	c8 95       	lpm
    38a2:	90 25       	eor	r25, r0
    38a4:	90 93 80 01 	sts	0x0180, r25
    38a8:	80 93 7f 01 	sts	0x017F, r24
    38ac:	2f 5f       	subi	r18, 0xFF	; 255
    38ae:	3f 4f       	sbci	r19, 0xFF	; 255
    38b0:	30 93 ed 02 	sts	0x02ED, r19
    38b4:	20 93 ec 02 	sts	0x02EC, r18
    38b8:	80 91 94 02 	lds	r24, 0x0294
    38bc:	90 91 95 02 	lds	r25, 0x0295
    38c0:	28 17       	cp	r18, r24
    38c2:	39 07       	cpc	r19, r25
    38c4:	98 f0       	brcs	.+38     	; 0x38ec
    38c6:	84 e0       	ldi	r24, 0x04	; 4
    38c8:	0f c0       	rjmp	.+30     	; 0x38e8
    38ca:	80 91 c2 03 	lds	r24, 0x03C2
    38ce:	90 e2       	ldi	r25, 0x20	; 32
    38d0:	89 27       	eor	r24, r25
    38d2:	0e 94 c5 19 	call	0x338a
    38d6:	28 2f       	mov	r18, r24
    38d8:	80 91 45 03 	lds	r24, 0x0345
    38dc:	80 93 b5 03 	sts	0x03B5, r24
    38e0:	1b c0       	rjmp	.+54     	; 0x3918
    38e2:	50 91 7f 01 	lds	r21, 0x017F
    38e6:	85 e0       	ldi	r24, 0x05	; 5
    38e8:	80 93 b5 03 	sts	0x03B5, r24
    38ec:	85 2f       	mov	r24, r21
    38ee:	0e 94 98 1c 	call	0x3930
    38f2:	11 c0       	rjmp	.+34     	; 0x3916
    38f4:	80 91 7f 01 	lds	r24, 0x017F
    38f8:	90 91 80 01 	lds	r25, 0x0180
    38fc:	29 2f       	mov	r18, r25
    38fe:	33 27       	eor	r19, r19
    3900:	86 e0       	ldi	r24, 0x06	; 6
    3902:	80 93 b5 03 	sts	0x03B5, r24
    3906:	82 2f       	mov	r24, r18
    3908:	f2 cf       	rjmp	.-28     	; 0x38ee
    390a:	87 e0       	ldi	r24, 0x07	; 7
    390c:	80 93 b5 03 	sts	0x03B5, r24
    3910:	8e e7       	ldi	r24, 0x7E	; 126
    3912:	0e 94 c5 19 	call	0x338a
    3916:	28 2f       	mov	r18, r24
    3918:	21 30       	cpi	r18, 0x01	; 1
    391a:	39 f0       	breq	.+14     	; 0x392a
    391c:	88 e0       	ldi	r24, 0x08	; 8
    391e:	80 93 b5 03 	sts	0x03B5, r24
    3922:	8a ed       	ldi	r24, 0xDA	; 218
    3924:	99 e1       	ldi	r25, 0x19	; 25
    3926:	0e 94 2c 02 	call	0x458
    392a:	81 e0       	ldi	r24, 0x01	; 1
    392c:	90 e0       	ldi	r25, 0x00	; 0
    392e:	08 95       	ret

00003930 <FramerM$TxArbitraryByte>:
    3930:	98 2f       	mov	r25, r24
    3932:	8d 57       	subi	r24, 0x7D	; 125
