
main.exe:     file format elf32-avr

Sections:
Idx Name          Size      VMA       LMA       File off  Algn
  0 .text         00000470  00000000  00000000  00000094  2**0
                  CONTENTS, ALLOC, LOAD, READONLY, CODE
  1 .data         00000000  00800060  00000470  00000504  2**0
                  CONTENTS, ALLOC, LOAD, DATA
  2 .bss          00000024  00800060  00800060  00000504  2**0
                  ALLOC
  3 .noinit       00000000  00800084  00800084  00000504  2**0
                  CONTENTS
  4 .eeprom       00000000  00810000  00810000  00000504  2**0
                  CONTENTS
  5 .stab         00000360  00000000  00000000  00000504  2**2
                  CONTENTS, READONLY, DEBUGGING
  6 .stabstr      00000051  00000000  00000000  00000864  2**0
                  CONTENTS, READONLY, DEBUGGING
Disassembly of section .text:

00000000 <__vectors>:
   0:	0c 94 30 00 	jmp	0x60
   4:	0c 94 50 00 	jmp	0xa0
   8:	0c 94 50 00 	jmp	0xa0
   c:	0c 94 50 00 	jmp	0xa0
  10:	0c 94 50 00 	jmp	0xa0
  14:	0c 94 50 00 	jmp	0xa0
  18:	0c 94 50 00 	jmp	0xa0
  1c:	0c 94 50 00 	jmp	0xa0
  20:	0c 94 50 00 	jmp	0xa0
  24:	0c 94 50 00 	jmp	0xa0
  28:	0c 94 50 00 	jmp	0xa0
  2c:	0c 94 50 00 	jmp	0xa0
  30:	0c 94 50 00 	jmp	0xa0
  34:	0c 94 50 00 	jmp	0xa0
  38:	0c 94 50 00 	jmp	0xa0
  3c:	0c 94 12 01 	jmp	0x224
  40:	0c 94 c5 01 	jmp	0x38a
  44:	0c 94 50 00 	jmp	0xa0
  48:	0c 94 50 00 	jmp	0xa0
  4c:	0c 94 50 00 	jmp	0xa0
  50:	0c 94 50 00 	jmp	0xa0
  54:	0c 94 50 00 	jmp	0xa0
  58:	0c 94 50 00 	jmp	0xa0
  5c:	0c 94 50 00 	jmp	0xa0

00000060 <__ctors_end>:
  60:	11 24       	eor	r1, r1
  62:	1f be       	out	0x3f, r1	; 63
  64:	cf ef       	ldi	r28, 0xFF	; 255
  66:	df e0       	ldi	r29, 0x0F	; 15
  68:	de bf       	out	0x3e, r29	; 62
  6a:	cd bf       	out	0x3d, r28	; 61

0000006c <__do_copy_data>:
  6c:	10 e0       	ldi	r17, 0x00	; 0
  6e:	a0 e6       	ldi	r26, 0x60	; 96
  70:	b0 e0       	ldi	r27, 0x00	; 0
  72:	e0 e7       	ldi	r30, 0x70	; 112
  74:	f4 e0       	ldi	r31, 0x04	; 4
  76:	0f ef       	ldi	r16, 0xFF	; 255

00000078 <.__do_copy_data_carry>:
  78:	03 95       	inc	r16
  7a:	0b bf       	out	0x3b, r16	; 59
  7c:	04 c0       	rjmp	.+8      	; 0x86

0000007e <.__do_copy_data_loop>:
  7e:	d8 95       	elpm
  80:	0d 92       	st	X+, r0
  82:	31 96       	adiw	r30, 0x01	; 1
  84:	c8 f3       	brcs	.-14     	; 0x78

00000086 <.__do_copy_data_start>:
  86:	a0 36       	cpi	r26, 0x60	; 96
  88:	b1 07       	cpc	r27, r17
  8a:	c9 f7       	brne	.-14     	; 0x7e

0000008c <__do_clear_bss>:
  8c:	10 e0       	ldi	r17, 0x00	; 0
  8e:	a0 e6       	ldi	r26, 0x60	; 96
  90:	b0 e0       	ldi	r27, 0x00	; 0
  92:	01 c0       	rjmp	.+2      	; 0x96

00000094 <.do_clear_bss_loop>:
  94:	1d 92       	st	X+, r1

00000096 <.do_clear_bss_start>:
  96:	a4 38       	cpi	r26, 0x84	; 132
  98:	b1 07       	cpc	r27, r17
  9a:	e1 f7       	brne	.-8      	; 0x94
  9c:	0c 94 7b 00 	jmp	0xf6

000000a0 <__bad_interrupt>:
  a0:	0c 94 00 00 	jmp	0x0

000000a4 <TOS_post>:
  a4:	48 2f       	mov	r20, r24
  a6:	59 2f       	mov	r21, r25
  a8:	8f b7       	in	r24, 0x3f	; 63
  aa:	f8 94       	cli
  ac:	28 2f       	mov	r18, r24
  ae:	33 27       	eor	r19, r19
  b0:	e0 91 76 00 	lds	r30, 0x0076
  b4:	80 91 76 00 	lds	r24, 0x0076
  b8:	8f 5f       	subi	r24, 0xFF	; 255
  ba:	80 93 76 00 	sts	0x0076, r24
  be:	80 91 76 00 	lds	r24, 0x0076
  c2:	87 70       	andi	r24, 0x07	; 7
  c4:	80 93 76 00 	sts	0x0076, r24
  c8:	90 91 76 00 	lds	r25, 0x0076
  cc:	80 91 73 00 	lds	r24, 0x0073
  d0:	98 17       	cp	r25, r24
  d2:	59 f0       	breq	.+22     	; 0xea
  d4:	2f bf       	out	0x3f, r18	; 63
  d6:	ff 27       	eor	r31, r31
  d8:	ee 0f       	add	r30, r30
  da:	ff 1f       	adc	r31, r31
  dc:	ee 59       	subi	r30, 0x9E	; 158
  de:	ff 4f       	sbci	r31, 0xFF	; 255
  e0:	40 83       	st	Z, r20
  e2:	51 83       	std	Z+1, r21	; 0x01
  e4:	81 e0       	ldi	r24, 0x01	; 1
  e6:	90 e0       	ldi	r25, 0x00	; 0
  e8:	08 95       	ret
  ea:	e0 93 76 00 	sts	0x0076, r30
  ee:	2f bf       	out	0x3f, r18	; 63
  f0:	80 e0       	ldi	r24, 0x00	; 0
  f2:	90 e0       	ldi	r25, 0x00	; 0
  f4:	08 95       	ret

000000f6 <main>:
  f6:	cf ef       	ldi	r28, 0xFF	; 255
  f8:	df e0       	ldi	r29, 0x0F	; 15
  fa:	de bf       	out	0x3e, r29	; 62
  fc:	cd bf       	out	0x3d, r28	; 61
  fe:	1a ba       	out	0x1a, r1	; 26
 100:	17 ba       	out	0x17, r1	; 23
 102:	11 ba       	out	0x11, r1	; 17
 104:	82 e0       	ldi	r24, 0x02	; 2
 106:	82 b9       	out	0x02, r24	; 2
 108:	83 b9       	out	0x03, r24	; 3
 10a:	d2 9a       	sbi	0x1a, 2	; 26
 10c:	d0 9a       	sbi	0x1a, 0	; 26
 10e:	d1 9a       	sbi	0x1a, 1	; 26
 110:	8d 9a       	sbi	0x11, 5	; 17
 112:	17 9a       	sbi	0x02, 7	; 2
 114:	8f 9a       	sbi	0x11, 7	; 17
 116:	8e 9a       	sbi	0x11, 6	; 17
 118:	bb 9a       	sbi	0x17, 3	; 23
 11a:	1f 9a       	sbi	0x03, 7	; 3
 11c:	b8 98       	cbi	0x17, 0	; 23
 11e:	da 9a       	sbi	0x1b, 2	; 27
 120:	d8 9a       	sbi	0x1b, 0	; 27
 122:	d9 9a       	sbi	0x1b, 1	; 27
 124:	14 9a       	sbi	0x02, 4	; 2
 126:	1c 9a       	sbi	0x03, 4	; 3
 128:	15 98       	cbi	0x02, 5	; 2
 12a:	1d 9a       	sbi	0x03, 5	; 3
 12c:	80 e0       	ldi	r24, 0x00	; 0
 12e:	d9 9a       	sbi	0x1b, 1	; 27
 130:	95 98       	cbi	0x12, 5	; 18
 132:	da 9a       	sbi	0x1b, 2	; 27
 134:	da 98       	cbi	0x1b, 2	; 27
 136:	95 9a       	sbi	0x12, 5	; 18
 138:	8f 5f       	subi	r24, 0xFF	; 255
 13a:	87 39       	cpi	r24, 0x97	; 151
 13c:	c0 f3       	brcs	.-16     	; 0x12e
 13e:	80 e0       	ldi	r24, 0x00	; 0
 140:	d9 98       	cbi	0x1b, 1	; 27
 142:	95 98       	cbi	0x12, 5	; 18
 144:	da 9a       	sbi	0x1b, 2	; 27
 146:	da 98       	cbi	0x1b, 2	; 27
 148:	95 9a       	sbi	0x12, 5	; 18
 14a:	8f 5f       	subi	r24, 0xFF	; 255
 14c:	8a 30       	cpi	r24, 0x0A	; 10
 14e:	c0 f3       	brcs	.-16     	; 0x140
 150:	d9 9a       	sbi	0x1b, 1	; 27
 152:	da 9a       	sbi	0x1b, 2	; 27
 154:	8a e0       	ldi	r24, 0x0A	; 10
 156:	80 93 60 00 	sts	0x0060, r24
 15a:	10 92 76 00 	sts	0x0076, r1
 15e:	10 92 73 00 	sts	0x0073, r1
 162:	8f b7       	in	r24, 0x3f	; 63
 164:	f8 94       	cli
 166:	99 27       	eor	r25, r25
 168:	10 92 75 00 	sts	0x0075, r1
 16c:	8f bf       	out	0x3f, r24	; 63
 16e:	8f b7       	in	r24, 0x3f	; 63
 170:	f8 94       	cli
 172:	99 27       	eor	r25, r25
 174:	10 92 82 00 	sts	0x0082, r1
 178:	da 9a       	sbi	0x1b, 2	; 27
 17a:	d8 9a       	sbi	0x1b, 0	; 27
 17c:	d9 9a       	sbi	0x1b, 1	; 27
 17e:	8f bf       	out	0x3f, r24	; 63
 180:	8f b7       	in	r24, 0x3f	; 63
 182:	f8 94       	cli
 184:	28 2f       	mov	r18, r24
 186:	33 27       	eor	r19, r19
 188:	da 98       	cbi	0x1b, 2	; 27
 18a:	81 e0       	ldi	r24, 0x01	; 1
 18c:	80 93 82 00 	sts	0x0082, r24
 190:	2f bf       	out	0x3f, r18	; 63
 192:	8f b7       	in	r24, 0x3f	; 63
 194:	f8 94       	cli
 196:	28 2f       	mov	r18, r24
 198:	33 27       	eor	r19, r19
 19a:	87 b7       	in	r24, 0x37	; 55
 19c:	8e 7f       	andi	r24, 0xFE	; 254
 19e:	87 bf       	out	0x37, r24	; 55
 1a0:	87 b7       	in	r24, 0x37	; 55
 1a2:	8d 7f       	andi	r24, 0xFD	; 253
 1a4:	87 bf       	out	0x37, r24	; 55
 1a6:	80 b7       	in	r24, 0x30	; 48
 1a8:	88 60       	ori	r24, 0x08	; 8
 1aa:	80 bf       	out	0x30, r24	; 48
 1ac:	8e e0       	ldi	r24, 0x0E	; 14
 1ae:	83 bf       	out	0x33, r24	; 51
 1b0:	12 be       	out	0x32, r1	; 50
 1b2:	80 e8       	ldi	r24, 0x80	; 128
 1b4:	81 bf       	out	0x31, r24	; 49
 1b6:	87 b7       	in	r24, 0x37	; 55
 1b8:	82 60       	ori	r24, 0x02	; 2
 1ba:	87 bf       	out	0x37, r24	; 55
 1bc:	2f bf       	out	0x3f, r18	; 63
 1be:	78 94       	sei
 1c0:	90 91 73 00 	lds	r25, 0x0073
 1c4:	80 91 76 00 	lds	r24, 0x0076
 1c8:	98 17       	cp	r25, r24
 1ca:	19 f4       	brne	.+6      	; 0x1d2
 1cc:	80 e0       	ldi	r24, 0x00	; 0
 1ce:	90 e0       	ldi	r25, 0x00	; 0
 1d0:	20 c0       	rjmp	.+64     	; 0x212
 1d2:	8f b7       	in	r24, 0x3f	; 63
 1d4:	f8 94       	cli
 1d6:	28 2f       	mov	r18, r24
 1d8:	33 27       	eor	r19, r19
 1da:	90 91 73 00 	lds	r25, 0x0073
 1de:	80 91 73 00 	lds	r24, 0x0073
 1e2:	8f 5f       	subi	r24, 0xFF	; 255
 1e4:	80 93 73 00 	sts	0x0073, r24
 1e8:	80 91 73 00 	lds	r24, 0x0073
 1ec:	87 70       	andi	r24, 0x07	; 7
 1ee:	80 93 73 00 	sts	0x0073, r24
 1f2:	e9 2f       	mov	r30, r25
 1f4:	ff 27       	eor	r31, r31
 1f6:	ee 0f       	add	r30, r30
 1f8:	ff 1f       	adc	r31, r31
 1fa:	ee 59       	subi	r30, 0x9E	; 158
 1fc:	ff 4f       	sbci	r31, 0xFF	; 255
 1fe:	80 81       	ld	r24, Z
 200:	91 81       	ldd	r25, Z+1	; 0x01
 202:	10 82       	st	Z, r1
 204:	11 82       	std	Z+1, r1	; 0x01
 206:	2f bf       	out	0x3f, r18	; 63
 208:	e8 2f       	mov	r30, r24
 20a:	f9 2f       	mov	r31, r25
 20c:	09 95       	icall
 20e:	81 e0       	ldi	r24, 0x01	; 1
 210:	90 e0       	ldi	r25, 0x00	; 0
 212:	88 23       	and	r24, r24
 214:	a9 f6       	brne	.-86     	; 0x1c0
 216:	85 b7       	in	r24, 0x35	; 53
 218:	80 62       	ori	r24, 0x20	; 32
 21a:	85 bf       	out	0x35, r24	; 53
 21c:	88 95       	sleep
 21e:	00 00       	nop
 220:	00 00       	nop
 222:	ce cf       	rjmp	.-100    	; 0x1c0

00000224 <__vector_15>:
 224:	78 94       	sei
 226:	1f 92       	push	r1
 228:	0f 92       	push	r0
 22a:	0f b6       	in	r0, 0x3f	; 63
 22c:	0f 92       	push	r0
 22e:	11 24       	eor	r1, r1
 230:	2f 93       	push	r18
 232:	3f 93       	push	r19
 234:	8f 93       	push	r24
 236:	9f 93       	push	r25
 238:	8f b7       	in	r24, 0x3f	; 63
 23a:	f8 94       	cli
 23c:	28 2f       	mov	r18, r24
 23e:	33 27       	eor	r19, r19
 240:	80 91 61 00 	lds	r24, 0x0061
 244:	88 23       	and	r24, r24
 246:	69 f0       	breq	.+26     	; 0x262
 248:	80 91 74 00 	lds	r24, 0x0074
 24c:	80 93 81 00 	sts	0x0081, r24
 250:	88 60       	ori	r24, 0x08	; 8
 252:	80 93 74 00 	sts	0x0074, r24
 256:	83 bf       	out	0x33, r24	; 51
 258:	80 91 72 00 	lds	r24, 0x0072
 25c:	81 bf       	out	0x31, r24	; 49
 25e:	10 92 61 00 	sts	0x0061, r1
 262:	2f bf       	out	0x3f, r18	; 63
 264:	8f b7       	in	r24, 0x3f	; 63
 266:	f8 94       	cli
 268:	38 2f       	mov	r19, r24
 26a:	20 91 82 00 	lds	r18, 0x0082
 26e:	21 ff       	sbrs	r18, 1
 270:	06 c0       	rjmp	.+12     	; 0x27e
 272:	8f b7       	in	r24, 0x3f	; 63
 274:	f8 94       	cli
 276:	99 27       	eor	r25, r25
 278:	d9 9a       	sbi	0x1b, 1	; 27
 27a:	2d 7f       	andi	r18, 0xFD	; 253
 27c:	05 c0       	rjmp	.+10     	; 0x288
 27e:	8f b7       	in	r24, 0x3f	; 63
 280:	f8 94       	cli
 282:	99 27       	eor	r25, r25
 284:	d9 98       	cbi	0x1b, 1	; 27
 286:	22 60       	ori	r18, 0x02	; 2
 288:	20 93 82 00 	sts	0x0082, r18
 28c:	8f bf       	out	0x3f, r24	; 63
 28e:	3f bf       	out	0x3f, r19	; 63
 290:	8f b7       	in	r24, 0x3f	; 63
 292:	f8 94       	cli
 294:	28 2f       	mov	r18, r24
 296:	33 27       	eor	r19, r19
 298:	90 91 75 00 	lds	r25, 0x0075
 29c:	9f 5f       	subi	r25, 0xFF	; 255
 29e:	90 93 75 00 	sts	0x0075, r25
 2a2:	93 30       	cpi	r25, 0x03	; 3
 2a4:	11 f4       	brne	.+4      	; 0x2aa
 2a6:	10 92 75 00 	sts	0x0075, r1
 2aa:	2f bf       	out	0x3f, r18	; 63
 2ac:	93 30       	cpi	r25, 0x03	; 3
 2ae:	09 f0       	breq	.+2      	; 0x2b2
 2b0:	63 c0       	rjmp	.+198    	; 0x378
 2b2:	8f b7       	in	r24, 0x3f	; 63
 2b4:	f8 94       	cli
 2b6:	28 2f       	mov	r18, r24
 2b8:	8b b3       	in	r24, 0x1b	; 27
 2ba:	80 93 77 00 	sts	0x0077, r24
 2be:	88 b3       	in	r24, 0x18	; 24
 2c0:	80 93 78 00 	sts	0x0078, r24
 2c4:	85 b3       	in	r24, 0x15	; 21
 2c6:	80 93 79 00 	sts	0x0079, r24
 2ca:	82 b3       	in	r24, 0x12	; 18
 2cc:	80 93 7a 00 	sts	0x007A, r24
 2d0:	83 b1       	in	r24, 0x03	; 3
 2d2:	80 93 7b 00 	sts	0x007B, r24
 2d6:	8a b3       	in	r24, 0x1a	; 26
 2d8:	80 93 7c 00 	sts	0x007C, r24
 2dc:	87 b3       	in	r24, 0x17	; 23
 2de:	80 93 7d 00 	sts	0x007D, r24
 2e2:	81 b3       	in	r24, 0x11	; 17
 2e4:	80 93 7e 00 	sts	0x007E, r24
 2e8:	82 b1       	in	r24, 0x02	; 2
 2ea:	80 93 7f 00 	sts	0x007F, r24
 2ee:	83 b7       	in	r24, 0x33	; 51
 2f0:	80 93 80 00 	sts	0x0080, r24
 2f4:	87 b7       	in	r24, 0x37	; 55
 2f6:	8d 7f       	andi	r24, 0xFD	; 253
 2f8:	87 bf       	out	0x37, r24	; 55
 2fa:	80 b7       	in	r24, 0x30	; 48
 2fc:	88 60       	ori	r24, 0x08	; 8
 2fe:	80 bf       	out	0x30, r24	; 48
 300:	8f e0       	ldi	r24, 0x0F	; 15
 302:	83 bf       	out	0x33, r24	; 51
 304:	10 92 83 00 	sts	0x0083, r1
 308:	80 e8       	ldi	r24, 0x80	; 128
 30a:	82 bf       	out	0x32, r24	; 50
 30c:	80 b7       	in	r24, 0x30	; 48
 30e:	99 27       	eor	r25, r25
 310:	87 70       	andi	r24, 0x07	; 7
 312:	90 70       	andi	r25, 0x00	; 0
 314:	89 2b       	or	r24, r25
 316:	d1 f7       	brne	.-12     	; 0x30c
 318:	87 b7       	in	r24, 0x37	; 55
 31a:	81 60       	ori	r24, 0x01	; 1
 31c:	87 bf       	out	0x37, r24	; 55
 31e:	1a ba       	out	0x1a, r1	; 26
 320:	17 ba       	out	0x17, r1	; 23
 322:	11 ba       	out	0x11, r1	; 17
 324:	12 b8       	out	0x02, r1	; 2
 326:	8f ef       	ldi	r24, 0xFF	; 255
 328:	8b bb       	out	0x1b, r24	; 27
 32a:	88 bb       	out	0x18, r24	; 24
 32c:	85 bb       	out	0x15, r24	; 21
 32e:	82 bb       	out	0x12, r24	; 18
 330:	8f 9a       	sbi	0x11, 7	; 17
 332:	97 98       	cbi	0x12, 7	; 18
 334:	8e 9a       	sbi	0x11, 6	; 17
 336:	96 98       	cbi	0x12, 6	; 18
 338:	bb 9a       	sbi	0x17, 3	; 23
 33a:	c3 98       	cbi	0x18, 3	; 24
 33c:	8d 9a       	sbi	0x11, 5	; 17
 33e:	95 9a       	sbi	0x12, 5	; 18
 340:	17 9a       	sbi	0x02, 7	; 2
 342:	1f 98       	cbi	0x03, 7	; 3
 344:	d6 9a       	sbi	0x1a, 6	; 26
 346:	de 98       	cbi	0x1b, 6	; 27
 348:	b8 9a       	sbi	0x17, 0	; 23
 34a:	c0 9a       	sbi	0x18, 0	; 24
 34c:	15 9a       	sbi	0x02, 5	; 2
 34e:	1d 9a       	sbi	0x03, 5	; 3
 350:	14 9a       	sbi	0x02, 4	; 2
 352:	1c 98       	cbi	0x03, 4	; 3
 354:	af 98       	cbi	0x15, 7	; 21
 356:	ae 98       	cbi	0x15, 6	; 21
 358:	ad 98       	cbi	0x15, 5	; 21
 35a:	ac 98       	cbi	0x15, 4	; 21
 35c:	ab 98       	cbi	0x15, 3	; 21
 35e:	aa 98       	cbi	0x15, 2	; 21
 360:	a9 98       	cbi	0x15, 1	; 21
 362:	a8 98       	cbi	0x15, 0	; 21
 364:	85 b7       	in	r24, 0x35	; 53
 366:	80 61       	ori	r24, 0x10	; 16
 368:	85 bf       	out	0x35, r24	; 53
 36a:	85 b7       	in	r24, 0x35	; 53
 36c:	88 60       	ori	r24, 0x08	; 8
 36e:	85 bf       	out	0x35, r24	; 53
 370:	85 b7       	in	r24, 0x35	; 53
 372:	80 62       	ori	r24, 0x20	; 32
 374:	85 bf       	out	0x35, r24	; 53
 376:	2f bf       	out	0x3f, r18	; 63
 378:	9f 91       	pop	r25
 37a:	8f 91       	pop	r24
 37c:	3f 91       	pop	r19
 37e:	2f 91       	pop	r18
 380:	0f 90       	pop	r0
 382:	0f be       	out	0x3f, r0	; 63
 384:	0f 90       	pop	r0
 386:	1f 90       	pop	r1
 388:	18 95       	reti

0000038a <__vector_16>:
 38a:	78 94       	sei
 38c:	1f 92       	push	r1
 38e:	0f 92       	push	r0
 390:	0f b6       	in	r0, 0x3f	; 63
 392:	0f 92       	push	r0
 394:	11 24       	eor	r1, r1
 396:	2f 93       	push	r18
 398:	3f 93       	push	r19
 39a:	8f 93       	push	r24
 39c:	9f 93       	push	r25
 39e:	80 91 83 00 	lds	r24, 0x0083
 3a2:	18 16       	cp	r1, r24
 3a4:	0c f4       	brge	.+2      	; 0x3a8
 3a6:	4a c0       	rjmp	.+148    	; 0x43c
 3a8:	85 b7       	in	r24, 0x35	; 53
 3aa:	87 7f       	andi	r24, 0xF7	; 247
 3ac:	85 bf       	out	0x35, r24	; 53
 3ae:	85 b7       	in	r24, 0x35	; 53
 3b0:	8f 7e       	andi	r24, 0xEF	; 239
 3b2:	85 bf       	out	0x35, r24	; 53
 3b4:	8f b7       	in	r24, 0x3f	; 63
 3b6:	f8 94       	cli
 3b8:	28 2f       	mov	r18, r24
 3ba:	33 27       	eor	r19, r19
 3bc:	80 91 77 00 	lds	r24, 0x0077
 3c0:	8b bb       	out	0x1b, r24	; 27
 3c2:	80 91 78 00 	lds	r24, 0x0078
 3c6:	88 bb       	out	0x18, r24	; 24
 3c8:	80 91 79 00 	lds	r24, 0x0079
 3cc:	85 bb       	out	0x15, r24	; 21
 3ce:	80 91 7a 00 	lds	r24, 0x007A
 3d2:	82 bb       	out	0x12, r24	; 18
 3d4:	80 91 7b 00 	lds	r24, 0x007B
 3d8:	83 b9       	out	0x03, r24	; 3
 3da:	80 91 7c 00 	lds	r24, 0x007C
 3de:	8a bb       	out	0x1a, r24	; 26
 3e0:	80 91 7d 00 	lds	r24, 0x007D
 3e4:	87 bb       	out	0x17, r24	; 23
 3e6:	80 91 7e 00 	lds	r24, 0x007E
 3ea:	81 bb       	out	0x11, r24	; 17
 3ec:	80 91 7f 00 	lds	r24, 0x007F
 3f0:	82 b9       	out	0x02, r24	; 2
 3f2:	80 91 80 00 	lds	r24, 0x0080
 3f6:	83 bf       	out	0x33, r24	; 51
 3f8:	2f bf       	out	0x3f, r18	; 63
 3fa:	87 b7       	in	r24, 0x37	; 55
 3fc:	8e 7f       	andi	r24, 0xFE	; 254
 3fe:	87 bf       	out	0x37, r24	; 55
 400:	87 b7       	in	r24, 0x37	; 55
 402:	82 60       	ori	r24, 0x02	; 2
 404:	87 bf       	out	0x37, r24	; 55
 406:	12 be       	out	0x32, r1	; 50
 408:	80 b7       	in	r24, 0x30	; 48
 40a:	99 27       	eor	r25, r25
 40c:	87 70       	andi	r24, 0x07	; 7
 40e:	90 70       	andi	r25, 0x00	; 0
 410:	89 2b       	or	r24, r25
 412:	d1 f7       	brne	.-12     	; 0x408
 414:	14 9a       	sbi	0x02, 4	; 2
 416:	1c 9a       	sbi	0x03, 4	; 3
 418:	8f b7       	in	r24, 0x3f	; 63
 41a:	f8 94       	cli
 41c:	99 27       	eor	r25, r25
 41e:	10 92 75 00 	sts	0x0075, r1
 422:	8f bf       	out	0x3f, r24	; 63
 424:	8f b7       	in	r24, 0x3f	; 63
 426:	f8 94       	cli
 428:	28 2f       	mov	r18, r24
 42a:	33 27       	eor	r19, r19
 42c:	da 98       	cbi	0x1b, 2	; 27
 42e:	80 91 82 00 	lds	r24, 0x0082
 432:	81 60       	ori	r24, 0x01	; 1
 434:	80 93 82 00 	sts	0x0082, r24
 438:	2f bf       	out	0x3f, r18	; 63
 43a:	0b c0       	rjmp	.+22     	; 0x452
 43c:	81 50       	subi	r24, 0x01	; 1
 43e:	80 93 83 00 	sts	0x0083, r24
 442:	80 e8       	ldi	r24, 0x80	; 128
 444:	82 bf       	out	0x32, r24	; 50
 446:	80 b7       	in	r24, 0x30	; 48
 448:	99 27       	eor	r25, r25
 44a:	87 70       	andi	r24, 0x07	; 7
 44c:	90 70       	andi	r25, 0x00	; 0
 44e:	89 2b       	or	r24, r25
 450:	d1 f7       	brne	.-12     	; 0x446
 452:	9f 91       	pop	r25
 454:	8f 91       	pop	r24
 456:	3f 91       	pop	r19
 458:	2f 91       	pop	r18
 45a:	0f 90       	pop	r0
 45c:	0f be       	out	0x3f, r0	; 63
 45e:	0f 90       	pop	r0
 460:	1f 90       	pop	r1
 462:	18 95       	reti

00000464 <__nesc_atomic_end>:
 464:	8f bf       	out	0x3f, r24	; 63
 466:	08 95       	ret

00000468 <__nesc_atomic_start>:
 468:	8f b7       	in	r24, 0x3f	; 63
 46a:	f8 94       	cli
 46c:	99 27       	eor	r25, r25
 46e:	08 95       	ret