
GenericBase:     file format elf32-avr

Sections:
Idx Name          Size      VMA       LMA       File off  Algn
  0 .data         00000004  00800100  00001d3c  00001dd0  2**0
                  CONTENTS, ALLOC, LOAD, DATA
  1 .text         00001d3c  00000000  00000000  00000094  2**0
                  CONTENTS, ALLOC, LOAD, READONLY, CODE
  2 .bss          0000014c  00800104  00800104  00001dd4  2**0
                  ALLOC
  3 .noinit       00000000  00800250  00800250  00001dd4  2**0
                  CONTENTS
  4 .eeprom       00000000  00810000  00810000  00001dd4  2**0
                  CONTENTS
  5 .stab         0000033c  00000000  00000000  00001dd4  2**2
                  CONTENTS, READONLY, DEBUGGING
  6 .stabstr      00000051  00000000  00000000  00002110  2**0
                  CONTENTS, READONLY, DEBUGGING
Disassembly of section .text:

00000000 <__vectors>:
       0:	0c 94 bc 01 	jmp	0x378
       4:	0c 94 d9 01 	jmp	0x3b2
       8:	0c 94 d9 01 	jmp	0x3b2
       c:	0c 94 d9 01 	jmp	0x3b2
      10:	0c 94 d9 01 	jmp	0x3b2
      14:	0c 94 d9 01 	jmp	0x3b2
      18:	0c 94 d9 01 	jmp	0x3b2
      1c:	0c 94 d9 01 	jmp	0x3b2
      20:	0c 94 d9 01 	jmp	0x3b2
      24:	0c 94 d9 01 	jmp	0x3b2
      28:	0c 94 d9 01 	jmp	0x3b2
      2c:	0c 94 d9 01 	jmp	0x3b2
      30:	0c 94 d9 01 	jmp	0x3b2
      34:	0c 94 d9 01 	jmp	0x3b2
      38:	0c 94 d9 01 	jmp	0x3b2
      3c:	0c 94 60 0b 	jmp	0x16c0
      40:	0c 94 d9 01 	jmp	0x3b2
      44:	0c 94 db 01 	jmp	0x3b6
      48:	0c 94 2e 02 	jmp	0x45c
      4c:	0c 94 d9 01 	jmp	0x3b2
      50:	0c 94 58 02 	jmp	0x4b0
      54:	0c 94 40 06 	jmp	0xc80
      58:	0c 94 d9 01 	jmp	0x3b2
      5c:	0c 94 d9 01 	jmp	0x3b2
      60:	0c 94 d9 01 	jmp	0x3b2
      64:	0c 94 d9 01 	jmp	0x3b2
      68:	0c 94 d9 01 	jmp	0x3b2
      6c:	0c 94 d9 01 	jmp	0x3b2
      70:	0c 94 d9 01 	jmp	0x3b2
      74:	0c 94 d9 01 	jmp	0x3b2
      78:	0c 94 d9 01 	jmp	0x3b2
      7c:	0c 94 d9 01 	jmp	0x3b2
      80:	0c 94 d9 01 	jmp	0x3b2
      84:	0c 94 d9 01 	jmp	0x3b2
      88:	0c 94 d9 01 	jmp	0x3b2

0000008c <__ctors_end>:
      8c:	00 1c       	adc	r0, r0
      8e:	00 5e       	subi	r16, 0xE0	; 224
      90:	00 fa       	bst	r0, 0
      92:	01 73       	andi	r16, 0x31	; 49
      94:	01 ea       	ldi	r16, 0xA1	; 161
      96:	04 bc       	out	0x24, r0	; 36
      98:	0a 5e       	subi	r16, 0xEA	; 234

0000009a <CC1K_LPL_ValidPrecursor>:
      9a:	05 02       	muls	r16, r21
      9c:	02 02       	muls	r16, r18
      9e:	02 02       	muls	r16, r18
      a0:	02 00       	.word	0x0002	; ????

000000a1 <CC1K_LPL_SleepTime>:
      a1:	00 00       	nop
      a3:	00 14       	cp	r0, r0
      a5:	00 55       	subi	r16, 0x50	; 80
      a7:	00 87       	std	Z+8, r16	; 0x08
      a9:	00 b9       	out	0x00, r16	; 0
      ab:	01 e5       	ldi	r16, 0x51	; 81
      ad:	04 3d       	cpi	r16, 0xD4	; 212

000000af <CC1K_LPL_SleepPreamble>:
      af:	00 08       	sbc	r0, r0
      b1:	08 08       	sbc	r0, r8
      b3:	08 08       	sbc	r0, r8
      b5:	08 ae       	std	Y+56, r0	; 0x38

000000b6 <CC1K_LPL_SquelchInit>:
      b6:	ae ef       	ldi	r26, 0xFE	; 254
      b8:	ef ef       	ldi	r30, 0xFF	; 255
      ba:	ef ef       	ldi	r30, 0xFF	; 255
      bc:	ef 31       	cpi	r30, 0x1F	; 31

000000bd <CC1K_Params>:
      bd:	31 58       	subi	r19, 0x81	; 129
      bf:	00 00       	nop
      c1:	57 f6       	brid	.-108    	; 0x57
      c3:	85 03       	fmuls	r16, r21
      c5:	55 44       	sbci	r21, 0x45	; 69
      c7:	02 0f       	add	r16, r18
      c9:	60 e0       	ldi	r22, 0x00	; 0
      cb:	26 1c       	adc	r2, r6
      cd:	6f 55       	subi	r22, 0x5F	; 95
      cf:	70 01       	movw	r14, r0
      d1:	00 00       	nop
      d3:	00 00       	nop
      d5:	00 00       	nop
      d7:	00 00       	nop
      d9:	00 81       	ld	r16, Z
      db:	01 31       	cpi	r16, 0x11	; 17
      dd:	7c 00       	.word	0x007c	; ????
      df:	00 7b       	andi	r16, 0xB0	; 176
      e1:	f9 ae       	std	Y+57, r15	; 0x39
      e3:	02 38       	cpi	r16, 0x82	; 130
      e5:	8c 32       	cpi	r24, 0x2C	; 44
      e7:	80 40       	sbci	r24, 0x00	; 0
      e9:	10 26       	eor	r1, r16
      eb:	a1 6f       	ori	r26, 0xF1	; 241
      ed:	55 10       	cpse	r5, r5
      ef:	01 00       	.word	0x0001	; ????
      f1:	00 00       	nop
      f3:	00 00       	nop
      f5:	00 00       	nop
      f7:	00 00       	nop
      f9:	f3 01       	movw	r30, r6
      fb:	31 51       	subi	r19, 0x11	; 17
      fd:	00 00       	nop
      ff:	50 f7       	brcc	.-44     	; 0xd5
     101:	4f 03       	fmul	r20, r23
     103:	0e 44       	sbci	r16, 0x4E	; 78
     105:	02 0f       	add	r16, r18
     107:	58 e0       	ldi	r21, 0x08	; 8
     109:	26 a1       	ldd	r18, Z+38	; 0x26
     10b:	6f 55       	subi	r22, 0x5F	; 95
     10d:	70 01       	movw	r14, r0
     10f:	00 00       	nop
     111:	00 00       	nop
     113:	00 00       	nop
     115:	00 00       	nop
     117:	00 81       	ld	r16, Z
     119:	01 31       	cpi	r16, 0x11	; 17
     11b:	5c e0       	ldi	r21, 0x0C	; 12
     11d:	00 5c       	subi	r16, 0xC0	; 192
     11f:	db 42       	sbci	r29, 0x2B	; 43
     121:	01 aa       	std	Z+49, r0	; 0x31
     123:	8c 32       	cpi	r24, 0x2C	; 44
     125:	80 30       	cpi	r24, 0x00	; 0
     127:	10 26       	eor	r1, r16
     129:	a1 6f       	ori	r26, 0xF1	; 241
     12b:	55 10       	cpse	r5, r5
     12d:	01 00       	.word	0x0001	; ????
     12f:	00 00       	nop
     131:	00 00       	nop
     133:	00 00       	nop
     135:	00 00       	nop
     137:	f3 01       	movw	r30, r6
     139:	31 45       	sbci	r19, 0x51	; 81
     13b:	60 00       	.word	0x0060	; ????
     13d:	45 55       	subi	r20, 0x55	; 85
     13f:	bb 03       	fmulsu	r19, r19
     141:	9c 80       	ldd	r9, Y+4	; 0x04
     143:	02 0f       	add	r16, r18
     145:	68 e0       	ldi	r22, 0x08	; 8
     147:	26 a1       	ldd	r18, Z+38	; 0x26
     149:	6f 54       	subi	r22, 0x4F	; 79
     14b:	70 01       	movw	r14, r0
     14d:	00 00       	nop
     14f:	00 00       	nop
     151:	00 00       	nop
     153:	00 00       	nop
     155:	00 81       	ld	r16, Z
     157:	01 31       	cpi	r16, 0x11	; 17
     159:	58 00       	.word	0x0058	; ????
     15b:	00 57       	subi	r16, 0x70	; 112
     15d:	f6 85       	ldd	r31, Z+14	; 0x0e
     15f:	03 55       	subi	r16, 0x53	; 83
     161:	90 02       	muls	r25, r16
     163:	0f 60       	ori	r16, 0x0F	; 15
     165:	e0 26       	eor	r14, r16
     167:	a1 6f       	ori	r26, 0xF1	; 241
     169:	55 70       	andi	r21, 0x05	; 5
     16b:	01 00       	.word	0x0001	; ????
     16d:	00 00       	nop
     16f:	00 00       	nop
     171:	00 00       	nop
     173:	00 00       	nop
     175:	81 01       	movw	r16, r2

00000177 <crcTable>:
     177:	00 00       	nop
     179:	21 10       	cpse	r2, r1
     17b:	42 20       	and	r4, r2
     17d:	63 30       	cpi	r22, 0x03	; 3
     17f:	84 40       	sbci	r24, 0x04	; 4
     181:	a5 50       	subi	r26, 0x05	; 5
     183:	c6 60       	ori	r28, 0x06	; 6
     185:	e7 70       	andi	r30, 0x07	; 7
     187:	08 81       	ld	r16, Y
     189:	29 91       	ld	r18, Y+
     18b:	4a a1       	ldd	r20, Y+34	; 0x22
     18d:	6b b1       	in	r22, 0x0b	; 11
     18f:	8c c1       	rjmp	.+792    	; 0x4a9
     191:	ad d1       	rcall	.+858    	; 0x4ed
     193:	ce e1       	ldi	r28, 0x1E	; 30
     195:	ef f1       	brie	.+122    	; 0x211
     197:	31 12       	cpse	r3, r17
     199:	10 02       	muls	r17, r16
     19b:	73 32       	cpi	r23, 0x23	; 35
     19d:	52 22       	and	r5, r18
     19f:	b5 52       	subi	r27, 0x25	; 37
     1a1:	94 42       	sbci	r25, 0x24	; 36
     1a3:	f7 72       	andi	r31, 0x27	; 39
     1a5:	d6 62       	ori	r29, 0x26	; 38
     1a7:	39 93       	st	Y+, r19
     1a9:	18 83       	st	Y, r17
     1ab:	7b b3       	in	r23, 0x1b	; 27
     1ad:	5a a3       	std	Y+34, r21	; 0x22
     1af:	bd d3       	rcall	.+1914   	; 0x92b
     1b1:	9c c3       	rjmp	.+1848   	; 0x8eb
     1b3:	ff f3       	brie	.-2      	; 0x1b3
     1b5:	de e3       	ldi	r29, 0x3E	; 62
     1b7:	62 24       	eor	r6, r2
     1b9:	43 34       	cpi	r20, 0x43	; 67
     1bb:	20 04       	cpc	r2, r0
     1bd:	01 14       	cp	r0, r1
     1bf:	e6 64       	ori	r30, 0x46	; 70
     1c1:	c7 74       	andi	r28, 0x47	; 71
     1c3:	a4 44       	sbci	r26, 0x44	; 68
     1c5:	85 54       	subi	r24, 0x45	; 69
     1c7:	6a a5       	ldd	r22, Y+42	; 0x2a
     1c9:	4b b5       	in	r20, 0x2b	; 43
     1cb:	28 85       	ldd	r18, Y+8	; 0x08
     1cd:	09 95       	icall
     1cf:	ee e5       	ldi	r30, 0x5E	; 94
     1d1:	cf f5       	brid	.+114    	; 0x245
     1d3:	ac c5       	rjmp	.+2904   	; 0xd2d
     1d5:	8d d5       	rcall	.+2842   	; 0xcf1
     1d7:	53 36       	cpi	r21, 0x63	; 99
     1d9:	72 26       	eor	r7, r18
     1db:	11 16       	cp	r1, r17
     1dd:	30 06       	cpc	r3, r16
     1df:	d7 76       	andi	r29, 0x67	; 103
     1e1:	f6 66       	ori	r31, 0x66	; 102
     1e3:	95 56       	subi	r25, 0x65	; 101
     1e5:	b4 46       	sbci	r27, 0x64	; 100
     1e7:	5b b7       	in	r21, 0x3b	; 59
     1e9:	7a a7       	std	Y+42, r23	; 0x2a
     1eb:	19 97       	sbiw	r26, 0x09	; 9
     1ed:	38 87       	std	Y+8, r19	; 0x08
     1ef:	df f7       	brid	.-10     	; 0x1e7
     1f1:	fe e7       	ldi	r31, 0x7E	; 126
     1f3:	9d d7       	rcall	.+3898   	; 0x112f
     1f5:	bc c7       	rjmp	.+3960   	; 0x116f
     1f7:	c4 48       	sbci	r28, 0x84	; 132
     1f9:	e5 58       	subi	r30, 0x85	; 133
     1fb:	86 68       	ori	r24, 0x86	; 134
     1fd:	a7 78       	andi	r26, 0x87	; 135
     1ff:	40 08       	sbc	r4, r0
     201:	61 18       	sub	r6, r1
     203:	02 28       	or	r0, r2
     205:	23 38       	cpi	r18, 0x83	; 131
     207:	cc c9       	rjmp	.-3176   	; 0xfffff5a1
     209:	ed d9       	rcall	.-3110   	; 0xfffff5e5
     20b:	8e e9       	ldi	r24, 0x9E	; 158
     20d:	af f9       	.word	0xf9af	; ????
     20f:	48 89       	ldd	r20, Y+16	; 0x10
     211:	69 99       	sbic	0x0d, 1	; 13
     213:	0a a9       	ldd	r16, Y+50	; 0x32
     215:	2b b9       	out	0x0b, r18	; 11
     217:	f5 5a       	subi	r31, 0xA5	; 165
     219:	d4 4a       	sbci	r29, 0xA4	; 164
     21b:	b7 7a       	andi	r27, 0xA7	; 167
     21d:	96 6a       	ori	r25, 0xA6	; 166
     21f:	71 1a       	sub	r7, r17
     221:	50 0a       	sbc	r5, r16
     223:	33 3a       	cpi	r19, 0xA3	; 163
     225:	12 2a       	or	r1, r18
     227:	fd db       	rcall	.-2054   	; 0xfffffa23
     229:	dc cb       	rjmp	.-2120   	; 0xfffff9e3
     22b:	bf fb       	.word	0xfbbf	; ????
     22d:	9e eb       	ldi	r25, 0xBE	; 190
     22f:	79 9b       	sbis	0x0f, 1	; 15
     231:	58 8b       	std	Y+16, r21	; 0x10
     233:	3b bb       	out	0x1b, r19	; 27
     235:	1a ab       	std	Y+50, r17	; 0x32
     237:	a6 6c       	ori	r26, 0xC6	; 198
     239:	87 7c       	andi	r24, 0xC7	; 199
     23b:	e4 4c       	sbci	r30, 0xC4	; 196
     23d:	c5 5c       	subi	r28, 0xC5	; 197
     23f:	22 2c       	mov	r2, r2
     241:	03 3c       	cpi	r16, 0xC3	; 195
     243:	60 0c       	add	r6, r0
     245:	41 1c       	adc	r4, r1
     247:	ae ed       	ldi	r26, 0xDE	; 222
     249:	8f fd       	.word	0xfd8f	; ????
     24b:	ec cd       	rjmp	.-1064   	; 0xfffffe25
     24d:	cd dd       	rcall	.-1126   	; 0xfffffde9
     24f:	2a ad       	ldd	r18, Y+58	; 0x3a
     251:	0b bd       	out	0x2b, r16	; 43
     253:	68 8d       	ldd	r22, Y+24	; 0x18
     255:	49 9d       	mul	r20, r9
     257:	97 7e       	andi	r25, 0xE7	; 231
     259:	b6 6e       	ori	r27, 0xE6	; 230
     25b:	d5 5e       	subi	r29, 0xE5	; 229
     25d:	f4 4e       	sbci	r31, 0xE4	; 228
     25f:	13 3e       	cpi	r17, 0xE3	; 227
     261:	32 2e       	mov	r3, r18
     263:	51 1e       	adc	r5, r17
     265:	70 0e       	add	r7, r16
     267:	9f ff       	.word	0xff9f	; ????
     269:	be ef       	ldi	r27, 0xFE	; 254
     26b:	dd df       	rcall	.-70     	; 0x227
     26d:	fc cf       	rjmp	.-8      	; 0x267
     26f:	1b bf       	out	0x3b, r17	; 59
     271:	3a af       	std	Y+58, r19	; 0x3a
     273:	59 9f       	mul	r21, r25
     275:	78 8f       	std	Y+24, r23	; 0x18
     277:	88 91       	.word	0x9188	; ????
     279:	a9 81       	ldd	r26, Y+1	; 0x01
     27b:	ca b1       	in	r28, 0x0a	; 10
     27d:	eb a1       	ldd	r30, Y+35	; 0x23
     27f:	0c d1       	rcall	.+536    	; 0x499
     281:	2d c1       	rjmp	.+602    	; 0x4dd
     283:	4e f1       	brts	.+82     	; 0x2d7
     285:	6f e1       	ldi	r22, 0x1F	; 31
     287:	80 10       	cpse	r8, r0
     289:	a1 00       	.word	0x00a1	; ????
     28b:	c2 30       	cpi	r28, 0x02	; 2
     28d:	e3 20       	and	r14, r3
     28f:	04 50       	subi	r16, 0x04	; 4
     291:	25 40       	sbci	r18, 0x05	; 5
     293:	46 70       	andi	r20, 0x06	; 6
     295:	67 60       	ori	r22, 0x07	; 7
     297:	b9 83       	std	Y+1, r27	; 0x01
     299:	98 93       	.word	0x9398	; ????
     29b:	fb a3       	std	Y+35, r31	; 0x23
     29d:	da b3       	in	r29, 0x1a	; 26
     29f:	3d c3       	rjmp	.+1658   	; 0x91b
     2a1:	1c d3       	rcall	.+1592   	; 0x8db
     2a3:	7f e3       	ldi	r23, 0x3F	; 63
     2a5:	5e f3       	brts	.-42     	; 0x27d
     2a7:	b1 02       	muls	r27, r17
     2a9:	90 12       	cpse	r9, r16
     2ab:	f3 22       	and	r15, r19
     2ad:	d2 32       	cpi	r29, 0x22	; 34
     2af:	35 42       	sbci	r19, 0x25	; 37
     2b1:	14 52       	subi	r17, 0x24	; 36
     2b3:	77 62       	ori	r23, 0x27	; 39
     2b5:	56 72       	andi	r21, 0x26	; 38
     2b7:	ea b5       	in	r30, 0x2a	; 42
     2b9:	cb a5       	ldd	r28, Y+43	; 0x2b
     2bb:	a8 95       	wdr
     2bd:	89 85       	ldd	r24, Y+9	; 0x09
     2bf:	6e f5       	brtc	.+90     	; 0x31b
     2c1:	4f e5       	ldi	r20, 0x5F	; 95
     2c3:	2c d5       	rcall	.+2648   	; 0xd1d
     2c5:	0d c5       	rjmp	.+2586   	; 0xce1
     2c7:	e2 34       	cpi	r30, 0x42	; 66
     2c9:	c3 24       	eor	r12, r3
     2cb:	a0 14       	cp	r10, r0
     2cd:	81 04       	cpc	r8, r1
     2cf:	66 74       	andi	r22, 0x46	; 70
     2d1:	47 64       	ori	r20, 0x47	; 71
     2d3:	24 54       	subi	r18, 0x44	; 68
     2d5:	05 44       	sbci	r16, 0x45	; 69
     2d7:	db a7       	std	Y+43, r29	; 0x2b
     2d9:	fa b7       	in	r31, 0x3a	; 58
     2db:	99 87       	std	Y+9, r25	; 0x09
     2dd:	b8 97       	sbiw	r30, 0x28	; 40
     2df:	5f e7       	ldi	r21, 0x7F	; 127
     2e1:	7e f7       	brtc	.-34     	; 0x2c1
     2e3:	1d c7       	rjmp	.+3642   	; 0x111f
     2e5:	3c d7       	rcall	.+3704   	; 0x115f
     2e7:	d3 26       	eor	r13, r19
     2e9:	f2 36       	cpi	r31, 0x62	; 98
     2eb:	91 06       	cpc	r9, r17
     2ed:	b0 16       	cp	r11, r16
     2ef:	57 66       	ori	r21, 0x67	; 103
     2f1:	76 76       	andi	r23, 0x66	; 102
     2f3:	15 46       	sbci	r17, 0x65	; 101
     2f5:	34 56       	subi	r19, 0x64	; 100
     2f7:	4c d9       	rcall	.-3432   	; 0xfffff591
     2f9:	6d c9       	rjmp	.-3366   	; 0xfffff5d5
     2fb:	0e f9       	.word	0xf90e	; ????
     2fd:	2f e9       	ldi	r18, 0x9F	; 159
     2ff:	c8 99       	sbic	0x19, 0	; 25
     301:	e9 89       	ldd	r30, Y+17	; 0x11
     303:	8a b9       	out	0x0a, r24	; 10
     305:	ab a9       	ldd	r26, Y+51	; 0x33
     307:	44 58       	subi	r20, 0x84	; 132
     309:	65 48       	sbci	r22, 0x85	; 133
     30b:	06 78       	andi	r16, 0x86	; 134
     30d:	27 68       	ori	r18, 0x87	; 135
     30f:	c0 18       	sub	r12, r0
     311:	e1 08       	sbc	r14, r1
     313:	82 38       	cpi	r24, 0x82	; 130
     315:	a3 28       	or	r10, r3
     317:	7d cb       	rjmp	.-2310   	; 0xfffffa13
     319:	5c db       	rcall	.-2376   	; 0xfffff9d3
     31b:	3f eb       	ldi	r19, 0xBF	; 191
     31d:	1e fb       	.word	0xfb1e	; ????
     31f:	f9 8b       	std	Y+17, r31	; 0x11
     321:	d8 9b       	sbis	0x1b, 0	; 27
     323:	bb ab       	std	Y+51, r27	; 0x33
     325:	9a bb       	out	0x1a, r25	; 26
     327:	75 4a       	sbci	r23, 0xA5	; 165
     329:	54 5a       	subi	r21, 0xA4	; 164
     32b:	37 6a       	ori	r19, 0xA7	; 167
     32d:	16 7a       	andi	r17, 0xA6	; 166
     32f:	f1 0a       	sbc	r15, r17
     331:	d0 1a       	sub	r13, r16
     333:	b3 2a       	or	r11, r19
     335:	92 3a       	cpi	r25, 0xA2	; 162
     337:	2e fd       	.word	0xfd2e	; ????
     339:	0f ed       	ldi	r16, 0xDF	; 223
     33b:	6c dd       	rcall	.-1320   	; 0xfffffe15
     33d:	4d cd       	rjmp	.-1382   	; 0xfffffdd9
     33f:	aa bd       	out	0x2a, r26	; 42
     341:	8b ad       	ldd	r24, Y+59	; 0x3b
     343:	e8 9d       	mul	r30, r8
     345:	c9 8d       	ldd	r28, Y+25	; 0x19
     347:	26 7c       	andi	r18, 0xC6	; 198
     349:	07 6c       	ori	r16, 0xC7	; 199
     34b:	64 5c       	subi	r22, 0xC4	; 196
     34d:	45 4c       	sbci	r20, 0xC5	; 197
     34f:	a2 3c       	cpi	r26, 0xC2	; 194
     351:	83 2c       	mov	r8, r3
     353:	e0 1c       	adc	r14, r0
     355:	c1 0c       	add	r12, r1
     357:	1f ef       	ldi	r17, 0xFF	; 255
     359:	3e ff       	.word	0xff3e	; ????
     35b:	5d cf       	rjmp	.-326    	; 0x217
     35d:	7c df       	rcall	.-264    	; 0x257
     35f:	9b af       	std	Y+59, r25	; 0x3b
     361:	ba bf       	out	0x3a, r27	; 58
     363:	d9 8f       	std	Y+25, r29	; 0x19
     365:	f8 9f       	mul	r31, r24
     367:	17 6e       	ori	r17, 0xE7	; 231
     369:	36 7e       	andi	r19, 0xE6	; 230
     36b:	55 4e       	sbci	r21, 0xE5	; 229
     36d:	74 5e       	subi	r23, 0xE4	; 228
     36f:	93 2e       	mov	r9, r19
     371:	b2 3e       	cpi	r27, 0xE2	; 226
     373:	d1 0e       	add	r13, r17
     375:	f0 1e       	adc	r15, r16
     377:	00 11       	cpse	r16, r0

00000378 <__init>:
     378:	11 24       	eor	r1, r1
     37a:	1f be       	out	0x3f, r1	; 63
     37c:	cf ef       	ldi	r28, 0xFF	; 255
     37e:	d0 e1       	ldi	r29, 0x10	; 16
     380:	de bf       	out	0x3e, r29	; 62
     382:	cd bf       	out	0x3d, r28	; 61

00000384 <__do_copy_data>:
     384:	11 e0       	ldi	r17, 0x01	; 1
     386:	a0 e0       	ldi	r26, 0x00	; 0
     388:	b1 e0       	ldi	r27, 0x01	; 1
     38a:	ec e3       	ldi	r30, 0x3C	; 60
     38c:	fd e1       	ldi	r31, 0x1D	; 29
     38e:	00 e0       	ldi	r16, 0x00	; 0
     390:	0b bf       	out	0x3b, r16	; 59
     392:	02 c0       	rjmp	.+4      	; 0x398

00000394 <.__do_copy_data_loop>:
     394:	07 90       	elpm	r0, Z+
     396:	0d 92       	st	X+, r0

00000398 <.__do_copy_data_start>:
     398:	a4 30       	cpi	r26, 0x04	; 4
     39a:	b1 07       	cpc	r27, r17
     39c:	d9 f7       	brne	.-10     	; 0x394

0000039e <__do_clear_bss>:
     39e:	12 e0       	ldi	r17, 0x02	; 2
     3a0:	a4 e0       	ldi	r26, 0x04	; 4
     3a2:	b1 e0       	ldi	r27, 0x01	; 1
     3a4:	01 c0       	rjmp	.+2      	; 0x3a8

000003a6 <.do_clear_bss_loop>:
     3a6:	1d 92       	st	X+, r1

000003a8 <.do_clear_bss_start>:
     3a8:	a0 35       	cpi	r26, 0x50	; 80
     3aa:	b1 07       	cpc	r27, r17
     3ac:	e1 f7       	brne	.-8      	; 0x3a6
     3ae:	0c 94 a5 02 	jmp	0x54a

000003b2 <__bad_interrupt>:
     3b2:	0c 94 00 00 	jmp	0x0

000003b6 <__vector_17>:
     3b6:	1f 92       	push	r1
     3b8:	0f 92       	push	r0
     3ba:	0f b6       	in	r0, 0x3f	; 63
     3bc:	0f 92       	push	r0
     3be:	11 24       	eor	r1, r1
     3c0:	2f 93       	push	r18
     3c2:	3f 93       	push	r19
     3c4:	4f 93       	push	r20
     3c6:	5f 93       	push	r21
     3c8:	6f 93       	push	r22
     3ca:	7f 93       	push	r23
     3cc:	8f 93       	push	r24
     3ce:	9f 93       	push	r25
     3d0:	af 93       	push	r26
     3d2:	bf 93       	push	r27
     3d4:	ef 93       	push	r30
     3d6:	ff 93       	push	r31
     3d8:	9f b1       	in	r25, 0x0f	; 15
     3da:	80 91 31 01 	lds	r24, 0x0131
     3de:	8f b9       	out	0x0f, r24	; 15
     3e0:	89 2f       	mov	r24, r25
     3e2:	0e 94 01 07 	call	0xe02
     3e6:	ff 91       	pop	r31
     3e8:	ef 91       	pop	r30
     3ea:	bf 91       	pop	r27
     3ec:	af 91       	pop	r26
     3ee:	9f 91       	pop	r25
     3f0:	8f 91       	pop	r24
     3f2:	7f 91       	pop	r23
     3f4:	6f 91       	pop	r22
     3f6:	5f 91       	pop	r21
     3f8:	4f 91       	pop	r20
     3fa:	3f 91       	pop	r19
     3fc:	2f 91       	pop	r18
     3fe:	0f 90       	pop	r0
     400:	0f be       	out	0x3f, r0	; 63
     402:	0f 90       	pop	r0
     404:	1f 90       	pop	r1
     406:	18 95       	reti

00000408 <TimerM$adjustInterval>:
     408:	26 ee       	ldi	r18, 0xE6	; 230
     40a:	80 91 41 02 	lds	r24, 0x0241
     40e:	90 91 42 02 	lds	r25, 0x0242
     412:	a0 91 43 02 	lds	r26, 0x0243
     416:	b0 91 44 02 	lds	r27, 0x0244
     41a:	00 97       	sbiw	r24, 0x00	; 0
     41c:	a1 05       	cpc	r26, r1
     41e:	b1 05       	cpc	r27, r1
     420:	89 f0       	breq	.+34     	; 0x444
     422:	80 ff       	sbrs	r24, 0
     424:	0f c0       	rjmp	.+30     	; 0x444
     426:	80 91 89 01 	lds	r24, 0x0189
     42a:	90 91 8a 01 	lds	r25, 0x018A
     42e:	a0 91 8b 01 	lds	r26, 0x018B
     432:	b0 91 8c 01 	lds	r27, 0x018C
     436:	86 3e       	cpi	r24, 0xE6	; 230
     438:	91 05       	cpc	r25, r1
     43a:	a1 05       	cpc	r26, r1
     43c:	b1 05       	cpc	r27, r1
     43e:	14 f4       	brge	.+4      	; 0x444
     440:	20 91 89 01 	lds	r18, 0x0189
     444:	8f b7       	in	r24, 0x3f	; 63
     446:	f8 94       	cli
     448:	99 27       	eor	r25, r25
     44a:	20 93 9c 01 	sts	0x019C, r18
     44e:	21 bf       	out	0x31, r18	; 49
     450:	10 92 94 01 	sts	0x0194, r1
     454:	8f bf       	out	0x3f, r24	; 63
     456:	0e 94 e1 05 	call	0xbc2
     45a:	08 95       	ret

0000045c <__vector_18>:
     45c:	1f 92       	push	r1
     45e:	0f 92       	push	r0
     460:	0f b6       	in	r0, 0x3f	; 63
     462:	0f 92       	push	r0
     464:	11 24       	eor	r1, r1
     466:	2f 93       	push	r18
     468:	3f 93       	push	r19
     46a:	4f 93       	push	r20
     46c:	5f 93       	push	r21
     46e:	6f 93       	push	r22
     470:	7f 93       	push	r23
     472:	8f 93       	push	r24
     474:	9f 93       	push	r25
     476:	af 93       	push	r26
     478:	bf 93       	push	r27
     47a:	ef 93       	push	r30
     47c:	ff 93       	push	r31
     47e:	5f 9b       	sbis	0x0b, 7	; 11
     480:	06 c0       	rjmp	.+12     	; 0x48e
     482:	8c b1       	in	r24, 0x0c	; 12
     484:	40 e0       	ldi	r20, 0x00	; 0
     486:	50 e0       	ldi	r21, 0x00	; 0
     488:	60 e0       	ldi	r22, 0x00	; 0
     48a:	0e 94 9d 0b 	call	0x173a
     48e:	ff 91       	pop	r31
     490:	ef 91       	pop	r30
     492:	bf 91       	pop	r27
     494:	af 91       	pop	r26
     496:	9f 91       	pop	r25
     498:	8f 91       	pop	r24
     49a:	7f 91       	pop	r23
     49c:	6f 91       	pop	r22
     49e:	5f 91       	pop	r21
     4a0:	4f 91       	pop	r20
     4a2:	3f 91       	pop	r19
     4a4:	2f 91       	pop	r18
     4a6:	0f 90       	pop	r0
     4a8:	0f be       	out	0x3f, r0	; 63
     4aa:	0f 90       	pop	r0
     4ac:	1f 90       	pop	r1
     4ae:	18 95       	reti

000004b0 <__vector_20>:
     4b0:	78 94       	sei
     4b2:	1f 92       	push	r1
     4b4:	0f 92       	push	r0
     4b6:	0f b6       	in	r0, 0x3f	; 63
     4b8:	0f 92       	push	r0
     4ba:	11 24       	eor	r1, r1
     4bc:	2f 93       	push	r18
     4be:	3f 93       	push	r19
     4c0:	4f 93       	push	r20
     4c2:	5f 93       	push	r21
     4c4:	6f 93       	push	r22
     4c6:	7f 93       	push	r23
     4c8:	8f 93       	push	r24
     4ca:	9f 93       	push	r25
     4cc:	af 93       	push	r26
     4ce:	bf 93       	push	r27
     4d0:	ef 93       	push	r30
     4d2:	ff 93       	push	r31
     4d4:	0e 94 f4 0b 	call	0x17e8
     4d8:	ff 91       	pop	r31
     4da:	ef 91       	pop	r30
     4dc:	bf 91       	pop	r27
     4de:	af 91       	pop	r26
     4e0:	9f 91       	pop	r25
     4e2:	8f 91       	pop	r24
     4e4:	7f 91       	pop	r23
     4e6:	6f 91       	pop	r22
     4e8:	5f 91       	pop	r21
     4ea:	4f 91       	pop	r20
     4ec:	3f 91       	pop	r19
     4ee:	2f 91       	pop	r18
     4f0:	0f 90       	pop	r0
     4f2:	0f be       	out	0x3f, r0	; 63
     4f4:	0f 90       	pop	r0
     4f6:	1f 90       	pop	r1
     4f8:	18 95       	reti

000004fa <TOS_post>:
     4fa:	ac 01       	movw	r20, r24
     4fc:	8f b7       	in	r24, 0x3f	; 63
     4fe:	f8 94       	cli
     500:	28 2f       	mov	r18, r24
     502:	33 27       	eor	r19, r19
     504:	e0 91 91 01 	lds	r30, 0x0191
     508:	80 91 91 01 	lds	r24, 0x0191
     50c:	8f 5f       	subi	r24, 0xFF	; 255
     50e:	80 93 91 01 	sts	0x0191, r24
     512:	80 91 91 01 	lds	r24, 0x0191
     516:	87 70       	andi	r24, 0x07	; 7
     518:	80 93 91 01 	sts	0x0191, r24
     51c:	90 91 91 01 	lds	r25, 0x0191
     520:	80 91 51 01 	lds	r24, 0x0151
     524:	98 17       	cp	r25, r24
     526:	59 f0       	breq	.+22     	; 0x53e
     528:	2f bf       	out	0x3f, r18	; 63
     52a:	ff 27       	eor	r31, r31
     52c:	ee 0f       	add	r30, r30
     52e:	ff 1f       	adc	r31, r31
     530:	e4 5e       	subi	r30, 0xE4	; 228
     532:	fe 4f       	sbci	r31, 0xFE	; 254
     534:	40 83       	st	Z, r20
     536:	51 83       	std	Z+1, r21	; 0x01
     538:	81 e0       	ldi	r24, 0x01	; 1
     53a:	90 e0       	ldi	r25, 0x00	; 0
     53c:	08 95       	ret
     53e:	e0 93 91 01 	sts	0x0191, r30
     542:	2f bf       	out	0x3f, r18	; 63
     544:	80 e0       	ldi	r24, 0x00	; 0
     546:	90 e0       	ldi	r25, 0x00	; 0
     548:	08 95       	ret

0000054a <main>:
     54a:	cf ef       	ldi	r28, 0xFF	; 255
     54c:	d0 e1       	ldi	r29, 0x10	; 16
     54e:	de bf       	out	0x3e, r29	; 62
     550:	cd bf       	out	0x3d, r28	; 61
     552:	d2 9a       	sbi	0x1a, 2	; 26
     554:	d0 9a       	sbi	0x1a, 0	; 26
     556:	d1 9a       	sbi	0x1a, 1	; 26
     558:	d6 98       	cbi	0x1a, 6	; 26
     55a:	a7 9a       	sbi	0x14, 7	; 20
     55c:	a6 9a       	sbi	0x14, 6	; 20
     55e:	a5 9a       	sbi	0x14, 5	; 20
     560:	a4 9a       	sbi	0x14, 4	; 20
     562:	a3 9a       	sbi	0x14, 3	; 20
     564:	a2 9a       	sbi	0x14, 2	; 20
     566:	a1 9a       	sbi	0x14, 1	; 20
     568:	a0 9a       	sbi	0x14, 0	; 20
     56a:	8c 9a       	sbi	0x11, 4	; 17
     56c:	8f 9a       	sbi	0x11, 7	; 17
     56e:	8e 9a       	sbi	0x11, 6	; 17
     570:	bb 98       	cbi	0x17, 3	; 23
     572:	bf 98       	cbi	0x17, 7	; 23
     574:	d4 98       	cbi	0x1a, 4	; 26
     576:	dc 98       	cbi	0x1b, 4	; 27
     578:	d3 9a       	sbi	0x1a, 3	; 26
     57a:	8b 9a       	sbi	0x11, 3	; 17
     57c:	8d 9a       	sbi	0x11, 5	; 17
     57e:	db 9a       	sbi	0x1b, 3	; 27
     580:	da 9a       	sbi	0x1b, 2	; 27
     582:	d8 9a       	sbi	0x1b, 0	; 27
     584:	d9 9a       	sbi	0x1b, 1	; 27
     586:	83 e0       	ldi	r24, 0x03	; 3
     588:	8c 5f       	subi	r24, 0xFC	; 252
     58a:	87 39       	cpi	r24, 0x97	; 151
     58c:	e8 f3       	brcs	.-6      	; 0x588
     58e:	10 e0       	ldi	r17, 0x00	; 0
     590:	8a e0       	ldi	r24, 0x0A	; 10
     592:	80 93 0a 01 	sts	0x010A, r24
     596:	10 93 91 01 	sts	0x0191, r17
     59a:	10 93 51 01 	sts	0x0151, r17
     59e:	8a e0       	ldi	r24, 0x0A	; 10
     5a0:	92 e0       	ldi	r25, 0x02	; 2
     5a2:	90 93 19 01 	sts	0x0119, r25
     5a6:	80 93 18 01 	sts	0x0118, r24
     5aa:	41 e0       	ldi	r20, 0x01	; 1
     5ac:	40 93 4a 02 	sts	0x024A, r20
     5b0:	8f b7       	in	r24, 0x3f	; 63
     5b2:	f8 94       	cli
     5b4:	28 2f       	mov	r18, r24
     5b6:	33 27       	eor	r19, r19
     5b8:	8f e9       	ldi	r24, 0x9F	; 159
     5ba:	91 e0       	ldi	r25, 0x01	; 1
     5bc:	90 93 0e 01 	sts	0x010E, r25
     5c0:	80 93 0d 01 	sts	0x010D, r24
     5c4:	10 93 47 02 	sts	0x0247, r17
     5c8:	90 93 38 02 	sts	0x0238, r25
     5cc:	80 93 37 02 	sts	0x0237, r24
     5d0:	8b 96       	adiw	r24, 0x2b	; 43
     5d2:	90 93 3a 02 	sts	0x023A, r25
     5d6:	80 93 39 02 	sts	0x0239, r24
     5da:	10 93 17 01 	sts	0x0117, r17
     5de:	10 93 f6 01 	sts	0x01F6, r17
     5e2:	10 93 35 02 	sts	0x0235, r17
     5e6:	81 2f       	mov	r24, r17
     5e8:	8d 5f       	subi	r24, 0xFD	; 253
     5ea:	80 93 90 01 	sts	0x0190, r24
     5ee:	2f bf       	out	0x3f, r18	; 63
     5f0:	8f b7       	in	r24, 0x3f	; 63
     5f2:	f8 94       	cli
     5f4:	99 27       	eor	r25, r25
     5f6:	10 93 96 01 	sts	0x0196, r17
     5fa:	8f bf       	out	0x3f, r24	; 63
     5fc:	8f b7       	in	r24, 0x3f	; 63
     5fe:	f8 94       	cli
     600:	28 2f       	mov	r18, r24
     602:	33 27       	eor	r19, r19
     604:	40 93 09 01 	sts	0x0109, r20
     608:	81 2f       	mov	r24, r17
     60a:	8e 5f       	subi	r24, 0xFE	; 254
     60c:	80 93 04 01 	sts	0x0104, r24
     610:	86 e5       	ldi	r24, 0x56	; 86
     612:	91 e0       	ldi	r25, 0x01	; 1
     614:	90 93 93 01 	sts	0x0193, r25
     618:	80 93 92 01 	sts	0x0192, r24
     61c:	10 93 5a 01 	sts	0x015A, r17
     620:	82 e2       	ldi	r24, 0x22	; 34
     622:	90 e0       	ldi	r25, 0x00	; 0
     624:	90 93 8e 01 	sts	0x018E, r25
     628:	80 93 8d 01 	sts	0x018D, r24
     62c:	10 93 16 01 	sts	0x0116, r17
     630:	10 92 46 02 	sts	0x0246, r1
     634:	10 92 45 02 	sts	0x0245, r1
     638:	10 92 13 01 	sts	0x0113, r1
     63c:	10 92 12 01 	sts	0x0112, r1
     640:	10 92 2e 01 	sts	0x012E, r1
     644:	10 92 2d 01 	sts	0x012D, r1
     648:	10 93 08 01 	sts	0x0108, r17
     64c:	10 93 06 01 	sts	0x0106, r17
     650:	10 93 f5 01 	sts	0x01F5, r17
     654:	8f ef       	ldi	r24, 0xFF	; 255
     656:	9f ef       	ldi	r25, 0xFF	; 255
     658:	90 93 98 01 	sts	0x0198, r25
     65c:	80 93 97 01 	sts	0x0197, r24
     660:	90 93 9a 01 	sts	0x019A, r25
     664:	80 93 99 01 	sts	0x0199, r24
     668:	10 93 83 01 	sts	0x0183, r17
     66c:	10 93 9b 01 	sts	0x019B, r17
     670:	e6 eb       	ldi	r30, 0xB6	; 182
     672:	f0 e0       	ldi	r31, 0x00	; 0
     674:	84 91       	lpm	r24, Z
     676:	99 27       	eor	r25, r25
     678:	90 93 82 01 	sts	0x0182, r25
     67c:	80 93 81 01 	sts	0x0181, r24
     680:	2f bf       	out	0x3f, r18	; 63
     682:	8f b7       	in	r24, 0x3f	; 63
     684:	f8 94       	cli
     686:	99 27       	eor	r25, r25
     688:	b9 98       	cbi	0x17, 1	; 23
     68a:	bb 98       	cbi	0x17, 3	; 23
     68c:	ba 98       	cbi	0x17, 2	; 23
     68e:	6b 98       	cbi	0x0d, 3	; 13
     690:	6a 98       	cbi	0x0d, 2	; 13
     692:	6f 9a       	sbi	0x0d, 7	; 13
     694:	6e 9a       	sbi	0x0d, 6	; 13
     696:	8f bf       	out	0x3f, r24	; 63
     698:	d6 98       	cbi	0x1a, 6	; 26
     69a:	8c 9a       	sbi	0x11, 4	; 17
     69c:	8e 9a       	sbi	0x11, 6	; 17
     69e:	8f 9a       	sbi	0x11, 7	; 17
     6a0:	94 9a       	sbi	0x12, 4	; 18
     6a2:	97 9a       	sbi	0x12, 7	; 18
     6a4:	96 9a       	sbi	0x12, 6	; 18
     6a6:	6a e3       	ldi	r22, 0x3A	; 58
     6a8:	81 2f       	mov	r24, r17
     6aa:	0e 94 3d 05 	call	0xa7a
     6ae:	6b e3       	ldi	r22, 0x3B	; 59
     6b0:	81 2f       	mov	r24, r17
     6b2:	0e 94 3d 05 	call	0xa7a
     6b6:	80 ed       	ldi	r24, 0xD0	; 208
     6b8:	97 e0       	ldi	r25, 0x07	; 7
     6ba:	00 00       	nop
     6bc:	00 00       	nop
     6be:	00 00       	nop
     6c0:	00 00       	nop
     6c2:	00 00       	nop
     6c4:	00 00       	nop
     6c6:	00 00       	nop
     6c8:	00 00       	nop
     6ca:	01 97       	sbiw	r24, 0x01	; 1
     6cc:	18 16       	cp	r1, r24
     6ce:	19 06       	cpc	r1, r25
     6d0:	a4 f3       	brlt	.-24     	; 0x6ba
     6d2:	80 e8       	ldi	r24, 0x80	; 128
     6d4:	80 93 3d 01 	sts	0x013D, r24
     6d8:	68 2f       	mov	r22, r24
     6da:	8b e0       	ldi	r24, 0x0B	; 11
     6dc:	0e 94 3d 05 	call	0xa7a
     6e0:	80 e9       	ldi	r24, 0x90	; 144
     6e2:	80 93 3f 01 	sts	0x013F, r24
     6e6:	68 2f       	mov	r22, r24
     6e8:	84 e0       	ldi	r24, 0x04	; 4
     6ea:	0e 94 3d 05 	call	0xa7a
     6ee:	10 92 41 01 	sts	0x0141, r1
     6f2:	8f e6       	ldi	r24, 0x6F	; 111
     6f4:	80 93 42 01 	sts	0x0142, r24
     6f8:	85 e5       	ldi	r24, 0x55	; 85
     6fa:	80 93 43 01 	sts	0x0143, r24
     6fe:	0e 94 61 05 	call	0xac2
     702:	11 e0       	ldi	r17, 0x01	; 1
     704:	10 93 45 01 	sts	0x0145, r17
     708:	61 2f       	mov	r22, r17
     70a:	83 e1       	ldi	r24, 0x13	; 19
     70c:	0e 94 3d 05 	call	0xa7a
     710:	10 93 50 01 	sts	0x0150, r17
     714:	82 e3       	ldi	r24, 0x32	; 50
     716:	91 e0       	ldi	r25, 0x01	; 1
     718:	dc 01       	movw	r26, r24
     71a:	11 96       	adiw	r26, 0x01	; 1
     71c:	ee eb       	ldi	r30, 0xBE	; 190
     71e:	f0 e0       	ldi	r31, 0x00	; 0
     720:	9c 01       	movw	r18, r24
     722:	22 5e       	subi	r18, 0xE2	; 226
     724:	3f 4f       	sbci	r19, 0xFF	; 255
     726:	84 91       	lpm	r24, Z
     728:	8d 93       	st	X+, r24
     72a:	31 96       	adiw	r30, 0x01	; 1
     72c:	2a 17       	cp	r18, r26
     72e:	3b 07       	cpc	r19, r27
     730:	d4 f7       	brge	.-12     	; 0x726
     732:	0e 94 61 05 	call	0xac2
     736:	11 e0       	ldi	r17, 0x01	; 1
     738:	c3 e3       	ldi	r28, 0x33	; 51
     73a:	d1 e0       	ldi	r29, 0x01	; 1
     73c:	89 91       	ld	r24, Y+
     73e:	68 2f       	mov	r22, r24
     740:	81 2f       	mov	r24, r17
     742:	0e 94 3d 05 	call	0xa7a
     746:	1f 5f       	subi	r17, 0xFF	; 255
     748:	1d 30       	cpi	r17, 0x0D	; 13
     74a:	c0 f3       	brcs	.-16     	; 0x73c
     74c:	80 91 44 01 	lds	r24, 0x0144
     750:	68 2f       	mov	r22, r24
     752:	82 e1       	ldi	r24, 0x12	; 18
     754:	0e 94 3d 05 	call	0xa7a
     758:	60 e0       	ldi	r22, 0x00	; 0
     75a:	8b e0       	ldi	r24, 0x0B	; 11
     75c:	0e 94 3d 05 	call	0xa7a
     760:	6f e3       	ldi	r22, 0x3F	; 63
     762:	82 e4       	ldi	r24, 0x42	; 66
     764:	0e 94 3d 05 	call	0xa7a
     768:	61 e1       	ldi	r22, 0x11	; 17
     76a:	80 e0       	ldi	r24, 0x00	; 0
     76c:	0e 94 3d 05 	call	0xa7a
     770:	66 ea       	ldi	r22, 0xA6	; 166
     772:	8e e0       	ldi	r24, 0x0E	; 14
     774:	0e 94 3d 05 	call	0xa7a
     778:	8e e0       	ldi	r24, 0x0E	; 14
     77a:	0e 94 74 05 	call	0xae8
     77e:	83 ff       	sbrs	r24, 3
     780:	fb cf       	rjmp	.-10     	; 0x778
     782:	66 e2       	ldi	r22, 0x26	; 38
     784:	8e e0       	ldi	r24, 0x0E	; 14
     786:	0e 94 3d 05 	call	0xa7a
     78a:	61 ee       	ldi	r22, 0xE1	; 225
     78c:	80 e0       	ldi	r24, 0x00	; 0
     78e:	0e 94 3d 05 	call	0xa7a
     792:	80 91 4f 01 	lds	r24, 0x014F
     796:	68 2f       	mov	r22, r24
     798:	89 e0       	ldi	r24, 0x09	; 9
     79a:	0e 94 3d 05 	call	0xa7a
     79e:	60 e0       	ldi	r22, 0x00	; 0
     7a0:	8b e0       	ldi	r24, 0x0B	; 11
     7a2:	0e 94 3d 05 	call	0xa7a
     7a6:	66 ea       	ldi	r22, 0xA6	; 166
     7a8:	8e e0       	ldi	r24, 0x0E	; 14
     7aa:	0e 94 3d 05 	call	0xa7a
     7ae:	ce e0       	ldi	r28, 0x0E	; 14
     7b0:	8c 2f       	mov	r24, r28
     7b2:	0e 94 74 05 	call	0xae8
     7b6:	83 ff       	sbrs	r24, 3
     7b8:	fa cf       	rjmp	.-12     	; 0x7ae
     7ba:	66 e2       	ldi	r22, 0x26	; 38
     7bc:	8c 2f       	mov	r24, r28
     7be:	0e 94 3d 05 	call	0xa7a
     7c2:	80 e9       	ldi	r24, 0x90	; 144
     7c4:	80 93 3f 01 	sts	0x013F, r24
     7c8:	68 2f       	mov	r22, r24
     7ca:	8d e0       	ldi	r24, 0x0D	; 13
     7cc:	0e 94 3d 05 	call	0xa7a
     7d0:	80 91 50 01 	lds	r24, 0x0150
     7d4:	28 2f       	mov	r18, r24
     7d6:	33 27       	eor	r19, r19
     7d8:	8f b7       	in	r24, 0x3f	; 63
     7da:	f8 94       	cli
     7dc:	99 27       	eor	r25, r25
     7de:	20 93 36 02 	sts	0x0236, r18
     7e2:	8f bf       	out	0x3f, r24	; 63
     7e4:	0e 94 a7 05 	call	0xb4e
     7e8:	8f b7       	in	r24, 0x3f	; 63
     7ea:	f8 94       	cli
     7ec:	99 27       	eor	r25, r25
     7ee:	10 92 fe 01 	sts	0x01FE, r1
     7f2:	8f bf       	out	0x3f, r24	; 63
     7f4:	8f b7       	in	r24, 0x3f	; 63
     7f6:	f8 94       	cli
     7f8:	99 27       	eor	r25, r25
     7fa:	10 92 4f 02 	sts	0x024F, r1
     7fe:	10 92 4e 02 	sts	0x024E, r1
     802:	10 92 fd 01 	sts	0x01FD, r1
     806:	10 92 fc 01 	sts	0x01FC, r1
     80a:	10 92 55 01 	sts	0x0155, r1
     80e:	10 92 54 01 	sts	0x0154, r1
     812:	8f bf       	out	0x3f, r24	; 63
     814:	0e 94 a7 05 	call	0xb4e
     818:	8f b7       	in	r24, 0x3f	; 63
     81a:	f8 94       	cli
     81c:	99 27       	eor	r25, r25
     81e:	c6 b9       	out	0x06, r28	; 6
     820:	17 b8       	out	0x07, r1	; 7
     822:	8f bf       	out	0x3f, r24	; 63
     824:	8f b7       	in	r24, 0x3f	; 63
     826:	f8 94       	cli
     828:	48 2f       	mov	r20, r24
     82a:	55 27       	eor	r21, r21
     82c:	20 91 00 01 	lds	r18, 0x0100
     830:	30 91 01 01 	lds	r19, 0x0101
     834:	81 e5       	ldi	r24, 0x51	; 81
     836:	97 e3       	ldi	r25, 0x37	; 55
     838:	28 9f       	mul	r18, r24
     83a:	b0 01       	movw	r22, r0
     83c:	29 9f       	mul	r18, r25
     83e:	70 0d       	add	r23, r0
     840:	38 9f       	mul	r19, r24
     842:	70 0d       	add	r23, r0
     844:	11 24       	eor	r1, r1
     846:	cb 01       	movw	r24, r22
     848:	8f 5a       	subi	r24, 0xAF	; 175
     84a:	98 4c       	sbci	r25, 0xC8	; 200
     84c:	90 93 9e 01 	sts	0x019E, r25
     850:	80 93 9d 01 	sts	0x019D, r24
     854:	90 93 4d 02 	sts	0x024D, r25
     858:	80 93 4c 02 	sts	0x024C, r24
     85c:	85 e8       	ldi	r24, 0x85	; 133
     85e:	9f e0       	ldi	r25, 0x0F	; 15
     860:	28 9f       	mul	r18, r24
     862:	f0 01       	movw	r30, r0
     864:	29 9f       	mul	r18, r25
     866:	f0 0d       	add	r31, r0
     868:	38 9f       	mul	r19, r24
     86a:	f0 0d       	add	r31, r0
     86c:	11 24       	eor	r1, r1
     86e:	cf 01       	movw	r24, r30
     870:	8b 57       	subi	r24, 0x7B	; 123
     872:	90 4f       	sbci	r25, 0xF0	; 240
     874:	90 93 0c 01 	sts	0x010C, r25
     878:	80 93 0b 01 	sts	0x010B, r24
     87c:	4f bf       	out	0x3f, r20	; 63
     87e:	10 92 41 02 	sts	0x0241, r1
     882:	10 92 42 02 	sts	0x0242, r1
     886:	10 92 43 02 	sts	0x0243, r1
     88a:	10 92 44 02 	sts	0x0244, r1
     88e:	10 92 94 01 	sts	0x0194, r1
     892:	8f ef       	ldi	r24, 0xFF	; 255
     894:	80 93 4b 02 	sts	0x024B, r24
     898:	80 93 05 01 	sts	0x0105, r24
     89c:	10 92 1a 01 	sts	0x011A, r1
     8a0:	83 e0       	ldi	r24, 0x03	; 3
     8a2:	80 93 95 01 	sts	0x0195, r24
     8a6:	96 ee       	ldi	r25, 0xE6	; 230
     8a8:	90 93 9c 01 	sts	0x019C, r25
     8ac:	8f b7       	in	r24, 0x3f	; 63
     8ae:	f8 94       	cli
     8b0:	48 2f       	mov	r20, r24
     8b2:	55 27       	eor	r21, r21
     8b4:	87 b7       	in	r24, 0x37	; 55
     8b6:	8e 7f       	andi	r24, 0xFE	; 254
     8b8:	87 bf       	out	0x37, r24	; 55
     8ba:	87 b7       	in	r24, 0x37	; 55
     8bc:	8d 7f       	andi	r24, 0xFD	; 253
     8be:	87 bf       	out	0x37, r24	; 55
     8c0:	80 b7       	in	r24, 0x30	; 48
     8c2:	88 60       	ori	r24, 0x08	; 8
     8c4:	80 bf       	out	0x30, r24	; 48
     8c6:	8b e0       	ldi	r24, 0x0B	; 11
     8c8:	83 bf       	out	0x33, r24	; 51
     8ca:	12 be       	out	0x32, r1	; 50
     8cc:	91 bf       	out	0x31, r25	; 49
     8ce:	87 b7       	in	r24, 0x37	; 55
     8d0:	82 60       	ori	r24, 0x02	; 2
     8d2:	87 bf       	out	0x37, r24	; 55
     8d4:	4f bf       	out	0x3f, r20	; 63
     8d6:	30 93 3e 02 	sts	0x023E, r19
     8da:	20 93 3d 02 	sts	0x023D, r18
     8de:	8f b7       	in	r24, 0x3f	; 63
     8e0:	f8 94       	cli
     8e2:	99 27       	eor	r25, r25
     8e4:	10 92 f9 01 	sts	0x01F9, r1
     8e8:	da 9a       	sbi	0x1b, 2	; 27
     8ea:	d8 9a       	sbi	0x1b, 0	; 27
     8ec:	d9 9a       	sbi	0x1b, 1	; 27
     8ee:	8f bf       	out	0x3f, r24	; 63
     8f0:	10 92 4a 02 	sts	0x024A, r1
     8f4:	10 92 90 00 	sts	0x0090, r1
     8f8:	8f e0       	ldi	r24, 0x0F	; 15
     8fa:	89 b9       	out	0x09, r24	; 9
     8fc:	22 e0       	ldi	r18, 0x02	; 2
     8fe:	2b b9       	out	0x0b, r18	; 11
     900:	76 e0       	ldi	r23, 0x06	; 6
     902:	70 93 95 00 	sts	0x0095, r23
     906:	88 ed       	ldi	r24, 0xD8	; 216
     908:	8a b9       	out	0x0a, r24	; 10
     90a:	8f b7       	in	r24, 0x3f	; 63
     90c:	f8 94       	cli
     90e:	99 27       	eor	r25, r25
     910:	60 91 09 01 	lds	r22, 0x0109
     914:	8f bf       	out	0x3f, r24	; 63
     916:	61 30       	cpi	r22, 0x01	; 1
     918:	09 f0       	breq	.+2      	; 0x91c
     91a:	7d c0       	rjmp	.+250    	; 0xa16
     91c:	8f b7       	in	r24, 0x3f	; 63
     91e:	f8 94       	cli
     920:	48 2f       	mov	r20, r24
     922:	55 27       	eor	r21, r21
     924:	e0 91 92 01 	lds	r30, 0x0192
     928:	f0 91 93 01 	lds	r31, 0x0193
     92c:	14 82       	std	Z+4, r1	; 0x04
     92e:	20 93 09 01 	sts	0x0109, r18
     932:	10 92 06 01 	sts	0x0106, r1
     936:	10 92 08 01 	sts	0x0108, r1
     93a:	8f ef       	ldi	r24, 0xFF	; 255
     93c:	9f ef       	ldi	r25, 0xFF	; 255
     93e:	90 93 98 01 	sts	0x0198, r25
     942:	80 93 97 01 	sts	0x0197, r24
     946:	80 91 83 01 	lds	r24, 0x0183
     94a:	99 27       	eor	r25, r25
     94c:	88 0f       	add	r24, r24
     94e:	99 1f       	adc	r25, r25
     950:	fc 01       	movw	r30, r24
     952:	e4 57       	subi	r30, 0x74	; 116
     954:	ff 4f       	sbci	r31, 0xFF	; 255
     956:	24 91       	lpm	r18, Z
     958:	33 27       	eor	r19, r19
     95a:	32 2f       	mov	r19, r18
     95c:	22 27       	eor	r18, r18
     95e:	83 57       	subi	r24, 0x73	; 115
     960:	9f 4f       	sbci	r25, 0xFF	; 255
     962:	fc 01       	movw	r30, r24
     964:	84 91       	lpm	r24, Z
     966:	99 27       	eor	r25, r25
     968:	28 2b       	or	r18, r24
     96a:	39 2b       	or	r19, r25
     96c:	30 93 11 01 	sts	0x0111, r19
     970:	20 93 10 01 	sts	0x0110, r18
     974:	4f bf       	out	0x3f, r20	; 63
     976:	80 91 9b 01 	lds	r24, 0x019B
     97a:	88 23       	and	r24, r24
     97c:	69 f5       	brne	.+90     	; 0x9d8
     97e:	6b e3       	ldi	r22, 0x3B	; 59
     980:	0e 94 3d 05 	call	0xa7a
     984:	80 ed       	ldi	r24, 0xD0	; 208
     986:	97 e0       	ldi	r25, 0x07	; 7
     988:	00 00       	nop
     98a:	00 00       	nop
     98c:	00 00       	nop
     98e:	00 00       	nop
     990:	00 00       	nop
     992:	00 00       	nop
     994:	00 00       	nop
     996:	00 00       	nop
     998:	01 97       	sbiw	r24, 0x01	; 1
     99a:	18 16       	cp	r1, r24
     99c:	19 06       	cpc	r1, r25
     99e:	a4 f3       	brlt	.-24     	; 0x988
     9a0:	69 e3       	ldi	r22, 0x39	; 57
     9a2:	80 e0       	ldi	r24, 0x00	; 0
     9a4:	0e 94 3d 05 	call	0xa7a
     9a8:	88 ec       	ldi	r24, 0xC8	; 200
     9aa:	90 e0       	ldi	r25, 0x00	; 0
     9ac:	00 00       	nop
     9ae:	00 00       	nop
     9b0:	00 00       	nop
     9b2:	00 00       	nop
     9b4:	00 00       	nop
     9b6:	00 00       	nop
     9b8:	00 00       	nop
     9ba:	00 00       	nop
     9bc:	01 97       	sbiw	r24, 0x01	; 1
     9be:	18 16       	cp	r1, r24
     9c0:	19 06       	cpc	r1, r25
     9c2:	a4 f3       	brlt	.-24     	; 0x9ac
     9c4:	bb 98       	cbi	0x17, 3	; 23
     9c6:	ba 98       	cbi	0x17, 2	; 23
     9c8:	0e 94 c2 05 	call	0xb84
     9cc:	80 ec       	ldi	r24, 0xC0	; 192
     9ce:	8d b9       	out	0x0d, r24	; 13
     9d0:	b8 98       	cbi	0x17, 0	; 23
     9d2:	0e 94 e1 05 	call	0xbc2
     9d6:	1f c0       	rjmp	.+62     	; 0xa16
     9d8:	99 27       	eor	r25, r25
     9da:	88 0f       	add	r24, r24
     9dc:	99 1f       	adc	r25, r25
     9de:	fc 01       	movw	r30, r24
     9e0:	ef 55       	subi	r30, 0x5F	; 95
     9e2:	ff 4f       	sbci	r31, 0xFF	; 255
     9e4:	24 91       	lpm	r18, Z
     9e6:	33 27       	eor	r19, r19
     9e8:	32 2f       	mov	r19, r18
     9ea:	22 27       	eor	r18, r18
     9ec:	8e 55       	subi	r24, 0x5E	; 94
     9ee:	9f 4f       	sbci	r25, 0xFF	; 255
     9f0:	fc 01       	movw	r30, r24
     9f2:	84 91       	lpm	r24, Z
     9f4:	99 27       	eor	r25, r25
     9f6:	28 2b       	or	r18, r24
     9f8:	39 2b       	or	r19, r25
     9fa:	8f b7       	in	r24, 0x3f	; 63
     9fc:	f8 94       	cli
     9fe:	99 27       	eor	r25, r25
     a00:	70 93 09 01 	sts	0x0109, r23
     a04:	8f bf       	out	0x3f, r24	; 63
     a06:	c9 01       	movw	r24, r18
     a08:	aa 27       	eor	r26, r26
     a0a:	bb 27       	eor	r27, r27
     a0c:	9c 01       	movw	r18, r24
     a0e:	ad 01       	movw	r20, r26
     a10:	80 e0       	ldi	r24, 0x00	; 0
     a12:	0e 94 f3 05 	call	0xbe6
     a16:	78 94       	sei
     a18:	90 91 51 01 	lds	r25, 0x0151
     a1c:	80 91 91 01 	lds	r24, 0x0191
     a20:	98 17       	cp	r25, r24
     a22:	19 f4       	brne	.+6      	; 0xa2a
     a24:	80 e0       	ldi	r24, 0x00	; 0
     a26:	90 e0       	ldi	r25, 0x00	; 0
     a28:	1f c0       	rjmp	.+62     	; 0xa68
     a2a:	8f b7       	in	r24, 0x3f	; 63
     a2c:	f8 94       	cli
     a2e:	28 2f       	mov	r18, r24
     a30:	33 27       	eor	r19, r19
     a32:	90 91 51 01 	lds	r25, 0x0151
     a36:	80 91 51 01 	lds	r24, 0x0151
     a3a:	8f 5f       	subi	r24, 0xFF	; 255
     a3c:	80 93 51 01 	sts	0x0151, r24
     a40:	80 91 51 01 	lds	r24, 0x0151
     a44:	87 70       	andi	r24, 0x07	; 7
     a46:	80 93 51 01 	sts	0x0151, r24
     a4a:	e9 2f       	mov	r30, r25
     a4c:	ff 27       	eor	r31, r31
     a4e:	ee 0f       	add	r30, r30
     a50:	ff 1f       	adc	r31, r31
     a52:	e4 5e       	subi	r30, 0xE4	; 228
     a54:	fe 4f       	sbci	r31, 0xFE	; 254
     a56:	80 81       	ld	r24, Z
     a58:	91 81       	ldd	r25, Z+1	; 0x01
     a5a:	10 82       	st	Z, r1
     a5c:	11 82       	std	Z+1, r1	; 0x01
     a5e:	2f bf       	out	0x3f, r18	; 63
     a60:	fc 01       	movw	r30, r24
     a62:	09 95       	icall
     a64:	81 e0       	ldi	r24, 0x01	; 1
     a66:	90 e0       	ldi	r25, 0x00	; 0
     a68:	88 23       	and	r24, r24
     a6a:	b1 f6       	brne	.-84     	; 0xa18
     a6c:	85 b7       	in	r24, 0x35	; 53
     a6e:	80 62       	ori	r24, 0x20	; 32
     a70:	85 bf       	out	0x35, r24	; 53
     a72:	88 95       	sleep
     a74:	00 00       	nop
     a76:	00 00       	nop
     a78:	cf cf       	rjmp	.-98     	; 0xa18

00000a7a <HPLCC1000M$HPLCC1000$write>:
     a7a:	88 0f       	add	r24, r24
     a7c:	94 98       	cbi	0x12, 4	; 18
     a7e:	96 e0       	ldi	r25, 0x06	; 6
     a80:	87 ff       	sbrs	r24, 7
     a82:	02 c0       	rjmp	.+4      	; 0xa88
     a84:	97 9a       	sbi	0x12, 7	; 18
     a86:	01 c0       	rjmp	.+2      	; 0xa8a
     a88:	97 98       	cbi	0x12, 7	; 18
     a8a:	96 98       	cbi	0x12, 6	; 18
     a8c:	96 9a       	sbi	0x12, 6	; 18
     a8e:	88 0f       	add	r24, r24
     a90:	91 50       	subi	r25, 0x01	; 1
     a92:	97 ff       	sbrs	r25, 7
     a94:	f5 cf       	rjmp	.-22     	; 0xa80
     a96:	97 9a       	sbi	0x12, 7	; 18
     a98:	96 98       	cbi	0x12, 6	; 18
     a9a:	96 9a       	sbi	0x12, 6	; 18
     a9c:	94 9a       	sbi	0x12, 4	; 18
     a9e:	97 e0       	ldi	r25, 0x07	; 7
     aa0:	67 ff       	sbrs	r22, 7
     aa2:	02 c0       	rjmp	.+4      	; 0xaa8
     aa4:	97 9a       	sbi	0x12, 7	; 18
     aa6:	01 c0       	rjmp	.+2      	; 0xaaa
     aa8:	97 98       	cbi	0x12, 7	; 18
     aaa:	96 98       	cbi	0x12, 6	; 18
     aac:	96 9a       	sbi	0x12, 6	; 18
     aae:	66 0f       	add	r22, r22
     ab0:	91 50       	subi	r25, 0x01	; 1
     ab2:	97 ff       	sbrs	r25, 7
     ab4:	f5 cf       	rjmp	.-22     	; 0xaa0
     ab6:	94 9a       	sbi	0x12, 4	; 18
     ab8:	97 9a       	sbi	0x12, 7	; 18
     aba:	96 9a       	sbi	0x12, 6	; 18
     abc:	81 e0       	ldi	r24, 0x01	; 1
     abe:	90 e0       	ldi	r25, 0x00	; 0
     ac0:	08 95       	ret

00000ac2 <CC1000ControlM$cc1000SetModem>:
     ac2:	80 91 41 01 	lds	r24, 0x0141
     ac6:	68 2f       	mov	r22, r24
     ac8:	8f e0       	ldi	r24, 0x0F	; 15
     aca:	0e 94 3d 05 	call	0xa7a
     ace:	80 91 42 01 	lds	r24, 0x0142
     ad2:	68 2f       	mov	r22, r24
     ad4:	80 e1       	ldi	r24, 0x10	; 16
     ad6:	0e 94 3d 05 	call	0xa7a
     ada:	80 91 43 01 	lds	r24, 0x0143
     ade:	68 2f       	mov	r22, r24
     ae0:	81 e1       	ldi	r24, 0x11	; 17
     ae2:	0e 94 3d 05 	call	0xa7a
     ae6:	08 95       	ret

00000ae8 <HPLCC1000M$HPLCC1000$read>:
     ae8:	90 e0       	ldi	r25, 0x00	; 0
     aea:	88 0f       	add	r24, r24
     aec:	94 98       	cbi	0x12, 4	; 18
     aee:	26 e0       	ldi	r18, 0x06	; 6
     af0:	30 e0       	ldi	r19, 0x00	; 0
     af2:	87 ff       	sbrs	r24, 7
     af4:	02 c0       	rjmp	.+4      	; 0xafa
     af6:	97 9a       	sbi	0x12, 7	; 18
     af8:	01 c0       	rjmp	.+2      	; 0xafc
     afa:	97 98       	cbi	0x12, 7	; 18
     afc:	96 98       	cbi	0x12, 6	; 18
     afe:	96 9a       	sbi	0x12, 6	; 18
     b00:	88 0f       	add	r24, r24
     b02:	21 50       	subi	r18, 0x01	; 1
     b04:	30 40       	sbci	r19, 0x00	; 0
     b06:	37 ff       	sbrs	r19, 7
     b08:	f4 cf       	rjmp	.-24     	; 0xaf2
     b0a:	27 e0       	ldi	r18, 0x07	; 7
     b0c:	30 e0       	ldi	r19, 0x00	; 0
     b0e:	97 98       	cbi	0x12, 7	; 18
     b10:	96 98       	cbi	0x12, 6	; 18
     b12:	96 9a       	sbi	0x12, 6	; 18
     b14:	8f 98       	cbi	0x11, 7	; 17
     b16:	94 9a       	sbi	0x12, 4	; 18
     b18:	96 98       	cbi	0x12, 6	; 18
     b1a:	40 e0       	ldi	r20, 0x00	; 0
     b1c:	50 e0       	ldi	r21, 0x00	; 0
     b1e:	87 99       	sbic	0x10, 7	; 16
     b20:	41 e0       	ldi	r20, 0x01	; 1
     b22:	89 2f       	mov	r24, r25
     b24:	99 27       	eor	r25, r25
     b26:	21 50       	subi	r18, 0x01	; 1
     b28:	30 40       	sbci	r19, 0x00	; 0
     b2a:	44 23       	and	r20, r20
     b2c:	29 f0       	breq	.+10     	; 0xb38
     b2e:	88 0f       	add	r24, r24
     b30:	99 1f       	adc	r25, r25
     b32:	98 2f       	mov	r25, r24
     b34:	91 60       	ori	r25, 0x01	; 1
     b36:	02 c0       	rjmp	.+4      	; 0xb3c
     b38:	98 2f       	mov	r25, r24
     b3a:	99 0f       	add	r25, r25
     b3c:	96 9a       	sbi	0x12, 6	; 18
     b3e:	37 ff       	sbrs	r19, 7
     b40:	eb cf       	rjmp	.-42     	; 0xb18
     b42:	94 9a       	sbi	0x12, 4	; 18
     b44:	8f 9a       	sbi	0x11, 7	; 17
     b46:	97 9a       	sbi	0x12, 7	; 18
     b48:	89 2f       	mov	r24, r25
     b4a:	99 27       	eor	r25, r25
     b4c:	08 95       	ret

00000b4e <HPLADCM$init_portmap>:
     b4e:	8f b7       	in	r24, 0x3f	; 63
     b50:	f8 94       	cli
     b52:	28 2f       	mov	r18, r24
     b54:	80 91 0f 01 	lds	r24, 0x010F
     b58:	88 23       	and	r24, r24
     b5a:	91 f4       	brne	.+36     	; 0xb80
     b5c:	80 e0       	ldi	r24, 0x00	; 0
     b5e:	90 e0       	ldi	r25, 0x00	; 0
     b60:	ee ef       	ldi	r30, 0xFE	; 254
     b62:	f1 e0       	ldi	r31, 0x01	; 1
     b64:	81 93       	st	Z+, r24
     b66:	01 96       	adiw	r24, 0x01	; 1
     b68:	8c 30       	cpi	r24, 0x0C	; 12
     b6a:	91 05       	cpc	r25, r1
     b6c:	dc f3       	brlt	.-10     	; 0xb64
     b6e:	8e e1       	ldi	r24, 0x1E	; 30
     b70:	80 93 08 02 	sts	0x0208, r24
     b74:	8f e1       	ldi	r24, 0x1F	; 31
     b76:	80 93 09 02 	sts	0x0209, r24
     b7a:	81 e0       	ldi	r24, 0x01	; 1
     b7c:	80 93 0f 01 	sts	0x010F, r24
     b80:	2f bf       	out	0x3f, r18	; 63
     b82:	08 95       	ret

00000b84 <CC1000ControlM$CC1000Control$RxMode>:
     b84:	61 e1       	ldi	r22, 0x11	; 17
     b86:	80 e0       	ldi	r24, 0x00	; 0
     b88:	0e 94 3d 05 	call	0xa7a
     b8c:	80 91 3b 01 	lds	r24, 0x013B
     b90:	68 2f       	mov	r22, r24
     b92:	89 e0       	ldi	r24, 0x09	; 9
     b94:	0e 94 3d 05 	call	0xa7a
     b98:	60 e0       	ldi	r22, 0x00	; 0
     b9a:	8b e0       	ldi	r24, 0x0B	; 11
     b9c:	0e 94 3d 05 	call	0xa7a
     ba0:	8a ef       	ldi	r24, 0xFA	; 250
     ba2:	90 e0       	ldi	r25, 0x00	; 0
     ba4:	00 00       	nop
     ba6:	00 00       	nop
     ba8:	00 00       	nop
     baa:	00 00       	nop
     bac:	00 00       	nop
     bae:	00 00       	nop
     bb0:	00 00       	nop
     bb2:	00 00       	nop
     bb4:	01 97       	sbiw	r24, 0x01	; 1
     bb6:	18 16       	cp	r1, r24
     bb8:	19 06       	cpc	r1, r25
     bba:	a4 f3       	brlt	.-24     	; 0xba4
     bbc:	81 e0       	ldi	r24, 0x01	; 1
     bbe:	90 e0       	ldi	r25, 0x00	; 0
     bc0:	08 95       	ret

00000bc2 <HPLPowerManagementM$PowerManagement$adjustPower>:
     bc2:	80 91 03 01 	lds	r24, 0x0103
     bc6:	88 23       	and	r24, r24
     bc8:	29 f4       	brne	.+10     	; 0xbd4
     bca:	8c e4       	ldi	r24, 0x4C	; 76
     bcc:	9d e0       	ldi	r25, 0x0D	; 13
     bce:	0e 94 7d 02 	call	0x4fa
     bd2:	06 c0       	rjmp	.+12     	; 0xbe0
     bd4:	85 b7       	in	r24, 0x35	; 53
     bd6:	83 7e       	andi	r24, 0xE3	; 227
     bd8:	85 bf       	out	0x35, r24	; 53
     bda:	85 b7       	in	r24, 0x35	; 53
     bdc:	80 62       	ori	r24, 0x20	; 32
     bde:	85 bf       	out	0x35, r24	; 53
     be0:	80 e0       	ldi	r24, 0x00	; 0
     be2:	90 e0       	ldi	r25, 0x00	; 0
     be4:	08 95       	ret

00000be6 <TimerM$Timer$start>:
     be6:	cf 93       	push	r28
     be8:	df 93       	push	r29
     bea:	78 2f       	mov	r23, r24
     bec:	88 23       	and	r24, r24
     bee:	11 f4       	brne	.+4      	; 0xbf4
     bf0:	62 30       	cpi	r22, 0x02	; 2
     bf2:	1c f0       	brlt	.+6      	; 0xbfa
     bf4:	80 e0       	ldi	r24, 0x00	; 0
     bf6:	90 e0       	ldi	r25, 0x00	; 0
     bf8:	40 c0       	rjmp	.+128    	; 0xc7a
     bfa:	20 93 85 01 	sts	0x0185, r18
     bfe:	30 93 86 01 	sts	0x0186, r19
     c02:	40 93 87 01 	sts	0x0187, r20
     c06:	50 93 88 01 	sts	0x0188, r21
     c0a:	60 93 84 01 	sts	0x0184, r22
     c0e:	8f b7       	in	r24, 0x3f	; 63
     c10:	f8 94       	cli
     c12:	c8 2f       	mov	r28, r24
     c14:	dd 27       	eor	r29, r29
     c16:	82 b7       	in	r24, 0x32	; 50
     c18:	28 0f       	add	r18, r24
     c1a:	31 1d       	adc	r19, r1
     c1c:	41 1d       	adc	r20, r1
     c1e:	51 1d       	adc	r21, r1
     c20:	20 93 89 01 	sts	0x0189, r18
     c24:	30 93 8a 01 	sts	0x018A, r19
     c28:	40 93 8b 01 	sts	0x018B, r20
     c2c:	50 93 8c 01 	sts	0x018C, r21
     c30:	80 91 41 02 	lds	r24, 0x0241
     c34:	90 91 42 02 	lds	r25, 0x0242
     c38:	a0 91 43 02 	lds	r26, 0x0243
     c3c:	b0 91 44 02 	lds	r27, 0x0244
     c40:	81 60       	ori	r24, 0x01	; 1
     c42:	80 93 41 02 	sts	0x0241, r24
     c46:	90 93 42 02 	sts	0x0242, r25
     c4a:	a0 93 43 02 	sts	0x0243, r26
     c4e:	b0 93 44 02 	sts	0x0244, r27
     c52:	80 91 9c 01 	lds	r24, 0x019C
     c56:	99 27       	eor	r25, r25
     c58:	aa 27       	eor	r26, r26
     c5a:	bb 27       	eor	r27, r27
     c5c:	28 17       	cp	r18, r24
     c5e:	39 07       	cpc	r19, r25
     c60:	4a 07       	cpc	r20, r26
     c62:	5b 07       	cpc	r21, r27
     c64:	38 f4       	brcc	.+14     	; 0xc74
     c66:	20 93 9c 01 	sts	0x019C, r18
     c6a:	21 bf       	out	0x31, r18	; 49
     c6c:	70 93 94 01 	sts	0x0194, r23
     c70:	0e 94 e1 05 	call	0xbc2
     c74:	cf bf       	out	0x3f, r28	; 63
     c76:	81 e0       	ldi	r24, 0x01	; 1
     c78:	90 e0       	ldi	r25, 0x00	; 0
     c7a:	df 91       	pop	r29
     c7c:	cf 91       	pop	r28
     c7e:	08 95       	ret

00000c80 <__vector_21>:
     c80:	1f 92       	push	r1
     c82:	0f 92       	push	r0
     c84:	0f b6       	in	r0, 0x3f	; 63
     c86:	0f 92       	push	r0
     c88:	11 24       	eor	r1, r1
     c8a:	ff 92       	push	r15
     c8c:	0f 93       	push	r16
     c8e:	1f 93       	push	r17
     c90:	2f 93       	push	r18
     c92:	3f 93       	push	r19
     c94:	4f 93       	push	r20
     c96:	5f 93       	push	r21
     c98:	6f 93       	push	r22
     c9a:	7f 93       	push	r23
     c9c:	8f 93       	push	r24
     c9e:	9f 93       	push	r25
     ca0:	af 93       	push	r26
     ca2:	bf 93       	push	r27
     ca4:	cf 93       	push	r28
     ca6:	df 93       	push	r29
     ca8:	ef 93       	push	r30
     caa:	ff 93       	push	r31
     cac:	c4 b1       	in	r28, 0x04	; 4
     cae:	d5 b1       	in	r29, 0x05	; 5
     cb0:	d3 70       	andi	r29, 0x03	; 3
     cb2:	34 9a       	sbi	0x06, 4	; 6
     cb4:	37 98       	cbi	0x06, 7	; 6
     cb6:	78 94       	sei
     cb8:	8f b7       	in	r24, 0x3f	; 63
     cba:	f8 94       	cli
     cbc:	f8 2e       	mov	r15, r24
     cbe:	80 91 4e 02 	lds	r24, 0x024E
     cc2:	08 2f       	mov	r16, r24
     cc4:	11 27       	eor	r17, r17
     cc6:	21 e0       	ldi	r18, 0x01	; 1
     cc8:	30 e0       	ldi	r19, 0x00	; 0
     cca:	00 2e       	mov	r0, r16
     ccc:	02 c0       	rjmp	.+4      	; 0xcd2
     cce:	22 0f       	add	r18, r18
     cd0:	33 1f       	adc	r19, r19
     cd2:	0a 94       	dec	r0
     cd4:	e2 f7       	brpl	.-8      	; 0xcce
     cd6:	80 91 fc 01 	lds	r24, 0x01FC
     cda:	90 91 fd 01 	lds	r25, 0x01FD
     cde:	82 23       	and	r24, r18
     ce0:	93 23       	and	r25, r19
     ce2:	89 2b       	or	r24, r25
     ce4:	61 f4       	brne	.+24     	; 0xcfe
     ce6:	20 95       	com	r18
     ce8:	30 95       	com	r19
     cea:	80 91 54 01 	lds	r24, 0x0154
     cee:	90 91 55 01 	lds	r25, 0x0155
     cf2:	82 23       	and	r24, r18
     cf4:	93 23       	and	r25, r19
     cf6:	90 93 55 01 	sts	0x0155, r25
     cfa:	80 93 54 01 	sts	0x0154, r24
     cfe:	40 91 54 01 	lds	r20, 0x0154
     d02:	50 91 55 01 	lds	r21, 0x0155
     d06:	41 15       	cp	r20, r1
     d08:	51 05       	cpc	r21, r1
     d0a:	11 f1       	breq	.+68     	; 0xd50
     d0c:	20 91 4e 02 	lds	r18, 0x024E
     d10:	30 91 4f 02 	lds	r19, 0x024F
     d14:	2f 5f       	subi	r18, 0xFF	; 255
     d16:	3f 4f       	sbci	r19, 0xFF	; 255
     d18:	2c 30       	cpi	r18, 0x0C	; 12
     d1a:	31 05       	cpc	r19, r1
     d1c:	11 f0       	breq	.+4      	; 0xd22
     d1e:	c9 01       	movw	r24, r18
     d20:	02 c0       	rjmp	.+4      	; 0xd26
     d22:	80 e0       	ldi	r24, 0x00	; 0
     d24:	90 e0       	ldi	r25, 0x00	; 0
     d26:	9c 01       	movw	r18, r24
     d28:	81 e0       	ldi	r24, 0x01	; 1
     d2a:	90 e0       	ldi	r25, 0x00	; 0
     d2c:	02 2e       	mov	r0, r18
     d2e:	02 c0       	rjmp	.+4      	; 0xd34
     d30:	88 0f       	add	r24, r24
     d32:	99 1f       	adc	r25, r25
     d34:	0a 94       	dec	r0
     d36:	e2 f7       	brpl	.-8      	; 0xd30
     d38:	84 23       	and	r24, r20
     d3a:	95 23       	and	r25, r21
     d3c:	89 2b       	or	r24, r25
     d3e:	51 f3       	breq	.-44     	; 0xd14
     d40:	30 93 4f 02 	sts	0x024F, r19
     d44:	20 93 4e 02 	sts	0x024E, r18
     d48:	80 91 4e 02 	lds	r24, 0x024E
     d4c:	0e 94 ef 06 	call	0xdde
     d50:	ff be       	out	0x3f, r15	; 63
     d52:	01 15       	cp	r16, r1
     d54:	11 05       	cpc	r17, r1
     d56:	69 f4       	brne	.+26     	; 0xd72
     d58:	8f b7       	in	r24, 0x3f	; 63
     d5a:	f8 94       	cli
     d5c:	28 2f       	mov	r18, r24
     d5e:	33 27       	eor	r19, r19
     d60:	d0 93 9a 01 	sts	0x019A, r29
     d64:	c0 93 99 01 	sts	0x0199, r28
     d68:	81 e0       	ldi	r24, 0x01	; 1
     d6a:	80 93 f5 01 	sts	0x01F5, r24
     d6e:	2f bf       	out	0x3f, r18	; 63
     d70:	01 c0       	rjmp	.+2      	; 0xd74
     d72:	80 e0       	ldi	r24, 0x00	; 0
     d74:	99 27       	eor	r25, r25
     d76:	2f b7       	in	r18, 0x3f	; 63
     d78:	f8 94       	cli
     d7a:	88 23       	and	r24, r24
     d7c:	c9 f4       	brne	.+50     	; 0xdb0
     d7e:	61 e0       	ldi	r22, 0x01	; 1
     d80:	70 e0       	ldi	r23, 0x00	; 0
     d82:	02 c0       	rjmp	.+4      	; 0xd88
     d84:	66 0f       	add	r22, r22
     d86:	77 1f       	adc	r23, r23
     d88:	0a 95       	dec	r16
     d8a:	e2 f7       	brpl	.-8      	; 0xd84
     d8c:	40 91 fc 01 	lds	r20, 0x01FC
     d90:	50 91 fd 01 	lds	r21, 0x01FD
     d94:	ca 01       	movw	r24, r20
     d96:	86 23       	and	r24, r22
     d98:	97 23       	and	r25, r23
     d9a:	89 2b       	or	r24, r25
     d9c:	49 f0       	breq	.+18     	; 0xdb0
     d9e:	cb 01       	movw	r24, r22
     da0:	80 95       	com	r24
     da2:	90 95       	com	r25
     da4:	48 23       	and	r20, r24
     da6:	59 23       	and	r21, r25
     da8:	50 93 fd 01 	sts	0x01FD, r21
     dac:	40 93 fc 01 	sts	0x01FC, r20
     db0:	2f bf       	out	0x3f, r18	; 63
     db2:	ff 91       	pop	r31
     db4:	ef 91       	pop	r30
     db6:	df 91       	pop	r29
     db8:	cf 91       	pop	r28
     dba:	bf 91       	pop	r27
     dbc:	af 91       	pop	r26
     dbe:	9f 91       	pop	r25
     dc0:	8f 91       	pop	r24
     dc2:	7f 91       	pop	r23
     dc4:	6f 91       	pop	r22
     dc6:	5f 91       	pop	r21
     dc8:	4f 91       	pop	r20
     dca:	3f 91       	pop	r19
     dcc:	2f 91       	pop	r18
     dce:	1f 91       	pop	r17
     dd0:	0f 91       	pop	r16
     dd2:	ff 90       	pop	r15
     dd4:	0f 90       	pop	r0
     dd6:	0f be       	out	0x3f, r0	; 63
     dd8:	0f 90       	pop	r0
     dda:	1f 90       	pop	r1
     ddc:	18 95       	reti

00000dde <HPLADCM$ADC$samplePort>:
     dde:	98 2f       	mov	r25, r24
     de0:	8f b7       	in	r24, 0x3f	; 63
     de2:	f8 94       	cli
     de4:	28 2f       	mov	r18, r24
     de6:	33 27       	eor	r19, r19
     de8:	ee ef       	ldi	r30, 0xFE	; 254
     dea:	f1 e0       	ldi	r31, 0x01	; 1
     dec:	e9 0f       	add	r30, r25
     dee:	f1 1d       	adc	r31, r1
     df0:	80 81       	ld	r24, Z
     df2:	8f 71       	andi	r24, 0x1F	; 31
     df4:	87 b9       	out	0x07, r24	; 7
     df6:	2f bf       	out	0x3f, r18	; 63
     df8:	37 9a       	sbi	0x06, 7	; 6
     dfa:	36 9a       	sbi	0x06, 6	; 6
     dfc:	81 e0       	ldi	r24, 0x01	; 1
     dfe:	90 e0       	ldi	r25, 0x00	; 0
     e00:	08 95       	ret

00000e02 <CC1000RadioIntM$SpiByteFifo$dataReady>:
     e02:	1f 93       	push	r17
     e04:	cf 93       	push	r28
     e06:	68 2f       	mov	r22, r24
     e08:	80 91 36 02 	lds	r24, 0x0236
     e0c:	81 11       	cpse	r24, r1
     e0e:	60 95       	com	r22
     e10:	80 91 09 01 	lds	r24, 0x0109
     e14:	48 2f       	mov	r20, r24
     e16:	55 27       	eor	r21, r21
     e18:	42 30       	cpi	r20, 0x02	; 2
     e1a:	51 05       	cpc	r21, r1
     e1c:	09 f4       	brne	.+2      	; 0xe20
     e1e:	ad c0       	rjmp	.+346    	; 0xf7a
     e20:	43 30       	cpi	r20, 0x03	; 3
     e22:	51 05       	cpc	r21, r1
     e24:	24 f4       	brge	.+8      	; 0xe2e
     e26:	41 15       	cp	r20, r1
     e28:	51 05       	cpc	r21, r1
     e2a:	71 f0       	breq	.+28     	; 0xe48
     e2c:	a2 c2       	rjmp	.+1348   	; 0x1372
     e2e:	44 30       	cpi	r20, 0x04	; 4
     e30:	51 05       	cpc	r21, r1
     e32:	09 f4       	brne	.+2      	; 0xe36
     e34:	7e c1       	rjmp	.+764    	; 0x1132
     e36:	44 30       	cpi	r20, 0x04	; 4
     e38:	51 05       	cpc	r21, r1
     e3a:	0c f4       	brge	.+2      	; 0xe3e
     e3c:	04 c1       	rjmp	.+520    	; 0x1046
     e3e:	45 30       	cpi	r20, 0x05	; 5
     e40:	51 05       	cpc	r21, r1
     e42:	09 f4       	brne	.+2      	; 0xe46
     e44:	d8 c1       	rjmp	.+944    	; 0x11f6
     e46:	95 c2       	rjmp	.+1322   	; 0x1372
     e48:	20 91 f8 01 	lds	r18, 0x01F8
     e4c:	8f b7       	in	r24, 0x3f	; 63
     e4e:	f8 94       	cli
     e50:	99 27       	eor	r25, r25
     e52:	20 93 31 01 	sts	0x0131, r18
     e56:	8f bf       	out	0x3f, r24	; 63
     e58:	60 91 3b 02 	lds	r22, 0x023B
     e5c:	70 91 3c 02 	lds	r23, 0x023C
     e60:	6f 5f       	subi	r22, 0xFF	; 255
     e62:	7f 4f       	sbci	r23, 0xFF	; 255
     e64:	70 93 3c 02 	sts	0x023C, r23
     e68:	60 93 3b 02 	sts	0x023B, r22
     e6c:	80 91 04 01 	lds	r24, 0x0104
     e70:	99 27       	eor	r25, r25
     e72:	84 30       	cpi	r24, 0x04	; 4
     e74:	91 05       	cpc	r25, r1
     e76:	59 f1       	breq	.+86     	; 0xece
     e78:	85 30       	cpi	r24, 0x05	; 5
     e7a:	91 05       	cpc	r25, r1
     e7c:	34 f4       	brge	.+12     	; 0xe8a
     e7e:	82 30       	cpi	r24, 0x02	; 2
     e80:	91 05       	cpc	r25, r1
     e82:	59 f0       	breq	.+22     	; 0xe9a
     e84:	03 97       	sbiw	r24, 0x03	; 3
     e86:	b1 f0       	breq	.+44     	; 0xeb4
     e88:	6a c0       	rjmp	.+212    	; 0xf5e
     e8a:	86 30       	cpi	r24, 0x06	; 6
     e8c:	91 05       	cpc	r25, r1
     e8e:	09 f4       	brne	.+2      	; 0xe92
     e90:	5e c0       	rjmp	.+188    	; 0xf4e
     e92:	06 97       	sbiw	r24, 0x06	; 6
     e94:	0c f4       	brge	.+2      	; 0xe98
     e96:	4b c0       	rjmp	.+150    	; 0xf2e
     e98:	62 c0       	rjmp	.+196    	; 0xf5e
     e9a:	80 91 10 01 	lds	r24, 0x0110
     e9e:	90 91 11 01 	lds	r25, 0x0111
     ea2:	68 17       	cp	r22, r24
     ea4:	79 07       	cpc	r23, r25
     ea6:	08 f4       	brcc	.+2      	; 0xeaa
     ea8:	64 c2       	rjmp	.+1224   	; 0x1372
     eaa:	83 e3       	ldi	r24, 0x33	; 51
     eac:	80 93 f8 01 	sts	0x01F8, r24
     eb0:	83 e0       	ldi	r24, 0x03	; 3
     eb2:	52 c0       	rjmp	.+164    	; 0xf58
     eb4:	8c ec       	ldi	r24, 0xCC	; 204
     eb6:	80 93 f8 01 	sts	0x01F8, r24
     eba:	84 e0       	ldi	r24, 0x04	; 4
     ebc:	80 93 04 01 	sts	0x0104, r24
     ec0:	8f ef       	ldi	r24, 0xFF	; 255
     ec2:	9f ef       	ldi	r25, 0xFF	; 255
     ec4:	90 93 3c 02 	sts	0x023C, r25
     ec8:	80 93 3b 02 	sts	0x023B, r24
     ecc:	52 c2       	rjmp	.+1188   	; 0x1372
     ece:	80 91 3b 02 	lds	r24, 0x023B
     ed2:	28 2f       	mov	r18, r24
     ed4:	33 27       	eor	r19, r19
     ed6:	80 91 14 01 	lds	r24, 0x0114
     eda:	90 91 15 01 	lds	r25, 0x0115
     ede:	28 17       	cp	r18, r24
     ee0:	39 07       	cpc	r19, r25
     ee2:	f8 f4       	brcc	.+62     	; 0xf22
     ee4:	e0 91 fa 01 	lds	r30, 0x01FA
     ee8:	f0 91 fb 01 	lds	r31, 0x01FB
     eec:	e6 0f       	add	r30, r22
     eee:	f7 1f       	adc	r31, r23
     ef0:	20 81       	ld	r18, Z
     ef2:	20 93 f8 01 	sts	0x01F8, r18
     ef6:	80 91 2f 01 	lds	r24, 0x012F
     efa:	90 91 30 01 	lds	r25, 0x0130
     efe:	e7 e7       	ldi	r30, 0x77	; 119
     f00:	f1 e0       	ldi	r31, 0x01	; 1
     f02:	29 27       	eor	r18, r25
     f04:	22 0f       	add	r18, r18
     f06:	f1 1d       	adc	r31, r1
     f08:	e2 0f       	add	r30, r18
     f0a:	f1 1d       	adc	r31, r1
     f0c:	c8 95       	lpm
     f0e:	98 2f       	mov	r25, r24
     f10:	80 2d       	mov	r24, r0
     f12:	31 96       	adiw	r30, 0x01	; 1
     f14:	c8 95       	lpm
     f16:	90 25       	eor	r25, r0
     f18:	90 93 30 01 	sts	0x0130, r25
     f1c:	80 93 2f 01 	sts	0x012F, r24
     f20:	28 c2       	rjmp	.+1104   	; 0x1372
     f22:	80 91 2f 01 	lds	r24, 0x012F
     f26:	80 93 f8 01 	sts	0x01F8, r24
     f2a:	85 e0       	ldi	r24, 0x05	; 5
     f2c:	15 c0       	rjmp	.+42     	; 0xf58
     f2e:	80 91 2f 01 	lds	r24, 0x012F
     f32:	90 91 30 01 	lds	r25, 0x0130
     f36:	89 2f       	mov	r24, r25
     f38:	99 27       	eor	r25, r25
     f3a:	80 93 f8 01 	sts	0x01F8, r24
     f3e:	86 e0       	ldi	r24, 0x06	; 6
     f40:	80 93 04 01 	sts	0x0104, r24
     f44:	50 93 3c 02 	sts	0x023C, r21
     f48:	40 93 3b 02 	sts	0x023B, r20
     f4c:	12 c2       	rjmp	.+1060   	; 0x1372
     f4e:	64 30       	cpi	r22, 0x04	; 4
     f50:	71 05       	cpc	r23, r1
     f52:	08 f4       	brcc	.+2      	; 0xf56
     f54:	0e c2       	rjmp	.+1052   	; 0x1372
     f56:	87 e0       	ldi	r24, 0x07	; 7
     f58:	80 93 04 01 	sts	0x0104, r24
     f5c:	0a c2       	rjmp	.+1044   	; 0x1372
     f5e:	bb 98       	cbi	0x17, 3	; 23
     f60:	ba 98       	cbi	0x17, 2	; 23
     f62:	0e 94 c2 05 	call	0xb84
     f66:	10 92 08 01 	sts	0x0108, r1
     f6a:	83 eb       	ldi	r24, 0xB3	; 179
     f6c:	9c e0       	ldi	r25, 0x0C	; 12
     f6e:	0e 94 7d 02 	call	0x4fa
     f72:	88 23       	and	r24, r24
     f74:	09 f4       	brne	.+2      	; 0xf78
     f76:	fd c1       	rjmp	.+1018   	; 0x1372
     f78:	99 c1       	rjmp	.+818    	; 0x12ac
     f7a:	6a 3a       	cpi	r22, 0xAA	; 170
     f7c:	11 f0       	breq	.+4      	; 0xf82
     f7e:	65 35       	cpi	r22, 0x55	; 85
     f80:	71 f5       	brne	.+92     	; 0xfde
     f82:	20 91 45 02 	lds	r18, 0x0245
     f86:	30 91 46 02 	lds	r19, 0x0246
     f8a:	2f 5f       	subi	r18, 0xFF	; 255
     f8c:	3f 4f       	sbci	r19, 0xFF	; 255
     f8e:	30 93 46 02 	sts	0x0246, r19
     f92:	20 93 45 02 	sts	0x0245, r18
     f96:	80 91 9b 01 	lds	r24, 0x019B
     f9a:	e8 2f       	mov	r30, r24
     f9c:	ff 27       	eor	r31, r31
     f9e:	e6 56       	subi	r30, 0x66	; 102
     fa0:	ff 4f       	sbci	r31, 0xFF	; 255
     fa2:	84 91       	lpm	r24, Z
     fa4:	99 27       	eor	r25, r25
     fa6:	82 17       	cp	r24, r18
     fa8:	93 07       	cpc	r25, r19
     faa:	08 f0       	brcs	.+2      	; 0xfae
     fac:	e2 c1       	rjmp	.+964    	; 0x1372
     fae:	10 92 3f 02 	sts	0x023F, r1
     fb2:	10 92 46 02 	sts	0x0246, r1
     fb6:	10 92 45 02 	sts	0x0245, r1
     fba:	10 92 53 01 	sts	0x0153, r1
     fbe:	10 92 52 01 	sts	0x0152, r1
     fc2:	10 92 16 01 	sts	0x0116, r1
     fc6:	10 92 30 01 	sts	0x0130, r1
     fca:	10 92 2f 01 	sts	0x012F, r1
     fce:	82 e2       	ldi	r24, 0x22	; 34
     fd0:	90 e0       	ldi	r25, 0x00	; 0
     fd2:	90 93 8e 01 	sts	0x018E, r25
     fd6:	80 93 8d 01 	sts	0x018D, r24
     fda:	84 e0       	ldi	r24, 0x04	; 4
     fdc:	68 c1       	rjmp	.+720    	; 0x12ae
     fde:	80 91 08 01 	lds	r24, 0x0108
     fe2:	88 23       	and	r24, r24
     fe4:	09 f4       	brne	.+2      	; 0xfe8
     fe6:	c5 c1       	rjmp	.+906    	; 0x1372
     fe8:	80 91 97 01 	lds	r24, 0x0197
     fec:	90 91 98 01 	lds	r25, 0x0198
     ff0:	01 97       	sbiw	r24, 0x01	; 1
     ff2:	90 93 98 01 	sts	0x0198, r25
     ff6:	80 93 97 01 	sts	0x0197, r24
     ffa:	18 16       	cp	r1, r24
     ffc:	19 06       	cpc	r1, r25
     ffe:	0c f4       	brge	.+2      	; 0x1002
    1000:	b8 c1       	rjmp	.+880    	; 0x1372
    1002:	10 92 f5 01 	sts	0x01F5, r1
    1006:	8f b7       	in	r24, 0x3f	; 63
    1008:	f8 94       	cli
    100a:	c8 2f       	mov	r28, r24
    100c:	20 91 54 01 	lds	r18, 0x0154
    1010:	30 91 55 01 	lds	r19, 0x0155
    1014:	20 fd       	sbrc	r18, 0
    1016:	10 c0       	rjmp	.+32     	; 0x1038
    1018:	c9 01       	movw	r24, r18
    101a:	81 60       	ori	r24, 0x01	; 1
    101c:	90 93 55 01 	sts	0x0155, r25
    1020:	80 93 54 01 	sts	0x0154, r24
    1024:	21 15       	cp	r18, r1
    1026:	31 05       	cpc	r19, r1
    1028:	39 f4       	brne	.+14     	; 0x1038
    102a:	30 93 4f 02 	sts	0x024F, r19
    102e:	20 93 4e 02 	sts	0x024E, r18
    1032:	80 e0       	ldi	r24, 0x00	; 0
    1034:	0e 94 ef 06 	call	0xdde
    1038:	cf bf       	out	0x3f, r28	; 63
    103a:	10 92 46 02 	sts	0x0246, r1
    103e:	10 92 45 02 	sts	0x0245, r1
    1042:	83 e0       	ldi	r24, 0x03	; 3
    1044:	34 c1       	rjmp	.+616    	; 0x12ae
    1046:	6a 3a       	cpi	r22, 0xAA	; 170
    1048:	09 f4       	brne	.+2      	; 0x104c
    104a:	5e c0       	rjmp	.+188    	; 0x1108
    104c:	65 35       	cpi	r22, 0x55	; 85
    104e:	09 f4       	brne	.+2      	; 0x1052
    1050:	5b c0       	rjmp	.+182    	; 0x1108
    1052:	80 91 f5 01 	lds	r24, 0x01F5
    1056:	88 23       	and	r24, r24
    1058:	09 f4       	brne	.+2      	; 0x105c
    105a:	8b c1       	rjmp	.+790    	; 0x1372
    105c:	80 91 9b 01 	lds	r24, 0x019B
    1060:	e8 2f       	mov	r30, r24
    1062:	ff 27       	eor	r31, r31
    1064:	ea 54       	subi	r30, 0x4A	; 74
    1066:	ff 4f       	sbci	r31, 0xFF	; 255
    1068:	84 91       	lpm	r24, Z
    106a:	28 2f       	mov	r18, r24
    106c:	33 27       	eor	r19, r19
    106e:	80 91 99 01 	lds	r24, 0x0199
    1072:	90 91 9a 01 	lds	r25, 0x019A
    1076:	28 17       	cp	r18, r24
    1078:	39 07       	cpc	r19, r25
    107a:	08 f0       	brcs	.+2      	; 0x107e
    107c:	45 c0       	rjmp	.+138    	; 0x1108
    107e:	61 ee       	ldi	r22, 0xE1	; 225
    1080:	80 e0       	ldi	r24, 0x00	; 0
    1082:	0e 94 3d 05 	call	0xa7a
    1086:	80 91 4f 01 	lds	r24, 0x014F
    108a:	68 2f       	mov	r22, r24
    108c:	89 e0       	ldi	r24, 0x09	; 9
    108e:	0e 94 3d 05 	call	0xa7a
    1092:	8a ef       	ldi	r24, 0xFA	; 250
    1094:	90 e0       	ldi	r25, 0x00	; 0
    1096:	00 00       	nop
    1098:	00 00       	nop
    109a:	00 00       	nop
    109c:	00 00       	nop
    109e:	00 00       	nop
    10a0:	00 00       	nop
    10a2:	00 00       	nop
    10a4:	00 00       	nop
    10a6:	01 97       	sbiw	r24, 0x01	; 1
    10a8:	18 16       	cp	r1, r24
    10aa:	19 06       	cpc	r1, r25
    10ac:	a4 f3       	brlt	.-24     	; 0x1096
    10ae:	80 91 3d 01 	lds	r24, 0x013D
    10b2:	68 2f       	mov	r22, r24
    10b4:	8b e0       	ldi	r24, 0x0B	; 11
    10b6:	0e 94 3d 05 	call	0xa7a
    10ba:	84 e1       	ldi	r24, 0x14	; 20
    10bc:	90 e0       	ldi	r25, 0x00	; 0
    10be:	00 00       	nop
    10c0:	00 00       	nop
    10c2:	00 00       	nop
    10c4:	00 00       	nop
    10c6:	00 00       	nop
    10c8:	00 00       	nop
    10ca:	00 00       	nop
    10cc:	00 00       	nop
    10ce:	01 97       	sbiw	r24, 0x01	; 1
    10d0:	18 16       	cp	r1, r24
    10d2:	19 06       	cpc	r1, r25
    10d4:	a4 f3       	brlt	.-24     	; 0x10be
    10d6:	bb 9a       	sbi	0x17, 3	; 23
    10d8:	ba 9a       	sbi	0x17, 2	; 23
    10da:	10 92 3c 02 	sts	0x023C, r1
    10de:	10 92 3b 02 	sts	0x023B, r1
    10e2:	10 92 30 01 	sts	0x0130, r1
    10e6:	10 92 2f 01 	sts	0x012F, r1
    10ea:	10 92 09 01 	sts	0x0109, r1
    10ee:	82 e0       	ldi	r24, 0x02	; 2
    10f0:	80 93 04 01 	sts	0x0104, r24
    10f4:	2a ea       	ldi	r18, 0xAA	; 170
    10f6:	20 93 f8 01 	sts	0x01F8, r18
    10fa:	8f b7       	in	r24, 0x3f	; 63
    10fc:	f8 94       	cli
    10fe:	99 27       	eor	r25, r25
    1100:	20 93 31 01 	sts	0x0131, r18
    1104:	8f bf       	out	0x3f, r24	; 63
    1106:	35 c1       	rjmp	.+618    	; 0x1372
    1108:	0e 94 e8 09 	call	0x13d0
    110c:	8f 70       	andi	r24, 0x0F	; 15
    110e:	90 70       	andi	r25, 0x00	; 0
    1110:	24 e2       	ldi	r18, 0x24	; 36
    1112:	30 e0       	ldi	r19, 0x00	; 0
    1114:	82 9f       	mul	r24, r18
    1116:	a0 01       	movw	r20, r0
    1118:	83 9f       	mul	r24, r19
    111a:	50 0d       	add	r21, r0
    111c:	92 9f       	mul	r25, r18
    111e:	50 0d       	add	r21, r0
    1120:	11 24       	eor	r1, r1
    1122:	ca 01       	movw	r24, r20
    1124:	82 0f       	add	r24, r18
    1126:	93 1f       	adc	r25, r19
    1128:	90 93 98 01 	sts	0x0198, r25
    112c:	80 93 97 01 	sts	0x0197, r24
    1130:	bd c0       	rjmp	.+378    	; 0x12ac
    1132:	6a 3a       	cpi	r22, 0xAA	; 170
    1134:	11 f0       	breq	.+4      	; 0x113a
    1136:	65 35       	cpi	r22, 0x55	; 85
    1138:	19 f4       	brne	.+6      	; 0x1140
    113a:	60 93 2e 01 	sts	0x012E, r22
    113e:	19 c1       	rjmp	.+562    	; 0x1372
    1140:	80 91 3f 02 	lds	r24, 0x023F
    1144:	99 27       	eor	r25, r25
    1146:	00 97       	sbiw	r24, 0x00	; 0
    1148:	21 f0       	breq	.+8      	; 0x1152
    114a:	03 97       	sbiw	r24, 0x03	; 3
    114c:	0c f0       	brlt	.+2      	; 0x1150
    114e:	4a c0       	rjmp	.+148    	; 0x11e4
    1150:	06 c0       	rjmp	.+12     	; 0x115e
    1152:	60 93 2d 01 	sts	0x012D, r22
    1156:	49 c0       	rjmp	.+146    	; 0x11ea
    1158:	0e 94 0b 0a 	call	0x1416
    115c:	43 c0       	rjmp	.+134    	; 0x11e4
    115e:	20 91 2d 01 	lds	r18, 0x012D
    1162:	30 91 2e 01 	lds	r19, 0x012E
    1166:	92 2f       	mov	r25, r18
    1168:	88 27       	eor	r24, r24
    116a:	90 93 2e 01 	sts	0x012E, r25
    116e:	80 93 2d 01 	sts	0x012D, r24
    1172:	60 93 2d 01 	sts	0x012D, r22
    1176:	10 e0       	ldi	r17, 0x00	; 0
    1178:	22 0f       	add	r18, r18
    117a:	33 1f       	adc	r19, r19
    117c:	67 fd       	sbrc	r22, 7
    117e:	21 60       	ori	r18, 0x01	; 1
    1180:	66 0f       	add	r22, r22
    1182:	53 e3       	ldi	r21, 0x33	; 51
    1184:	2c 3c       	cpi	r18, 0xCC	; 204
    1186:	35 07       	cpc	r19, r21
    1188:	49 f5       	brne	.+82     	; 0x11dc
    118a:	e0 91 92 01 	lds	r30, 0x0192
    118e:	f0 91 93 01 	lds	r31, 0x0193
    1192:	44 81       	ldd	r20, Z+4	; 0x04
    1194:	44 23       	and	r20, r20
    1196:	01 f7       	brne	.-64     	; 0x1158
    1198:	85 e0       	ldi	r24, 0x05	; 5
    119a:	80 93 09 01 	sts	0x0109, r24
    119e:	8f b7       	in	r24, 0x3f	; 63
    11a0:	f8 94       	cli
    11a2:	c8 2f       	mov	r28, r24
    11a4:	20 91 54 01 	lds	r18, 0x0154
    11a8:	30 91 55 01 	lds	r19, 0x0155
    11ac:	20 fd       	sbrc	r18, 0
    11ae:	10 c0       	rjmp	.+32     	; 0x11d0
    11b0:	c9 01       	movw	r24, r18
    11b2:	81 60       	ori	r24, 0x01	; 1
    11b4:	90 93 55 01 	sts	0x0155, r25
    11b8:	80 93 54 01 	sts	0x0154, r24
    11bc:	21 15       	cp	r18, r1
    11be:	31 05       	cpc	r19, r1
    11c0:	39 f4       	brne	.+14     	; 0x11d0
    11c2:	30 93 4f 02 	sts	0x024F, r19
    11c6:	20 93 4e 02 	sts	0x024E, r18
    11ca:	84 2f       	mov	r24, r20
    11cc:	0e 94 ef 06 	call	0xdde
    11d0:	cf bf       	out	0x3f, r28	; 63
    11d2:	87 e0       	ldi	r24, 0x07	; 7
    11d4:	81 1b       	sub	r24, r17
    11d6:	80 93 16 01 	sts	0x0116, r24
    11da:	07 c0       	rjmp	.+14     	; 0x11ea
    11dc:	1f 5f       	subi	r17, 0xFF	; 255
    11de:	18 30       	cpi	r17, 0x08	; 8
    11e0:	58 f2       	brcs	.-106    	; 0x1178
    11e2:	03 c0       	rjmp	.+6      	; 0x11ea
    11e4:	82 e0       	ldi	r24, 0x02	; 2
    11e6:	80 93 09 01 	sts	0x0109, r24
    11ea:	80 91 3f 02 	lds	r24, 0x023F
    11ee:	8f 5f       	subi	r24, 0xFF	; 255
    11f0:	80 93 3f 02 	sts	0x023F, r24
    11f4:	be c0       	rjmp	.+380    	; 0x1372
    11f6:	80 91 2d 01 	lds	r24, 0x012D
    11fa:	90 91 2e 01 	lds	r25, 0x012E
    11fe:	98 2f       	mov	r25, r24
    1200:	88 27       	eor	r24, r24
    1202:	90 93 2e 01 	sts	0x012E, r25
    1206:	80 93 2d 01 	sts	0x012D, r24
    120a:	60 93 2d 01 	sts	0x012D, r22
    120e:	20 91 2d 01 	lds	r18, 0x012D
    1212:	30 91 2e 01 	lds	r19, 0x012E
    1216:	00 90 16 01 	lds	r0, 0x0116
    121a:	02 c0       	rjmp	.+4      	; 0x1220
    121c:	36 95       	lsr	r19
    121e:	27 95       	ror	r18
    1220:	0a 94       	dec	r0
    1222:	e2 f7       	brpl	.-8      	; 0x121c
    1224:	62 2f       	mov	r22, r18
    1226:	e0 91 92 01 	lds	r30, 0x0192
    122a:	f0 91 93 01 	lds	r31, 0x0193
    122e:	80 91 52 01 	lds	r24, 0x0152
    1232:	90 91 53 01 	lds	r25, 0x0153
    1236:	e8 0f       	add	r30, r24
    1238:	f9 1f       	adc	r31, r25
    123a:	20 83       	st	Z, r18
    123c:	40 91 52 01 	lds	r20, 0x0152
    1240:	50 91 53 01 	lds	r21, 0x0153
    1244:	4f 5f       	subi	r20, 0xFF	; 255
    1246:	5f 4f       	sbci	r21, 0xFF	; 255
    1248:	50 93 53 01 	sts	0x0153, r21
    124c:	40 93 52 01 	sts	0x0152, r20
    1250:	80 91 8d 01 	lds	r24, 0x018D
    1254:	90 91 8e 01 	lds	r25, 0x018E
    1258:	48 17       	cp	r20, r24
    125a:	59 07       	cpc	r21, r25
    125c:	98 f5       	brcc	.+102    	; 0x12c4
    125e:	80 91 2f 01 	lds	r24, 0x012F
    1262:	90 91 30 01 	lds	r25, 0x0130
    1266:	e7 e7       	ldi	r30, 0x77	; 119
    1268:	f1 e0       	ldi	r31, 0x01	; 1
    126a:	69 27       	eor	r22, r25
    126c:	66 0f       	add	r22, r22
    126e:	f1 1d       	adc	r31, r1
    1270:	e6 0f       	add	r30, r22
    1272:	f1 1d       	adc	r31, r1
    1274:	c8 95       	lpm
    1276:	98 2f       	mov	r25, r24
    1278:	80 2d       	mov	r24, r0
    127a:	31 96       	adiw	r30, 0x01	; 1
    127c:	c8 95       	lpm
    127e:	90 25       	eor	r25, r0
    1280:	90 93 30 01 	sts	0x0130, r25
    1284:	80 93 2f 01 	sts	0x012F, r24
    1288:	45 30       	cpi	r20, 0x05	; 5
    128a:	51 05       	cpc	r21, r1
    128c:	09 f0       	breq	.+2      	; 0x1290
    128e:	71 c0       	rjmp	.+226    	; 0x1372
    1290:	e0 91 92 01 	lds	r30, 0x0192
    1294:	f0 91 93 01 	lds	r31, 0x0193
    1298:	84 81       	ldd	r24, Z+4	; 0x04
    129a:	99 27       	eor	r25, r25
    129c:	90 93 8e 01 	sts	0x018E, r25
    12a0:	80 93 8d 01 	sts	0x018D, r24
    12a4:	8e 31       	cpi	r24, 0x1E	; 30
    12a6:	91 05       	cpc	r25, r1
    12a8:	28 f0       	brcs	.+10     	; 0x12b4
    12aa:	14 82       	std	Z+4, r1	; 0x04
    12ac:	82 e0       	ldi	r24, 0x02	; 2
    12ae:	80 93 09 01 	sts	0x0109, r24
    12b2:	5f c0       	rjmp	.+190    	; 0x1372
    12b4:	00 97       	sbiw	r24, 0x00	; 0
    12b6:	f1 f0       	breq	.+60     	; 0x12f4
    12b8:	05 96       	adiw	r24, 0x05	; 5
    12ba:	90 93 8e 01 	sts	0x018E, r25
    12be:	80 93 8d 01 	sts	0x018D, r24
    12c2:	57 c0       	rjmp	.+174    	; 0x1372
    12c4:	48 17       	cp	r20, r24
    12c6:	59 07       	cpc	r21, r25
    12c8:	e1 f4       	brne	.+56     	; 0x1302
    12ca:	80 91 2f 01 	lds	r24, 0x012F
    12ce:	90 91 30 01 	lds	r25, 0x0130
    12d2:	e7 e7       	ldi	r30, 0x77	; 119
    12d4:	f1 e0       	ldi	r31, 0x01	; 1
    12d6:	69 27       	eor	r22, r25
    12d8:	66 0f       	add	r22, r22
    12da:	f1 1d       	adc	r31, r1
    12dc:	e6 0f       	add	r30, r22
    12de:	f1 1d       	adc	r31, r1
    12e0:	c8 95       	lpm
    12e2:	98 2f       	mov	r25, r24
    12e4:	80 2d       	mov	r24, r0
    12e6:	31 96       	adiw	r30, 0x01	; 1
    12e8:	c8 95       	lpm
    12ea:	90 25       	eor	r25, r0
    12ec:	90 93 30 01 	sts	0x0130, r25
    12f0:	80 93 2f 01 	sts	0x012F, r24
    12f4:	82 e2       	ldi	r24, 0x22	; 34
    12f6:	90 e0       	ldi	r25, 0x00	; 0
    12f8:	90 93 53 01 	sts	0x0153, r25
    12fc:	80 93 52 01 	sts	0x0152, r24
    1300:	38 c0       	rjmp	.+112    	; 0x1372
    1302:	44 32       	cpi	r20, 0x24	; 36
    1304:	51 05       	cpc	r21, r1
    1306:	a8 f1       	brcs	.+106    	; 0x1372
    1308:	e0 91 92 01 	lds	r30, 0x0192
    130c:	f0 91 93 01 	lds	r31, 0x0193
    1310:	22 a1       	ldd	r18, Z+34	; 0x22
    1312:	33 a1       	ldd	r19, Z+35	; 0x23
    1314:	80 91 2f 01 	lds	r24, 0x012F
    1318:	90 91 30 01 	lds	r25, 0x0130
    131c:	28 17       	cp	r18, r24
    131e:	39 07       	cpc	r19, r25
    1320:	29 f4       	brne	.+10     	; 0x132c
    1322:	81 e0       	ldi	r24, 0x01	; 1
    1324:	90 e0       	ldi	r25, 0x00	; 0
    1326:	82 a3       	std	Z+34, r24	; 0x22
    1328:	93 a3       	std	Z+35, r25	; 0x23
    132a:	02 c0       	rjmp	.+4      	; 0x1330
    132c:	12 a2       	std	Z+34, r1	; 0x22
    132e:	13 a2       	std	Z+35, r1	; 0x23
    1330:	0e 94 24 0a 	call	0x1448
    1334:	c2 e0       	ldi	r28, 0x02	; 2
    1336:	c0 93 09 01 	sts	0x0109, r28
    133a:	e0 91 92 01 	lds	r30, 0x0192
    133e:	f0 91 93 01 	lds	r31, 0x0193
    1342:	80 91 99 01 	lds	r24, 0x0199
    1346:	90 91 9a 01 	lds	r25, 0x019A
    134a:	84 a3       	std	Z+36, r24	; 0x24
    134c:	95 a3       	std	Z+37, r25	; 0x25
    134e:	8a e6       	ldi	r24, 0x6A	; 106
    1350:	9c e0       	ldi	r25, 0x0C	; 12
    1352:	0e 94 7d 02 	call	0x4fa
    1356:	88 23       	and	r24, r24
    1358:	61 f4       	brne	.+24     	; 0x1372
    135a:	e0 91 92 01 	lds	r30, 0x0192
    135e:	f0 91 93 01 	lds	r31, 0x0193
    1362:	84 83       	std	Z+4, r24	; 0x04
    1364:	c0 93 09 01 	sts	0x0109, r28
    1368:	80 ec       	ldi	r24, 0xC0	; 192
    136a:	8d b9       	out	0x0d, r24	; 13
    136c:	b8 98       	cbi	0x17, 0	; 23
    136e:	0e 94 e1 05 	call	0xbc2
    1372:	81 e0       	ldi	r24, 0x01	; 1
    1374:	90 e0       	ldi	r25, 0x00	; 0
    1376:	cf 91       	pop	r28
    1378:	1f 91       	pop	r17
    137a:	08 95       	ret

0000137c <GenericBaseM$sendDone>:
    137c:	9c 01       	movw	r18, r24
    137e:	80 91 18 01 	lds	r24, 0x0118
    1382:	90 91 19 01 	lds	r25, 0x0119
    1386:	82 17       	cp	r24, r18
    1388:	93 07       	cpc	r25, r19
    138a:	31 f4       	brne	.+12     	; 0x1398
    138c:	66 23       	and	r22, r22
    138e:	11 f4       	brne	.+4      	; 0x1394
    1390:	0e 94 cf 09 	call	0x139e
    1394:	10 92 4a 02 	sts	0x024A, r1
    1398:	81 e0       	ldi	r24, 0x01	; 1
    139a:	90 e0       	ldi	r25, 0x00	; 0
    139c:	08 95       	ret

0000139e <LedsC$Leds$yellowToggle>:
    139e:	8f b7       	in	r24, 0x3f	; 63
    13a0:	f8 94       	cli
    13a2:	38 2f       	mov	r19, r24
    13a4:	20 91 f9 01 	lds	r18, 0x01F9
    13a8:	22 ff       	sbrs	r18, 2
    13aa:	06 c0       	rjmp	.+12     	; 0x13b8
    13ac:	8f b7       	in	r24, 0x3f	; 63
    13ae:	f8 94       	cli
    13b0:	99 27       	eor	r25, r25
    13b2:	d8 9a       	sbi	0x1b, 0	; 27
    13b4:	2b 7f       	andi	r18, 0xFB	; 251
    13b6:	05 c0       	rjmp	.+10     	; 0x13c2
    13b8:	8f b7       	in	r24, 0x3f	; 63
    13ba:	f8 94       	cli
    13bc:	99 27       	eor	r25, r25
    13be:	d8 98       	cbi	0x1b, 0	; 27
    13c0:	24 60       	ori	r18, 0x04	; 4
    13c2:	20 93 f9 01 	sts	0x01F9, r18
    13c6:	8f bf       	out	0x3f, r24	; 63
    13c8:	3f bf       	out	0x3f, r19	; 63
    13ca:	81 e0       	ldi	r24, 0x01	; 1
    13cc:	90 e0       	ldi	r25, 0x00	; 0
    13ce:	08 95       	ret

000013d0 <RandomLFSR$Random$rand>:
    13d0:	8f b7       	in	r24, 0x3f	; 63
    13d2:	f8 94       	cli
    13d4:	48 2f       	mov	r20, r24
    13d6:	55 27       	eor	r21, r21
    13d8:	20 91 9d 01 	lds	r18, 0x019D
    13dc:	30 91 9e 01 	lds	r19, 0x019E
    13e0:	83 2f       	mov	r24, r19
    13e2:	88 1f       	adc	r24, r24
    13e4:	88 27       	eor	r24, r24
    13e6:	88 1f       	adc	r24, r24
    13e8:	22 0f       	add	r18, r18
    13ea:	33 1f       	adc	r19, r19
    13ec:	88 23       	and	r24, r24
    13ee:	21 f0       	breq	.+8      	; 0x13f8
    13f0:	8b e0       	ldi	r24, 0x0B	; 11
    13f2:	90 e1       	ldi	r25, 0x10	; 16
    13f4:	28 27       	eor	r18, r24
    13f6:	39 27       	eor	r19, r25
    13f8:	2f 5f       	subi	r18, 0xFF	; 255
    13fa:	3f 4f       	sbci	r19, 0xFF	; 255
    13fc:	30 93 9e 01 	sts	0x019E, r19
    1400:	20 93 9d 01 	sts	0x019D, r18
    1404:	80 91 0b 01 	lds	r24, 0x010B
    1408:	90 91 0c 01 	lds	r25, 0x010C
    140c:	28 27       	eor	r18, r24
    140e:	39 27       	eor	r19, r25
    1410:	4f bf       	out	0x3f, r20	; 63
    1412:	c9 01       	movw	r24, r18
    1414:	08 95       	ret

00001416 <LedsC$Leds$redToggle>:
    1416:	8f b7       	in	r24, 0x3f	; 63
    1418:	f8 94       	cli
    141a:	38 2f       	mov	r19, r24
    141c:	20 91 f9 01 	lds	r18, 0x01F9
    1420:	20 ff       	sbrs	r18, 0
    1422:	06 c0       	rjmp	.+12     	; 0x1430
    1424:	8f b7       	in	r24, 0x3f	; 63
    1426:	f8 94       	cli
    1428:	99 27       	eor	r25, r25
    142a:	da 9a       	sbi	0x1b, 2	; 27
    142c:	2e 7f       	andi	r18, 0xFE	; 254
    142e:	05 c0       	rjmp	.+10     	; 0x143a
    1430:	8f b7       	in	r24, 0x3f	; 63
    1432:	f8 94       	cli
    1434:	99 27       	eor	r25, r25
    1436:	da 98       	cbi	0x1b, 2	; 27
    1438:	21 60       	ori	r18, 0x01	; 1
    143a:	20 93 f9 01 	sts	0x01F9, r18
    143e:	8f bf       	out	0x3f, r24	; 63
    1440:	3f bf       	out	0x3f, r19	; 63
    1442:	81 e0       	ldi	r24, 0x01	; 1
    1444:	90 e0       	ldi	r25, 0x00	; 0
    1446:	08 95       	ret

00001448 <HPLSpiM$SpiByteFifo$disableIntr>:
    1448:	6f 98       	cbi	0x0d, 7	; 13
    144a:	b8 9a       	sbi	0x17, 0	; 23
    144c:	c0 98       	cbi	0x18, 0	; 24
    144e:	0e 94 e1 05 	call	0xbc2
    1452:	81 e0       	ldi	r24, 0x01	; 1
    1454:	90 e0       	ldi	r25, 0x00	; 0
    1456:	08 95       	ret

00001458 <GenericBaseM$receive>:
    1458:	df 92       	push	r13
    145a:	ef 92       	push	r14
    145c:	ff 92       	push	r15
    145e:	0f 93       	push	r16
    1460:	1f 93       	push	r17
    1462:	cf 93       	push	r28
    1464:	df 93       	push	r29
    1466:	ec 01       	movw	r28, r24
    1468:	7c 01       	movw	r14, r24
    146a:	10 91 4a 02 	lds	r17, 0x024A
    146e:	11 23       	and	r17, r17
    1470:	09 f0       	breq	.+2      	; 0x1474
    1472:	08 c1       	rjmp	.+528    	; 0x1684
    1474:	9b 81       	ldd	r25, Y+3	; 0x03
    1476:	80 91 02 01 	lds	r24, 0x0102
    147a:	98 17       	cp	r25, r24
    147c:	09 f0       	breq	.+2      	; 0x1480
    147e:	02 c1       	rjmp	.+516    	; 0x1684
    1480:	e0 90 18 01 	lds	r14, 0x0118
    1484:	f0 90 19 01 	lds	r15, 0x0119
    1488:	d0 93 19 01 	sts	0x0119, r29
    148c:	c0 93 18 01 	sts	0x0118, r28
    1490:	66 23       	and	r22, r22
    1492:	09 f4       	brne	.+2      	; 0x1496
    1494:	92 c0       	rjmp	.+292    	; 0x15ba
    1496:	0e 94 0b 0a 	call	0x1416
    149a:	01 e0       	ldi	r16, 0x01	; 1
    149c:	d0 2e       	mov	r13, r16
    149e:	8f b7       	in	r24, 0x3f	; 63
    14a0:	f8 94       	cli
    14a2:	08 2f       	mov	r16, r24
    14a4:	80 91 06 01 	lds	r24, 0x0106
    14a8:	88 23       	and	r24, r24
    14aa:	11 f0       	breq	.+4      	; 0x14b0
    14ac:	d1 2e       	mov	r13, r17
    14ae:	18 c0       	rjmp	.+48     	; 0x14e0
    14b0:	d0 92 06 01 	sts	0x0106, r13
    14b4:	d0 93 fb 01 	sts	0x01FB, r29
    14b8:	c0 93 fa 01 	sts	0x01FA, r28
    14bc:	8c 81       	ldd	r24, Y+4	; 0x04
    14be:	99 27       	eor	r25, r25
    14c0:	05 96       	adiw	r24, 0x05	; 5
    14c2:	90 93 15 01 	sts	0x0115, r25
    14c6:	80 93 14 01 	sts	0x0114, r24
    14ca:	0e 94 e8 09 	call	0x13d0
    14ce:	8f 77       	andi	r24, 0x7F	; 127
    14d0:	90 70       	andi	r25, 0x00	; 0
    14d2:	84 96       	adiw	r24, 0x24	; 36
    14d4:	90 93 98 01 	sts	0x0198, r25
    14d8:	80 93 97 01 	sts	0x0197, r24
    14dc:	d0 92 08 01 	sts	0x0108, r13
    14e0:	0f bf       	out	0x3f, r16	; 63
    14e2:	dd 20       	and	r13, r13
    14e4:	09 f4       	brne	.+2      	; 0x14e8
    14e6:	67 c0       	rjmp	.+206    	; 0x15b6
    14e8:	8f b7       	in	r24, 0x3f	; 63
    14ea:	f8 94       	cli
    14ec:	99 27       	eor	r25, r25
    14ee:	20 91 09 01 	lds	r18, 0x0109
    14f2:	8f bf       	out	0x3f, r24	; 63
    14f4:	26 30       	cpi	r18, 0x06	; 6
    14f6:	09 f0       	breq	.+2      	; 0x14fa
    14f8:	5e c0       	rjmp	.+188    	; 0x15b6
    14fa:	40 91 41 02 	lds	r20, 0x0241
    14fe:	50 91 42 02 	lds	r21, 0x0242
    1502:	60 91 43 02 	lds	r22, 0x0243
    1506:	70 91 44 02 	lds	r23, 0x0244
    150a:	40 ff       	sbrs	r20, 0
    150c:	17 c0       	rjmp	.+46     	; 0x153c
    150e:	8f b7       	in	r24, 0x3f	; 63
    1510:	f8 94       	cli
    1512:	28 2f       	mov	r18, r24
    1514:	33 27       	eor	r19, r19
    1516:	db 01       	movw	r26, r22
    1518:	ca 01       	movw	r24, r20
    151a:	8e 7f       	andi	r24, 0xFE	; 254
    151c:	80 93 41 02 	sts	0x0241, r24
    1520:	90 93 42 02 	sts	0x0242, r25
    1524:	a0 93 43 02 	sts	0x0243, r26
    1528:	b0 93 44 02 	sts	0x0244, r27
    152c:	2f bf       	out	0x3f, r18	; 63
    152e:	00 97       	sbiw	r24, 0x00	; 0
    1530:	a1 05       	cpc	r26, r1
    1532:	b1 05       	cpc	r27, r1
    1534:	19 f4       	brne	.+6      	; 0x153c
    1536:	81 e0       	ldi	r24, 0x01	; 1
    1538:	80 93 94 01 	sts	0x0194, r24
    153c:	6b e3       	ldi	r22, 0x3B	; 59
    153e:	80 e0       	ldi	r24, 0x00	; 0
    1540:	0e 94 3d 05 	call	0xa7a
    1544:	80 ed       	ldi	r24, 0xD0	; 208
    1546:	97 e0       	ldi	r25, 0x07	; 7
    1548:	00 00       	nop
    154a:	00 00       	nop
    154c:	00 00       	nop
    154e:	00 00       	nop
    1550:	00 00       	nop
    1552:	00 00       	nop
    1554:	00 00       	nop
    1556:	00 00       	nop
    1558:	01 97       	sbiw	r24, 0x01	; 1
    155a:	18 16       	cp	r1, r24
    155c:	19 06       	cpc	r1, r25
    155e:	a4 f3       	brlt	.-24     	; 0x1548
    1560:	69 e3       	ldi	r22, 0x39	; 57
    1562:	80 e0       	ldi	r24, 0x00	; 0
    1564:	0e 94 3d 05 	call	0xa7a
    1568:	88 ec       	ldi	r24, 0xC8	; 200
    156a:	90 e0       	ldi	r25, 0x00	; 0
    156c:	00 00       	nop
    156e:	00 00       	nop
    1570:	00 00       	nop
    1572:	00 00       	nop
    1574:	00 00       	nop
    1576:	00 00       	nop
    1578:	00 00       	nop
    157a:	00 00       	nop
    157c:	01 97       	sbiw	r24, 0x01	; 1
    157e:	18 16       	cp	r1, r24
    1580:	19 06       	cpc	r1, r25
    1582:	a4 f3       	brlt	.-24     	; 0x156c
    1584:	0e 94 c2 05 	call	0xb84
    1588:	bb 98       	cbi	0x17, 3	; 23
    158a:	ba 98       	cbi	0x17, 2	; 23
    158c:	80 ec       	ldi	r24, 0xC0	; 192
    158e:	8d b9       	out	0x0d, r24	; 13
    1590:	b8 98       	cbi	0x17, 0	; 23
    1592:	0e 94 e1 05 	call	0xbc2
    1596:	20 e2       	ldi	r18, 0x20	; 32
    1598:	30 e0       	ldi	r19, 0x00	; 0
    159a:	40 e0       	ldi	r20, 0x00	; 0
    159c:	50 e0       	ldi	r21, 0x00	; 0
    159e:	61 e0       	ldi	r22, 0x01	; 1
    15a0:	80 e0       	ldi	r24, 0x00	; 0
    15a2:	0e 94 f3 05 	call	0xbe6
    15a6:	8f b7       	in	r24, 0x3f	; 63
    15a8:	f8 94       	cli
    15aa:	28 2f       	mov	r18, r24
    15ac:	33 27       	eor	r19, r19
    15ae:	82 e0       	ldi	r24, 0x02	; 2
    15b0:	80 93 09 01 	sts	0x0109, r24
    15b4:	2f bf       	out	0x3f, r18	; 63
    15b6:	8d 2d       	mov	r24, r13
    15b8:	5d c0       	rjmp	.+186    	; 0x1674
    15ba:	8f b7       	in	r24, 0x3f	; 63
    15bc:	f8 94       	cli
    15be:	38 2f       	mov	r19, r24
    15c0:	20 91 f9 01 	lds	r18, 0x01F9
    15c4:	21 ff       	sbrs	r18, 1
    15c6:	06 c0       	rjmp	.+12     	; 0x15d4
    15c8:	8f b7       	in	r24, 0x3f	; 63
    15ca:	f8 94       	cli
    15cc:	99 27       	eor	r25, r25
    15ce:	d9 9a       	sbi	0x1b, 1	; 27
    15d0:	2d 7f       	andi	r18, 0xFD	; 253
    15d2:	05 c0       	rjmp	.+10     	; 0x15de
    15d4:	8f b7       	in	r24, 0x3f	; 63
    15d6:	f8 94       	cli
    15d8:	99 27       	eor	r25, r25
    15da:	d9 98       	cbi	0x1b, 1	; 27
    15dc:	22 60       	ori	r18, 0x02	; 2
    15de:	20 93 f9 01 	sts	0x01F9, r18
    15e2:	8f bf       	out	0x3f, r24	; 63
    15e4:	3f bf       	out	0x3f, r19	; 63
    15e6:	8e e7       	ldi	r24, 0x7E	; 126
    15e8:	90 e0       	ldi	r25, 0x00	; 0
    15ea:	88 83       	st	Y, r24
    15ec:	99 83       	std	Y+1, r25	; 0x01
    15ee:	40 e0       	ldi	r20, 0x00	; 0
    15f0:	8f b7       	in	r24, 0x3f	; 63
    15f2:	f8 94       	cli
    15f4:	28 2f       	mov	r18, r24
    15f6:	33 27       	eor	r19, r19
    15f8:	90 91 17 01 	lds	r25, 0x0117
    15fc:	99 23       	and	r25, r25
    15fe:	19 f4       	brne	.+6      	; 0x1606
    1600:	81 e0       	ldi	r24, 0x01	; 1
    1602:	80 93 17 01 	sts	0x0117, r24
    1606:	2f bf       	out	0x3f, r18	; 63
    1608:	99 23       	and	r25, r25
    160a:	99 f5       	brne	.+102    	; 0x1672
    160c:	8f b7       	in	r24, 0x3f	; 63
    160e:	f8 94       	cli
    1610:	d8 2e       	mov	r13, r24
    1612:	01 e0       	ldi	r16, 0x01	; 1
    1614:	10 e0       	ldi	r17, 0x00	; 0
    1616:	0a a3       	std	Y+34, r16	; 0x22
    1618:	1b a3       	std	Y+35, r17	; 0x23
    161a:	94 2f       	mov	r25, r20
    161c:	24 2f       	mov	r18, r20
    161e:	8f b7       	in	r24, 0x3f	; 63
    1620:	f8 94       	cli
    1622:	48 2f       	mov	r20, r24
    1624:	55 27       	eor	r21, r21
    1626:	80 91 35 02 	lds	r24, 0x0235
    162a:	88 23       	and	r24, r24
    162c:	61 f4       	brne	.+24     	; 0x1646
    162e:	21 e0       	ldi	r18, 0x01	; 1
    1630:	20 93 35 02 	sts	0x0235, r18
    1634:	84 e2       	ldi	r24, 0x24	; 36
    1636:	90 e0       	ldi	r25, 0x00	; 0
    1638:	80 93 40 02 	sts	0x0240, r24
    163c:	d0 93 49 02 	sts	0x0249, r29
    1640:	c0 93 48 02 	sts	0x0248, r28
    1644:	98 81       	ld	r25, Y
    1646:	4f bf       	out	0x3f, r20	; 63
    1648:	22 23       	and	r18, r18
    164a:	79 f0       	breq	.+30     	; 0x166a
    164c:	89 2f       	mov	r24, r25
    164e:	0e 94 4b 0b 	call	0x1696
    1652:	28 2f       	mov	r18, r24
    1654:	33 27       	eor	r19, r19
    1656:	22 23       	and	r18, r18
    1658:	11 f0       	breq	.+4      	; 0x165e
    165a:	c8 01       	movw	r24, r16
    165c:	08 c0       	rjmp	.+16     	; 0x166e
    165e:	8f b7       	in	r24, 0x3f	; 63
    1660:	f8 94       	cli
    1662:	99 27       	eor	r25, r25
    1664:	20 93 35 02 	sts	0x0235, r18
    1668:	8f bf       	out	0x3f, r24	; 63
    166a:	80 e0       	ldi	r24, 0x00	; 0
    166c:	90 e0       	ldi	r25, 0x00	; 0
    166e:	48 2f       	mov	r20, r24
    1670:	df be       	out	0x3f, r13	; 63
    1672:	84 2f       	mov	r24, r20
    1674:	88 23       	and	r24, r24
    1676:	21 f0       	breq	.+8      	; 0x1680
    1678:	81 e0       	ldi	r24, 0x01	; 1
    167a:	80 93 4a 02 	sts	0x024A, r24
    167e:	02 c0       	rjmp	.+4      	; 0x1684
    1680:	0e 94 cf 09 	call	0x139e
    1684:	c7 01       	movw	r24, r14
    1686:	df 91       	pop	r29
    1688:	cf 91       	pop	r28
    168a:	1f 91       	pop	r17
    168c:	0f 91       	pop	r16
    168e:	ff 90       	pop	r15
    1690:	ef 90       	pop	r14
    1692:	df 90       	pop	r13
    1694:	08 95       	ret

00001696 <UARTM$ByteComm$txByte>:
    1696:	48 2f       	mov	r20, r24
    1698:	8f b7       	in	r24, 0x3f	; 63
    169a:	f8 94       	cli
    169c:	28 2f       	mov	r18, r24
    169e:	33 27       	eor	r19, r19
    16a0:	90 91 96 01 	lds	r25, 0x0196
    16a4:	81 e0       	ldi	r24, 0x01	; 1
    16a6:	80 93 96 01 	sts	0x0196, r24
    16aa:	2f bf       	out	0x3f, r18	; 63
    16ac:	99 23       	and	r25, r25
    16ae:	19 f0       	breq	.+6      	; 0x16b6
    16b0:	80 e0       	ldi	r24, 0x00	; 0
    16b2:	90 e0       	ldi	r25, 0x00	; 0
    16b4:	08 95       	ret
    16b6:	4c b9       	out	0x0c, r20	; 12
    16b8:	5e 9a       	sbi	0x0b, 6	; 11
    16ba:	81 e0       	ldi	r24, 0x01	; 1
    16bc:	90 e0       	ldi	r25, 0x00	; 0
    16be:	08 95       	ret

000016c0 <__vector_15>:
    16c0:	78 94       	sei
    16c2:	1f 92       	push	r1
    16c4:	0f 92       	push	r0
    16c6:	0f b6       	in	r0, 0x3f	; 63
    16c8:	0f 92       	push	r0
    16ca:	11 24       	eor	r1, r1
    16cc:	2f 93       	push	r18
    16ce:	3f 93       	push	r19
    16d0:	4f 93       	push	r20
    16d2:	5f 93       	push	r21
    16d4:	6f 93       	push	r22
    16d6:	7f 93       	push	r23
    16d8:	8f 93       	push	r24
    16da:	9f 93       	push	r25
    16dc:	af 93       	push	r26
    16de:	bf 93       	push	r27
    16e0:	ef 93       	push	r30
    16e2:	ff 93       	push	r31
    16e4:	8f b7       	in	r24, 0x3f	; 63
    16e6:	f8 94       	cli
    16e8:	28 2f       	mov	r18, r24
    16ea:	33 27       	eor	r19, r19
    16ec:	80 91 1b 01 	lds	r24, 0x011B
    16f0:	88 23       	and	r24, r24
    16f2:	69 f0       	breq	.+26     	; 0x170e
    16f4:	80 91 8f 01 	lds	r24, 0x018F
    16f8:	80 93 f7 01 	sts	0x01F7, r24
    16fc:	88 60       	ori	r24, 0x08	; 8
    16fe:	80 93 8f 01 	sts	0x018F, r24
    1702:	83 bf       	out	0x33, r24	; 51
    1704:	80 91 2c 01 	lds	r24, 0x012C
    1708:	81 bf       	out	0x31, r24	; 49
    170a:	10 92 1b 01 	sts	0x011B, r1
    170e:	2f bf       	out	0x3f, r18	; 63
    1710:	88 ec       	ldi	r24, 0xC8	; 200
    1712:	9c e0       	ldi	r25, 0x0C	; 12
    1714:	0e 94 7d 02 	call	0x4fa
    1718:	ff 91       	pop	r31
    171a:	ef 91       	pop	r30
    171c:	bf 91       	pop	r27
    171e:	af 91       	pop	r26
    1720:	9f 91       	pop	r25
    1722:	8f 91       	pop	r24
    1724:	7f 91       	pop	r23
    1726:	6f 91       	pop	r22
    1728:	5f 91       	pop	r21
    172a:	4f 91       	pop	r20
    172c:	3f 91       	pop	r19
    172e:	2f 91       	pop	r18
    1730:	0f 90       	pop	r0
    1732:	0f be       	out	0x3f, r0	; 63
    1734:	0f 90       	pop	r0
    1736:	1f 90       	pop	r1
    1738:	18 95       	reti

0000173a <NoCRCPacket$ByteComm$rxByteReady>:
    173a:	38 2f       	mov	r19, r24
    173c:	66 23       	and	r22, r22
    173e:	39 f0       	breq	.+14     	; 0x174e
    1740:	8f b7       	in	r24, 0x3f	; 63
    1742:	f8 94       	cli
    1744:	99 27       	eor	r25, r25
    1746:	10 92 f6 01 	sts	0x01F6, r1
    174a:	8f bf       	out	0x3f, r24	; 63
    174c:	47 c0       	rjmp	.+142    	; 0x17dc
    174e:	8f b7       	in	r24, 0x3f	; 63
    1750:	f8 94       	cli
    1752:	a8 2f       	mov	r26, r24
    1754:	bb 27       	eor	r27, r27
    1756:	80 91 f6 01 	lds	r24, 0x01F6
    175a:	88 23       	and	r24, r24
    175c:	31 f4       	brne	.+12     	; 0x176a
    175e:	e0 91 0d 01 	lds	r30, 0x010D
    1762:	f0 91 0e 01 	lds	r31, 0x010E
    1766:	44 a3       	std	Z+36, r20	; 0x24
    1768:	55 a3       	std	Z+37, r21	; 0x25
    176a:	20 91 f6 01 	lds	r18, 0x01F6
    176e:	22 30       	cpi	r18, 0x02	; 2
    1770:	21 f4       	brne	.+8      	; 0x177a
    1772:	84 e2       	ldi	r24, 0x24	; 36
    1774:	90 e0       	ldi	r25, 0x00	; 0
    1776:	80 93 90 01 	sts	0x0190, r24
    177a:	e0 91 0d 01 	lds	r30, 0x010D
    177e:	f0 91 0e 01 	lds	r31, 0x010E
    1782:	e2 0f       	add	r30, r18
    1784:	f1 1d       	adc	r31, r1
    1786:	30 83       	st	Z, r19
    1788:	92 2f       	mov	r25, r18
    178a:	9f 5f       	subi	r25, 0xFF	; 255
    178c:	90 93 f6 01 	sts	0x01F6, r25
    1790:	26 2f       	mov	r18, r22
    1792:	80 91 90 01 	lds	r24, 0x0190
    1796:	98 17       	cp	r25, r24
    1798:	09 f4       	brne	.+2      	; 0x179c
    179a:	21 e0       	ldi	r18, 0x01	; 1
    179c:	af bf       	out	0x3f, r26	; 63
    179e:	22 23       	and	r18, r18
    17a0:	01 f1       	breq	.+64     	; 0x17e2
    17a2:	8f b7       	in	r24, 0x3f	; 63
    17a4:	f8 94       	cli
    17a6:	28 2f       	mov	r18, r24
    17a8:	33 27       	eor	r19, r19
    17aa:	80 91 47 02 	lds	r24, 0x0247
    17ae:	91 e0       	ldi	r25, 0x01	; 1
    17b0:	89 27       	eor	r24, r25
    17b2:	80 93 47 02 	sts	0x0247, r24
    17b6:	e8 2f       	mov	r30, r24
    17b8:	ff 27       	eor	r31, r31
    17ba:	ee 0f       	add	r30, r30
    17bc:	ff 1f       	adc	r31, r31
    17be:	e9 5c       	subi	r30, 0xC9	; 201
    17c0:	fd 4f       	sbci	r31, 0xFD	; 253
    17c2:	80 81       	ld	r24, Z
    17c4:	91 81       	ldd	r25, Z+1	; 0x01
    17c6:	90 93 0e 01 	sts	0x010E, r25
    17ca:	80 93 0d 01 	sts	0x010D, r24
    17ce:	60 93 f6 01 	sts	0x01F6, r22
    17d2:	2f bf       	out	0x3f, r18	; 63
    17d4:	88 eb       	ldi	r24, 0xB8	; 184
    17d6:	9d e0       	ldi	r25, 0x0D	; 13
    17d8:	0e 94 7d 02 	call	0x4fa
    17dc:	80 e0       	ldi	r24, 0x00	; 0
    17de:	90 e0       	ldi	r25, 0x00	; 0
    17e0:	08 95       	ret
    17e2:	81 e0       	ldi	r24, 0x01	; 1
    17e4:	90 e0       	ldi	r25, 0x00	; 0
    17e6:	08 95       	ret

000017e8 <UARTM$HPLUART$putDone>:
    17e8:	8f b7       	in	r24, 0x3f	; 63
    17ea:	f8 94       	cli
    17ec:	99 27       	eor	r25, r25
    17ee:	20 91 96 01 	lds	r18, 0x0196
    17f2:	10 92 96 01 	sts	0x0196, r1
    17f6:	8f bf       	out	0x3f, r24	; 63
    17f8:	22 23       	and	r18, r18
    17fa:	a1 f1       	breq	.+104    	; 0x1864
    17fc:	8f b7       	in	r24, 0x3f	; 63
    17fe:	f8 94       	cli
    1800:	28 2f       	mov	r18, r24
    1802:	33 27       	eor	r19, r19
    1804:	40 e0       	ldi	r20, 0x00	; 0
    1806:	90 91 35 02 	lds	r25, 0x0235
    180a:	80 91 40 02 	lds	r24, 0x0240
    180e:	98 17       	cp	r25, r24
    1810:	09 f4       	brne	.+2      	; 0x1814
    1812:	41 e0       	ldi	r20, 0x01	; 1
    1814:	2f bf       	out	0x3f, r18	; 63
    1816:	44 23       	and	r20, r20
    1818:	19 f0       	breq	.+6      	; 0x1820
    181a:	81 e0       	ldi	r24, 0x01	; 1
    181c:	0e 94 35 0c 	call	0x186a
    1820:	8f b7       	in	r24, 0x3f	; 63
    1822:	f8 94       	cli
    1824:	99 27       	eor	r25, r25
    1826:	30 91 35 02 	lds	r19, 0x0235
    182a:	20 91 40 02 	lds	r18, 0x0240
    182e:	8f bf       	out	0x3f, r24	; 63
    1830:	33 23       	and	r19, r19
    1832:	c1 f0       	breq	.+48     	; 0x1864
    1834:	32 17       	cp	r19, r18
    1836:	b0 f4       	brcc	.+44     	; 0x1864
    1838:	8f b7       	in	r24, 0x3f	; 63
    183a:	f8 94       	cli
    183c:	99 27       	eor	r25, r25
    183e:	e0 91 48 02 	lds	r30, 0x0248
    1842:	f0 91 49 02 	lds	r31, 0x0249
    1846:	e3 0f       	add	r30, r19
    1848:	f1 1d       	adc	r31, r1
    184a:	20 81       	ld	r18, Z
    184c:	3f 5f       	subi	r19, 0xFF	; 255
    184e:	30 93 35 02 	sts	0x0235, r19
    1852:	8f bf       	out	0x3f, r24	; 63
    1854:	82 2f       	mov	r24, r18
    1856:	0e 94 4b 0b 	call	0x1696
    185a:	99 27       	eor	r25, r25
    185c:	88 23       	and	r24, r24
    185e:	11 f4       	brne	.+4      	; 0x1864
    1860:	0e 94 35 0c 	call	0x186a
    1864:	81 e0       	ldi	r24, 0x01	; 1
    1866:	90 e0       	ldi	r25, 0x00	; 0
    1868:	08 95       	ret

0000186a <NoCRCPacket$sendComplete>:
    186a:	38 2f       	mov	r19, r24
    186c:	8f b7       	in	r24, 0x3f	; 63
    186e:	f8 94       	cli
    1870:	99 27       	eor	r25, r25
    1872:	20 91 17 01 	lds	r18, 0x0117
    1876:	8f bf       	out	0x3f, r24	; 63
    1878:	21 30       	cpi	r18, 0x01	; 1
    187a:	99 f4       	brne	.+38     	; 0x18a2
    187c:	33 23       	and	r19, r19
    187e:	61 f0       	breq	.+24     	; 0x1898
    1880:	8f b7       	in	r24, 0x3f	; 63
    1882:	f8 94       	cli
    1884:	99 27       	eor	r25, r25
    1886:	e0 91 48 02 	lds	r30, 0x0248
    188a:	f0 91 49 02 	lds	r31, 0x0249
    188e:	26 a3       	std	Z+38, r18	; 0x26
    1890:	8f bf       	out	0x3f, r24	; 63
    1892:	85 e9       	ldi	r24, 0x95	; 149
    1894:	9d e0       	ldi	r25, 0x0D	; 13
    1896:	02 c0       	rjmp	.+4      	; 0x189c
    1898:	84 e8       	ldi	r24, 0x84	; 132
    189a:	9d e0       	ldi	r25, 0x0D	; 13
    189c:	0e 94 7d 02 	call	0x4fa
    18a0:	08 95       	ret
    18a2:	22 30       	cpi	r18, 0x02	; 2
    18a4:	41 f4       	brne	.+16     	; 0x18b6
    18a6:	33 23       	and	r19, r19
    18a8:	19 f0       	breq	.+6      	; 0x18b0
    18aa:	8f ea       	ldi	r24, 0xAF	; 175
    18ac:	9d e0       	ldi	r25, 0x0D	; 13
    18ae:	f6 cf       	rjmp	.-20     	; 0x189c
    18b0:	86 ea       	ldi	r24, 0xA6	; 166
    18b2:	9d e0       	ldi	r25, 0x0D	; 13
    18b4:	f3 cf       	rjmp	.-26     	; 0x189c
    18b6:	8f b7       	in	r24, 0x3f	; 63
    18b8:	f8 94       	cli
    18ba:	99 27       	eor	r25, r25
    18bc:	10 92 35 02 	sts	0x0235, r1
    18c0:	10 92 17 01 	sts	0x0117, r1
    18c4:	8f bf       	out	0x3f, r24	; 63
    18c6:	08 95       	ret

000018c8 <__nesc_atomic_end>:
    18c8:	8f bf       	out	0x3f, r24	; 63
    18ca:	08 95       	ret

000018cc <__nesc_atomic_start>:
    18cc:	8f b7       	in	r24, 0x3f	; 63
    18ce:	f8 94       	cli
    18d0:	99 27       	eor	r25, r25
    18d2:	08 95       	ret

000018d4 <CC1000RadioIntM$PacketRcvd>:
    18d4:	8f b7       	in	r24, 0x3f	; 63
    18d6:	f8 94       	cli
    18d8:	68 2f       	mov	r22, r24
    18da:	77 27       	eor	r23, r23
    18dc:	e0 91 92 01 	lds	r30, 0x0192
    18e0:	f0 91 93 01 	lds	r31, 0x0193
    18e4:	17 a2       	std	Z+39, r1	; 0x27
    18e6:	10 a6       	std	Z+40, r1	; 0x28
    18e8:	84 a1       	ldd	r24, Z+36	; 0x24
    18ea:	95 a1       	ldd	r25, Z+37	; 0x25
    18ec:	9c 01       	movw	r18, r24
    18ee:	22 0f       	add	r18, r18
    18f0:	33 1f       	adc	r19, r19
    18f2:	22 0f       	add	r18, r18
    18f4:	33 1f       	adc	r19, r19
    18f6:	28 0f       	add	r18, r24
    18f8:	39 1f       	adc	r19, r25
    18fa:	40 91 81 01 	lds	r20, 0x0181
    18fe:	50 91 82 01 	lds	r21, 0x0182
    1902:	ca 01       	movw	r24, r20
    1904:	88 0f       	add	r24, r24
    1906:	99 1f       	adc	r25, r25
    1908:	84 0f       	add	r24, r20
    190a:	95 1f       	adc	r25, r21
    190c:	28 0f       	add	r18, r24
    190e:	39 1f       	adc	r19, r25
    1910:	83 e0       	ldi	r24, 0x03	; 3
    1912:	36 95       	lsr	r19
    1914:	27 95       	ror	r18
    1916:	8a 95       	dec	r24
    1918:	e1 f7       	brne	.-8      	; 0x1912
    191a:	30 93 82 01 	sts	0x0182, r19
    191e:	20 93 81 01 	sts	0x0181, r18
    1922:	6f bf       	out	0x3f, r22	; 63
    1924:	82 a1       	ldd	r24, Z+34	; 0x22
    1926:	93 a1       	ldd	r25, Z+35	; 0x23
    1928:	89 2b       	or	r24, r25
    192a:	31 f0       	breq	.+12     	; 0x1938
    192c:	60 e0       	ldi	r22, 0x00	; 0
    192e:	cf 01       	movw	r24, r30
    1930:	0e 94 2c 0a 	call	0x1458
    1934:	9c 01       	movw	r18, r24
    1936:	01 c0       	rjmp	.+2      	; 0x193a
    1938:	9f 01       	movw	r18, r30
    193a:	8f b7       	in	r24, 0x3f	; 63
    193c:	f8 94       	cli
    193e:	99 27       	eor	r25, r25
    1940:	21 15       	cp	r18, r1
    1942:	31 05       	cpc	r19, r1
    1944:	21 f0       	breq	.+8      	; 0x194e
    1946:	30 93 93 01 	sts	0x0193, r19
    194a:	20 93 92 01 	sts	0x0192, r18
    194e:	e0 91 92 01 	lds	r30, 0x0192
    1952:	f0 91 93 01 	lds	r31, 0x0193
    1956:	14 82       	std	Z+4, r1	; 0x04
    1958:	8f bf       	out	0x3f, r24	; 63
    195a:	80 ec       	ldi	r24, 0xC0	; 192
    195c:	8d b9       	out	0x0d, r24	; 13
    195e:	b8 98       	cbi	0x17, 0	; 23
    1960:	0e 94 e1 05 	call	0xbc2
    1964:	08 95       	ret

00001966 <CC1000RadioIntM$PacketSent>:
    1966:	8f b7       	in	r24, 0x3f	; 63
    1968:	f8 94       	cli
    196a:	99 27       	eor	r25, r25
    196c:	e0 91 fa 01 	lds	r30, 0x01FA
    1970:	f0 91 fb 01 	lds	r31, 0x01FB
    1974:	17 a2       	std	Z+39, r1	; 0x27
    1976:	10 a6       	std	Z+40, r1	; 0x28
    1978:	8f bf       	out	0x3f, r24	; 63
    197a:	61 e0       	ldi	r22, 0x01	; 1
    197c:	cf 01       	movw	r24, r30
    197e:	0e 94 be 09 	call	0x137c
    1982:	8f b7       	in	r24, 0x3f	; 63
    1984:	f8 94       	cli
    1986:	99 27       	eor	r25, r25
    1988:	10 92 06 01 	sts	0x0106, r1
    198c:	8f bf       	out	0x3f, r24	; 63
    198e:	08 95       	ret

00001990 <TimerM$HandleFire>:
    1990:	cf 93       	push	r28
    1992:	df 93       	push	r29
    1994:	81 e0       	ldi	r24, 0x01	; 1
    1996:	80 93 94 01 	sts	0x0194, r24
    199a:	80 91 41 02 	lds	r24, 0x0241
    199e:	90 91 42 02 	lds	r25, 0x0242
    19a2:	a0 91 43 02 	lds	r26, 0x0243
    19a6:	b0 91 44 02 	lds	r27, 0x0244
    19aa:	00 97       	sbiw	r24, 0x00	; 0
    19ac:	a1 05       	cpc	r26, r1
    19ae:	b1 05       	cpc	r27, r1
    19b0:	09 f4       	brne	.+2      	; 0x19b4
    19b2:	6d c0       	rjmp	.+218    	; 0x1a8e
    19b4:	fd 01       	movw	r30, r26
    19b6:	ec 01       	movw	r28, r24
    19b8:	80 ff       	sbrs	r24, 0
    19ba:	69 c0       	rjmp	.+210    	; 0x1a8e
    19bc:	80 91 9c 01 	lds	r24, 0x019C
    19c0:	99 27       	eor	r25, r25
    19c2:	01 96       	adiw	r24, 0x01	; 1
    19c4:	aa 27       	eor	r26, r26
    19c6:	97 fd       	sbrc	r25, 7
    19c8:	a0 95       	com	r26
    19ca:	ba 2f       	mov	r27, r26
    19cc:	20 91 89 01 	lds	r18, 0x0189
    19d0:	30 91 8a 01 	lds	r19, 0x018A
    19d4:	40 91 8b 01 	lds	r20, 0x018B
    19d8:	50 91 8c 01 	lds	r21, 0x018C
    19dc:	28 1b       	sub	r18, r24
    19de:	39 0b       	sbc	r19, r25
    19e0:	4a 0b       	sbc	r20, r26
    19e2:	5b 0b       	sbc	r21, r27
    19e4:	20 93 89 01 	sts	0x0189, r18
    19e8:	30 93 8a 01 	sts	0x018A, r19
    19ec:	40 93 8b 01 	sts	0x018B, r20
    19f0:	50 93 8c 01 	sts	0x018C, r21
    19f4:	23 30       	cpi	r18, 0x03	; 3
    19f6:	31 05       	cpc	r19, r1
    19f8:	41 05       	cpc	r20, r1
    19fa:	51 05       	cpc	r21, r1
    19fc:	0c f0       	brlt	.+2      	; 0x1a00
    19fe:	47 c0       	rjmp	.+142    	; 0x1a8e
    1a00:	80 91 84 01 	lds	r24, 0x0184
    1a04:	88 23       	and	r24, r24
    1a06:	a9 f4       	brne	.+42     	; 0x1a32
    1a08:	80 91 85 01 	lds	r24, 0x0185
    1a0c:	90 91 86 01 	lds	r25, 0x0186
    1a10:	a0 91 87 01 	lds	r26, 0x0187
    1a14:	b0 91 88 01 	lds	r27, 0x0188
    1a18:	28 0f       	add	r18, r24
    1a1a:	39 1f       	adc	r19, r25
    1a1c:	4a 1f       	adc	r20, r26
    1a1e:	5b 1f       	adc	r21, r27
    1a20:	20 93 89 01 	sts	0x0189, r18
    1a24:	30 93 8a 01 	sts	0x018A, r19
    1a28:	40 93 8b 01 	sts	0x018B, r20
    1a2c:	50 93 8c 01 	sts	0x018C, r21
    1a30:	14 c0       	rjmp	.+40     	; 0x1a5a
    1a32:	81 e0       	ldi	r24, 0x01	; 1
    1a34:	90 e0       	ldi	r25, 0x00	; 0
    1a36:	80 95       	com	r24
    1a38:	90 95       	com	r25
    1a3a:	aa 27       	eor	r26, r26
    1a3c:	97 fd       	sbrc	r25, 7
    1a3e:	a0 95       	com	r26
    1a40:	ba 2f       	mov	r27, r26
    1a42:	8c 23       	and	r24, r28
    1a44:	9d 23       	and	r25, r29
    1a46:	ae 23       	and	r26, r30
    1a48:	bf 23       	and	r27, r31
    1a4a:	80 93 41 02 	sts	0x0241, r24
    1a4e:	90 93 42 02 	sts	0x0242, r25
    1a52:	a0 93 43 02 	sts	0x0243, r26
    1a56:	b0 93 44 02 	sts	0x0244, r27
    1a5a:	80 91 4b 02 	lds	r24, 0x024B
    1a5e:	88 23       	and	r24, r24
    1a60:	19 f4       	brne	.+6      	; 0x1a68
    1a62:	8f ef       	ldi	r24, 0xFF	; 255
    1a64:	80 93 4b 02 	sts	0x024B, r24
    1a68:	90 91 4b 02 	lds	r25, 0x024B
    1a6c:	9f 5f       	subi	r25, 0xFF	; 255
    1a6e:	90 93 4b 02 	sts	0x024B, r25
    1a72:	80 91 1a 01 	lds	r24, 0x011A
    1a76:	8f 5f       	subi	r24, 0xFF	; 255
    1a78:	80 93 1a 01 	sts	0x011A, r24
    1a7c:	e9 2f       	mov	r30, r25
    1a7e:	ff 27       	eor	r31, r31
    1a80:	e9 5f       	subi	r30, 0xF9	; 249
    1a82:	fe 4f       	sbci	r31, 0xFE	; 254
    1a84:	10 82       	st	Z, r1
    1a86:	88 ee       	ldi	r24, 0xE8	; 232
    1a88:	9d e0       	ldi	r25, 0x0D	; 13
    1a8a:	0e 94 7d 02 	call	0x4fa
    1a8e:	0e 94 04 02 	call	0x408
    1a92:	df 91       	pop	r29
    1a94:	cf 91       	pop	r28
    1a96:	08 95       	ret

00001a98 <HPLPowerManagementM$doAdjustment>:
    1a98:	87 b7       	in	r24, 0x37	; 55
    1a9a:	99 27       	eor	r25, r25
    1a9c:	8c 7f       	andi	r24, 0xFC	; 252
    1a9e:	00 97       	sbiw	r24, 0x00	; 0
    1aa0:	19 f0       	breq	.+6      	; 0x1aa8
    1aa2:	80 e0       	ldi	r24, 0x00	; 0
    1aa4:	90 e0       	ldi	r25, 0x00	; 0
    1aa6:	1a c0       	rjmp	.+52     	; 0x1adc
    1aa8:	6f 99       	sbic	0x0d, 7	; 13
    1aaa:	18 c0       	rjmp	.+48     	; 0x1adc
    1aac:	37 9b       	sbis	0x06, 7	; 6
    1aae:	03 c0       	rjmp	.+6      	; 0x1ab6
    1ab0:	88 e0       	ldi	r24, 0x08	; 8
    1ab2:	90 e0       	ldi	r25, 0x00	; 0
    1ab4:	13 c0       	rjmp	.+38     	; 0x1adc
    1ab6:	87 b7       	in	r24, 0x37	; 55
    1ab8:	99 27       	eor	r25, r25
    1aba:	83 70       	andi	r24, 0x03	; 3
    1abc:	90 70       	andi	r25, 0x00	; 0
    1abe:	89 2b       	or	r24, r25
    1ac0:	59 f0       	breq	.+22     	; 0x1ad8
    1ac2:	81 b7       	in	r24, 0x31	; 49
    1ac4:	92 b7       	in	r25, 0x32	; 50
    1ac6:	89 1b       	sub	r24, r25
    1ac8:	80 31       	cpi	r24, 0x10	; 16
    1aca:	18 f4       	brcc	.+6      	; 0x1ad2
    1acc:	8c e1       	ldi	r24, 0x1C	; 28
    1ace:	90 e0       	ldi	r25, 0x00	; 0
    1ad0:	05 c0       	rjmp	.+10     	; 0x1adc
    1ad2:	88 e1       	ldi	r24, 0x18	; 24
    1ad4:	90 e0       	ldi	r25, 0x00	; 0
    1ad6:	02 c0       	rjmp	.+4      	; 0x1adc
    1ad8:	80 e1       	ldi	r24, 0x10	; 16
    1ada:	90 e0       	ldi	r25, 0x00	; 0
    1adc:	38 2f       	mov	r19, r24
    1ade:	25 b7       	in	r18, 0x35	; 53
    1ae0:	23 7e       	andi	r18, 0xE3	; 227
    1ae2:	8c 31       	cpi	r24, 0x1C	; 28
    1ae4:	21 f0       	breq	.+8      	; 0x1aee
    1ae6:	88 31       	cpi	r24, 0x18	; 24
    1ae8:	11 f0       	breq	.+4      	; 0x1aee
    1aea:	08 c0       	rjmp	.+16     	; 0x1afc
    1aec:	00 00       	nop
    1aee:	80 b7       	in	r24, 0x30	; 48
    1af0:	99 27       	eor	r25, r25
    1af2:	87 70       	andi	r24, 0x07	; 7
    1af4:	90 70       	andi	r25, 0x00	; 0
    1af6:	89 2b       	or	r24, r25
    1af8:	c9 f7       	brne	.-14     	; 0x1aec
    1afa:	23 7e       	andi	r18, 0xE3	; 227
    1afc:	23 2b       	or	r18, r19
    1afe:	25 bf       	out	0x35, r18	; 53
    1b00:	85 b7       	in	r24, 0x35	; 53
    1b02:	80 62       	ori	r24, 0x20	; 32
    1b04:	85 bf       	out	0x35, r24	; 53
    1b06:	08 95       	ret

00001b08 <NoCRCPacket$sendDoneFailTask>:
    1b08:	8f b7       	in	r24, 0x3f	; 63
    1b0a:	f8 94       	cli
    1b0c:	28 2f       	mov	r18, r24
    1b0e:	33 27       	eor	r19, r19
    1b10:	10 92 35 02 	sts	0x0235, r1
    1b14:	10 92 17 01 	sts	0x0117, r1
    1b18:	80 91 48 02 	lds	r24, 0x0248
    1b1c:	90 91 49 02 	lds	r25, 0x0249
    1b20:	2f bf       	out	0x3f, r18	; 63
    1b22:	60 e0       	ldi	r22, 0x00	; 0
    1b24:	0e 94 be 09 	call	0x137c
    1b28:	08 95       	ret

00001b2a <NoCRCPacket$sendDoneSuccessTask>:
    1b2a:	8f b7       	in	r24, 0x3f	; 63
    1b2c:	f8 94       	cli
    1b2e:	28 2f       	mov	r18, r24
    1b30:	33 27       	eor	r19, r19
    1b32:	10 92 35 02 	sts	0x0235, r1
    1b36:	10 92 17 01 	sts	0x0117, r1
    1b3a:	80 91 48 02 	lds	r24, 0x0248
    1b3e:	90 91 49 02 	lds	r25, 0x0249
    1b42:	2f bf       	out	0x3f, r18	; 63
    1b44:	61 e0       	ldi	r22, 0x01	; 1
    1b46:	0e 94 be 09 	call	0x137c
    1b4a:	08 95       	ret

00001b4c <NoCRCPacket$sendVarLenFailTask>:
    1b4c:	8f b7       	in	r24, 0x3f	; 63
    1b4e:	f8 94       	cli
    1b50:	99 27       	eor	r25, r25
    1b52:	10 92 35 02 	sts	0x0235, r1
    1b56:	10 92 17 01 	sts	0x0117, r1
    1b5a:	8f bf       	out	0x3f, r24	; 63
    1b5c:	08 95       	ret

00001b5e <NoCRCPacket$sendVarLenSuccessTask>:
    1b5e:	8f b7       	in	r24, 0x3f	; 63
    1b60:	f8 94       	cli
    1b62:	99 27       	eor	r25, r25
    1b64:	10 92 35 02 	sts	0x0235, r1
    1b68:	10 92 17 01 	sts	0x0117, r1
    1b6c:	8f bf       	out	0x3f, r24	; 63
    1b6e:	08 95       	ret

00001b70 <NoCRCPacket$receiveTask>:
    1b70:	cf 93       	push	r28
    1b72:	8f b7       	in	r24, 0x3f	; 63
    1b74:	f8 94       	cli
    1b76:	28 2f       	mov	r18, r24
    1b78:	33 27       	eor	r19, r19
    1b7a:	80 91 47 02 	lds	r24, 0x0247
    1b7e:	c1 e0       	ldi	r28, 0x01	; 1
    1b80:	8c 27       	eor	r24, r28
    1b82:	e8 2f       	mov	r30, r24
    1b84:	ff 27       	eor	r31, r31
    1b86:	ee 0f       	add	r30, r30
    1b88:	ff 1f       	adc	r31, r31
    1b8a:	e9 5c       	subi	r30, 0xC9	; 201
    1b8c:	fd 4f       	sbci	r31, 0xFD	; 253
    1b8e:	01 90       	ld	r0, Z+
    1b90:	f0 81       	ld	r31, Z
    1b92:	e0 2d       	mov	r30, r0
    1b94:	81 e0       	ldi	r24, 0x01	; 1
    1b96:	90 e0       	ldi	r25, 0x00	; 0
    1b98:	82 a3       	std	Z+34, r24	; 0x22
    1b9a:	93 a3       	std	Z+35, r25	; 0x23
    1b9c:	2f bf       	out	0x3f, r18	; 63
    1b9e:	6c 2f       	mov	r22, r28
    1ba0:	cf 01       	movw	r24, r30
    1ba2:	0e 94 2c 0a 	call	0x1458
    1ba6:	ac 01       	movw	r20, r24
    1ba8:	89 2b       	or	r24, r25
    1baa:	81 f0       	breq	.+32     	; 0x1bcc
    1bac:	8f b7       	in	r24, 0x3f	; 63
    1bae:	f8 94       	cli
    1bb0:	28 2f       	mov	r18, r24
    1bb2:	33 27       	eor	r19, r19
    1bb4:	80 91 47 02 	lds	r24, 0x0247
    1bb8:	8c 27       	eor	r24, r28
    1bba:	e8 2f       	mov	r30, r24
    1bbc:	ff 27       	eor	r31, r31
    1bbe:	ee 0f       	add	r30, r30
    1bc0:	ff 1f       	adc	r31, r31
    1bc2:	e9 5c       	subi	r30, 0xC9	; 201
    1bc4:	fd 4f       	sbci	r31, 0xFD	; 253
    1bc6:	40 83       	st	Z, r20
    1bc8:	51 83       	std	Z+1, r21	; 0x01
    1bca:	2f bf       	out	0x3f, r18	; 63
    1bcc:	cf 91       	pop	r28
    1bce:	08 95       	ret

00001bd0 <TimerM$signalOneTimer>:
    1bd0:	1f 93       	push	r17
    1bd2:	cf 93       	push	r28
    1bd4:	df 93       	push	r29
    1bd6:	90 91 1a 01 	lds	r25, 0x011A
    1bda:	99 23       	and	r25, r25
    1bdc:	19 f4       	brne	.+6      	; 0x1be4
    1bde:	a1 e0       	ldi	r26, 0x01	; 1
    1be0:	b0 e0       	ldi	r27, 0x00	; 0
    1be2:	16 c0       	rjmp	.+44     	; 0x1c10
    1be4:	80 91 05 01 	lds	r24, 0x0105
    1be8:	88 23       	and	r24, r24
    1bea:	19 f4       	brne	.+6      	; 0x1bf2
    1bec:	8f ef       	ldi	r24, 0xFF	; 255
    1bee:	80 93 05 01 	sts	0x0105, r24
    1bf2:	80 91 05 01 	lds	r24, 0x0105
    1bf6:	8f 5f       	subi	r24, 0xFF	; 255
    1bf8:	80 93 05 01 	sts	0x0105, r24
    1bfc:	91 50       	subi	r25, 0x01	; 1
    1bfe:	90 93 1a 01 	sts	0x011A, r25
    1c02:	e8 2f       	mov	r30, r24
    1c04:	ff 27       	eor	r31, r31
    1c06:	e9 5f       	subi	r30, 0xF9	; 249
    1c08:	fe 4f       	sbci	r31, 0xFE	; 254
    1c0a:	80 81       	ld	r24, Z
    1c0c:	a8 2f       	mov	r26, r24
    1c0e:	bb 27       	eor	r27, r27
    1c10:	aa 23       	and	r26, r26
    1c12:	09 f0       	breq	.+2      	; 0x1c16
    1c14:	8f c0       	rjmp	.+286    	; 0x1d34
    1c16:	e0 91 9b 01 	lds	r30, 0x019B
    1c1a:	ee 23       	and	r30, r30
    1c1c:	09 f4       	brne	.+2      	; 0x1c20
    1c1e:	8a c0       	rjmp	.+276    	; 0x1d34
    1c20:	8f b7       	in	r24, 0x3f	; 63
    1c22:	f8 94       	cli
    1c24:	99 27       	eor	r25, r25
    1c26:	20 91 09 01 	lds	r18, 0x0109
    1c2a:	10 91 08 01 	lds	r17, 0x0108
    1c2e:	8f bf       	out	0x3f, r24	; 63
    1c30:	33 27       	eor	r19, r19
    1c32:	22 30       	cpi	r18, 0x02	; 2
    1c34:	31 05       	cpc	r19, r1
    1c36:	21 f0       	breq	.+8      	; 0x1c40
    1c38:	26 30       	cpi	r18, 0x06	; 6
    1c3a:	31 05       	cpc	r19, r1
    1c3c:	91 f1       	breq	.+100    	; 0x1ca2
    1c3e:	72 c0       	rjmp	.+228    	; 0x1d24
    1c40:	8e 2f       	mov	r24, r30
    1c42:	99 27       	eor	r25, r25
    1c44:	88 0f       	add	r24, r24
    1c46:	99 1f       	adc	r25, r25
    1c48:	fc 01       	movw	r30, r24
    1c4a:	ef 55       	subi	r30, 0x5F	; 95
    1c4c:	ff 4f       	sbci	r31, 0xFF	; 255
    1c4e:	24 91       	lpm	r18, Z
    1c50:	33 27       	eor	r19, r19
    1c52:	d2 2f       	mov	r29, r18
    1c54:	cc 27       	eor	r28, r28
    1c56:	8e 55       	subi	r24, 0x5E	; 94
    1c58:	9f 4f       	sbci	r25, 0xFF	; 255
    1c5a:	fc 01       	movw	r30, r24
    1c5c:	84 91       	lpm	r24, Z
    1c5e:	99 27       	eor	r25, r25
    1c60:	c8 2b       	or	r28, r24
    1c62:	d9 2b       	or	r29, r25
    1c64:	11 23       	and	r17, r17
    1c66:	09 f0       	breq	.+2      	; 0x1c6a
    1c68:	5d c0       	rjmp	.+186    	; 0x1d24
    1c6a:	8f b7       	in	r24, 0x3f	; 63
    1c6c:	f8 94       	cli
    1c6e:	28 2f       	mov	r18, r24
    1c70:	33 27       	eor	r19, r19
    1c72:	86 e0       	ldi	r24, 0x06	; 6
    1c74:	80 93 09 01 	sts	0x0109, r24
    1c78:	2f bf       	out	0x3f, r18	; 63
    1c7a:	ce 01       	movw	r24, r28
    1c7c:	aa 27       	eor	r26, r26
    1c7e:	bb 27       	eor	r27, r27
    1c80:	9c 01       	movw	r18, r24
    1c82:	ad 01       	movw	r20, r26
    1c84:	61 e0       	ldi	r22, 0x01	; 1
    1c86:	81 2f       	mov	r24, r17
    1c88:	0e 94 f3 05 	call	0xbe6
    1c8c:	61 2f       	mov	r22, r17
    1c8e:	8b e0       	ldi	r24, 0x0B	; 11
    1c90:	0e 94 3d 05 	call	0xa7a
    1c94:	6f e3       	ldi	r22, 0x3F	; 63
    1c96:	81 2f       	mov	r24, r17
    1c98:	0e 94 3d 05 	call	0xa7a
    1c9c:	0e 94 24 0a 	call	0x1448
    1ca0:	49 c0       	rjmp	.+146    	; 0x1d34
    1ca2:	ff 27       	eor	r31, r31
    1ca4:	e1 55       	subi	r30, 0x51	; 81
    1ca6:	ff 4f       	sbci	r31, 0xFF	; 255
    1ca8:	84 91       	lpm	r24, Z
    1caa:	c8 2f       	mov	r28, r24
    1cac:	dd 27       	eor	r29, r29
    1cae:	8f b7       	in	r24, 0x3f	; 63
    1cb0:	f8 94       	cli
    1cb2:	28 2f       	mov	r18, r24
    1cb4:	33 27       	eor	r19, r19
    1cb6:	82 e0       	ldi	r24, 0x02	; 2
    1cb8:	80 93 09 01 	sts	0x0109, r24
    1cbc:	2f bf       	out	0x3f, r18	; 63
    1cbe:	6b e3       	ldi	r22, 0x3B	; 59
    1cc0:	8a 2f       	mov	r24, r26
    1cc2:	0e 94 3d 05 	call	0xa7a
    1cc6:	80 ed       	ldi	r24, 0xD0	; 208
    1cc8:	97 e0       	ldi	r25, 0x07	; 7
    1cca:	00 00       	nop
    1ccc:	00 00       	nop
    1cce:	00 00       	nop
    1cd0:	00 00       	nop
    1cd2:	00 00       	nop
    1cd4:	00 00       	nop
    1cd6:	00 00       	nop
    1cd8:	00 00       	nop
    1cda:	01 97       	sbiw	r24, 0x01	; 1
    1cdc:	18 16       	cp	r1, r24
    1cde:	19 06       	cpc	r1, r25
    1ce0:	a4 f3       	brlt	.-24     	; 0x1cca
    1ce2:	69 e3       	ldi	r22, 0x39	; 57
    1ce4:	80 e0       	ldi	r24, 0x00	; 0
    1ce6:	0e 94 3d 05 	call	0xa7a
    1cea:	88 ec       	ldi	r24, 0xC8	; 200
    1cec:	90 e0       	ldi	r25, 0x00	; 0
    1cee:	00 00       	nop
    1cf0:	00 00       	nop
    1cf2:	00 00       	nop
    1cf4:	00 00       	nop
    1cf6:	00 00       	nop
    1cf8:	00 00       	nop
    1cfa:	00 00       	nop
    1cfc:	00 00       	nop
    1cfe:	01 97       	sbiw	r24, 0x01	; 1
    1d00:	18 16       	cp	r1, r24
    1d02:	19 06       	cpc	r1, r25
    1d04:	a4 f3       	brlt	.-24     	; 0x1cee
    1d06:	bb 98       	cbi	0x17, 3	; 23
    1d08:	ba 98       	cbi	0x17, 2	; 23
    1d0a:	0e 94 c2 05 	call	0xb84
    1d0e:	80 ec       	ldi	r24, 0xC0	; 192
    1d10:	8d b9       	out	0x0d, r24	; 13
    1d12:	b8 98       	cbi	0x17, 0	; 23
    1d14:	0e 94 e1 05 	call	0xbc2
    1d18:	ce 01       	movw	r24, r28
    1d1a:	aa 27       	eor	r26, r26
    1d1c:	bb 27       	eor	r27, r27
    1d1e:	9c 01       	movw	r18, r24
    1d20:	ad 01       	movw	r20, r26
    1d22:	04 c0       	rjmp	.+8      	; 0x1d2c
    1d24:	20 e2       	ldi	r18, 0x20	; 32
    1d26:	30 e0       	ldi	r19, 0x00	; 0
    1d28:	40 e0       	ldi	r20, 0x00	; 0
    1d2a:	50 e0       	ldi	r21, 0x00	; 0
    1d2c:	61 e0       	ldi	r22, 0x01	; 1
    1d2e:	80 e0       	ldi	r24, 0x00	; 0
    1d30:	0e 94 f3 05 	call	0xbe6
    1d34:	df 91       	pop	r29
    1d36:	cf 91       	pop	r28
    1d38:	1f 91       	pop	r17
    1d3a:	08 95       	ret
