
Oscilloscope:     file format elf32-avr

Sections:
Idx Name          Size      VMA       LMA       File off  Algn
  0 .data         00000004  00800100  00001660  000016f4  2**0
                  CONTENTS, ALLOC, LOAD, DATA
  1 .text         00001660  00000000  00000000  00000094  2**0
                  CONTENTS, ALLOC, LOAD, READONLY, CODE
  2 .bss          00000128  00800104  00800104  000016f8  2**0
                  ALLOC
  3 .noinit       00000000  0080022c  0080022c  000016f8  2**0
                  CONTENTS
  4 .eeprom       00000000  00810000  00810000  000016f8  2**0
                  CONTENTS
  5 .stab         0000033c  00000000  00000000  000016f8  2**2
                  CONTENTS, READONLY, DEBUGGING
  6 .stabstr      00000051  00000000  00000000  00001a34  2**0
                  CONTENTS, READONLY, DEBUGGING
Disassembly of section .text:

00000000 <__vectors>:
       0:	0c 94 46 01 	jmp	0x28c
       4:	0c 94 63 01 	jmp	0x2c6
       8:	0c 94 63 01 	jmp	0x2c6
       c:	0c 94 63 01 	jmp	0x2c6
      10:	0c 94 63 01 	jmp	0x2c6
      14:	0c 94 63 01 	jmp	0x2c6
      18:	0c 94 63 01 	jmp	0x2c6
      1c:	0c 94 63 01 	jmp	0x2c6
      20:	0c 94 63 01 	jmp	0x2c6
      24:	0c 94 63 01 	jmp	0x2c6
      28:	0c 94 63 01 	jmp	0x2c6
      2c:	0c 94 63 01 	jmp	0x2c6
      30:	0c 94 63 01 	jmp	0x2c6
      34:	0c 94 63 01 	jmp	0x2c6
      38:	0c 94 63 01 	jmp	0x2c6
      3c:	0c 94 55 04 	jmp	0x8aa
      40:	0c 94 63 01 	jmp	0x2c6
      44:	0c 94 63 01 	jmp	0x2c6
      48:	0c 94 f5 01 	jmp	0x3ea
      4c:	0c 94 63 01 	jmp	0x2c6
      50:	0c 94 1f 02 	jmp	0x43e
      54:	0c 94 a4 04 	jmp	0x948
      58:	0c 94 63 01 	jmp	0x2c6
      5c:	0c 94 63 01 	jmp	0x2c6
      60:	0c 94 63 01 	jmp	0x2c6
      64:	0c 94 63 01 	jmp	0x2c6
      68:	0c 94 63 01 	jmp	0x2c6
      6c:	0c 94 63 01 	jmp	0x2c6
      70:	0c 94 63 01 	jmp	0x2c6
      74:	0c 94 63 01 	jmp	0x2c6
      78:	0c 94 63 01 	jmp	0x2c6
      7c:	0c 94 63 01 	jmp	0x2c6
      80:	0c 94 63 01 	jmp	0x2c6
      84:	0c 94 63 01 	jmp	0x2c6
      88:	0c 94 63 01 	jmp	0x2c6

0000008c <__ctors_end>:
      8c:	00 00       	nop
      8e:	21 10       	cpse	r2, r1
      90:	42 20       	and	r4, r2
      92:	63 30       	cpi	r22, 0x03	; 3
      94:	84 40       	sbci	r24, 0x04	; 4
      96:	a5 50       	subi	r26, 0x05	; 5
      98:	c6 60       	ori	r28, 0x06	; 6
      9a:	e7 70       	andi	r30, 0x07	; 7
      9c:	08 81       	ld	r16, Y
      9e:	29 91       	ld	r18, Y+
      a0:	4a a1       	ldd	r20, Y+34	; 0x22
      a2:	6b b1       	in	r22, 0x0b	; 11
      a4:	8c c1       	rjmp	.+792    	; 0x3be
      a6:	ad d1       	rcall	.+858    	; 0x402
      a8:	ce e1       	ldi	r28, 0x1E	; 30
      aa:	ef f1       	brie	.+122    	; 0x126
      ac:	31 12       	cpse	r3, r17
      ae:	10 02       	muls	r17, r16
      b0:	73 32       	cpi	r23, 0x23	; 35
      b2:	52 22       	and	r5, r18
      b4:	b5 52       	subi	r27, 0x25	; 37
      b6:	94 42       	sbci	r25, 0x24	; 36
      b8:	f7 72       	andi	r31, 0x27	; 39
      ba:	d6 62       	ori	r29, 0x26	; 38
      bc:	39 93       	st	Y+, r19
      be:	18 83       	st	Y, r17
      c0:	7b b3       	in	r23, 0x1b	; 27
      c2:	5a a3       	std	Y+34, r21	; 0x22
      c4:	bd d3       	rcall	.+1914   	; 0x840
      c6:	9c c3       	rjmp	.+1848   	; 0x800
      c8:	ff f3       	brie	.-2      	; 0xc8
      ca:	de e3       	ldi	r29, 0x3E	; 62
      cc:	62 24       	eor	r6, r2
      ce:	43 34       	cpi	r20, 0x43	; 67
      d0:	20 04       	cpc	r2, r0
      d2:	01 14       	cp	r0, r1
      d4:	e6 64       	ori	r30, 0x46	; 70
      d6:	c7 74       	andi	r28, 0x47	; 71
      d8:	a4 44       	sbci	r26, 0x44	; 68
      da:	85 54       	subi	r24, 0x45	; 69
      dc:	6a a5       	ldd	r22, Y+42	; 0x2a
      de:	4b b5       	in	r20, 0x2b	; 43
      e0:	28 85       	ldd	r18, Y+8	; 0x08
      e2:	09 95       	icall
      e4:	ee e5       	ldi	r30, 0x5E	; 94
      e6:	cf f5       	brid	.+114    	; 0x15a
      e8:	ac c5       	rjmp	.+2904   	; 0xc42
      ea:	8d d5       	rcall	.+2842   	; 0xc06
      ec:	53 36       	cpi	r21, 0x63	; 99
      ee:	72 26       	eor	r7, r18
      f0:	11 16       	cp	r1, r17
      f2:	30 06       	cpc	r3, r16
      f4:	d7 76       	andi	r29, 0x67	; 103
      f6:	f6 66       	ori	r31, 0x66	; 102
      f8:	95 56       	subi	r25, 0x65	; 101
      fa:	b4 46       	sbci	r27, 0x64	; 100
      fc:	5b b7       	in	r21, 0x3b	; 59
      fe:	7a a7       	std	Y+42, r23	; 0x2a
     100:	19 97       	sbiw	r26, 0x09	; 9
     102:	38 87       	std	Y+8, r19	; 0x08
     104:	df f7       	brid	.-10     	; 0xfc
     106:	fe e7       	ldi	r31, 0x7E	; 126
     108:	9d d7       	rcall	.+3898   	; 0x1044
     10a:	bc c7       	rjmp	.+3960   	; 0x1084
     10c:	c4 48       	sbci	r28, 0x84	; 132
     10e:	e5 58       	subi	r30, 0x85	; 133
     110:	86 68       	ori	r24, 0x86	; 134
     112:	a7 78       	andi	r26, 0x87	; 135
     114:	40 08       	sbc	r4, r0
     116:	61 18       	sub	r6, r1
     118:	02 28       	or	r0, r2
     11a:	23 38       	cpi	r18, 0x83	; 131
     11c:	cc c9       	rjmp	.-3176   	; 0xfffff4b6
     11e:	ed d9       	rcall	.-3110   	; 0xfffff4fa
     120:	8e e9       	ldi	r24, 0x9E	; 158
     122:	af f9       	.word	0xf9af	; ????
     124:	48 89       	ldd	r20, Y+16	; 0x10
     126:	69 99       	sbic	0x0d, 1	; 13
     128:	0a a9       	ldd	r16, Y+50	; 0x32
     12a:	2b b9       	out	0x0b, r18	; 11
     12c:	f5 5a       	subi	r31, 0xA5	; 165
     12e:	d4 4a       	sbci	r29, 0xA4	; 164
     130:	b7 7a       	andi	r27, 0xA7	; 167
     132:	96 6a       	ori	r25, 0xA6	; 166
     134:	71 1a       	sub	r7, r17
     136:	50 0a       	sbc	r5, r16
     138:	33 3a       	cpi	r19, 0xA3	; 163
     13a:	12 2a       	or	r1, r18
     13c:	fd db       	rcall	.-2054   	; 0xfffff938
     13e:	dc cb       	rjmp	.-2120   	; 0xfffff8f8
     140:	bf fb       	.word	0xfbbf	; ????
     142:	9e eb       	ldi	r25, 0xBE	; 190
     144:	79 9b       	sbis	0x0f, 1	; 15
     146:	58 8b       	std	Y+16, r21	; 0x10
     148:	3b bb       	out	0x1b, r19	; 27
     14a:	1a ab       	std	Y+50, r17	; 0x32
     14c:	a6 6c       	ori	r26, 0xC6	; 198
     14e:	87 7c       	andi	r24, 0xC7	; 199
     150:	e4 4c       	sbci	r30, 0xC4	; 196
     152:	c5 5c       	subi	r28, 0xC5	; 197
     154:	22 2c       	mov	r2, r2
     156:	03 3c       	cpi	r16, 0xC3	; 195
     158:	60 0c       	add	r6, r0
     15a:	41 1c       	adc	r4, r1
     15c:	ae ed       	ldi	r26, 0xDE	; 222
     15e:	8f fd       	.word	0xfd8f	; ????
     160:	ec cd       	rjmp	.-1064   	; 0xfffffd3a
     162:	cd dd       	rcall	.-1126   	; 0xfffffcfe
     164:	2a ad       	ldd	r18, Y+58	; 0x3a
     166:	0b bd       	out	0x2b, r16	; 43
     168:	68 8d       	ldd	r22, Y+24	; 0x18
     16a:	49 9d       	mul	r20, r9
     16c:	97 7e       	andi	r25, 0xE7	; 231
     16e:	b6 6e       	ori	r27, 0xE6	; 230
     170:	d5 5e       	subi	r29, 0xE5	; 229
     172:	f4 4e       	sbci	r31, 0xE4	; 228
     174:	13 3e       	cpi	r17, 0xE3	; 227
     176:	32 2e       	mov	r3, r18
     178:	51 1e       	adc	r5, r17
     17a:	70 0e       	add	r7, r16
     17c:	9f ff       	.word	0xff9f	; ????
     17e:	be ef       	ldi	r27, 0xFE	; 254
     180:	dd df       	rcall	.-70     	; 0x13c
     182:	fc cf       	rjmp	.-8      	; 0x17c
     184:	1b bf       	out	0x3b, r17	; 59
     186:	3a af       	std	Y+58, r19	; 0x3a
     188:	59 9f       	mul	r21, r25
     18a:	78 8f       	std	Y+24, r23	; 0x18
     18c:	88 91       	.word	0x9188	; ????
     18e:	a9 81       	ldd	r26, Y+1	; 0x01
     190:	ca b1       	in	r28, 0x0a	; 10
     192:	eb a1       	ldd	r30, Y+35	; 0x23
     194:	0c d1       	rcall	.+536    	; 0x3ae
     196:	2d c1       	rjmp	.+602    	; 0x3f2
     198:	4e f1       	brts	.+82     	; 0x1ec
     19a:	6f e1       	ldi	r22, 0x1F	; 31
     19c:	80 10       	cpse	r8, r0
     19e:	a1 00       	.word	0x00a1	; ????
     1a0:	c2 30       	cpi	r28, 0x02	; 2
     1a2:	e3 20       	and	r14, r3
     1a4:	04 50       	subi	r16, 0x04	; 4
     1a6:	25 40       	sbci	r18, 0x05	; 5
     1a8:	46 70       	andi	r20, 0x06	; 6
     1aa:	67 60       	ori	r22, 0x07	; 7
     1ac:	b9 83       	std	Y+1, r27	; 0x01
     1ae:	98 93       	.word	0x9398	; ????
     1b0:	fb a3       	std	Y+35, r31	; 0x23
     1b2:	da b3       	in	r29, 0x1a	; 26
     1b4:	3d c3       	rjmp	.+1658   	; 0x830
     1b6:	1c d3       	rcall	.+1592   	; 0x7f0
     1b8:	7f e3       	ldi	r23, 0x3F	; 63
     1ba:	5e f3       	brts	.-42     	; 0x192
     1bc:	b1 02       	muls	r27, r17
     1be:	90 12       	cpse	r9, r16
     1c0:	f3 22       	and	r15, r19
     1c2:	d2 32       	cpi	r29, 0x22	; 34
     1c4:	35 42       	sbci	r19, 0x25	; 37
     1c6:	14 52       	subi	r17, 0x24	; 36
     1c8:	77 62       	ori	r23, 0x27	; 39
     1ca:	56 72       	andi	r21, 0x26	; 38
     1cc:	ea b5       	in	r30, 0x2a	; 42
     1ce:	cb a5       	ldd	r28, Y+43	; 0x2b
     1d0:	a8 95       	wdr
     1d2:	89 85       	ldd	r24, Y+9	; 0x09
     1d4:	6e f5       	brtc	.+90     	; 0x230
     1d6:	4f e5       	ldi	r20, 0x5F	; 95
     1d8:	2c d5       	rcall	.+2648   	; 0xc32
     1da:	0d c5       	rjmp	.+2586   	; 0xbf6
     1dc:	e2 34       	cpi	r30, 0x42	; 66
     1de:	c3 24       	eor	r12, r3
     1e0:	a0 14       	cp	r10, r0
     1e2:	81 04       	cpc	r8, r1
     1e4:	66 74       	andi	r22, 0x46	; 70
     1e6:	47 64       	ori	r20, 0x47	; 71
     1e8:	24 54       	subi	r18, 0x44	; 68
     1ea:	05 44       	sbci	r16, 0x45	; 69
     1ec:	db a7       	std	Y+43, r29	; 0x2b
     1ee:	fa b7       	in	r31, 0x3a	; 58
     1f0:	99 87       	std	Y+9, r25	; 0x09
     1f2:	b8 97       	sbiw	r30, 0x28	; 40
     1f4:	5f e7       	ldi	r21, 0x7F	; 127
     1f6:	7e f7       	brtc	.-34     	; 0x1d6
     1f8:	1d c7       	rjmp	.+3642   	; 0x1034
     1fa:	3c d7       	rcall	.+3704   	; 0x1074
     1fc:	d3 26       	eor	r13, r19
     1fe:	f2 36       	cpi	r31, 0x62	; 98
     200:	91 06       	cpc	r9, r17
     202:	b0 16       	cp	r11, r16
     204:	57 66       	ori	r21, 0x67	; 103
     206:	76 76       	andi	r23, 0x66	; 102
     208:	15 46       	sbci	r17, 0x65	; 101
     20a:	34 56       	subi	r19, 0x64	; 100
     20c:	4c d9       	rcall	.-3432   	; 0xfffff4a6
     20e:	6d c9       	rjmp	.-3366   	; 0xfffff4ea
     210:	0e f9       	.word	0xf90e	; ????
     212:	2f e9       	ldi	r18, 0x9F	; 159
     214:	c8 99       	sbic	0x19, 0	; 25
     216:	e9 89       	ldd	r30, Y+17	; 0x11
     218:	8a b9       	out	0x0a, r24	; 10
     21a:	ab a9       	ldd	r26, Y+51	; 0x33
     21c:	44 58       	subi	r20, 0x84	; 132
     21e:	65 48       	sbci	r22, 0x85	; 133
     220:	06 78       	andi	r16, 0x86	; 134
     222:	27 68       	ori	r18, 0x87	; 135
     224:	c0 18       	sub	r12, r0
     226:	e1 08       	sbc	r14, r1
     228:	82 38       	cpi	r24, 0x82	; 130
     22a:	a3 28       	or	r10, r3
     22c:	7d cb       	rjmp	.-2310   	; 0xfffff928
     22e:	5c db       	rcall	.-2376   	; 0xfffff8e8
     230:	3f eb       	ldi	r19, 0xBF	; 191
     232:	1e fb       	.word	0xfb1e	; ????
     234:	f9 8b       	std	Y+17, r31	; 0x11
     236:	d8 9b       	sbis	0x1b, 0	; 27
     238:	bb ab       	std	Y+51, r27	; 0x33
     23a:	9a bb       	out	0x1a, r25	; 26
     23c:	75 4a       	sbci	r23, 0xA5	; 165
     23e:	54 5a       	subi	r21, 0xA4	; 164
     240:	37 6a       	ori	r19, 0xA7	; 167
     242:	16 7a       	andi	r17, 0xA6	; 166
     244:	f1 0a       	sbc	r15, r17
     246:	d0 1a       	sub	r13, r16
     248:	b3 2a       	or	r11, r19
     24a:	92 3a       	cpi	r25, 0xA2	; 162
     24c:	2e fd       	.word	0xfd2e	; ????
     24e:	0f ed       	ldi	r16, 0xDF	; 223
     250:	6c dd       	rcall	.-1320   	; 0xfffffd2a
     252:	4d cd       	rjmp	.-1382   	; 0xfffffcee
     254:	aa bd       	out	0x2a, r26	; 42
     256:	8b ad       	ldd	r24, Y+59	; 0x3b
     258:	e8 9d       	mul	r30, r8
     25a:	c9 8d       	ldd	r28, Y+25	; 0x19
     25c:	26 7c       	andi	r18, 0xC6	; 198
     25e:	07 6c       	ori	r16, 0xC7	; 199
     260:	64 5c       	subi	r22, 0xC4	; 196
     262:	45 4c       	sbci	r20, 0xC5	; 197
     264:	a2 3c       	cpi	r26, 0xC2	; 194
     266:	83 2c       	mov	r8, r3
     268:	e0 1c       	adc	r14, r0
     26a:	c1 0c       	add	r12, r1
     26c:	1f ef       	ldi	r17, 0xFF	; 255
     26e:	3e ff       	.word	0xff3e	; ????
     270:	5d cf       	rjmp	.-326    	; 0x12c
     272:	7c df       	rcall	.-264    	; 0x16c
     274:	9b af       	std	Y+59, r25	; 0x3b
     276:	ba bf       	out	0x3a, r27	; 58
     278:	d9 8f       	std	Y+25, r29	; 0x19
     27a:	f8 9f       	mul	r31, r24
     27c:	17 6e       	ori	r17, 0xE7	; 231
     27e:	36 7e       	andi	r19, 0xE6	; 230
     280:	55 4e       	sbci	r21, 0xE5	; 229
     282:	74 5e       	subi	r23, 0xE4	; 228
     284:	93 2e       	mov	r9, r19
     286:	b2 3e       	cpi	r27, 0xE2	; 226
     288:	d1 0e       	add	r13, r17
     28a:	f0 1e       	adc	r15, r16

0000028c <__init>:
     28c:	11 24       	eor	r1, r1
     28e:	1f be       	out	0x3f, r1	; 63
     290:	cf ef       	ldi	r28, 0xFF	; 255
     292:	d0 e1       	ldi	r29, 0x10	; 16
     294:	de bf       	out	0x3e, r29	; 62
     296:	cd bf       	out	0x3d, r28	; 61

00000298 <__do_copy_data>:
     298:	11 e0       	ldi	r17, 0x01	; 1
     29a:	a0 e0       	ldi	r26, 0x00	; 0
     29c:	b1 e0       	ldi	r27, 0x01	; 1
     29e:	e0 e6       	ldi	r30, 0x60	; 96
     2a0:	f6 e1       	ldi	r31, 0x16	; 22
     2a2:	00 e0       	ldi	r16, 0x00	; 0
     2a4:	0b bf       	out	0x3b, r16	; 59
     2a6:	02 c0       	rjmp	.+4      	; 0x2ac

000002a8 <.__do_copy_data_loop>:
     2a8:	07 90       	elpm	r0, Z+
     2aa:	0d 92       	st	X+, r0

000002ac <.__do_copy_data_start>:
     2ac:	a4 30       	cpi	r26, 0x04	; 4
     2ae:	b1 07       	cpc	r27, r17
     2b0:	d9 f7       	brne	.-10     	; 0x2a8

000002b2 <__do_clear_bss>:
     2b2:	12 e0       	ldi	r17, 0x02	; 2
     2b4:	a4 e0       	ldi	r26, 0x04	; 4
     2b6:	b1 e0       	ldi	r27, 0x01	; 1
     2b8:	01 c0       	rjmp	.+2      	; 0x2bc

000002ba <.do_clear_bss_loop>:
     2ba:	1d 92       	st	X+, r1

000002bc <.do_clear_bss_start>:
     2bc:	ac 32       	cpi	r26, 0x2C	; 44
     2be:	b1 07       	cpc	r27, r17
     2c0:	e1 f7       	brne	.-8      	; 0x2ba
     2c2:	0c 94 6c 02 	jmp	0x4d8

000002c6 <__bad_interrupt>:
     2c6:	0c 94 00 00 	jmp	0x0

000002ca <TimerM$adjustInterval>:
     2ca:	af 92       	push	r10
     2cc:	bf 92       	push	r11
     2ce:	cf 92       	push	r12
     2d0:	df 92       	push	r13
     2d2:	ef 92       	push	r14
     2d4:	ff 92       	push	r15
     2d6:	0f 93       	push	r16
     2d8:	1f 93       	push	r17
     2da:	cf 93       	push	r28
     2dc:	df 93       	push	r29
     2de:	86 ee       	ldi	r24, 0xE6	; 230
     2e0:	f8 2e       	mov	r15, r24
     2e2:	a0 90 24 02 	lds	r10, 0x0224
     2e6:	b0 90 25 02 	lds	r11, 0x0225
     2ea:	c0 90 26 02 	lds	r12, 0x0226
     2ee:	d0 90 27 02 	lds	r13, 0x0227
     2f2:	a1 14       	cp	r10, r1
     2f4:	b1 04       	cpc	r11, r1
     2f6:	c1 04       	cpc	r12, r1
     2f8:	d1 04       	cpc	r13, r1
     2fa:	81 f1       	breq	.+96     	; 0x35c
     2fc:	ee 24       	eor	r14, r14
     2fe:	6d ed       	ldi	r22, 0xDD	; 221
     300:	71 e0       	ldi	r23, 0x01	; 1
     302:	00 e0       	ldi	r16, 0x00	; 0
     304:	10 e0       	ldi	r17, 0x00	; 0
     306:	81 e0       	ldi	r24, 0x01	; 1
     308:	90 e0       	ldi	r25, 0x00	; 0
     30a:	00 2e       	mov	r0, r16
     30c:	02 c0       	rjmp	.+4      	; 0x312
     30e:	88 0f       	add	r24, r24
     310:	99 1f       	adc	r25, r25
     312:	0a 94       	dec	r0
     314:	e2 f7       	brpl	.-8      	; 0x30e
     316:	aa 27       	eor	r26, r26
     318:	97 fd       	sbrc	r25, 7
     31a:	a0 95       	com	r26
     31c:	ba 2f       	mov	r27, r26
     31e:	8a 21       	and	r24, r10
     320:	9b 21       	and	r25, r11
     322:	ac 21       	and	r26, r12
     324:	bd 21       	and	r27, r13
     326:	00 97       	sbiw	r24, 0x00	; 0
     328:	a1 05       	cpc	r26, r1
     32a:	b1 05       	cpc	r27, r1
     32c:	79 f0       	breq	.+30     	; 0x34c
     32e:	2f 2d       	mov	r18, r15
     330:	33 27       	eor	r19, r19
     332:	44 27       	eor	r20, r20
     334:	55 27       	eor	r21, r21
     336:	fb 01       	movw	r30, r22
     338:	85 81       	ldd	r24, Z+5	; 0x05
     33a:	96 81       	ldd	r25, Z+6	; 0x06
     33c:	a7 81       	ldd	r26, Z+7	; 0x07
     33e:	b0 85       	ldd	r27, Z+8	; 0x08
     340:	82 17       	cp	r24, r18
     342:	93 07       	cpc	r25, r19
     344:	a4 07       	cpc	r26, r20
     346:	b5 07       	cpc	r27, r21
     348:	0c f4       	brge	.+2      	; 0x34c
     34a:	f5 80       	ldd	r15, Z+5	; 0x05
     34c:	e3 94       	inc	r14
     34e:	0f 5f       	subi	r16, 0xFF	; 255
     350:	1f 4f       	sbci	r17, 0xFF	; 255
     352:	67 5f       	subi	r22, 0xF7	; 247
     354:	7f 4f       	sbci	r23, 0xFF	; 255
     356:	f1 e0       	ldi	r31, 0x01	; 1
     358:	fe 15       	cp	r31, r14
     35a:	a8 f6       	brcc	.-86     	; 0x306
     35c:	8f b7       	in	r24, 0x3f	; 63
     35e:	f8 94       	cli
     360:	99 27       	eor	r25, r25
     362:	f0 92 fa 01 	sts	0x01FA, r15
     366:	f1 be       	out	0x31, r15	; 49
     368:	10 92 f3 01 	sts	0x01F3, r1
     36c:	8f bf       	out	0x3f, r24	; 63
     36e:	0e 94 43 04 	call	0x886
     372:	df 91       	pop	r29
     374:	cf 91       	pop	r28
     376:	1f 91       	pop	r17
     378:	0f 91       	pop	r16
     37a:	ff 90       	pop	r15
     37c:	ef 90       	pop	r14
     37e:	df 90       	pop	r13
     380:	cf 90       	pop	r12
     382:	bf 90       	pop	r11
     384:	af 90       	pop	r10
     386:	08 95       	ret

00000388 <received>:
     388:	fc 01       	movw	r30, r24
     38a:	20 91 00 01 	lds	r18, 0x0100
     38e:	30 91 01 01 	lds	r19, 0x0101
     392:	80 91 db 01 	lds	r24, 0x01DB
     396:	90 91 dc 01 	lds	r25, 0x01DC
     39a:	01 96       	adiw	r24, 0x01	; 1
     39c:	90 93 dc 01 	sts	0x01DC, r25
     3a0:	80 93 db 01 	sts	0x01DB, r24
     3a4:	82 a1       	ldd	r24, Z+34	; 0x22
     3a6:	93 a1       	ldd	r25, Z+35	; 0x23
     3a8:	01 97       	sbiw	r24, 0x01	; 1
     3aa:	e9 f4       	brne	.+58     	; 0x3e6
     3ac:	93 81       	ldd	r25, Z+3	; 0x03
     3ae:	80 91 02 01 	lds	r24, 0x0102
     3b2:	98 17       	cp	r25, r24
     3b4:	c1 f4       	brne	.+48     	; 0x3e6
     3b6:	80 81       	ld	r24, Z
     3b8:	91 81       	ldd	r25, Z+1	; 0x01
     3ba:	4f ef       	ldi	r20, 0xFF	; 255
     3bc:	8f 3f       	cpi	r24, 0xFF	; 255
     3be:	94 07       	cpc	r25, r20
     3c0:	19 f0       	breq	.+6      	; 0x3c8
     3c2:	82 17       	cp	r24, r18
     3c4:	93 07       	cpc	r25, r19
     3c6:	79 f4       	brne	.+30     	; 0x3e6
     3c8:	92 81       	ldd	r25, Z+2	; 0x02
     3ca:	83 e0       	ldi	r24, 0x03	; 3
     3cc:	8c 5f       	subi	r24, 0xFC	; 252
     3ce:	8b 32       	cpi	r24, 0x2B	; 43
     3d0:	e8 f3       	brcs	.-6      	; 0x3cc
     3d2:	90 32       	cpi	r25, 0x20	; 32
     3d4:	41 f4       	brne	.+16     	; 0x3e6
     3d6:	8f b7       	in	r24, 0x3f	; 63
     3d8:	f8 94       	cli
     3da:	99 27       	eor	r25, r25
     3dc:	10 92 1d 02 	sts	0x021D, r1
     3e0:	10 92 1c 02 	sts	0x021C, r1
     3e4:	8f bf       	out	0x3f, r24	; 63
     3e6:	cf 01       	movw	r24, r30
     3e8:	08 95       	ret

000003ea <__vector_18>:
     3ea:	1f 92       	push	r1
     3ec:	0f 92       	push	r0
     3ee:	0f b6       	in	r0, 0x3f	; 63
     3f0:	0f 92       	push	r0
     3f2:	11 24       	eor	r1, r1
     3f4:	2f 93       	push	r18
     3f6:	3f 93       	push	r19
     3f8:	4f 93       	push	r20
     3fa:	5f 93       	push	r21
     3fc:	6f 93       	push	r22
     3fe:	7f 93       	push	r23
     400:	8f 93       	push	r24
     402:	9f 93       	push	r25
     404:	af 93       	push	r26
     406:	bf 93       	push	r27
     408:	ef 93       	push	r30
     40a:	ff 93       	push	r31
     40c:	5f 9b       	sbis	0x0b, 7	; 11
     40e:	06 c0       	rjmp	.+12     	; 0x41c
     410:	8c b1       	in	r24, 0x0c	; 12
     412:	40 e0       	ldi	r20, 0x00	; 0
     414:	50 e0       	ldi	r21, 0x00	; 0
     416:	60 e0       	ldi	r22, 0x00	; 0
     418:	0e 94 3a 06 	call	0xc74
     41c:	ff 91       	pop	r31
     41e:	ef 91       	pop	r30
     420:	bf 91       	pop	r27
     422:	af 91       	pop	r26
     424:	9f 91       	pop	r25
     426:	8f 91       	pop	r24
     428:	7f 91       	pop	r23
     42a:	6f 91       	pop	r22
     42c:	5f 91       	pop	r21
     42e:	4f 91       	pop	r20
     430:	3f 91       	pop	r19
     432:	2f 91       	pop	r18
     434:	0f 90       	pop	r0
     436:	0f be       	out	0x3f, r0	; 63
     438:	0f 90       	pop	r0
     43a:	1f 90       	pop	r1
     43c:	18 95       	reti

0000043e <__vector_20>:
     43e:	78 94       	sei
     440:	1f 92       	push	r1
     442:	0f 92       	push	r0
     444:	0f b6       	in	r0, 0x3f	; 63
     446:	0f 92       	push	r0
     448:	11 24       	eor	r1, r1
     44a:	2f 93       	push	r18
     44c:	3f 93       	push	r19
     44e:	4f 93       	push	r20
     450:	5f 93       	push	r21
     452:	6f 93       	push	r22
     454:	7f 93       	push	r23
     456:	8f 93       	push	r24
     458:	9f 93       	push	r25
     45a:	af 93       	push	r26
     45c:	bf 93       	push	r27
     45e:	ef 93       	push	r30
     460:	ff 93       	push	r31
     462:	0e 94 0e 08 	call	0x101c
     466:	ff 91       	pop	r31
     468:	ef 91       	pop	r30
     46a:	bf 91       	pop	r27
     46c:	af 91       	pop	r26
     46e:	9f 91       	pop	r25
     470:	8f 91       	pop	r24
     472:	7f 91       	pop	r23
     474:	6f 91       	pop	r22
     476:	5f 91       	pop	r21
     478:	4f 91       	pop	r20
     47a:	3f 91       	pop	r19
     47c:	2f 91       	pop	r18
     47e:	0f 90       	pop	r0
     480:	0f be       	out	0x3f, r0	; 63
     482:	0f 90       	pop	r0
     484:	1f 90       	pop	r1
     486:	18 95       	reti

00000488 <TOS_post>:
     488:	ac 01       	movw	r20, r24
     48a:	8f b7       	in	r24, 0x3f	; 63
     48c:	f8 94       	cli
     48e:	28 2f       	mov	r18, r24
     490:	33 27       	eor	r19, r19
     492:	e0 91 f2 01 	lds	r30, 0x01F2
     496:	80 91 f2 01 	lds	r24, 0x01F2
     49a:	8f 5f       	subi	r24, 0xFF	; 255
     49c:	80 93 f2 01 	sts	0x01F2, r24
     4a0:	80 91 f2 01 	lds	r24, 0x01F2
     4a4:	87 70       	andi	r24, 0x07	; 7
     4a6:	80 93 f2 01 	sts	0x01F2, r24
     4aa:	90 91 f2 01 	lds	r25, 0x01F2
     4ae:	80 91 d8 01 	lds	r24, 0x01D8
     4b2:	98 17       	cp	r25, r24
     4b4:	59 f0       	breq	.+22     	; 0x4cc
     4b6:	2f bf       	out	0x3f, r18	; 63
     4b8:	ff 27       	eor	r31, r31
     4ba:	ee 0f       	add	r30, r30
     4bc:	ff 1f       	adc	r31, r31
     4be:	ed 53       	subi	r30, 0x3D	; 61
     4c0:	fe 4f       	sbci	r31, 0xFE	; 254
     4c2:	40 83       	st	Z, r20
     4c4:	51 83       	std	Z+1, r21	; 0x01
     4c6:	81 e0       	ldi	r24, 0x01	; 1
     4c8:	90 e0       	ldi	r25, 0x00	; 0
     4ca:	08 95       	ret
     4cc:	e0 93 f2 01 	sts	0x01F2, r30
     4d0:	2f bf       	out	0x3f, r18	; 63
     4d2:	80 e0       	ldi	r24, 0x00	; 0
     4d4:	90 e0       	ldi	r25, 0x00	; 0
     4d6:	08 95       	ret

000004d8 <main>:
     4d8:	cf ef       	ldi	r28, 0xFF	; 255
     4da:	d0 e1       	ldi	r29, 0x10	; 16
     4dc:	de bf       	out	0x3e, r29	; 62
     4de:	cd bf       	out	0x3d, r28	; 61
     4e0:	d2 9a       	sbi	0x1a, 2	; 26
     4e2:	d0 9a       	sbi	0x1a, 0	; 26
     4e4:	d1 9a       	sbi	0x1a, 1	; 26
     4e6:	d6 98       	cbi	0x1a, 6	; 26
     4e8:	a7 9a       	sbi	0x14, 7	; 20
     4ea:	a6 9a       	sbi	0x14, 6	; 20
     4ec:	a5 9a       	sbi	0x14, 5	; 20
     4ee:	a4 9a       	sbi	0x14, 4	; 20
     4f0:	a3 9a       	sbi	0x14, 3	; 20
     4f2:	a2 9a       	sbi	0x14, 2	; 20
     4f4:	a1 9a       	sbi	0x14, 1	; 20
     4f6:	a0 9a       	sbi	0x14, 0	; 20
     4f8:	8c 9a       	sbi	0x11, 4	; 17
     4fa:	8f 9a       	sbi	0x11, 7	; 17
     4fc:	8e 9a       	sbi	0x11, 6	; 17
     4fe:	bb 98       	cbi	0x17, 3	; 23
     500:	bf 98       	cbi	0x17, 7	; 23
     502:	d4 98       	cbi	0x1a, 4	; 26
     504:	dc 98       	cbi	0x1b, 4	; 27
     506:	d3 9a       	sbi	0x1a, 3	; 26
     508:	8b 9a       	sbi	0x11, 3	; 17
     50a:	8d 9a       	sbi	0x11, 5	; 17
     50c:	db 9a       	sbi	0x1b, 3	; 27
     50e:	da 9a       	sbi	0x1b, 2	; 27
     510:	d8 9a       	sbi	0x1b, 0	; 27
     512:	d9 9a       	sbi	0x1b, 1	; 27
     514:	83 e0       	ldi	r24, 0x03	; 3
     516:	8c 5f       	subi	r24, 0xFC	; 252
     518:	87 39       	cpi	r24, 0x97	; 151
     51a:	e8 f3       	brcs	.-6      	; 0x516
     51c:	10 e0       	ldi	r17, 0x00	; 0
     51e:	8a e0       	ldi	r24, 0x0A	; 10
     520:	80 93 65 01 	sts	0x0165, r24
     524:	10 93 f2 01 	sts	0x01F2, r17
     528:	10 93 d8 01 	sts	0x01D8, r17
     52c:	8f b7       	in	r24, 0x3f	; 63
     52e:	f8 94       	cli
     530:	99 27       	eor	r25, r25
     532:	10 93 0b 02 	sts	0x020B, r17
     536:	da 9a       	sbi	0x1b, 2	; 27
     538:	d8 9a       	sbi	0x1b, 0	; 27
     53a:	d9 9a       	sbi	0x1b, 1	; 27
     53c:	8f bf       	out	0x3f, r24	; 63
     53e:	8f b7       	in	r24, 0x3f	; 63
     540:	f8 94       	cli
     542:	99 27       	eor	r25, r25
     544:	d8 9a       	sbi	0x1b, 0	; 27
     546:	8f bf       	out	0x3f, r24	; 63
     548:	8f b7       	in	r24, 0x3f	; 63
     54a:	f8 94       	cli
     54c:	99 27       	eor	r25, r25
     54e:	da 9a       	sbi	0x1b, 2	; 27
     550:	8f bf       	out	0x3f, r24	; 63
     552:	8f b7       	in	r24, 0x3f	; 63
     554:	f8 94       	cli
     556:	99 27       	eor	r25, r25
     558:	d9 9a       	sbi	0x1b, 1	; 27
     55a:	8f bf       	out	0x3f, r24	; 63
     55c:	01 2f       	mov	r16, r17
     55e:	0a 5f       	subi	r16, 0xFA	; 250
     560:	0e 94 48 03 	call	0x690
     564:	8f b7       	in	r24, 0x3f	; 63
     566:	f8 94       	cli
     568:	99 27       	eor	r25, r25
     56a:	00 93 0f 02 	sts	0x020F, r16
     56e:	8f bf       	out	0x3f, r24	; 63
     570:	a9 9a       	sbi	0x15, 1	; 21
     572:	8f b7       	in	r24, 0x3f	; 63
     574:	f8 94       	cli
     576:	99 27       	eor	r25, r25
     578:	10 92 2b 02 	sts	0x022B, r1
     57c:	10 92 2a 02 	sts	0x022A, r1
     580:	10 92 0d 02 	sts	0x020D, r1
     584:	10 92 0c 02 	sts	0x020C, r1
     588:	10 92 da 01 	sts	0x01DA, r1
     58c:	10 92 d9 01 	sts	0x01D9, r1
     590:	8f bf       	out	0x3f, r24	; 63
     592:	0e 94 48 03 	call	0x690
     596:	8f b7       	in	r24, 0x3f	; 63
     598:	f8 94       	cli
     59a:	28 2f       	mov	r18, r24
     59c:	33 27       	eor	r19, r19
     59e:	8e e0       	ldi	r24, 0x0E	; 14
     5a0:	86 b9       	out	0x06, r24	; 6
     5a2:	17 b9       	out	0x07, r17	; 7
     5a4:	2f bf       	out	0x3f, r18	; 63
     5a6:	0e 94 63 03 	call	0x6c6
     5aa:	0e 94 92 03 	call	0x724
     5ae:	8f b7       	in	r24, 0x3f	; 63
     5b0:	f8 94       	cli
     5b2:	99 27       	eor	r25, r25
     5b4:	10 93 f5 01 	sts	0x01F5, r17
     5b8:	8f bf       	out	0x3f, r24	; 63
     5ba:	10 93 23 02 	sts	0x0223, r17
     5be:	10 92 20 02 	sts	0x0220, r1
     5c2:	10 92 1f 02 	sts	0x021F, r1
     5c6:	10 92 dc 01 	sts	0x01DC, r1
     5ca:	10 92 db 01 	sts	0x01DB, r1
     5ce:	8f b7       	in	r24, 0x3f	; 63
     5d0:	f8 94       	cli
     5d2:	99 27       	eor	r25, r25
     5d4:	10 93 22 02 	sts	0x0222, r17
     5d8:	10 93 f9 01 	sts	0x01F9, r17
     5dc:	10 92 1d 02 	sts	0x021D, r1
     5e0:	10 92 1c 02 	sts	0x021C, r1
     5e4:	8f bf       	out	0x3f, r24	; 63
     5e6:	0e 94 63 03 	call	0x6c6
     5ea:	a9 9a       	sbi	0x15, 1	; 21
     5ec:	2d e7       	ldi	r18, 0x7D	; 125
     5ee:	30 e0       	ldi	r19, 0x00	; 0
     5f0:	40 e0       	ldi	r20, 0x00	; 0
     5f2:	50 e0       	ldi	r21, 0x00	; 0
     5f4:	61 2f       	mov	r22, r17
     5f6:	81 2f       	mov	r24, r17
     5f8:	0e 94 d6 03 	call	0x7ac
     5fc:	0e 94 92 03 	call	0x724
     600:	10 93 90 00 	sts	0x0090, r17
     604:	8f e0       	ldi	r24, 0x0F	; 15
     606:	89 b9       	out	0x09, r24	; 9
     608:	8d 50       	subi	r24, 0x0D	; 13
     60a:	8b b9       	out	0x0b, r24	; 11
     60c:	00 93 95 00 	sts	0x0095, r16
     610:	88 ed       	ldi	r24, 0xD8	; 216
     612:	8a b9       	out	0x0a, r24	; 10
     614:	28 ee       	ldi	r18, 0xE8	; 232
     616:	33 e0       	ldi	r19, 0x03	; 3
     618:	40 e0       	ldi	r20, 0x00	; 0
     61a:	50 e0       	ldi	r21, 0x00	; 0
     61c:	61 2f       	mov	r22, r17
     61e:	81 e0       	ldi	r24, 0x01	; 1
     620:	0e 94 d6 03 	call	0x7ac
     624:	10 93 23 02 	sts	0x0223, r17
     628:	0e 94 43 04 	call	0x886
     62c:	78 94       	sei
     62e:	90 91 d8 01 	lds	r25, 0x01D8
     632:	80 91 f2 01 	lds	r24, 0x01F2
     636:	98 17       	cp	r25, r24
     638:	19 f4       	brne	.+6      	; 0x640
     63a:	80 e0       	ldi	r24, 0x00	; 0
     63c:	90 e0       	ldi	r25, 0x00	; 0
     63e:	1f c0       	rjmp	.+62     	; 0x67e
     640:	8f b7       	in	r24, 0x3f	; 63
     642:	f8 94       	cli
     644:	28 2f       	mov	r18, r24
     646:	33 27       	eor	r19, r19
     648:	90 91 d8 01 	lds	r25, 0x01D8
     64c:	80 91 d8 01 	lds	r24, 0x01D8
     650:	8f 5f       	subi	r24, 0xFF	; 255
     652:	80 93 d8 01 	sts	0x01D8, r24
     656:	80 91 d8 01 	lds	r24, 0x01D8
     65a:	87 70       	andi	r24, 0x07	; 7
     65c:	80 93 d8 01 	sts	0x01D8, r24
     660:	e9 2f       	mov	r30, r25
     662:	ff 27       	eor	r31, r31
     664:	ee 0f       	add	r30, r30
     666:	ff 1f       	adc	r31, r31
     668:	ed 53       	subi	r30, 0x3D	; 61
     66a:	fe 4f       	sbci	r31, 0xFE	; 254
     66c:	80 81       	ld	r24, Z
     66e:	91 81       	ldd	r25, Z+1	; 0x01
     670:	10 82       	st	Z, r1
     672:	11 82       	std	Z+1, r1	; 0x01
     674:	2f bf       	out	0x3f, r18	; 63
     676:	fc 01       	movw	r30, r24
     678:	09 95       	icall
     67a:	81 e0       	ldi	r24, 0x01	; 1
     67c:	90 e0       	ldi	r25, 0x00	; 0
     67e:	88 23       	and	r24, r24
     680:	b1 f6       	brne	.-84     	; 0x62e
     682:	85 b7       	in	r24, 0x35	; 53
     684:	80 62       	ori	r24, 0x20	; 32
     686:	85 bf       	out	0x35, r24	; 53
     688:	88 95       	sleep
     68a:	00 00       	nop
     68c:	00 00       	nop
     68e:	cf cf       	rjmp	.-98     	; 0x62e

00000690 <HPLADCM$init_portmap>:
     690:	8f b7       	in	r24, 0x3f	; 63
     692:	f8 94       	cli
     694:	28 2f       	mov	r18, r24
     696:	80 91 bc 01 	lds	r24, 0x01BC
     69a:	88 23       	and	r24, r24
     69c:	91 f4       	brne	.+36     	; 0x6c2
     69e:	80 e0       	ldi	r24, 0x00	; 0
     6a0:	90 e0       	ldi	r25, 0x00	; 0
     6a2:	ee e0       	ldi	r30, 0x0E	; 14
     6a4:	f2 e0       	ldi	r31, 0x02	; 2
     6a6:	81 93       	st	Z+, r24
     6a8:	01 96       	adiw	r24, 0x01	; 1
     6aa:	8c 30       	cpi	r24, 0x0C	; 12
     6ac:	91 05       	cpc	r25, r1
     6ae:	dc f3       	brlt	.-10     	; 0x6a6
     6b0:	8e e1       	ldi	r24, 0x1E	; 30
     6b2:	80 93 18 02 	sts	0x0218, r24
     6b6:	8f e1       	ldi	r24, 0x1F	; 31
     6b8:	80 93 19 02 	sts	0x0219, r24
     6bc:	81 e0       	ldi	r24, 0x01	; 1
     6be:	80 93 bc 01 	sts	0x01BC, r24
     6c2:	2f bf       	out	0x3f, r18	; 63
     6c4:	08 95       	ret

000006c6 <TimerM$StdControl$init>:
     6c6:	10 92 24 02 	sts	0x0224, r1
     6ca:	10 92 25 02 	sts	0x0225, r1
     6ce:	10 92 26 02 	sts	0x0226, r1
     6d2:	10 92 27 02 	sts	0x0227, r1
     6d6:	10 92 f3 01 	sts	0x01F3, r1
     6da:	8f ef       	ldi	r24, 0xFF	; 255
     6dc:	80 93 28 02 	sts	0x0228, r24
     6e0:	80 93 5e 01 	sts	0x015E, r24
     6e4:	10 92 c1 01 	sts	0x01C1, r1
     6e8:	83 e0       	ldi	r24, 0x03	; 3
     6ea:	80 93 f4 01 	sts	0x01F4, r24
     6ee:	96 ee       	ldi	r25, 0xE6	; 230
     6f0:	90 93 fa 01 	sts	0x01FA, r25
     6f4:	8f b7       	in	r24, 0x3f	; 63
     6f6:	f8 94       	cli
     6f8:	28 2f       	mov	r18, r24
     6fa:	33 27       	eor	r19, r19
     6fc:	87 b7       	in	r24, 0x37	; 55
     6fe:	8e 7f       	andi	r24, 0xFE	; 254
     700:	87 bf       	out	0x37, r24	; 55
     702:	87 b7       	in	r24, 0x37	; 55
     704:	8d 7f       	andi	r24, 0xFD	; 253
     706:	87 bf       	out	0x37, r24	; 55
     708:	80 b7       	in	r24, 0x30	; 48
     70a:	88 60       	ori	r24, 0x08	; 8
     70c:	80 bf       	out	0x30, r24	; 48
     70e:	8b e0       	ldi	r24, 0x0B	; 11
     710:	83 bf       	out	0x33, r24	; 51
     712:	12 be       	out	0x32, r1	; 50
     714:	91 bf       	out	0x31, r25	; 49
     716:	87 b7       	in	r24, 0x37	; 55
     718:	82 60       	ori	r24, 0x02	; 2
     71a:	87 bf       	out	0x37, r24	; 55
     71c:	2f bf       	out	0x3f, r18	; 63
     71e:	81 e0       	ldi	r24, 0x01	; 1
     720:	90 e0       	ldi	r25, 0x00	; 0
     722:	08 95       	ret

00000724 <FramerM$HDLCInitialize>:
     724:	8f b7       	in	r24, 0x3f	; 63
     726:	f8 94       	cli
     728:	68 2f       	mov	r22, r24
     72a:	80 e0       	ldi	r24, 0x00	; 0
     72c:	90 e0       	ldi	r25, 0x00	; 0
     72e:	46 e0       	ldi	r20, 0x06	; 6
     730:	51 e0       	ldi	r21, 0x01	; 1
     732:	9c 01       	movw	r18, r24
     734:	f9 01       	movw	r30, r18
     736:	e8 0f       	add	r30, r24
     738:	f9 1f       	adc	r31, r25
     73a:	e5 50       	subi	r30, 0x05	; 5
     73c:	fe 4f       	sbci	r31, 0xFE	; 254
     73e:	44 83       	std	Z+4, r20	; 0x04
     740:	55 83       	std	Z+5, r21	; 0x05
     742:	12 82       	std	Z+2, r1	; 0x02
     744:	13 82       	std	Z+3, r1	; 0x03
     746:	11 82       	std	Z+1, r1	; 0x01
     748:	01 96       	adiw	r24, 0x01	; 1
     74a:	2b 5f       	subi	r18, 0xFB	; 251
     74c:	3f 4f       	sbci	r19, 0xFF	; 255
     74e:	45 5d       	subi	r20, 0xD5	; 213
     750:	5f 4f       	sbci	r21, 0xFF	; 255
     752:	82 30       	cpi	r24, 0x02	; 2
     754:	91 05       	cpc	r25, r1
     756:	74 f3       	brlt	.-36     	; 0x734
     758:	10 92 1b 02 	sts	0x021B, r1
     75c:	10 92 f0 01 	sts	0x01F0, r1
     760:	10 92 ef 01 	sts	0x01EF, r1
     764:	10 92 64 01 	sts	0x0164, r1
     768:	10 92 63 01 	sts	0x0163, r1
     76c:	10 92 05 01 	sts	0x0105, r1
     770:	10 92 04 01 	sts	0x0104, r1
     774:	10 92 5d 01 	sts	0x015D, r1
     778:	10 92 5c 01 	sts	0x015C, r1
     77c:	10 92 1a 02 	sts	0x021A, r1
     780:	10 92 f6 01 	sts	0x01F6, r1
     784:	10 92 1e 02 	sts	0x021E, r1
     788:	10 92 be 01 	sts	0x01BE, r1
     78c:	10 92 bd 01 	sts	0x01BD, r1
     790:	10 92 d5 01 	sts	0x01D5, r1
     794:	10 92 d4 01 	sts	0x01D4, r1
     798:	80 91 ff 01 	lds	r24, 0x01FF
     79c:	90 91 00 02 	lds	r25, 0x0200
     7a0:	90 93 0a 02 	sts	0x020A, r25
     7a4:	80 93 09 02 	sts	0x0209, r24
     7a8:	6f bf       	out	0x3f, r22	; 63
     7aa:	08 95       	ret

000007ac <TimerM$Timer$start>:
     7ac:	cf 92       	push	r12
     7ae:	df 92       	push	r13
     7b0:	ef 92       	push	r14
     7b2:	ff 92       	push	r15
     7b4:	0f 93       	push	r16
     7b6:	1f 93       	push	r17
     7b8:	cf 93       	push	r28
     7ba:	df 93       	push	r29
     7bc:	79 01       	movw	r14, r18
     7be:	8a 01       	movw	r16, r20
     7c0:	82 30       	cpi	r24, 0x02	; 2
     7c2:	10 f4       	brcc	.+4      	; 0x7c8
     7c4:	62 30       	cpi	r22, 0x02	; 2
     7c6:	1c f0       	brlt	.+6      	; 0x7ce
     7c8:	80 e0       	ldi	r24, 0x00	; 0
     7ca:	90 e0       	ldi	r25, 0x00	; 0
     7cc:	53 c0       	rjmp	.+166    	; 0x874
     7ce:	28 2f       	mov	r18, r24
     7d0:	33 27       	eor	r19, r19
     7d2:	f9 01       	movw	r30, r18
     7d4:	43 e0       	ldi	r20, 0x03	; 3
     7d6:	ee 0f       	add	r30, r30
     7d8:	ff 1f       	adc	r31, r31
     7da:	4a 95       	dec	r20
     7dc:	e1 f7       	brne	.-8      	; 0x7d6
     7de:	e2 0f       	add	r30, r18
     7e0:	f3 1f       	adc	r31, r19
     7e2:	e3 52       	subi	r30, 0x23	; 35
     7e4:	fe 4f       	sbci	r31, 0xFE	; 254
     7e6:	e1 82       	std	Z+1, r14	; 0x01
     7e8:	f2 82       	std	Z+2, r15	; 0x02
     7ea:	03 83       	std	Z+3, r16	; 0x03
     7ec:	14 83       	std	Z+4, r17	; 0x04
     7ee:	60 83       	st	Z, r22
     7f0:	8f b7       	in	r24, 0x3f	; 63
     7f2:	f8 94       	cli
     7f4:	c8 2f       	mov	r28, r24
     7f6:	dd 27       	eor	r29, r29
     7f8:	82 b7       	in	r24, 0x32	; 50
     7fa:	e8 0e       	add	r14, r24
     7fc:	f1 1c       	adc	r15, r1
     7fe:	01 1d       	adc	r16, r1
     800:	11 1d       	adc	r17, r1
     802:	e5 82       	std	Z+5, r14	; 0x05
     804:	f6 82       	std	Z+6, r15	; 0x06
     806:	07 83       	std	Z+7, r16	; 0x07
     808:	10 87       	std	Z+8, r17	; 0x08
     80a:	91 e0       	ldi	r25, 0x01	; 1
     80c:	c9 2e       	mov	r12, r25
     80e:	d1 2c       	mov	r13, r1
     810:	c6 01       	movw	r24, r12
     812:	02 c0       	rjmp	.+4      	; 0x818
     814:	88 0f       	add	r24, r24
     816:	99 1f       	adc	r25, r25
     818:	2a 95       	dec	r18
     81a:	e2 f7       	brpl	.-8      	; 0x814
     81c:	9c 01       	movw	r18, r24
     81e:	44 27       	eor	r20, r20
     820:	37 fd       	sbrc	r19, 7
     822:	40 95       	com	r20
     824:	54 2f       	mov	r21, r20
     826:	80 91 24 02 	lds	r24, 0x0224
     82a:	90 91 25 02 	lds	r25, 0x0225
     82e:	a0 91 26 02 	lds	r26, 0x0226
     832:	b0 91 27 02 	lds	r27, 0x0227
     836:	82 2b       	or	r24, r18
     838:	93 2b       	or	r25, r19
     83a:	a4 2b       	or	r26, r20
     83c:	b5 2b       	or	r27, r21
     83e:	80 93 24 02 	sts	0x0224, r24
     842:	90 93 25 02 	sts	0x0225, r25
     846:	a0 93 26 02 	sts	0x0226, r26
     84a:	b0 93 27 02 	sts	0x0227, r27
     84e:	80 91 fa 01 	lds	r24, 0x01FA
     852:	99 27       	eor	r25, r25
     854:	aa 27       	eor	r26, r26
     856:	bb 27       	eor	r27, r27
     858:	e8 16       	cp	r14, r24
     85a:	f9 06       	cpc	r15, r25
     85c:	0a 07       	cpc	r16, r26
     85e:	1b 07       	cpc	r17, r27
     860:	38 f4       	brcc	.+14     	; 0x870
     862:	e0 92 fa 01 	sts	0x01FA, r14
     866:	e1 be       	out	0x31, r14	; 49
     868:	10 92 f3 01 	sts	0x01F3, r1
     86c:	0e 94 43 04 	call	0x886
     870:	cf bf       	out	0x3f, r28	; 63
     872:	c6 01       	movw	r24, r12
     874:	df 91       	pop	r29
     876:	cf 91       	pop	r28
     878:	1f 91       	pop	r17
     87a:	0f 91       	pop	r16
     87c:	ff 90       	pop	r15
     87e:	ef 90       	pop	r14
     880:	df 90       	pop	r13
     882:	cf 90       	pop	r12
     884:	08 95       	ret

00000886 <HPLPowerManagementM$PowerManagement$adjustPower>:
     886:	80 91 03 01 	lds	r24, 0x0103
     88a:	88 23       	and	r24, r24
     88c:	29 f4       	brne	.+10     	; 0x898
     88e:	83 e0       	ldi	r24, 0x03	; 3
     890:	9a e0       	ldi	r25, 0x0A	; 10
     892:	0e 94 44 02 	call	0x488
     896:	06 c0       	rjmp	.+12     	; 0x8a4
     898:	85 b7       	in	r24, 0x35	; 53
     89a:	83 7e       	andi	r24, 0xE3	; 227
     89c:	85 bf       	out	0x35, r24	; 53
     89e:	85 b7       	in	r24, 0x35	; 53
     8a0:	80 62       	ori	r24, 0x20	; 32
     8a2:	85 bf       	out	0x35, r24	; 53
     8a4:	80 e0       	ldi	r24, 0x00	; 0
     8a6:	90 e0       	ldi	r25, 0x00	; 0
     8a8:	08 95       	ret

000008aa <__vector_15>:
     8aa:	78 94       	sei
     8ac:	1f 92       	push	r1
     8ae:	0f 92       	push	r0
     8b0:	0f b6       	in	r0, 0x3f	; 63
     8b2:	0f 92       	push	r0
     8b4:	11 24       	eor	r1, r1
     8b6:	2f 93       	push	r18
     8b8:	3f 93       	push	r19
     8ba:	4f 93       	push	r20
     8bc:	5f 93       	push	r21
     8be:	6f 93       	push	r22
     8c0:	7f 93       	push	r23
     8c2:	8f 93       	push	r24
     8c4:	9f 93       	push	r25
     8c6:	af 93       	push	r26
     8c8:	bf 93       	push	r27
     8ca:	ef 93       	push	r30
     8cc:	ff 93       	push	r31
     8ce:	8f b7       	in	r24, 0x3f	; 63
     8d0:	f8 94       	cli
     8d2:	28 2f       	mov	r18, r24
     8d4:	33 27       	eor	r19, r19
     8d6:	80 91 c2 01 	lds	r24, 0x01C2
     8da:	88 23       	and	r24, r24
     8dc:	69 f0       	breq	.+26     	; 0x8f8
     8de:	80 91 f1 01 	lds	r24, 0x01F1
     8e2:	80 93 08 02 	sts	0x0208, r24
     8e6:	88 60       	ori	r24, 0x08	; 8
     8e8:	80 93 f1 01 	sts	0x01F1, r24
     8ec:	83 bf       	out	0x33, r24	; 51
     8ee:	80 91 d3 01 	lds	r24, 0x01D3
     8f2:	81 bf       	out	0x31, r24	; 49
     8f4:	10 92 c2 01 	sts	0x01C2, r1
     8f8:	2f bf       	out	0x3f, r18	; 63
     8fa:	86 e5       	ldi	r24, 0x56	; 86
     8fc:	99 e0       	ldi	r25, 0x09	; 9
     8fe:	0e 94 44 02 	call	0x488
     902:	ff 91       	pop	r31
     904:	ef 91       	pop	r30
     906:	bf 91       	pop	r27
     908:	af 91       	pop	r26
     90a:	9f 91       	pop	r25
     90c:	8f 91       	pop	r24
     90e:	7f 91       	pop	r23
     910:	6f 91       	pop	r22
     912:	5f 91       	pop	r21
     914:	4f 91       	pop	r20
     916:	3f 91       	pop	r19
     918:	2f 91       	pop	r18
     91a:	0f 90       	pop	r0
     91c:	0f be       	out	0x3f, r0	; 63
     91e:	0f 90       	pop	r0
     920:	1f 90       	pop	r1
     922:	18 95       	reti

00000924 <HPLADCM$ADC$samplePort>:
     924:	98 2f       	mov	r25, r24
     926:	8f b7       	in	r24, 0x3f	; 63
     928:	f8 94       	cli
     92a:	28 2f       	mov	r18, r24
     92c:	33 27       	eor	r19, r19
     92e:	ee e0       	ldi	r30, 0x0E	; 14
     930:	f2 e0       	ldi	r31, 0x02	; 2
     932:	e9 0f       	add	r30, r25
     934:	f1 1d       	adc	r31, r1
     936:	80 81       	ld	r24, Z
     938:	8f 71       	andi	r24, 0x1F	; 31
     93a:	87 b9       	out	0x07, r24	; 7
     93c:	2f bf       	out	0x3f, r18	; 63
     93e:	37 9a       	sbi	0x06, 7	; 6
     940:	36 9a       	sbi	0x06, 6	; 6
     942:	81 e0       	ldi	r24, 0x01	; 1
     944:	90 e0       	ldi	r25, 0x00	; 0
     946:	08 95       	ret

00000948 <__vector_21>:
     948:	1f 92       	push	r1
     94a:	0f 92       	push	r0
     94c:	0f b6       	in	r0, 0x3f	; 63
     94e:	0f 92       	push	r0
     950:	11 24       	eor	r1, r1
     952:	ef 92       	push	r14
     954:	ff 92       	push	r15
     956:	0f 93       	push	r16
     958:	1f 93       	push	r17
     95a:	2f 93       	push	r18
     95c:	3f 93       	push	r19
     95e:	4f 93       	push	r20
     960:	5f 93       	push	r21
     962:	6f 93       	push	r22
     964:	7f 93       	push	r23
     966:	8f 93       	push	r24
     968:	9f 93       	push	r25
     96a:	af 93       	push	r26
     96c:	bf 93       	push	r27
     96e:	cf 93       	push	r28
     970:	df 93       	push	r29
     972:	ef 93       	push	r30
     974:	ff 93       	push	r31
     976:	c4 b1       	in	r28, 0x04	; 4
     978:	d5 b1       	in	r29, 0x05	; 5
     97a:	d3 70       	andi	r29, 0x03	; 3
     97c:	34 9a       	sbi	0x06, 4	; 6
     97e:	37 98       	cbi	0x06, 7	; 6
     980:	78 94       	sei
     982:	8f b7       	in	r24, 0x3f	; 63
     984:	f8 94       	cli
     986:	18 2f       	mov	r17, r24
     988:	80 91 2a 02 	lds	r24, 0x022A
     98c:	e8 2e       	mov	r14, r24
     98e:	ff 24       	eor	r15, r15
     990:	21 e0       	ldi	r18, 0x01	; 1
     992:	30 e0       	ldi	r19, 0x00	; 0
     994:	0e 2c       	mov	r0, r14
     996:	02 c0       	rjmp	.+4      	; 0x99c
     998:	22 0f       	add	r18, r18
     99a:	33 1f       	adc	r19, r19
     99c:	0a 94       	dec	r0
     99e:	e2 f7       	brpl	.-8      	; 0x998
     9a0:	80 91 0c 02 	lds	r24, 0x020C
     9a4:	90 91 0d 02 	lds	r25, 0x020D
     9a8:	82 23       	and	r24, r18
     9aa:	93 23       	and	r25, r19
     9ac:	89 2b       	or	r24, r25
     9ae:	61 f4       	brne	.+24     	; 0x9c8
     9b0:	20 95       	com	r18
     9b2:	30 95       	com	r19
     9b4:	80 91 d9 01 	lds	r24, 0x01D9
     9b8:	90 91 da 01 	lds	r25, 0x01DA
     9bc:	82 23       	and	r24, r18
     9be:	93 23       	and	r25, r19
     9c0:	90 93 da 01 	sts	0x01DA, r25
     9c4:	80 93 d9 01 	sts	0x01D9, r24
     9c8:	40 91 d9 01 	lds	r20, 0x01D9
     9cc:	50 91 da 01 	lds	r21, 0x01DA
     9d0:	41 15       	cp	r20, r1
     9d2:	51 05       	cpc	r21, r1
     9d4:	11 f1       	breq	.+68     	; 0xa1a
     9d6:	20 91 2a 02 	lds	r18, 0x022A
     9da:	30 91 2b 02 	lds	r19, 0x022B
     9de:	2f 5f       	subi	r18, 0xFF	; 255
     9e0:	3f 4f       	sbci	r19, 0xFF	; 255
     9e2:	2c 30       	cpi	r18, 0x0C	; 12
     9e4:	31 05       	cpc	r19, r1
     9e6:	11 f0       	breq	.+4      	; 0x9ec
     9e8:	c9 01       	movw	r24, r18
     9ea:	02 c0       	rjmp	.+4      	; 0x9f0
     9ec:	80 e0       	ldi	r24, 0x00	; 0
     9ee:	90 e0       	ldi	r25, 0x00	; 0
     9f0:	9c 01       	movw	r18, r24
     9f2:	81 e0       	ldi	r24, 0x01	; 1
     9f4:	90 e0       	ldi	r25, 0x00	; 0
     9f6:	02 2e       	mov	r0, r18
     9f8:	02 c0       	rjmp	.+4      	; 0x9fe
     9fa:	88 0f       	add	r24, r24
     9fc:	99 1f       	adc	r25, r25
     9fe:	0a 94       	dec	r0
     a00:	e2 f7       	brpl	.-8      	; 0x9fa
     a02:	84 23       	and	r24, r20
     a04:	95 23       	and	r25, r21
     a06:	89 2b       	or	r24, r25
     a08:	51 f3       	breq	.-44     	; 0x9de
     a0a:	30 93 2b 02 	sts	0x022B, r19
     a0e:	20 93 2a 02 	sts	0x022A, r18
     a12:	80 91 2a 02 	lds	r24, 0x022A
     a16:	0e 94 92 04 	call	0x924
     a1a:	1f bf       	out	0x3f, r17	; 63
     a1c:	81 e0       	ldi	r24, 0x01	; 1
     a1e:	e8 16       	cp	r14, r24
     a20:	f1 04       	cpc	r15, r1
     a22:	09 f0       	breq	.+2      	; 0xa26
     a24:	3e c0       	rjmp	.+124    	; 0xaa2
     a26:	8f b7       	in	r24, 0x3f	; 63
     a28:	f8 94       	cli
     a2a:	08 2f       	mov	r16, r24
     a2c:	11 27       	eor	r17, r17
     a2e:	90 91 22 02 	lds	r25, 0x0222
     a32:	8b e2       	ldi	r24, 0x2B	; 43
     a34:	98 9f       	mul	r25, r24
     a36:	c0 01       	movw	r24, r0
     a38:	11 24       	eor	r1, r1
     a3a:	85 59       	subi	r24, 0x95	; 149
     a3c:	9e 4f       	sbci	r25, 0xFE	; 254
     a3e:	20 91 f9 01 	lds	r18, 0x01F9
     a42:	e2 2f       	mov	r30, r18
     a44:	ff 27       	eor	r31, r31
     a46:	ee 0f       	add	r30, r30
     a48:	ff 1f       	adc	r31, r31
     a4a:	e8 0f       	add	r30, r24
     a4c:	f9 1f       	adc	r31, r25
     a4e:	c6 83       	std	Z+6, r28	; 0x06
     a50:	d7 83       	std	Z+7, r29	; 0x07
     a52:	2f 5f       	subi	r18, 0xFF	; 255
     a54:	20 93 f9 01 	sts	0x01F9, r18
     a58:	80 91 1c 02 	lds	r24, 0x021C
     a5c:	90 91 1d 02 	lds	r25, 0x021D
     a60:	01 96       	adiw	r24, 0x01	; 1
     a62:	90 93 1d 02 	sts	0x021D, r25
     a66:	80 93 1c 02 	sts	0x021C, r24
     a6a:	2a 30       	cpi	r18, 0x0A	; 10
     a6c:	21 f4       	brne	.+8      	; 0xa76
     a6e:	8e ed       	ldi	r24, 0xDE	; 222
     a70:	98 e0       	ldi	r25, 0x08	; 8
     a72:	0e 94 44 02 	call	0x488
     a76:	0f bf       	out	0x3f, r16	; 63
     a78:	20 91 0b 02 	lds	r18, 0x020B
     a7c:	c1 50       	subi	r28, 0x01	; 1
     a7e:	d3 40       	sbci	r29, 0x03	; 3
     a80:	30 f0       	brcs	.+12     	; 0xa8e
     a82:	8f b7       	in	r24, 0x3f	; 63
     a84:	f8 94       	cli
     a86:	99 27       	eor	r25, r25
     a88:	da 98       	cbi	0x1b, 2	; 27
     a8a:	21 60       	ori	r18, 0x01	; 1
     a8c:	05 c0       	rjmp	.+10     	; 0xa98
     a8e:	8f b7       	in	r24, 0x3f	; 63
     a90:	f8 94       	cli
     a92:	99 27       	eor	r25, r25
     a94:	da 9a       	sbi	0x1b, 2	; 27
     a96:	2e 7f       	andi	r18, 0xFE	; 254
     a98:	20 93 0b 02 	sts	0x020B, r18
     a9c:	8f bf       	out	0x3f, r24	; 63
     a9e:	81 e0       	ldi	r24, 0x01	; 1
     aa0:	01 c0       	rjmp	.+2      	; 0xaa4
     aa2:	80 e0       	ldi	r24, 0x00	; 0
     aa4:	99 27       	eor	r25, r25
     aa6:	2f b7       	in	r18, 0x3f	; 63
     aa8:	f8 94       	cli
     aaa:	88 23       	and	r24, r24
     aac:	c9 f4       	brne	.+50     	; 0xae0
     aae:	61 e0       	ldi	r22, 0x01	; 1
     ab0:	70 e0       	ldi	r23, 0x00	; 0
     ab2:	02 c0       	rjmp	.+4      	; 0xab8
     ab4:	66 0f       	add	r22, r22
     ab6:	77 1f       	adc	r23, r23
     ab8:	ea 94       	dec	r14
     aba:	e2 f7       	brpl	.-8      	; 0xab4
     abc:	40 91 0c 02 	lds	r20, 0x020C
     ac0:	50 91 0d 02 	lds	r21, 0x020D
     ac4:	ca 01       	movw	r24, r20
     ac6:	86 23       	and	r24, r22
     ac8:	97 23       	and	r25, r23
     aca:	89 2b       	or	r24, r25
     acc:	49 f0       	breq	.+18     	; 0xae0
     ace:	cb 01       	movw	r24, r22
     ad0:	80 95       	com	r24
     ad2:	90 95       	com	r25
     ad4:	48 23       	and	r20, r24
     ad6:	59 23       	and	r21, r25
     ad8:	50 93 0d 02 	sts	0x020D, r21
     adc:	40 93 0c 02 	sts	0x020C, r20
     ae0:	2f bf       	out	0x3f, r18	; 63
     ae2:	ff 91       	pop	r31
     ae4:	ef 91       	pop	r30
     ae6:	df 91       	pop	r29
     ae8:	cf 91       	pop	r28
     aea:	bf 91       	pop	r27
     aec:	af 91       	pop	r26
     aee:	9f 91       	pop	r25
     af0:	8f 91       	pop	r24
     af2:	7f 91       	pop	r23
     af4:	6f 91       	pop	r22
     af6:	5f 91       	pop	r21
     af8:	4f 91       	pop	r20
     afa:	3f 91       	pop	r19
     afc:	2f 91       	pop	r18
     afe:	1f 91       	pop	r17
     b00:	0f 91       	pop	r16
     b02:	ff 90       	pop	r15
     b04:	ef 90       	pop	r14
     b06:	0f 90       	pop	r0
     b08:	0f be       	out	0x3f, r0	; 63
     b0a:	0f 90       	pop	r0
     b0c:	1f 90       	pop	r1
     b0e:	18 95       	reti

00000b10 <FramerM$StartTx>:
     b10:	cf 93       	push	r28
     b12:	c1 e0       	ldi	r28, 0x01	; 1
     b14:	20 e0       	ldi	r18, 0x00	; 0
     b16:	8f b7       	in	r24, 0x3f	; 63
     b18:	f8 94       	cli
     b1a:	38 2f       	mov	r19, r24
     b1c:	80 91 1b 02 	lds	r24, 0x021B
     b20:	88 23       	and	r24, r24
     b22:	91 f5       	brne	.+100    	; 0xb88
     b24:	80 91 29 02 	lds	r24, 0x0229
     b28:	99 27       	eor	r25, r25
     b2a:	81 ff       	sbrs	r24, 1
     b2c:	08 c0       	rjmp	.+16     	; 0xb3e
     b2e:	87 ef       	ldi	r24, 0xF7	; 247
     b30:	91 e0       	ldi	r25, 0x01	; 1
     b32:	90 93 d7 01 	sts	0x01D7, r25
     b36:	80 93 d6 01 	sts	0x01D6, r24
     b3a:	80 e4       	ldi	r24, 0x40	; 64
     b3c:	1a c0       	rjmp	.+52     	; 0xb72
     b3e:	82 ff       	sbrs	r24, 2
     b40:	0f c0       	rjmp	.+30     	; 0xb60
     b42:	e0 91 5c 01 	lds	r30, 0x015C
     b46:	f0 91 5d 01 	lds	r31, 0x015D
     b4a:	f0 93 d7 01 	sts	0x01D7, r31
     b4e:	e0 93 d6 01 	sts	0x01D6, r30
     b52:	82 e4       	ldi	r24, 0x42	; 66
     b54:	80 93 5f 01 	sts	0x015F, r24
     b58:	84 81       	ldd	r24, Z+4	; 0x04
     b5a:	99 27       	eor	r25, r25
     b5c:	05 96       	adiw	r24, 0x05	; 5
     b5e:	0d c0       	rjmp	.+26     	; 0xb7a
     b60:	83 ff       	sbrs	r24, 3
     b62:	12 c0       	rjmp	.+36     	; 0xb88
     b64:	82 e6       	ldi	r24, 0x62	; 98
     b66:	91 e0       	ldi	r25, 0x01	; 1
     b68:	90 93 d7 01 	sts	0x01D7, r25
     b6c:	80 93 d6 01 	sts	0x01D6, r24
     b70:	8f ef       	ldi	r24, 0xFF	; 255
     b72:	80 93 5f 01 	sts	0x015F, r24
     b76:	81 e0       	ldi	r24, 0x01	; 1
     b78:	90 e0       	ldi	r25, 0x00	; 0
     b7a:	90 93 64 01 	sts	0x0164, r25
     b7e:	80 93 63 01 	sts	0x0163, r24
     b82:	2c 2f       	mov	r18, r28
     b84:	c0 93 1b 02 	sts	0x021B, r28
     b88:	3f bf       	out	0x3f, r19	; 63
     b8a:	22 23       	and	r18, r18
     b8c:	f1 f0       	breq	.+60     	; 0xbca
     b8e:	8f b7       	in	r24, 0x3f	; 63
     b90:	f8 94       	cli
     b92:	99 27       	eor	r25, r25
     b94:	10 92 05 01 	sts	0x0105, r1
     b98:	10 92 04 01 	sts	0x0104, r1
     b9c:	10 92 f0 01 	sts	0x01F0, r1
     ba0:	10 92 ef 01 	sts	0x01EF, r1
     ba4:	8f bf       	out	0x3f, r24	; 63
     ba6:	8e e7       	ldi	r24, 0x7E	; 126
     ba8:	0e 94 e9 05 	call	0xbd2
     bac:	c8 2f       	mov	r28, r24
     bae:	81 30       	cpi	r24, 0x01	; 1
     bb0:	61 f0       	breq	.+24     	; 0xbca
     bb2:	8f b7       	in	r24, 0x3f	; 63
     bb4:	f8 94       	cli
     bb6:	28 2f       	mov	r18, r24
     bb8:	33 27       	eor	r19, r19
     bba:	88 e0       	ldi	r24, 0x08	; 8
     bbc:	80 93 1b 02 	sts	0x021B, r24
     bc0:	2f bf       	out	0x3f, r18	; 63
     bc2:	8e ef       	ldi	r24, 0xFE	; 254
     bc4:	95 e0       	ldi	r25, 0x05	; 5
     bc6:	0e 94 44 02 	call	0x488
     bca:	8c 2f       	mov	r24, r28
     bcc:	99 27       	eor	r25, r25
     bce:	cf 91       	pop	r28
     bd0:	08 95       	ret

00000bd2 <UARTM$ByteComm$txByte>:
     bd2:	48 2f       	mov	r20, r24
     bd4:	8f b7       	in	r24, 0x3f	; 63
     bd6:	f8 94       	cli
     bd8:	28 2f       	mov	r18, r24
     bda:	33 27       	eor	r19, r19
     bdc:	90 91 f5 01 	lds	r25, 0x01F5
     be0:	81 e0       	ldi	r24, 0x01	; 1
     be2:	80 93 f5 01 	sts	0x01F5, r24
     be6:	2f bf       	out	0x3f, r18	; 63
     be8:	99 23       	and	r25, r25
     bea:	19 f0       	breq	.+6      	; 0xbf2
     bec:	80 e0       	ldi	r24, 0x00	; 0
     bee:	90 e0       	ldi	r25, 0x00	; 0
     bf0:	08 95       	ret
     bf2:	4c b9       	out	0x0c, r20	; 12
     bf4:	5e 9a       	sbi	0x0b, 6	; 11
     bf6:	81 e0       	ldi	r24, 0x01	; 1
     bf8:	90 e0       	ldi	r25, 0x00	; 0
     bfa:	08 95       	ret

00000bfc <FramerM$PacketSent>:
     bfc:	61 e0       	ldi	r22, 0x01	; 1
     bfe:	8f b7       	in	r24, 0x3f	; 63
     c00:	f8 94       	cli
     c02:	28 2f       	mov	r18, r24
     c04:	33 27       	eor	r19, r19
     c06:	80 91 1b 02 	lds	r24, 0x021B
     c0a:	88 30       	cpi	r24, 0x08	; 8
     c0c:	19 f4       	brne	.+6      	; 0xc14
     c0e:	60 e0       	ldi	r22, 0x00	; 0
     c10:	60 93 1b 02 	sts	0x021B, r22
     c14:	2f bf       	out	0x3f, r18	; 63
     c16:	80 91 5f 01 	lds	r24, 0x015F
     c1a:	90 91 29 02 	lds	r25, 0x0229
     c1e:	80 34       	cpi	r24, 0x40	; 64
     c20:	51 f4       	brne	.+20     	; 0xc36
     c22:	8f b7       	in	r24, 0x3f	; 63
     c24:	f8 94       	cli
     c26:	28 2f       	mov	r18, r24
     c28:	33 27       	eor	r19, r19
     c2a:	82 e0       	ldi	r24, 0x02	; 2
     c2c:	98 27       	eor	r25, r24
     c2e:	90 93 29 02 	sts	0x0229, r25
     c32:	2f bf       	out	0x3f, r18	; 63
     c34:	17 c0       	rjmp	.+46     	; 0xc64
     c36:	8f b7       	in	r24, 0x3f	; 63
     c38:	f8 94       	cli
     c3a:	28 2f       	mov	r18, r24
     c3c:	33 27       	eor	r19, r19
     c3e:	84 e0       	ldi	r24, 0x04	; 4
     c40:	98 27       	eor	r25, r24
     c42:	90 93 29 02 	sts	0x0229, r25
     c46:	2f bf       	out	0x3f, r18	; 63
     c48:	80 91 5c 01 	lds	r24, 0x015C
     c4c:	90 91 5d 01 	lds	r25, 0x015D
     c50:	0e 94 35 06 	call	0xc6a
     c54:	8f b7       	in	r24, 0x3f	; 63
     c56:	f8 94       	cli
     c58:	99 27       	eor	r25, r25
     c5a:	10 92 5d 01 	sts	0x015D, r1
     c5e:	10 92 5c 01 	sts	0x015C, r1
     c62:	8f bf       	out	0x3f, r24	; 63
     c64:	0e 94 88 05 	call	0xb10
     c68:	08 95       	ret

00000c6a <AMStandard$reportSendDone>:
     c6a:	10 92 23 02 	sts	0x0223, r1
     c6e:	81 e0       	ldi	r24, 0x01	; 1
     c70:	90 e0       	ldi	r25, 0x00	; 0
     c72:	08 95       	ret

00000c74 <FramerM$ByteComm$rxByteReady>:
     c74:	38 2f       	mov	r19, r24
     c76:	80 91 1a 02 	lds	r24, 0x021A
     c7a:	99 27       	eor	r25, r25
     c7c:	82 30       	cpi	r24, 0x02	; 2
     c7e:	91 05       	cpc	r25, r1
     c80:	09 f4       	brne	.+2      	; 0xc84
     c82:	6b c0       	rjmp	.+214    	; 0xd5a
     c84:	83 30       	cpi	r24, 0x03	; 3
     c86:	91 05       	cpc	r25, r1
     c88:	2c f4       	brge	.+10     	; 0xc94
     c8a:	00 97       	sbiw	r24, 0x00	; 0
     c8c:	59 f0       	breq	.+22     	; 0xca4
     c8e:	01 97       	sbiw	r24, 0x01	; 1
     c90:	81 f1       	breq	.+96     	; 0xcf2
     c92:	b7 c1       	rjmp	.+878    	; 0x1002
     c94:	83 30       	cpi	r24, 0x03	; 3
     c96:	91 05       	cpc	r25, r1
     c98:	09 f4       	brne	.+2      	; 0xc9c
     c9a:	9c c0       	rjmp	.+312    	; 0xdd4
     c9c:	04 97       	sbiw	r24, 0x04	; 4
     c9e:	09 f4       	brne	.+2      	; 0xca2
     ca0:	59 c1       	rjmp	.+690    	; 0xf54
     ca2:	af c1       	rjmp	.+862    	; 0x1002
     ca4:	3e 37       	cpi	r19, 0x7E	; 126
     ca6:	09 f0       	breq	.+2      	; 0xcaa
     ca8:	ae c1       	rjmp	.+860    	; 0x1006
     caa:	80 91 f6 01 	lds	r24, 0x01F6
     cae:	99 27       	eor	r25, r25
     cb0:	fc 01       	movw	r30, r24
     cb2:	ee 0f       	add	r30, r30
     cb4:	ff 1f       	adc	r31, r31
     cb6:	ee 0f       	add	r30, r30
     cb8:	ff 1f       	adc	r31, r31
     cba:	e8 0f       	add	r30, r24
     cbc:	f9 1f       	adc	r31, r25
     cbe:	e8 0f       	add	r30, r24
     cc0:	f9 1f       	adc	r31, r25
     cc2:	e5 50       	subi	r30, 0x05	; 5
     cc4:	fe 4f       	sbci	r31, 0xFE	; 254
     cc6:	82 81       	ldd	r24, Z+2	; 0x02
     cc8:	93 81       	ldd	r25, Z+3	; 0x03
     cca:	00 97       	sbiw	r24, 0x00	; 0
     ccc:	09 f0       	breq	.+2      	; 0xcd0
     cce:	9b c1       	rjmp	.+822    	; 0x1006
     cd0:	11 82       	std	Z+1, r1	; 0x01
     cd2:	90 93 d5 01 	sts	0x01D5, r25
     cd6:	80 93 d4 01 	sts	0x01D4, r24
     cda:	90 93 be 01 	sts	0x01BE, r25
     cde:	80 93 bd 01 	sts	0x01BD, r24
     ce2:	84 81       	ldd	r24, Z+4	; 0x04
     ce4:	95 81       	ldd	r25, Z+5	; 0x05
     ce6:	90 93 0a 02 	sts	0x020A, r25
     cea:	80 93 09 02 	sts	0x0209, r24
     cee:	81 e0       	ldi	r24, 0x01	; 1
     cf0:	85 c1       	rjmp	.+778    	; 0xffc
     cf2:	3e 37       	cpi	r19, 0x7E	; 126
     cf4:	09 f4       	brne	.+2      	; 0xcf8
     cf6:	87 c1       	rjmp	.+782    	; 0x1006
     cf8:	80 91 f6 01 	lds	r24, 0x01F6
     cfc:	99 27       	eor	r25, r25
     cfe:	fc 01       	movw	r30, r24
     d00:	ee 0f       	add	r30, r30
     d02:	ff 1f       	adc	r31, r31
     d04:	ee 0f       	add	r30, r30
     d06:	ff 1f       	adc	r31, r31
     d08:	e8 0f       	add	r30, r24
     d0a:	f9 1f       	adc	r31, r25
     d0c:	e8 0f       	add	r30, r24
     d0e:	f9 1f       	adc	r31, r25
     d10:	e5 50       	subi	r30, 0x05	; 5
     d12:	fe 4f       	sbci	r31, 0xFE	; 254
     d14:	30 83       	st	Z, r19
     d16:	80 91 d4 01 	lds	r24, 0x01D4
     d1a:	90 91 d5 01 	lds	r25, 0x01D5
     d1e:	ec e8       	ldi	r30, 0x8C	; 140
     d20:	f0 e0       	ldi	r31, 0x00	; 0
     d22:	23 2f       	mov	r18, r19
     d24:	29 27       	eor	r18, r25
     d26:	22 0f       	add	r18, r18
     d28:	f1 1d       	adc	r31, r1
     d2a:	e2 0f       	add	r30, r18
     d2c:	f1 1d       	adc	r31, r1
     d2e:	c8 95       	lpm
     d30:	98 2f       	mov	r25, r24
     d32:	80 2d       	mov	r24, r0
     d34:	31 96       	adiw	r30, 0x01	; 1
     d36:	c8 95       	lpm
     d38:	90 25       	eor	r25, r0
     d3a:	90 93 d5 01 	sts	0x01D5, r25
     d3e:	80 93 d4 01 	sts	0x01D4, r24
     d42:	83 2f       	mov	r24, r19
     d44:	99 27       	eor	r25, r25
     d46:	81 34       	cpi	r24, 0x41	; 65
     d48:	91 05       	cpc	r25, r1
     d4a:	29 f0       	breq	.+10     	; 0xd56
     d4c:	82 34       	cpi	r24, 0x42	; 66
     d4e:	91 05       	cpc	r25, r1
     d50:	09 f4       	brne	.+2      	; 0xd54
     d52:	53 c1       	rjmp	.+678    	; 0xffa
     d54:	56 c1       	rjmp	.+684    	; 0x1002
     d56:	82 e0       	ldi	r24, 0x02	; 2
     d58:	51 c1       	rjmp	.+674    	; 0xffc
     d5a:	3e 37       	cpi	r19, 0x7E	; 126
     d5c:	09 f4       	brne	.+2      	; 0xd60
     d5e:	51 c1       	rjmp	.+674    	; 0x1002
     d60:	60 91 f6 01 	lds	r22, 0x01F6
     d64:	3d 37       	cpi	r19, 0x7D	; 125
     d66:	81 f4       	brne	.+32     	; 0xd88
     d68:	86 2f       	mov	r24, r22
     d6a:	99 27       	eor	r25, r25
     d6c:	fc 01       	movw	r30, r24
     d6e:	ee 0f       	add	r30, r30
     d70:	ff 1f       	adc	r31, r31
     d72:	ee 0f       	add	r30, r30
     d74:	ff 1f       	adc	r31, r31
     d76:	e8 0f       	add	r30, r24
     d78:	f9 1f       	adc	r31, r25
     d7a:	e8 0f       	add	r30, r24
     d7c:	f9 1f       	adc	r31, r25
     d7e:	e5 50       	subi	r30, 0x05	; 5
     d80:	fe 4f       	sbci	r31, 0xFE	; 254
     d82:	80 e2       	ldi	r24, 0x20	; 32
     d84:	81 83       	std	Z+1, r24	; 0x01
     d86:	3f c1       	rjmp	.+638    	; 0x1006
     d88:	86 2f       	mov	r24, r22
     d8a:	99 27       	eor	r25, r25
     d8c:	fc 01       	movw	r30, r24
     d8e:	ee 0f       	add	r30, r30
     d90:	ff 1f       	adc	r31, r31
     d92:	ee 0f       	add	r30, r30
     d94:	ff 1f       	adc	r31, r31
     d96:	e8 0f       	add	r30, r24
     d98:	f9 1f       	adc	r31, r25
     d9a:	e8 0f       	add	r30, r24
     d9c:	f9 1f       	adc	r31, r25
     d9e:	e5 50       	subi	r30, 0x05	; 5
     da0:	fe 4f       	sbci	r31, 0xFE	; 254
     da2:	21 81       	ldd	r18, Z+1	; 0x01
     da4:	23 27       	eor	r18, r19
     da6:	21 83       	std	Z+1, r18	; 0x01
     da8:	80 91 d4 01 	lds	r24, 0x01D4
     dac:	90 91 d5 01 	lds	r25, 0x01D5
     db0:	ec e8       	ldi	r30, 0x8C	; 140
     db2:	f0 e0       	ldi	r31, 0x00	; 0
     db4:	29 27       	eor	r18, r25
     db6:	22 0f       	add	r18, r18
     db8:	f1 1d       	adc	r31, r1
     dba:	e2 0f       	add	r30, r18
     dbc:	f1 1d       	adc	r31, r1
     dbe:	c8 95       	lpm
     dc0:	98 2f       	mov	r25, r24
     dc2:	80 2d       	mov	r24, r0
     dc4:	31 96       	adiw	r30, 0x01	; 1
     dc6:	c8 95       	lpm
     dc8:	90 25       	eor	r25, r0
     dca:	90 93 d5 01 	sts	0x01D5, r25
     dce:	80 93 d4 01 	sts	0x01D4, r24
     dd2:	13 c1       	rjmp	.+550    	; 0xffa
     dd4:	40 91 bd 01 	lds	r20, 0x01BD
     dd8:	50 91 be 01 	lds	r21, 0x01BE
     ddc:	4c 32       	cpi	r20, 0x2C	; 44
     dde:	51 05       	cpc	r21, r1
     de0:	08 f0       	brcs	.+2      	; 0xde4
     de2:	ba c0       	rjmp	.+372    	; 0xf58
     de4:	3d 37       	cpi	r19, 0x7D	; 125
     de6:	11 f4       	brne	.+4      	; 0xdec
     de8:	84 e0       	ldi	r24, 0x04	; 4
     dea:	08 c1       	rjmp	.+528    	; 0xffc
     dec:	3e 37       	cpi	r19, 0x7E	; 126
     dee:	09 f0       	breq	.+2      	; 0xdf2
     df0:	7f c0       	rjmp	.+254    	; 0xef0
     df2:	42 30       	cpi	r20, 0x02	; 2
     df4:	51 05       	cpc	r21, r1
     df6:	08 f4       	brcc	.+2      	; 0xdfa
     df8:	5f c0       	rjmp	.+190    	; 0xeb8
     dfa:	e0 91 09 02 	lds	r30, 0x0209
     dfe:	f0 91 0a 02 	lds	r31, 0x020A
     e02:	e4 0f       	add	r30, r20
     e04:	f5 1f       	adc	r31, r21
     e06:	82 91       	ld	r24, -Z
     e08:	99 27       	eor	r25, r25
     e0a:	38 2f       	mov	r19, r24
     e0c:	22 27       	eor	r18, r18
     e0e:	82 91       	ld	r24, -Z
     e10:	99 27       	eor	r25, r25
     e12:	28 2b       	or	r18, r24
     e14:	39 2b       	or	r19, r25
     e16:	80 91 d4 01 	lds	r24, 0x01D4
     e1a:	90 91 d5 01 	lds	r25, 0x01D5
     e1e:	60 91 f6 01 	lds	r22, 0x01F6
     e22:	28 17       	cp	r18, r24
     e24:	39 07       	cpc	r19, r25
     e26:	e1 f4       	brne	.+56     	; 0xe60
     e28:	86 2f       	mov	r24, r22
     e2a:	99 27       	eor	r25, r25
     e2c:	fc 01       	movw	r30, r24
     e2e:	ee 0f       	add	r30, r30
     e30:	ff 1f       	adc	r31, r31
     e32:	ee 0f       	add	r30, r30
     e34:	ff 1f       	adc	r31, r31
     e36:	e8 0f       	add	r30, r24
     e38:	f9 1f       	adc	r31, r25
     e3a:	e8 0f       	add	r30, r24
     e3c:	f9 1f       	adc	r31, r25
     e3e:	e5 50       	subi	r30, 0x05	; 5
     e40:	fe 4f       	sbci	r31, 0xFE	; 254
     e42:	42 50       	subi	r20, 0x02	; 2
     e44:	50 40       	sbci	r21, 0x00	; 0
     e46:	42 83       	std	Z+2, r20	; 0x02
     e48:	53 83       	std	Z+3, r21	; 0x03
     e4a:	85 e6       	ldi	r24, 0x65	; 101
     e4c:	9a e0       	ldi	r25, 0x0A	; 10
     e4e:	0e 94 44 02 	call	0x488
     e52:	80 91 f6 01 	lds	r24, 0x01F6
     e56:	8f 5f       	subi	r24, 0xFF	; 255
     e58:	81 70       	andi	r24, 0x01	; 1
     e5a:	80 93 f6 01 	sts	0x01F6, r24
     e5e:	10 c0       	rjmp	.+32     	; 0xe80
     e60:	86 2f       	mov	r24, r22
     e62:	99 27       	eor	r25, r25
     e64:	fc 01       	movw	r30, r24
     e66:	ee 0f       	add	r30, r30
     e68:	ff 1f       	adc	r31, r31
     e6a:	ee 0f       	add	r30, r30
     e6c:	ff 1f       	adc	r31, r31
     e6e:	e8 0f       	add	r30, r24
     e70:	f9 1f       	adc	r31, r25
     e72:	e8 0f       	add	r30, r24
     e74:	f9 1f       	adc	r31, r25
     e76:	e5 50       	subi	r30, 0x05	; 5
     e78:	fe 4f       	sbci	r31, 0xFE	; 254
     e7a:	12 82       	std	Z+2, r1	; 0x02
     e7c:	13 82       	std	Z+3, r1	; 0x03
     e7e:	11 82       	std	Z+1, r1	; 0x01
     e80:	80 91 f6 01 	lds	r24, 0x01F6
     e84:	99 27       	eor	r25, r25
     e86:	fc 01       	movw	r30, r24
     e88:	ee 0f       	add	r30, r30
     e8a:	ff 1f       	adc	r31, r31
     e8c:	ee 0f       	add	r30, r30
     e8e:	ff 1f       	adc	r31, r31
     e90:	e8 0f       	add	r30, r24
     e92:	f9 1f       	adc	r31, r25
     e94:	e8 0f       	add	r30, r24
     e96:	f9 1f       	adc	r31, r25
     e98:	e5 50       	subi	r30, 0x05	; 5
     e9a:	fe 4f       	sbci	r31, 0xFE	; 254
     e9c:	82 81       	ldd	r24, Z+2	; 0x02
     e9e:	93 81       	ldd	r25, Z+3	; 0x03
     ea0:	89 2b       	or	r24, r25
     ea2:	d9 f4       	brne	.+54     	; 0xeda
     ea4:	84 81       	ldd	r24, Z+4	; 0x04
     ea6:	95 81       	ldd	r25, Z+5	; 0x05
     ea8:	90 93 0a 02 	sts	0x020A, r25
     eac:	80 93 09 02 	sts	0x0209, r24
     eb0:	81 e0       	ldi	r24, 0x01	; 1
     eb2:	80 93 1a 02 	sts	0x021A, r24
     eb6:	13 c0       	rjmp	.+38     	; 0xede
     eb8:	80 91 f6 01 	lds	r24, 0x01F6
     ebc:	99 27       	eor	r25, r25
     ebe:	fc 01       	movw	r30, r24
     ec0:	ee 0f       	add	r30, r30
     ec2:	ff 1f       	adc	r31, r31
     ec4:	ee 0f       	add	r30, r30
     ec6:	ff 1f       	adc	r31, r31
     ec8:	e8 0f       	add	r30, r24
     eca:	f9 1f       	adc	r31, r25
     ecc:	e8 0f       	add	r30, r24
     ece:	f9 1f       	adc	r31, r25
     ed0:	e5 50       	subi	r30, 0x05	; 5
     ed2:	fe 4f       	sbci	r31, 0xFE	; 254
     ed4:	12 82       	std	Z+2, r1	; 0x02
     ed6:	13 82       	std	Z+3, r1	; 0x03
     ed8:	11 82       	std	Z+1, r1	; 0x01
     eda:	10 92 1a 02 	sts	0x021A, r1
     ede:	10 92 d5 01 	sts	0x01D5, r1
     ee2:	10 92 d4 01 	sts	0x01D4, r1
     ee6:	10 92 be 01 	sts	0x01BE, r1
     eea:	10 92 bd 01 	sts	0x01BD, r1
     eee:	8b c0       	rjmp	.+278    	; 0x1006
     ef0:	e0 91 09 02 	lds	r30, 0x0209
     ef4:	f0 91 0a 02 	lds	r31, 0x020A
     ef8:	e4 0f       	add	r30, r20
     efa:	f5 1f       	adc	r31, r21
     efc:	30 83       	st	Z, r19
     efe:	40 91 bd 01 	lds	r20, 0x01BD
     f02:	50 91 be 01 	lds	r21, 0x01BE
     f06:	42 30       	cpi	r20, 0x02	; 2
     f08:	51 05       	cpc	r21, r1
     f0a:	e8 f0       	brcs	.+58     	; 0xf46
     f0c:	20 91 d4 01 	lds	r18, 0x01D4
     f10:	30 91 d5 01 	lds	r19, 0x01D5
     f14:	e0 91 09 02 	lds	r30, 0x0209
     f18:	f0 91 0a 02 	lds	r31, 0x020A
     f1c:	e4 0f       	add	r30, r20
     f1e:	f5 1f       	adc	r31, r21
     f20:	32 97       	sbiw	r30, 0x02	; 2
     f22:	80 81       	ld	r24, Z
     f24:	ec e8       	ldi	r30, 0x8C	; 140
     f26:	f0 e0       	ldi	r31, 0x00	; 0
     f28:	83 27       	eor	r24, r19
     f2a:	88 0f       	add	r24, r24
     f2c:	f1 1d       	adc	r31, r1
     f2e:	e8 0f       	add	r30, r24
     f30:	f1 1d       	adc	r31, r1
     f32:	c8 95       	lpm
     f34:	32 2f       	mov	r19, r18
     f36:	20 2d       	mov	r18, r0
     f38:	31 96       	adiw	r30, 0x01	; 1
     f3a:	c8 95       	lpm
     f3c:	30 25       	eor	r19, r0
     f3e:	30 93 d5 01 	sts	0x01D5, r19
     f42:	20 93 d4 01 	sts	0x01D4, r18
     f46:	4f 5f       	subi	r20, 0xFF	; 255
     f48:	5f 4f       	sbci	r21, 0xFF	; 255
     f4a:	50 93 be 01 	sts	0x01BE, r21
     f4e:	40 93 bd 01 	sts	0x01BD, r20
     f52:	59 c0       	rjmp	.+178    	; 0x1006
     f54:	3e 37       	cpi	r19, 0x7E	; 126
     f56:	d1 f4       	brne	.+52     	; 0xf8c
     f58:	10 92 d5 01 	sts	0x01D5, r1
     f5c:	10 92 d4 01 	sts	0x01D4, r1
     f60:	10 92 be 01 	sts	0x01BE, r1
     f64:	10 92 bd 01 	sts	0x01BD, r1
     f68:	80 91 f6 01 	lds	r24, 0x01F6
     f6c:	99 27       	eor	r25, r25
     f6e:	fc 01       	movw	r30, r24
     f70:	ee 0f       	add	r30, r30
     f72:	ff 1f       	adc	r31, r31
     f74:	ee 0f       	add	r30, r30
     f76:	ff 1f       	adc	r31, r31
     f78:	e8 0f       	add	r30, r24
     f7a:	f9 1f       	adc	r31, r25
     f7c:	e8 0f       	add	r30, r24
     f7e:	f9 1f       	adc	r31, r25
     f80:	e5 50       	subi	r30, 0x05	; 5
     f82:	fe 4f       	sbci	r31, 0xFE	; 254
     f84:	12 82       	std	Z+2, r1	; 0x02
     f86:	13 82       	std	Z+3, r1	; 0x03
     f88:	11 82       	std	Z+1, r1	; 0x01
     f8a:	3b c0       	rjmp	.+118    	; 0x1002
     f8c:	80 e2       	ldi	r24, 0x20	; 32
     f8e:	83 27       	eor	r24, r19
     f90:	e0 91 09 02 	lds	r30, 0x0209
     f94:	f0 91 0a 02 	lds	r31, 0x020A
     f98:	20 91 bd 01 	lds	r18, 0x01BD
     f9c:	30 91 be 01 	lds	r19, 0x01BE
     fa0:	e2 0f       	add	r30, r18
     fa2:	f3 1f       	adc	r31, r19
     fa4:	80 83       	st	Z, r24
     fa6:	40 91 bd 01 	lds	r20, 0x01BD
     faa:	50 91 be 01 	lds	r21, 0x01BE
     fae:	42 30       	cpi	r20, 0x02	; 2
     fb0:	51 05       	cpc	r21, r1
     fb2:	e8 f0       	brcs	.+58     	; 0xfee
     fb4:	20 91 d4 01 	lds	r18, 0x01D4
     fb8:	30 91 d5 01 	lds	r19, 0x01D5
     fbc:	e0 91 09 02 	lds	r30, 0x0209
     fc0:	f0 91 0a 02 	lds	r31, 0x020A
     fc4:	e4 0f       	add	r30, r20
     fc6:	f5 1f       	adc	r31, r21
     fc8:	32 97       	sbiw	r30, 0x02	; 2
     fca:	80 81       	ld	r24, Z
     fcc:	ec e8       	ldi	r30, 0x8C	; 140
     fce:	f0 e0       	ldi	r31, 0x00	; 0
     fd0:	83 27       	eor	r24, r19
     fd2:	88 0f       	add	r24, r24
     fd4:	f1 1d       	adc	r31, r1
     fd6:	e8 0f       	add	r30, r24
     fd8:	f1 1d       	adc	r31, r1
     fda:	c8 95       	lpm
     fdc:	32 2f       	mov	r19, r18
     fde:	20 2d       	mov	r18, r0
     fe0:	31 96       	adiw	r30, 0x01	; 1
     fe2:	c8 95       	lpm
     fe4:	30 25       	eor	r19, r0
     fe6:	30 93 d5 01 	sts	0x01D5, r19
     fea:	20 93 d4 01 	sts	0x01D4, r18
     fee:	4f 5f       	subi	r20, 0xFF	; 255
     ff0:	5f 4f       	sbci	r21, 0xFF	; 255
     ff2:	50 93 be 01 	sts	0x01BE, r21
     ff6:	40 93 bd 01 	sts	0x01BD, r20
     ffa:	83 e0       	ldi	r24, 0x03	; 3
     ffc:	80 93 1a 02 	sts	0x021A, r24
    1000:	02 c0       	rjmp	.+4      	; 0x1006
    1002:	10 92 1a 02 	sts	0x021A, r1
    1006:	81 e0       	ldi	r24, 0x01	; 1
    1008:	90 e0       	ldi	r25, 0x00	; 0
    100a:	08 95       	ret

0000100c <AMStandard$UARTReceive$receive>:
    100c:	fc 01       	movw	r30, r24
    100e:	80 91 02 01 	lds	r24, 0x0102
    1012:	83 83       	std	Z+3, r24	; 0x03
    1014:	cf 01       	movw	r24, r30
    1016:	0e 94 c4 01 	call	0x388
    101a:	08 95       	ret

0000101c <UARTM$HPLUART$putDone>:
    101c:	8f b7       	in	r24, 0x3f	; 63
    101e:	f8 94       	cli
    1020:	99 27       	eor	r25, r25
    1022:	20 91 f5 01 	lds	r18, 0x01F5
    1026:	10 92 f5 01 	sts	0x01F5, r1
    102a:	8f bf       	out	0x3f, r24	; 63
    102c:	22 23       	and	r18, r18
    102e:	09 f4       	brne	.+2      	; 0x1032
    1030:	a4 c0       	rjmp	.+328    	; 0x117a
    1032:	80 91 1b 02 	lds	r24, 0x021B
    1036:	87 30       	cpi	r24, 0x07	; 7
    1038:	31 f4       	brne	.+12     	; 0x1046
    103a:	10 92 1b 02 	sts	0x021B, r1
    103e:	8e ef       	ldi	r24, 0xFE	; 254
    1040:	95 e0       	ldi	r25, 0x05	; 5
    1042:	0e 94 44 02 	call	0x488
    1046:	21 e0       	ldi	r18, 0x01	; 1
    1048:	80 91 1b 02 	lds	r24, 0x021B
    104c:	99 27       	eor	r25, r25
    104e:	84 30       	cpi	r24, 0x04	; 4
    1050:	91 05       	cpc	r25, r1
    1052:	09 f4       	brne	.+2      	; 0x1056
    1054:	6e c0       	rjmp	.+220    	; 0x1132
    1056:	85 30       	cpi	r24, 0x05	; 5
    1058:	91 05       	cpc	r25, r1
    105a:	54 f4       	brge	.+20     	; 0x1070
    105c:	82 30       	cpi	r24, 0x02	; 2
    105e:	91 05       	cpc	r25, r1
    1060:	61 f1       	breq	.+88     	; 0x10ba
    1062:	83 30       	cpi	r24, 0x03	; 3
    1064:	91 05       	cpc	r25, r1
    1066:	0c f0       	brlt	.+2      	; 0x106a
    1068:	58 c0       	rjmp	.+176    	; 0x111a
    106a:	01 97       	sbiw	r24, 0x01	; 1
    106c:	49 f0       	breq	.+18     	; 0x1080
    106e:	7c c0       	rjmp	.+248    	; 0x1168
    1070:	86 30       	cpi	r24, 0x06	; 6
    1072:	91 05       	cpc	r25, r1
    1074:	09 f4       	brne	.+2      	; 0x1078
    1076:	71 c0       	rjmp	.+226    	; 0x115a
    1078:	06 97       	sbiw	r24, 0x06	; 6
    107a:	0c f4       	brge	.+2      	; 0x107e
    107c:	63 c0       	rjmp	.+198    	; 0x1144
    107e:	74 c0       	rjmp	.+232    	; 0x1168
    1080:	82 e0       	ldi	r24, 0x02	; 2
    1082:	80 93 1b 02 	sts	0x021B, r24
    1086:	20 91 04 01 	lds	r18, 0x0104
    108a:	30 91 05 01 	lds	r19, 0x0105
    108e:	80 91 5f 01 	lds	r24, 0x015F
    1092:	ec e8       	ldi	r30, 0x8C	; 140
    1094:	f0 e0       	ldi	r31, 0x00	; 0
    1096:	83 27       	eor	r24, r19
    1098:	88 0f       	add	r24, r24
    109a:	f1 1d       	adc	r31, r1
    109c:	e8 0f       	add	r30, r24
    109e:	f1 1d       	adc	r31, r1
    10a0:	c8 95       	lpm
    10a2:	32 2f       	mov	r19, r18
    10a4:	20 2d       	mov	r18, r0
    10a6:	31 96       	adiw	r30, 0x01	; 1
    10a8:	c8 95       	lpm
    10aa:	30 25       	eor	r19, r0
    10ac:	30 93 05 01 	sts	0x0105, r19
    10b0:	20 93 04 01 	sts	0x0104, r18
    10b4:	80 91 5f 01 	lds	r24, 0x015F
    10b8:	54 c0       	rjmp	.+168    	; 0x1162
    10ba:	e0 91 d6 01 	lds	r30, 0x01D6
    10be:	f0 91 d7 01 	lds	r31, 0x01D7
    10c2:	20 91 ef 01 	lds	r18, 0x01EF
    10c6:	30 91 f0 01 	lds	r19, 0x01F0
    10ca:	e2 0f       	add	r30, r18
    10cc:	f3 1f       	adc	r31, r19
    10ce:	50 81       	ld	r21, Z
    10d0:	80 91 04 01 	lds	r24, 0x0104
    10d4:	90 91 05 01 	lds	r25, 0x0105
    10d8:	ec e8       	ldi	r30, 0x8C	; 140
    10da:	f0 e0       	ldi	r31, 0x00	; 0
    10dc:	45 2f       	mov	r20, r21
    10de:	49 27       	eor	r20, r25
    10e0:	44 0f       	add	r20, r20
    10e2:	f1 1d       	adc	r31, r1
    10e4:	e4 0f       	add	r30, r20
    10e6:	f1 1d       	adc	r31, r1
    10e8:	c8 95       	lpm
    10ea:	98 2f       	mov	r25, r24
    10ec:	80 2d       	mov	r24, r0
    10ee:	31 96       	adiw	r30, 0x01	; 1
    10f0:	c8 95       	lpm
    10f2:	90 25       	eor	r25, r0
    10f4:	90 93 05 01 	sts	0x0105, r25
    10f8:	80 93 04 01 	sts	0x0104, r24
    10fc:	2f 5f       	subi	r18, 0xFF	; 255
    10fe:	3f 4f       	sbci	r19, 0xFF	; 255
    1100:	30 93 f0 01 	sts	0x01F0, r19
    1104:	20 93 ef 01 	sts	0x01EF, r18
    1108:	80 91 63 01 	lds	r24, 0x0163
    110c:	90 91 64 01 	lds	r25, 0x0164
    1110:	28 17       	cp	r18, r24
    1112:	39 07       	cpc	r19, r25
    1114:	98 f0       	brcs	.+38     	; 0x113c
    1116:	84 e0       	ldi	r24, 0x04	; 4
    1118:	0f c0       	rjmp	.+30     	; 0x1138
    111a:	80 91 21 02 	lds	r24, 0x0221
    111e:	90 e2       	ldi	r25, 0x20	; 32
    1120:	89 27       	eor	r24, r25
    1122:	0e 94 e9 05 	call	0xbd2
    1126:	28 2f       	mov	r18, r24
    1128:	80 91 07 02 	lds	r24, 0x0207
    112c:	80 93 1b 02 	sts	0x021B, r24
    1130:	1b c0       	rjmp	.+54     	; 0x1168
    1132:	50 91 04 01 	lds	r21, 0x0104
    1136:	85 e0       	ldi	r24, 0x05	; 5
    1138:	80 93 1b 02 	sts	0x021B, r24
    113c:	85 2f       	mov	r24, r21
    113e:	0e 94 c0 08 	call	0x1180
    1142:	11 c0       	rjmp	.+34     	; 0x1166
    1144:	80 91 04 01 	lds	r24, 0x0104
    1148:	90 91 05 01 	lds	r25, 0x0105
    114c:	29 2f       	mov	r18, r25
    114e:	33 27       	eor	r19, r19
    1150:	86 e0       	ldi	r24, 0x06	; 6
    1152:	80 93 1b 02 	sts	0x021B, r24
    1156:	82 2f       	mov	r24, r18
    1158:	f2 cf       	rjmp	.-28     	; 0x113e
    115a:	87 e0       	ldi	r24, 0x07	; 7
    115c:	80 93 1b 02 	sts	0x021B, r24
    1160:	8e e7       	ldi	r24, 0x7E	; 126
    1162:	0e 94 e9 05 	call	0xbd2
    1166:	28 2f       	mov	r18, r24
    1168:	21 30       	cpi	r18, 0x01	; 1
    116a:	39 f0       	breq	.+14     	; 0x117a
    116c:	88 e0       	ldi	r24, 0x08	; 8
    116e:	80 93 1b 02 	sts	0x021B, r24
    1172:	8e ef       	ldi	r24, 0xFE	; 254
    1174:	95 e0       	ldi	r25, 0x05	; 5
    1176:	0e 94 44 02 	call	0x488
    117a:	81 e0       	ldi	r24, 0x01	; 1
    117c:	90 e0       	ldi	r25, 0x00	; 0
    117e:	08 95       	ret

00001180 <FramerM$TxArbitraryByte>:
    1180:	98 2f       	mov	r25, r24
    1182:	8d 57       	subi	r24, 0x7D	; 125
    1184:	82 30       	cpi	r24, 0x02	; 2
    1186:	78 f4       	brcc	.+30     	; 0x11a6
    1188:	8f b7       	in	r24, 0x3f	; 63
    118a:	f8 94       	cli
    118c:	28 2f       	mov	r18, r24
    118e:	33 27       	eor	r19, r19
    1190:	80 91 1b 02 	lds	r24, 0x021B
    1194:	80 93 07 02 	sts	0x0207, r24
    1198:	83 e0       	ldi	r24, 0x03	; 3
    119a:	80 93 1b 02 	sts	0x021B, r24
    119e:	90 93 21 02 	sts	0x0221, r25
    11a2:	2f bf       	out	0x3f, r18	; 63
    11a4:	9d e7       	ldi	r25, 0x7D	; 125
    11a6:	89 2f       	mov	r24, r25
    11a8:	0e 94 e9 05 	call	0xbd2
    11ac:	99 27       	eor	r25, r25
    11ae:	08 95       	ret

000011b0 <__nesc_atomic_end>:
    11b0:	8f bf       	out	0x3f, r24	; 63
    11b2:	08 95       	ret

000011b4 <__nesc_atomic_start>:
    11b4:	8f b7       	in	r24, 0x3f	; 63
    11b6:	f8 94       	cli
    11b8:	99 27       	eor	r25, r25
    11ba:	08 95       	ret

000011bc <OscilloscopeM$dataTask>:
    11bc:	0f 93       	push	r16
    11be:	1f 93       	push	r17
    11c0:	cf 93       	push	r28
    11c2:	df 93       	push	r29
    11c4:	8f b7       	in	r24, 0x3f	; 63
    11c6:	f8 94       	cli
    11c8:	48 2f       	mov	r20, r24
    11ca:	55 27       	eor	r21, r21
    11cc:	90 91 22 02 	lds	r25, 0x0222
    11d0:	8b e2       	ldi	r24, 0x2B	; 43
    11d2:	98 9f       	mul	r25, r24
    11d4:	90 01       	movw	r18, r0
    11d6:	11 24       	eor	r1, r1
    11d8:	f9 01       	movw	r30, r18
    11da:	e5 59       	subi	r30, 0x95	; 149
    11dc:	fe 4f       	sbci	r31, 0xFE	; 254
    11de:	10 92 f9 01 	sts	0x01F9, r1
    11e2:	80 91 1c 02 	lds	r24, 0x021C
    11e6:	90 91 1d 02 	lds	r25, 0x021D
    11ea:	82 83       	std	Z+2, r24	; 0x02
    11ec:	93 83       	std	Z+3, r25	; 0x03
    11ee:	4f bf       	out	0x3f, r20	; 63
    11f0:	81 e0       	ldi	r24, 0x01	; 1
    11f2:	90 e0       	ldi	r25, 0x00	; 0
    11f4:	84 83       	std	Z+4, r24	; 0x04
    11f6:	95 83       	std	Z+5, r25	; 0x05
    11f8:	80 91 00 01 	lds	r24, 0x0100
    11fc:	90 91 01 01 	lds	r25, 0x0101
    1200:	80 83       	st	Z, r24
    1202:	91 83       	std	Z+1, r25	; 0x01
    1204:	e9 01       	movw	r28, r18
    1206:	ca 59       	subi	r28, 0x9A	; 154
    1208:	de 4f       	sbci	r29, 0xFE	; 254
    120a:	10 91 23 02 	lds	r17, 0x0223
    120e:	11 23       	and	r17, r17
    1210:	19 f5       	brne	.+70     	; 0x1258
    1212:	01 e0       	ldi	r16, 0x01	; 1
    1214:	00 93 23 02 	sts	0x0223, r16
    1218:	8b e3       	ldi	r24, 0x3B	; 59
    121a:	9a e0       	ldi	r25, 0x0A	; 10
    121c:	0e 94 44 02 	call	0x488
    1220:	88 23       	and	r24, r24
    1222:	19 f4       	brne	.+6      	; 0x122a
    1224:	10 93 23 02 	sts	0x0223, r17
    1228:	17 c0       	rjmp	.+46     	; 0x1258
    122a:	d0 93 c0 01 	sts	0x01C0, r29
    122e:	c0 93 bf 01 	sts	0x01BF, r28
    1232:	8a e1       	ldi	r24, 0x1A	; 26
    1234:	8c 83       	std	Y+4, r24	; 0x04
    1236:	8e e7       	ldi	r24, 0x7E	; 126
    1238:	90 e0       	ldi	r25, 0x00	; 0
    123a:	88 83       	st	Y, r24
    123c:	99 83       	std	Y+1, r25	; 0x01
    123e:	8a e0       	ldi	r24, 0x0A	; 10
    1240:	8a 83       	std	Y+2, r24	; 0x02
    1242:	80 91 02 01 	lds	r24, 0x0102
    1246:	8b 83       	std	Y+3, r24	; 0x03
    1248:	80 2f       	mov	r24, r16
    124a:	8e 5f       	subi	r24, 0xFE	; 254
    124c:	8c 5f       	subi	r24, 0xFC	; 252
    124e:	8b 32       	cpi	r24, 0x2B	; 43
    1250:	e8 f3       	brcs	.-6      	; 0x124c
    1252:	81 e0       	ldi	r24, 0x01	; 1
    1254:	90 e0       	ldi	r25, 0x00	; 0
    1256:	02 c0       	rjmp	.+4      	; 0x125c
    1258:	80 e0       	ldi	r24, 0x00	; 0
    125a:	90 e0       	ldi	r25, 0x00	; 0
    125c:	89 2b       	or	r24, r25
    125e:	09 f1       	breq	.+66     	; 0x12a2
    1260:	8f b7       	in	r24, 0x3f	; 63
    1262:	f8 94       	cli
    1264:	28 2f       	mov	r18, r24
    1266:	33 27       	eor	r19, r19
    1268:	80 91 22 02 	lds	r24, 0x0222
    126c:	91 e0       	ldi	r25, 0x01	; 1
    126e:	89 27       	eor	r24, r25
    1270:	80 93 22 02 	sts	0x0222, r24
    1274:	2f bf       	out	0x3f, r18	; 63
    1276:	8f b7       	in	r24, 0x3f	; 63
    1278:	f8 94       	cli
    127a:	38 2f       	mov	r19, r24
    127c:	20 91 0b 02 	lds	r18, 0x020B
    1280:	22 ff       	sbrs	r18, 2
    1282:	06 c0       	rjmp	.+12     	; 0x1290
    1284:	8f b7       	in	r24, 0x3f	; 63
    1286:	f8 94       	cli
    1288:	99 27       	eor	r25, r25
    128a:	d8 9a       	sbi	0x1b, 0	; 27
    128c:	2b 7f       	andi	r18, 0xFB	; 251
    128e:	05 c0       	rjmp	.+10     	; 0x129a
    1290:	8f b7       	in	r24, 0x3f	; 63
    1292:	f8 94       	cli
    1294:	99 27       	eor	r25, r25
    1296:	d8 98       	cbi	0x1b, 0	; 27
    1298:	24 60       	ori	r18, 0x04	; 4
    129a:	20 93 0b 02 	sts	0x020B, r18
    129e:	8f bf       	out	0x3f, r24	; 63
    12a0:	3f bf       	out	0x3f, r19	; 63
    12a2:	df 91       	pop	r29
    12a4:	cf 91       	pop	r28
    12a6:	1f 91       	pop	r17
    12a8:	0f 91       	pop	r16
    12aa:	08 95       	ret

000012ac <TimerM$HandleFire>:
    12ac:	8f 92       	push	r8
    12ae:	9f 92       	push	r9
    12b0:	af 92       	push	r10
    12b2:	bf 92       	push	r11
    12b4:	df 92       	push	r13
    12b6:	ef 92       	push	r14
    12b8:	ff 92       	push	r15
    12ba:	0f 93       	push	r16
    12bc:	1f 93       	push	r17
    12be:	cf 93       	push	r28
    12c0:	df 93       	push	r29
    12c2:	81 e0       	ldi	r24, 0x01	; 1
    12c4:	80 93 f3 01 	sts	0x01F3, r24
    12c8:	80 91 24 02 	lds	r24, 0x0224
    12cc:	90 91 25 02 	lds	r25, 0x0225
    12d0:	a0 91 26 02 	lds	r26, 0x0226
    12d4:	b0 91 27 02 	lds	r27, 0x0227
    12d8:	00 97       	sbiw	r24, 0x00	; 0
    12da:	a1 05       	cpc	r26, r1
    12dc:	b1 05       	cpc	r27, r1
    12de:	09 f4       	brne	.+2      	; 0x12e2
    12e0:	84 c0       	rjmp	.+264    	; 0x13ea
    12e2:	dd 24       	eor	r13, r13
    12e4:	0d ed       	ldi	r16, 0xDD	; 221
    12e6:	11 e0       	ldi	r17, 0x01	; 1
    12e8:	ee 24       	eor	r14, r14
    12ea:	ff 24       	eor	r15, r15
    12ec:	61 e0       	ldi	r22, 0x01	; 1
    12ee:	70 e0       	ldi	r23, 0x00	; 0
    12f0:	0e 2c       	mov	r0, r14
    12f2:	02 c0       	rjmp	.+4      	; 0x12f8
    12f4:	66 0f       	add	r22, r22
    12f6:	77 1f       	adc	r23, r23
    12f8:	0a 94       	dec	r0
    12fa:	e2 f7       	brpl	.-8      	; 0x12f4
    12fc:	cb 01       	movw	r24, r22
    12fe:	aa 27       	eor	r26, r26
    1300:	97 fd       	sbrc	r25, 7
    1302:	a0 95       	com	r26
    1304:	ba 2f       	mov	r27, r26
    1306:	80 90 24 02 	lds	r8, 0x0224
    130a:	90 90 25 02 	lds	r9, 0x0225
    130e:	a0 90 26 02 	lds	r10, 0x0226
    1312:	b0 90 27 02 	lds	r11, 0x0227
    1316:	88 21       	and	r24, r8
    1318:	99 21       	and	r25, r9
    131a:	aa 21       	and	r26, r10
    131c:	bb 21       	and	r27, r11
    131e:	00 97       	sbiw	r24, 0x00	; 0
    1320:	a1 05       	cpc	r26, r1
    1322:	b1 05       	cpc	r27, r1
    1324:	09 f4       	brne	.+2      	; 0x1328
    1326:	57 c0       	rjmp	.+174    	; 0x13d6
    1328:	80 91 fa 01 	lds	r24, 0x01FA
    132c:	99 27       	eor	r25, r25
    132e:	01 96       	adiw	r24, 0x01	; 1
    1330:	aa 27       	eor	r26, r26
    1332:	97 fd       	sbrc	r25, 7
    1334:	a0 95       	com	r26
    1336:	ba 2f       	mov	r27, r26
    1338:	f8 01       	movw	r30, r16
    133a:	25 81       	ldd	r18, Z+5	; 0x05
    133c:	36 81       	ldd	r19, Z+6	; 0x06
    133e:	47 81       	ldd	r20, Z+7	; 0x07
    1340:	50 85       	ldd	r21, Z+8	; 0x08
    1342:	28 1b       	sub	r18, r24
    1344:	39 0b       	sbc	r19, r25
    1346:	4a 0b       	sbc	r20, r26
    1348:	5b 0b       	sbc	r21, r27
    134a:	25 83       	std	Z+5, r18	; 0x05
    134c:	36 83       	std	Z+6, r19	; 0x06
    134e:	47 83       	std	Z+7, r20	; 0x07
    1350:	50 87       	std	Z+8, r21	; 0x08
    1352:	23 30       	cpi	r18, 0x03	; 3
    1354:	31 05       	cpc	r19, r1
    1356:	41 05       	cpc	r20, r1
    1358:	51 05       	cpc	r21, r1
    135a:	ec f5       	brge	.+122    	; 0x13d6
    135c:	80 81       	ld	r24, Z
    135e:	88 23       	and	r24, r24
    1360:	69 f4       	brne	.+26     	; 0x137c
    1362:	81 81       	ldd	r24, Z+1	; 0x01
    1364:	92 81       	ldd	r25, Z+2	; 0x02
    1366:	a3 81       	ldd	r26, Z+3	; 0x03
    1368:	b4 81       	ldd	r27, Z+4	; 0x04
    136a:	28 0f       	add	r18, r24
    136c:	39 1f       	adc	r19, r25
    136e:	4a 1f       	adc	r20, r26
    1370:	5b 1f       	adc	r21, r27
    1372:	25 83       	std	Z+5, r18	; 0x05
    1374:	36 83       	std	Z+6, r19	; 0x06
    1376:	47 83       	std	Z+7, r20	; 0x07
    1378:	50 87       	std	Z+8, r21	; 0x08
    137a:	13 c0       	rjmp	.+38     	; 0x13a2
    137c:	cb 01       	movw	r24, r22
    137e:	80 95       	com	r24
    1380:	90 95       	com	r25
    1382:	aa 27       	eor	r26, r26
    1384:	97 fd       	sbrc	r25, 7
    1386:	a0 95       	com	r26
    1388:	ba 2f       	mov	r27, r26
    138a:	88 22       	and	r8, r24
    138c:	99 22       	and	r9, r25
    138e:	aa 22       	and	r10, r26
    1390:	bb 22       	and	r11, r27
    1392:	80 92 24 02 	sts	0x0224, r8
    1396:	90 92 25 02 	sts	0x0225, r9
    139a:	a0 92 26 02 	sts	0x0226, r10
    139e:	b0 92 27 02 	sts	0x0227, r11
    13a2:	80 91 28 02 	lds	r24, 0x0228
    13a6:	81 30       	cpi	r24, 0x01	; 1
    13a8:	19 f4       	brne	.+6      	; 0x13b0
    13aa:	8f ef       	ldi	r24, 0xFF	; 255
    13ac:	80 93 28 02 	sts	0x0228, r24
    13b0:	90 91 28 02 	lds	r25, 0x0228
    13b4:	9f 5f       	subi	r25, 0xFF	; 255
    13b6:	90 93 28 02 	sts	0x0228, r25
    13ba:	80 91 c1 01 	lds	r24, 0x01C1
    13be:	8f 5f       	subi	r24, 0xFF	; 255
    13c0:	80 93 c1 01 	sts	0x01C1, r24
    13c4:	e9 2f       	mov	r30, r25
    13c6:	ff 27       	eor	r31, r31
    13c8:	e0 5a       	subi	r30, 0xA0	; 160
    13ca:	fe 4f       	sbci	r31, 0xFE	; 254
    13cc:	d0 82       	st	Z, r13
    13ce:	84 ed       	ldi	r24, 0xD4	; 212
    13d0:	9a e0       	ldi	r25, 0x0A	; 10
    13d2:	0e 94 44 02 	call	0x488
    13d6:	d3 94       	inc	r13
    13d8:	08 94       	sec
    13da:	e1 1c       	adc	r14, r1
    13dc:	f1 1c       	adc	r15, r1
    13de:	07 5f       	subi	r16, 0xF7	; 247
    13e0:	1f 4f       	sbci	r17, 0xFF	; 255
    13e2:	f1 e0       	ldi	r31, 0x01	; 1
    13e4:	fd 15       	cp	r31, r13
    13e6:	08 f0       	brcs	.+2      	; 0x13ea
    13e8:	81 cf       	rjmp	.-254    	; 0x12ec
    13ea:	0e 94 65 01 	call	0x2ca
    13ee:	df 91       	pop	r29
    13f0:	cf 91       	pop	r28
    13f2:	1f 91       	pop	r17
    13f4:	0f 91       	pop	r16
    13f6:	ff 90       	pop	r15
    13f8:	ef 90       	pop	r14
    13fa:	df 90       	pop	r13
    13fc:	bf 90       	pop	r11
    13fe:	af 90       	pop	r10
    1400:	9f 90       	pop	r9
    1402:	8f 90       	pop	r8
    1404:	08 95       	ret

00001406 <HPLPowerManagementM$doAdjustment>:
    1406:	87 b7       	in	r24, 0x37	; 55
    1408:	99 27       	eor	r25, r25
    140a:	8c 7f       	andi	r24, 0xFC	; 252
    140c:	00 97       	sbiw	r24, 0x00	; 0
    140e:	19 f0       	breq	.+6      	; 0x1416
    1410:	80 e0       	ldi	r24, 0x00	; 0
    1412:	90 e0       	ldi	r25, 0x00	; 0
    1414:	1a c0       	rjmp	.+52     	; 0x144a
    1416:	6f 99       	sbic	0x0d, 7	; 13
    1418:	18 c0       	rjmp	.+48     	; 0x144a
    141a:	37 9b       	sbis	0x06, 7	; 6
    141c:	03 c0       	rjmp	.+6      	; 0x1424
    141e:	88 e0       	ldi	r24, 0x08	; 8
    1420:	90 e0       	ldi	r25, 0x00	; 0
    1422:	13 c0       	rjmp	.+38     	; 0x144a
    1424:	87 b7       	in	r24, 0x37	; 55
    1426:	99 27       	eor	r25, r25
    1428:	83 70       	andi	r24, 0x03	; 3
    142a:	90 70       	andi	r25, 0x00	; 0
    142c:	89 2b       	or	r24, r25
    142e:	59 f0       	breq	.+22     	; 0x1446
    1430:	81 b7       	in	r24, 0x31	; 49
    1432:	92 b7       	in	r25, 0x32	; 50
    1434:	89 1b       	sub	r24, r25
    1436:	80 31       	cpi	r24, 0x10	; 16
    1438:	18 f4       	brcc	.+6      	; 0x1440
    143a:	8c e1       	ldi	r24, 0x1C	; 28
    143c:	90 e0       	ldi	r25, 0x00	; 0
    143e:	05 c0       	rjmp	.+10     	; 0x144a
    1440:	88 e1       	ldi	r24, 0x18	; 24
    1442:	90 e0       	ldi	r25, 0x00	; 0
    1444:	02 c0       	rjmp	.+4      	; 0x144a
    1446:	80 e1       	ldi	r24, 0x10	; 16
    1448:	90 e0       	ldi	r25, 0x00	; 0
    144a:	38 2f       	mov	r19, r24
    144c:	25 b7       	in	r18, 0x35	; 53
    144e:	23 7e       	andi	r18, 0xE3	; 227
    1450:	8c 31       	cpi	r24, 0x1C	; 28
    1452:	21 f0       	breq	.+8      	; 0x145c
    1454:	88 31       	cpi	r24, 0x18	; 24
    1456:	11 f0       	breq	.+4      	; 0x145c
    1458:	08 c0       	rjmp	.+16     	; 0x146a
    145a:	00 00       	nop
    145c:	80 b7       	in	r24, 0x30	; 48
    145e:	99 27       	eor	r25, r25
    1460:	87 70       	andi	r24, 0x07	; 7
    1462:	90 70       	andi	r25, 0x00	; 0
    1464:	89 2b       	or	r24, r25
    1466:	c9 f7       	brne	.-14     	; 0x145a
    1468:	23 7e       	andi	r18, 0xE3	; 227
    146a:	23 2b       	or	r18, r19
    146c:	25 bf       	out	0x35, r18	; 53
    146e:	85 b7       	in	r24, 0x35	; 53
    1470:	80 62       	ori	r24, 0x20	; 32
    1472:	85 bf       	out	0x35, r24	; 53
    1474:	08 95       	ret

00001476 <AMStandard$sendTask>:
    1476:	e0 91 bf 01 	lds	r30, 0x01BF
    147a:	f0 91 c0 01 	lds	r31, 0x01C0
    147e:	80 81       	ld	r24, Z
    1480:	91 81       	ldd	r25, Z+1	; 0x01
    1482:	8e 37       	cpi	r24, 0x7E	; 126
    1484:	91 05       	cpc	r25, r1
    1486:	b9 f4       	brne	.+46     	; 0x14b6
    1488:	61 e0       	ldi	r22, 0x01	; 1
    148a:	8f b7       	in	r24, 0x3f	; 63
    148c:	f8 94       	cli
    148e:	90 91 29 02 	lds	r25, 0x0229
    1492:	92 fd       	sbrc	r25, 2
    1494:	08 c0       	rjmp	.+16     	; 0x14a6
    1496:	94 60       	ori	r25, 0x04	; 4
    1498:	90 93 29 02 	sts	0x0229, r25
    149c:	f0 93 5d 01 	sts	0x015D, r31
    14a0:	e0 93 5c 01 	sts	0x015C, r30
    14a4:	01 c0       	rjmp	.+2      	; 0x14a8
    14a6:	60 e0       	ldi	r22, 0x00	; 0
    14a8:	8f bf       	out	0x3f, r24	; 63
    14aa:	61 30       	cpi	r22, 0x01	; 1
    14ac:	29 f4       	brne	.+10     	; 0x14b8
    14ae:	0e 94 88 05 	call	0xb10
    14b2:	68 2f       	mov	r22, r24
    14b4:	01 c0       	rjmp	.+2      	; 0x14b8
    14b6:	60 e0       	ldi	r22, 0x00	; 0
    14b8:	66 23       	and	r22, r22
    14ba:	31 f4       	brne	.+12     	; 0x14c8
    14bc:	80 91 bf 01 	lds	r24, 0x01BF
    14c0:	90 91 c0 01 	lds	r25, 0x01C0
    14c4:	0e 94 35 06 	call	0xc6a
    14c8:	08 95       	ret

000014ca <FramerM$PacketRcvd>:
    14ca:	0f 93       	push	r16
    14cc:	1f 93       	push	r17
    14ce:	cf 93       	push	r28
    14d0:	df 93       	push	r29
    14d2:	90 91 1e 02 	lds	r25, 0x021E
    14d6:	86 e0       	ldi	r24, 0x06	; 6
    14d8:	98 9f       	mul	r25, r24
    14da:	80 01       	movw	r16, r0
    14dc:	11 24       	eor	r1, r1
    14de:	05 50       	subi	r16, 0x05	; 5
    14e0:	1e 4f       	sbci	r17, 0xFE	; 254
    14e2:	f8 01       	movw	r30, r16
    14e4:	c4 81       	ldd	r28, Z+4	; 0x04
    14e6:	d5 81       	ldd	r29, Z+5	; 0x05
    14e8:	82 81       	ldd	r24, Z+2	; 0x02
    14ea:	93 81       	ldd	r25, Z+3	; 0x03
    14ec:	05 97       	sbiw	r24, 0x05	; 5
    14ee:	68 f1       	brcs	.+90     	; 0x154a
    14f0:	20 81       	ld	r18, Z
    14f2:	82 2f       	mov	r24, r18
    14f4:	99 27       	eor	r25, r25
    14f6:	81 34       	cpi	r24, 0x41	; 65
    14f8:	91 05       	cpc	r25, r1
    14fa:	59 f0       	breq	.+22     	; 0x1512
    14fc:	82 34       	cpi	r24, 0x42	; 66
    14fe:	91 05       	cpc	r25, r1
    1500:	24 f4       	brge	.+8      	; 0x150a
    1502:	80 34       	cpi	r24, 0x40	; 64
    1504:	91 05       	cpc	r25, r1
    1506:	09 f1       	breq	.+66     	; 0x154a
    1508:	1a c0       	rjmp	.+52     	; 0x153e
    150a:	82 34       	cpi	r24, 0x42	; 66
    150c:	91 05       	cpc	r25, r1
    150e:	71 f0       	breq	.+28     	; 0x152c
    1510:	16 c0       	rjmp	.+44     	; 0x153e
    1512:	81 e0       	ldi	r24, 0x01	; 1
    1514:	90 e0       	ldi	r25, 0x00	; 0
    1516:	8a a3       	std	Y+34, r24	; 0x22
    1518:	9b a3       	std	Y+35, r25	; 0x23
    151a:	f8 01       	movw	r30, r16
    151c:	81 81       	ldd	r24, Z+1	; 0x01
    151e:	80 93 f8 01 	sts	0x01F8, r24
    1522:	8e eb       	ldi	r24, 0xBE	; 190
    1524:	9a e0       	ldi	r25, 0x0A	; 10
    1526:	0e 94 44 02 	call	0x488
    152a:	04 c0       	rjmp	.+8      	; 0x1534
    152c:	81 e0       	ldi	r24, 0x01	; 1
    152e:	90 e0       	ldi	r25, 0x00	; 0
    1530:	8a a3       	std	Y+34, r24	; 0x22
    1532:	9b a3       	std	Y+35, r25	; 0x23
    1534:	ce 01       	movw	r24, r28
    1536:	0e 94 06 08 	call	0x100c
    153a:	ec 01       	movw	r28, r24
    153c:	06 c0       	rjmp	.+12     	; 0x154a
    153e:	20 93 62 01 	sts	0x0162, r18
    1542:	83 e2       	ldi	r24, 0x23	; 35
    1544:	9b e0       	ldi	r25, 0x0B	; 11
    1546:	0e 94 44 02 	call	0x488
    154a:	8f b7       	in	r24, 0x3f	; 63
    154c:	f8 94       	cli
    154e:	28 2f       	mov	r18, r24
    1550:	33 27       	eor	r19, r19
    1552:	20 97       	sbiw	r28, 0x00	; 0
    1554:	19 f0       	breq	.+6      	; 0x155c
    1556:	f8 01       	movw	r30, r16
    1558:	c4 83       	std	Z+4, r28	; 0x04
    155a:	d5 83       	std	Z+5, r29	; 0x05
    155c:	f8 01       	movw	r30, r16
    155e:	12 82       	std	Z+2, r1	; 0x02
    1560:	13 82       	std	Z+3, r1	; 0x03
    1562:	11 82       	std	Z+1, r1	; 0x01
    1564:	80 91 1e 02 	lds	r24, 0x021E
    1568:	8f 5f       	subi	r24, 0xFF	; 255
    156a:	81 70       	andi	r24, 0x01	; 1
    156c:	80 93 1e 02 	sts	0x021E, r24
    1570:	2f bf       	out	0x3f, r18	; 63
    1572:	df 91       	pop	r29
    1574:	cf 91       	pop	r28
    1576:	1f 91       	pop	r17
    1578:	0f 91       	pop	r16
    157a:	08 95       	ret

0000157c <FramerAckM$SendAckTask>:
    157c:	20 91 f8 01 	lds	r18, 0x01F8
    1580:	31 e0       	ldi	r19, 0x01	; 1
    1582:	8f b7       	in	r24, 0x3f	; 63
    1584:	f8 94       	cli
    1586:	90 91 29 02 	lds	r25, 0x0229
    158a:	91 fd       	sbrc	r25, 1
    158c:	06 c0       	rjmp	.+12     	; 0x159a
    158e:	92 60       	ori	r25, 0x02	; 2
    1590:	90 93 29 02 	sts	0x0229, r25
    1594:	20 93 f7 01 	sts	0x01F7, r18
    1598:	01 c0       	rjmp	.+2      	; 0x159c
    159a:	30 e0       	ldi	r19, 0x00	; 0
    159c:	8f bf       	out	0x3f, r24	; 63
    159e:	31 30       	cpi	r19, 0x01	; 1
    15a0:	11 f4       	brne	.+4      	; 0x15a6
    15a2:	0e 94 88 05 	call	0xb10
    15a6:	08 95       	ret

000015a8 <TimerM$signalOneTimer>:
    15a8:	cf 93       	push	r28
    15aa:	90 91 c1 01 	lds	r25, 0x01C1
    15ae:	99 23       	and	r25, r25
    15b0:	19 f4       	brne	.+6      	; 0x15b8
    15b2:	82 e0       	ldi	r24, 0x02	; 2
    15b4:	90 e0       	ldi	r25, 0x00	; 0
    15b6:	15 c0       	rjmp	.+42     	; 0x15e2
    15b8:	80 91 5e 01 	lds	r24, 0x015E
    15bc:	81 30       	cpi	r24, 0x01	; 1
    15be:	19 f4       	brne	.+6      	; 0x15c6
    15c0:	8f ef       	ldi	r24, 0xFF	; 255
    15c2:	80 93 5e 01 	sts	0x015E, r24
    15c6:	80 91 5e 01 	lds	r24, 0x015E
    15ca:	8f 5f       	subi	r24, 0xFF	; 255
    15cc:	80 93 5e 01 	sts	0x015E, r24
    15d0:	91 50       	subi	r25, 0x01	; 1
    15d2:	90 93 c1 01 	sts	0x01C1, r25
    15d6:	e8 2f       	mov	r30, r24
    15d8:	ff 27       	eor	r31, r31
    15da:	e0 5a       	subi	r30, 0xA0	; 160
    15dc:	fe 4f       	sbci	r31, 0xFE	; 254
    15de:	80 81       	ld	r24, Z
    15e0:	99 27       	eor	r25, r25
    15e2:	82 30       	cpi	r24, 0x02	; 2
    15e4:	70 f5       	brcc	.+92     	; 0x1642
    15e6:	99 27       	eor	r25, r25
    15e8:	00 97       	sbiw	r24, 0x00	; 0
    15ea:	19 f0       	breq	.+6      	; 0x15f2
    15ec:	01 97       	sbiw	r24, 0x01	; 1
    15ee:	e9 f0       	breq	.+58     	; 0x162a
    15f0:	28 c0       	rjmp	.+80     	; 0x1642
    15f2:	8f b7       	in	r24, 0x3f	; 63
    15f4:	f8 94       	cli
    15f6:	c8 2f       	mov	r28, r24
    15f8:	20 91 d9 01 	lds	r18, 0x01D9
    15fc:	30 91 da 01 	lds	r19, 0x01DA
    1600:	21 fd       	sbrc	r18, 1
    1602:	11 c0       	rjmp	.+34     	; 0x1626
    1604:	c9 01       	movw	r24, r18
    1606:	82 60       	ori	r24, 0x02	; 2
    1608:	90 93 da 01 	sts	0x01DA, r25
    160c:	80 93 d9 01 	sts	0x01D9, r24
    1610:	23 2b       	or	r18, r19
    1612:	49 f4       	brne	.+18     	; 0x1626
    1614:	81 e0       	ldi	r24, 0x01	; 1
    1616:	90 e0       	ldi	r25, 0x00	; 0
    1618:	90 93 2b 02 	sts	0x022B, r25
    161c:	80 93 2a 02 	sts	0x022A, r24
    1620:	81 e0       	ldi	r24, 0x01	; 1
    1622:	0e 94 92 04 	call	0x924
    1626:	cf bf       	out	0x3f, r28	; 63
    1628:	0c c0       	rjmp	.+24     	; 0x1642
    162a:	80 91 db 01 	lds	r24, 0x01DB
    162e:	90 91 dc 01 	lds	r25, 0x01DC
    1632:	90 93 20 02 	sts	0x0220, r25
    1636:	80 93 1f 02 	sts	0x021F, r24
    163a:	10 92 dc 01 	sts	0x01DC, r1
    163e:	10 92 db 01 	sts	0x01DB, r1
    1642:	cf 91       	pop	r28
    1644:	08 95       	ret

00001646 <FramerM$PacketUnknown>:
    1646:	8f b7       	in	r24, 0x3f	; 63
    1648:	f8 94       	cli
    164a:	28 2f       	mov	r18, r24
    164c:	33 27       	eor	r19, r19
    164e:	80 91 29 02 	lds	r24, 0x0229
    1652:	88 60       	ori	r24, 0x08	; 8
    1654:	80 93 29 02 	sts	0x0229, r24
    1658:	2f bf       	out	0x3f, r18	; 63
    165a:	0e 94 88 05 	call	0xb10
    165e:	08 95       	ret
