
TestTinySec:     file format elf32-avr

Sections:
Idx Name          Size      VMA       LMA       File off  Algn
  0 .data         00000116  00800100  0000405c  000040f0  2**0
                  CONTENTS, ALLOC, LOAD, DATA
  1 .text         0000405c  00000000  00000000  00000094  2**0
                  CONTENTS, ALLOC, LOAD, READONLY, CODE
  2 .bss          00000348  00800216  00800216  00004206  2**0
                  ALLOC
  3 .noinit       00000000  0080055e  0080055e  00004206  2**0
                  CONTENTS
  4 .eeprom       00000000  00810000  00810000  00004206  2**0
                  CONTENTS
  5 .stab         0000033c  00000000  00000000  00004208  2**2
                  CONTENTS, READONLY, DEBUGGING
  6 .stabstr      00000051  00000000  00000000  00004544  2**0
                  CONTENTS, READONLY, DEBUGGING
Disassembly of section .text:

00000000 <__vectors>:
       0:	0c 94 bc 01 	jmp	0x378
       4:	0c 94 d9 01 	jmp	0x3b2
       8:	0c 94 d9 01 	jmp	0x3b2
       c:	0c 94 d9 01 	jmp	0x3b2
      10:	0c 94 d9 01 	jmp	0x3b2
      14:	0c 94 d9 01 	jmp	0x3b2
      18:	0c 94 d9 01 	jmp	0x3b2
      1c:	0c 94 d9 01 	jmp	0x3b2
      20:	0c 94 d9 01 	jmp	0x3b2
      24:	0c 94 d9 01 	jmp	0x3b2
      28:	0c 94 d9 01 	jmp	0x3b2
      2c:	0c 94 d9 01 	jmp	0x3b2
      30:	0c 94 d9 01 	jmp	0x3b2
      34:	0c 94 d9 01 	jmp	0x3b2
      38:	0c 94 d9 01 	jmp	0x3b2
      3c:	0c 94 87 18 	jmp	0x310e
      40:	0c 94 d9 01 	jmp	0x3b2
      44:	0c 94 db 01 	jmp	0x3b6
      48:	0c 94 63 02 	jmp	0x4c6
      4c:	0c 94 d9 01 	jmp	0x3b2
      50:	0c 94 8d 02 	jmp	0x51a
      54:	0c 94 ee 07 	jmp	0xfdc
      58:	0c 94 d9 01 	jmp	0x3b2
      5c:	0c 94 d9 01 	jmp	0x3b2
      60:	0c 94 d9 01 	jmp	0x3b2
      64:	0c 94 d9 01 	jmp	0x3b2
      68:	0c 94 d9 01 	jmp	0x3b2
      6c:	0c 94 d9 01 	jmp	0x3b2
      70:	0c 94 d9 01 	jmp	0x3b2
      74:	0c 94 d9 01 	jmp	0x3b2
      78:	0c 94 d9 01 	jmp	0x3b2
      7c:	0c 94 d9 01 	jmp	0x3b2
      80:	0c 94 d9 01 	jmp	0x3b2
      84:	0c 94 d9 01 	jmp	0x3b2
      88:	0c 94 d9 01 	jmp	0x3b2

0000008c <__ctors_end>:
      8c:	00 1c       	adc	r0, r0
      8e:	00 5e       	subi	r16, 0xE0	; 224
      90:	00 fa       	bst	r0, 0
      92:	01 73       	andi	r16, 0x31	; 49
      94:	01 ea       	ldi	r16, 0xA1	; 161
      96:	04 bc       	out	0x24, r0	; 36
      98:	0a 5e       	subi	r16, 0xEA	; 234

0000009a <CC1K_LPL_ValidPrecursor>:
      9a:	05 02       	muls	r16, r21
      9c:	02 02       	muls	r16, r18
      9e:	02 02       	muls	r16, r18
      a0:	02 00       	.word	0x0002	; ????

000000a1 <CC1K_LPL_SleepTime>:
      a1:	00 00       	nop
      a3:	00 14       	cp	r0, r0
      a5:	00 55       	subi	r16, 0x50	; 80
      a7:	00 87       	std	Z+8, r16	; 0x08
      a9:	00 b9       	out	0x00, r16	; 0
      ab:	01 e5       	ldi	r16, 0x51	; 81
      ad:	04 3d       	cpi	r16, 0xD4	; 212

000000af <CC1K_LPL_SleepPreamble>:
      af:	00 08       	sbc	r0, r0
      b1:	08 08       	sbc	r0, r8
      b3:	08 08       	sbc	r0, r8
      b5:	08 ae       	std	Y+56, r0	; 0x38

000000b6 <CC1K_LPL_SquelchInit>:
      b6:	ae ef       	ldi	r26, 0xFE	; 254
      b8:	ef ef       	ldi	r30, 0xFF	; 255
      ba:	ef ef       	ldi	r30, 0xFF	; 255
      bc:	ef 31       	cpi	r30, 0x1F	; 31

000000bd <CC1K_Params>:
      bd:	31 58       	subi	r19, 0x81	; 129
      bf:	00 00       	nop
      c1:	57 f6       	brid	.-108    	; 0x57
      c3:	85 03       	fmuls	r16, r21
      c5:	55 44       	sbci	r21, 0x45	; 69
      c7:	02 0f       	add	r16, r18
      c9:	60 e0       	ldi	r22, 0x00	; 0
      cb:	26 1c       	adc	r2, r6
      cd:	6f 55       	subi	r22, 0x5F	; 95
      cf:	70 01       	movw	r14, r0
      d1:	00 00       	nop
      d3:	00 00       	nop
      d5:	00 00       	nop
      d7:	00 00       	nop
      d9:	00 81       	ld	r16, Z
      db:	01 31       	cpi	r16, 0x11	; 17
      dd:	7c 00       	.word	0x007c	; ????
      df:	00 7b       	andi	r16, 0xB0	; 176
      e1:	f9 ae       	std	Y+57, r15	; 0x39
      e3:	02 38       	cpi	r16, 0x82	; 130
      e5:	8c 32       	cpi	r24, 0x2C	; 44
      e7:	80 40       	sbci	r24, 0x00	; 0
      e9:	10 26       	eor	r1, r16
      eb:	a1 6f       	ori	r26, 0xF1	; 241
      ed:	55 10       	cpse	r5, r5
      ef:	01 00       	.word	0x0001	; ????
      f1:	00 00       	nop
      f3:	00 00       	nop
      f5:	00 00       	nop
      f7:	00 00       	nop
      f9:	f3 01       	movw	r30, r6
      fb:	31 51       	subi	r19, 0x11	; 17
      fd:	00 00       	nop
      ff:	50 f7       	brcc	.-44     	; 0xd5
     101:	4f 03       	fmul	r20, r23
     103:	0e 44       	sbci	r16, 0x4E	; 78
     105:	02 0f       	add	r16, r18
     107:	58 e0       	ldi	r21, 0x08	; 8
     109:	26 a1       	ldd	r18, Z+38	; 0x26
     10b:	6f 55       	subi	r22, 0x5F	; 95
     10d:	70 01       	movw	r14, r0
     10f:	00 00       	nop
     111:	00 00       	nop
     113:	00 00       	nop
     115:	00 00       	nop
     117:	00 81       	ld	r16, Z
     119:	01 31       	cpi	r16, 0x11	; 17
     11b:	5c e0       	ldi	r21, 0x0C	; 12
     11d:	00 5c       	subi	r16, 0xC0	; 192
     11f:	db 42       	sbci	r29, 0x2B	; 43
     121:	01 aa       	std	Z+49, r0	; 0x31
     123:	8c 32       	cpi	r24, 0x2C	; 44
     125:	80 30       	cpi	r24, 0x00	; 0
     127:	10 26       	eor	r1, r16
     129:	a1 6f       	ori	r26, 0xF1	; 241
     12b:	55 10       	cpse	r5, r5
     12d:	01 00       	.word	0x0001	; ????
     12f:	00 00       	nop
     131:	00 00       	nop
     133:	00 00       	nop
     135:	00 00       	nop
     137:	f3 01       	movw	r30, r6
     139:	31 45       	sbci	r19, 0x51	; 81
     13b:	60 00       	.word	0x0060	; ????
     13d:	45 55       	subi	r20, 0x55	; 85
     13f:	bb 03       	fmulsu	r19, r19
     141:	9c 80       	ldd	r9, Y+4	; 0x04
     143:	02 0f       	add	r16, r18
     145:	68 e0       	ldi	r22, 0x08	; 8
     147:	26 a1       	ldd	r18, Z+38	; 0x26
     149:	6f 54       	subi	r22, 0x4F	; 79
     14b:	70 01       	movw	r14, r0
     14d:	00 00       	nop
     14f:	00 00       	nop
     151:	00 00       	nop
     153:	00 00       	nop
     155:	00 81       	ld	r16, Z
     157:	01 31       	cpi	r16, 0x11	; 17
     159:	58 00       	.word	0x0058	; ????
     15b:	00 57       	subi	r16, 0x70	; 112
     15d:	f6 85       	ldd	r31, Z+14	; 0x0e
     15f:	03 55       	subi	r16, 0x53	; 83
     161:	90 02       	muls	r25, r16
     163:	0f 60       	ori	r16, 0x0F	; 15
     165:	e0 26       	eor	r14, r16
     167:	a1 6f       	ori	r26, 0xF1	; 241
     169:	55 70       	andi	r21, 0x05	; 5
     16b:	01 00       	.word	0x0001	; ????
     16d:	00 00       	nop
     16f:	00 00       	nop
     171:	00 00       	nop
     173:	00 00       	nop
     175:	81 01       	movw	r16, r2

00000177 <crcTable>:
     177:	00 00       	nop
     179:	21 10       	cpse	r2, r1
     17b:	42 20       	and	r4, r2
     17d:	63 30       	cpi	r22, 0x03	; 3
     17f:	84 40       	sbci	r24, 0x04	; 4
     181:	a5 50       	subi	r26, 0x05	; 5
     183:	c6 60       	ori	r28, 0x06	; 6
     185:	e7 70       	andi	r30, 0x07	; 7
     187:	08 81       	ld	r16, Y
     189:	29 91       	ld	r18, Y+
     18b:	4a a1       	ldd	r20, Y+34	; 0x22
     18d:	6b b1       	in	r22, 0x0b	; 11
     18f:	8c c1       	rjmp	.+792    	; 0x4a9
     191:	ad d1       	rcall	.+858    	; 0x4ed
     193:	ce e1       	ldi	r28, 0x1E	; 30
     195:	ef f1       	brie	.+122    	; 0x211
     197:	31 12       	cpse	r3, r17
     199:	10 02       	muls	r17, r16
     19b:	73 32       	cpi	r23, 0x23	; 35
     19d:	52 22       	and	r5, r18
     19f:	b5 52       	subi	r27, 0x25	; 37
     1a1:	94 42       	sbci	r25, 0x24	; 36
     1a3:	f7 72       	andi	r31, 0x27	; 39
     1a5:	d6 62       	ori	r29, 0x26	; 38
     1a7:	39 93       	st	Y+, r19
     1a9:	18 83       	st	Y, r17
     1ab:	7b b3       	in	r23, 0x1b	; 27
     1ad:	5a a3       	std	Y+34, r21	; 0x22
     1af:	bd d3       	rcall	.+1914   	; 0x92b
     1b1:	9c c3       	rjmp	.+1848   	; 0x8eb
     1b3:	ff f3       	brie	.-2      	; 0x1b3
     1b5:	de e3       	ldi	r29, 0x3E	; 62
     1b7:	62 24       	eor	r6, r2
     1b9:	43 34       	cpi	r20, 0x43	; 67
     1bb:	20 04       	cpc	r2, r0
     1bd:	01 14       	cp	r0, r1
     1bf:	e6 64       	ori	r30, 0x46	; 70
     1c1:	c7 74       	andi	r28, 0x47	; 71
     1c3:	a4 44       	sbci	r26, 0x44	; 68
     1c5:	85 54       	subi	r24, 0x45	; 69
     1c7:	6a a5       	ldd	r22, Y+42	; 0x2a
     1c9:	4b b5       	in	r20, 0x2b	; 43
     1cb:	28 85       	ldd	r18, Y+8	; 0x08
     1cd:	09 95       	icall
     1cf:	ee e5       	ldi	r30, 0x5E	; 94
     1d1:	cf f5       	brid	.+114    	; 0x245
     1d3:	ac c5       	rjmp	.+2904   	; 0xd2d
     1d5:	8d d5       	rcall	.+2842   	; 0xcf1
     1d7:	53 36       	cpi	r21, 0x63	; 99
     1d9:	72 26       	eor	r7, r18
     1db:	11 16       	cp	r1, r17
     1dd:	30 06       	cpc	r3, r16
     1df:	d7 76       	andi	r29, 0x67	; 103
     1e1:	f6 66       	ori	r31, 0x66	; 102
     1e3:	95 56       	subi	r25, 0x65	; 101
     1e5:	b4 46       	sbci	r27, 0x64	; 100
     1e7:	5b b7       	in	r21, 0x3b	; 59
     1e9:	7a a7       	std	Y+42, r23	; 0x2a
     1eb:	19 97       	sbiw	r26, 0x09	; 9
     1ed:	38 87       	std	Y+8, r19	; 0x08
     1ef:	df f7       	brid	.-10     	; 0x1e7
     1f1:	fe e7       	ldi	r31, 0x7E	; 126
     1f3:	9d d7       	rcall	.+3898   	; 0x112f
     1f5:	bc c7       	rjmp	.+3960   	; 0x116f
     1f7:	c4 48       	sbci	r28, 0x84	; 132
     1f9:	e5 58       	subi	r30, 0x85	; 133
     1fb:	86 68       	ori	r24, 0x86	; 134
     1fd:	a7 78       	andi	r26, 0x87	; 135
     1ff:	40 08       	sbc	r4, r0
     201:	61 18       	sub	r6, r1
     203:	02 28       	or	r0, r2
     205:	23 38       	cpi	r18, 0x83	; 131
     207:	cc c9       	rjmp	.-3176   	; 0xfffff5a1
     209:	ed d9       	rcall	.-3110   	; 0xfffff5e5
     20b:	8e e9       	ldi	r24, 0x9E	; 158
     20d:	af f9       	.word	0xf9af	; ????
     20f:	48 89       	ldd	r20, Y+16	; 0x10
     211:	69 99       	sbic	0x0d, 1	; 13
     213:	0a a9       	ldd	r16, Y+50	; 0x32
     215:	2b b9       	out	0x0b, r18	; 11
     217:	f5 5a       	subi	r31, 0xA5	; 165
     219:	d4 4a       	sbci	r29, 0xA4	; 164
     21b:	b7 7a       	andi	r27, 0xA7	; 167
     21d:	96 6a       	ori	r25, 0xA6	; 166
     21f:	71 1a       	sub	r7, r17
     221:	50 0a       	sbc	r5, r16
     223:	33 3a       	cpi	r19, 0xA3	; 163
     225:	12 2a       	or	r1, r18
     227:	fd db       	rcall	.-2054   	; 0xfffffa23
     229:	dc cb       	rjmp	.-2120   	; 0xfffff9e3
     22b:	bf fb       	.word	0xfbbf	; ????
     22d:	9e eb       	ldi	r25, 0xBE	; 190
     22f:	79 9b       	sbis	0x0f, 1	; 15
     231:	58 8b       	std	Y+16, r21	; 0x10
     233:	3b bb       	out	0x1b, r19	; 27
     235:	1a ab       	std	Y+50, r17	; 0x32
     237:	a6 6c       	ori	r26, 0xC6	; 198
     239:	87 7c       	andi	r24, 0xC7	; 199
     23b:	e4 4c       	sbci	r30, 0xC4	; 196
     23d:	c5 5c       	subi	r28, 0xC5	; 197
     23f:	22 2c       	mov	r2, r2
     241:	03 3c       	cpi	r16, 0xC3	; 195
     243:	60 0c       	add	r6, r0
     245:	41 1c       	adc	r4, r1
     247:	ae ed       	ldi	r26, 0xDE	; 222
     249:	8f fd       	.word	0xfd8f	; ????
     24b:	ec cd       	rjmp	.-1064   	; 0xfffffe25
     24d:	cd dd       	rcall	.-1126   	; 0xfffffde9
     24f:	2a ad       	ldd	r18, Y+58	; 0x3a
     251:	0b bd       	out	0x2b, r16	; 43
     253:	68 8d       	ldd	r22, Y+24	; 0x18
     255:	49 9d       	mul	r20, r9
     257:	97 7e       	andi	r25, 0xE7	; 231
     259:	b6 6e       	ori	r27, 0xE6	; 230
     25b:	d5 5e       	subi	r29, 0xE5	; 229
     25d:	f4 4e       	sbci	r31, 0xE4	; 228
     25f:	13 3e       	cpi	r17, 0xE3	; 227
     261:	32 2e       	mov	r3, r18
     263:	51 1e       	adc	r5, r17
     265:	70 0e       	add	r7, r16
     267:	9f ff       	.word	0xff9f	; ????
     269:	be ef       	ldi	r27, 0xFE	; 254
     26b:	dd df       	rcall	.-70     	; 0x227
     26d:	fc cf       	rjmp	.-8      	; 0x267
     26f:	1b bf       	out	0x3b, r17	; 59
     271:	3a af       	std	Y+58, r19	; 0x3a
     273:	59 9f       	mul	r21, r25
     275:	78 8f       	std	Y+24, r23	; 0x18
     277:	88 91       	.word	0x9188	; ????
     279:	a9 81       	ldd	r26, Y+1	; 0x01
     27b:	ca b1       	in	r28, 0x0a	; 10
     27d:	eb a1       	ldd	r30, Y+35	; 0x23
     27f:	0c d1       	rcall	.+536    	; 0x499
     281:	2d c1       	rjmp	.+602    	; 0x4dd
     283:	4e f1       	brts	.+82     	; 0x2d7
     285:	6f e1       	ldi	r22, 0x1F	; 31
     287:	80 10       	cpse	r8, r0
     289:	a1 00       	.word	0x00a1	; ????
     28b:	c2 30       	cpi	r28, 0x02	; 2
     28d:	e3 20       	and	r14, r3
     28f:	04 50       	subi	r16, 0x04	; 4
     291:	25 40       	sbci	r18, 0x05	; 5
     293:	46 70       	andi	r20, 0x06	; 6
     295:	67 60       	ori	r22, 0x07	; 7
     297:	b9 83       	std	Y+1, r27	; 0x01
     299:	98 93       	.word	0x9398	; ????
     29b:	fb a3       	std	Y+35, r31	; 0x23
     29d:	da b3       	in	r29, 0x1a	; 26
     29f:	3d c3       	rjmp	.+1658   	; 0x91b
     2a1:	1c d3       	rcall	.+1592   	; 0x8db
     2a3:	7f e3       	ldi	r23, 0x3F	; 63
     2a5:	5e f3       	brts	.-42     	; 0x27d
     2a7:	b1 02       	muls	r27, r17
     2a9:	90 12       	cpse	r9, r16
     2ab:	f3 22       	and	r15, r19
     2ad:	d2 32       	cpi	r29, 0x22	; 34
     2af:	35 42       	sbci	r19, 0x25	; 37
     2b1:	14 52       	subi	r17, 0x24	; 36
     2b3:	77 62       	ori	r23, 0x27	; 39
     2b5:	56 72       	andi	r21, 0x26	; 38
     2b7:	ea b5       	in	r30, 0x2a	; 42
     2b9:	cb a5       	ldd	r28, Y+43	; 0x2b
     2bb:	a8 95       	wdr
     2bd:	89 85       	ldd	r24, Y+9	; 0x09
     2bf:	6e f5       	brtc	.+90     	; 0x31b
     2c1:	4f e5       	ldi	r20, 0x5F	; 95
     2c3:	2c d5       	rcall	.+2648   	; 0xd1d
     2c5:	0d c5       	rjmp	.+2586   	; 0xce1
     2c7:	e2 34       	cpi	r30, 0x42	; 66
     2c9:	c3 24       	eor	r12, r3
     2cb:	a0 14       	cp	r10, r0
     2cd:	81 04       	cpc	r8, r1
     2cf:	66 74       	andi	r22, 0x46	; 70
     2d1:	47 64       	ori	r20, 0x47	; 71
     2d3:	24 54       	subi	r18, 0x44	; 68
     2d5:	05 44       	sbci	r16, 0x45	; 69
     2d7:	db a7       	std	Y+43, r29	; 0x2b
     2d9:	fa b7       	in	r31, 0x3a	; 58
     2db:	99 87       	std	Y+9, r25	; 0x09
     2dd:	b8 97       	sbiw	r30, 0x28	; 40
     2df:	5f e7       	ldi	r21, 0x7F	; 127
     2e1:	7e f7       	brtc	.-34     	; 0x2c1
     2e3:	1d c7       	rjmp	.+3642   	; 0x111f
     2e5:	3c d7       	rcall	.+3704   	; 0x115f
     2e7:	d3 26       	eor	r13, r19
     2e9:	f2 36       	cpi	r31, 0x62	; 98
     2eb:	91 06       	cpc	r9, r17
     2ed:	b0 16       	cp	r11, r16
     2ef:	57 66       	ori	r21, 0x67	; 103
     2f1:	76 76       	andi	r23, 0x66	; 102
     2f3:	15 46       	sbci	r17, 0x65	; 101
     2f5:	34 56       	subi	r19, 0x64	; 100
     2f7:	4c d9       	rcall	.-3432   	; 0xfffff591
     2f9:	6d c9       	rjmp	.-3366   	; 0xfffff5d5
     2fb:	0e f9       	.word	0xf90e	; ????
     2fd:	2f e9       	ldi	r18, 0x9F	; 159
     2ff:	c8 99       	sbic	0x19, 0	; 25
     301:	e9 89       	ldd	r30, Y+17	; 0x11
     303:	8a b9       	out	0x0a, r24	; 10
     305:	ab a9       	ldd	r26, Y+51	; 0x33
     307:	44 58       	subi	r20, 0x84	; 132
     309:	65 48       	sbci	r22, 0x85	; 133
     30b:	06 78       	andi	r16, 0x86	; 134
     30d:	27 68       	ori	r18, 0x87	; 135
     30f:	c0 18       	sub	r12, r0
     311:	e1 08       	sbc	r14, r1
     313:	82 38       	cpi	r24, 0x82	; 130
     315:	a3 28       	or	r10, r3
     317:	7d cb       	rjmp	.-2310   	; 0xfffffa13
     319:	5c db       	rcall	.-2376   	; 0xfffff9d3
     31b:	3f eb       	ldi	r19, 0xBF	; 191
     31d:	1e fb       	.word	0xfb1e	; ????
     31f:	f9 8b       	std	Y+17, r31	; 0x11
     321:	d8 9b       	sbis	0x1b, 0	; 27
     323:	bb ab       	std	Y+51, r27	; 0x33
     325:	9a bb       	out	0x1a, r25	; 26
     327:	75 4a       	sbci	r23, 0xA5	; 165
     329:	54 5a       	subi	r21, 0xA4	; 164
     32b:	37 6a       	ori	r19, 0xA7	; 167
     32d:	16 7a       	andi	r17, 0xA6	; 166
     32f:	f1 0a       	sbc	r15, r17
     331:	d0 1a       	sub	r13, r16
     333:	b3 2a       	or	r11, r19
     335:	92 3a       	cpi	r25, 0xA2	; 162
     337:	2e fd       	.word	0xfd2e	; ????
     339:	0f ed       	ldi	r16, 0xDF	; 223
     33b:	6c dd       	rcall	.-1320   	; 0xfffffe15
     33d:	4d cd       	rjmp	.-1382   	; 0xfffffdd9
     33f:	aa bd       	out	0x2a, r26	; 42
     341:	8b ad       	ldd	r24, Y+59	; 0x3b
     343:	e8 9d       	mul	r30, r8
     345:	c9 8d       	ldd	r28, Y+25	; 0x19
     347:	26 7c       	andi	r18, 0xC6	; 198
     349:	07 6c       	ori	r16, 0xC7	; 199
     34b:	64 5c       	subi	r22, 0xC4	; 196
     34d:	45 4c       	sbci	r20, 0xC5	; 197
     34f:	a2 3c       	cpi	r26, 0xC2	; 194
     351:	83 2c       	mov	r8, r3
     353:	e0 1c       	adc	r14, r0
     355:	c1 0c       	add	r12, r1
     357:	1f ef       	ldi	r17, 0xFF	; 255
     359:	3e ff       	.word	0xff3e	; ????
     35b:	5d cf       	rjmp	.-326    	; 0x217
     35d:	7c df       	rcall	.-264    	; 0x257
     35f:	9b af       	std	Y+59, r25	; 0x3b
     361:	ba bf       	out	0x3a, r27	; 58
     363:	d9 8f       	std	Y+25, r29	; 0x19
     365:	f8 9f       	mul	r31, r24
     367:	17 6e       	ori	r17, 0xE7	; 231
     369:	36 7e       	andi	r19, 0xE6	; 230
     36b:	55 4e       	sbci	r21, 0xE5	; 229
     36d:	74 5e       	subi	r23, 0xE4	; 228
     36f:	93 2e       	mov	r9, r19
     371:	b2 3e       	cpi	r27, 0xE2	; 226
     373:	d1 0e       	add	r13, r17
     375:	f0 1e       	adc	r15, r16
     377:	00 11       	cpse	r16, r0

00000378 <__init>:
     378:	11 24       	eor	r1, r1
     37a:	1f be       	out	0x3f, r1	; 63
     37c:	cf ef       	ldi	r28, 0xFF	; 255
     37e:	d0 e1       	ldi	r29, 0x10	; 16
     380:	de bf       	out	0x3e, r29	; 62
     382:	cd bf       	out	0x3d, r28	; 61

00000384 <__do_copy_data>:
     384:	12 e0       	ldi	r17, 0x02	; 2
     386:	a0 e0       	ldi	r26, 0x00	; 0
     388:	b1 e0       	ldi	r27, 0x01	; 1
     38a:	ec e5       	ldi	r30, 0x5C	; 92
     38c:	f0 e4       	ldi	r31, 0x40	; 64
     38e:	00 e0       	ldi	r16, 0x00	; 0
     390:	0b bf       	out	0x3b, r16	; 59
     392:	02 c0       	rjmp	.+4      	; 0x398

00000394 <.__do_copy_data_loop>:
     394:	07 90       	elpm	r0, Z+
     396:	0d 92       	st	X+, r0

00000398 <.__do_copy_data_start>:
     398:	a6 31       	cpi	r26, 0x16	; 22
     39a:	b1 07       	cpc	r27, r17
     39c:	d9 f7       	brne	.-10     	; 0x394

0000039e <__do_clear_bss>:
     39e:	15 e0       	ldi	r17, 0x05	; 5
     3a0:	a6 e1       	ldi	r26, 0x16	; 22
     3a2:	b2 e0       	ldi	r27, 0x02	; 2
     3a4:	01 c0       	rjmp	.+2      	; 0x3a8

000003a6 <.do_clear_bss_loop>:
     3a6:	1d 92       	st	X+, r1

000003a8 <.do_clear_bss_start>:
     3a8:	ae 35       	cpi	r26, 0x5E	; 94
     3aa:	b1 07       	cpc	r27, r17
     3ac:	e1 f7       	brne	.-8      	; 0x3a6
     3ae:	0c 94 da 02 	jmp	0x5b4

000003b2 <__bad_interrupt>:
     3b2:	0c 94 00 00 	jmp	0x0

000003b6 <__vector_17>:
     3b6:	1f 92       	push	r1
     3b8:	0f 92       	push	r0
     3ba:	0f b6       	in	r0, 0x3f	; 63
     3bc:	0f 92       	push	r0
     3be:	11 24       	eor	r1, r1
     3c0:	2f 93       	push	r18
     3c2:	3f 93       	push	r19
     3c4:	4f 93       	push	r20
     3c6:	5f 93       	push	r21
     3c8:	6f 93       	push	r22
     3ca:	7f 93       	push	r23
     3cc:	8f 93       	push	r24
     3ce:	9f 93       	push	r25
     3d0:	af 93       	push	r26
     3d2:	bf 93       	push	r27
     3d4:	ef 93       	push	r30
     3d6:	ff 93       	push	r31
     3d8:	9f b1       	in	r25, 0x0f	; 15
     3da:	80 91 92 03 	lds	r24, 0x0392
     3de:	8f b9       	out	0x0f, r24	; 15
     3e0:	89 2f       	mov	r24, r25
     3e2:	0e 94 af 08 	call	0x115e
     3e6:	ff 91       	pop	r31
     3e8:	ef 91       	pop	r30
     3ea:	bf 91       	pop	r27
     3ec:	af 91       	pop	r26
     3ee:	9f 91       	pop	r25
     3f0:	8f 91       	pop	r24
     3f2:	7f 91       	pop	r23
     3f4:	6f 91       	pop	r22
     3f6:	5f 91       	pop	r21
     3f8:	4f 91       	pop	r20
     3fa:	3f 91       	pop	r19
     3fc:	2f 91       	pop	r18
     3fe:	0f 90       	pop	r0
     400:	0f be       	out	0x3f, r0	; 63
     402:	0f 90       	pop	r0
     404:	1f 90       	pop	r1
     406:	18 95       	reti

00000408 <TimerM$adjustInterval>:
     408:	af 92       	push	r10
     40a:	bf 92       	push	r11
     40c:	cf 92       	push	r12
     40e:	df 92       	push	r13
     410:	ef 92       	push	r14
     412:	ff 92       	push	r15
     414:	0f 93       	push	r16
     416:	1f 93       	push	r17
     418:	cf 93       	push	r28
     41a:	df 93       	push	r29
     41c:	86 ee       	ldi	r24, 0xE6	; 230
     41e:	f8 2e       	mov	r15, r24
     420:	a0 90 28 05 	lds	r10, 0x0528
     424:	b0 90 29 05 	lds	r11, 0x0529
     428:	c0 90 2a 05 	lds	r12, 0x052A
     42c:	d0 90 2b 05 	lds	r13, 0x052B
     430:	a1 14       	cp	r10, r1
     432:	b1 04       	cpc	r11, r1
     434:	c1 04       	cpc	r12, r1
     436:	d1 04       	cpc	r13, r1
     438:	81 f1       	breq	.+96     	; 0x49a
     43a:	ee 24       	eor	r14, r14
     43c:	64 ec       	ldi	r22, 0xC4	; 196
     43e:	73 e0       	ldi	r23, 0x03	; 3
     440:	00 e0       	ldi	r16, 0x00	; 0
     442:	10 e0       	ldi	r17, 0x00	; 0
     444:	81 e0       	ldi	r24, 0x01	; 1
     446:	90 e0       	ldi	r25, 0x00	; 0
     448:	00 2e       	mov	r0, r16
     44a:	02 c0       	rjmp	.+4      	; 0x450
     44c:	88 0f       	add	r24, r24
     44e:	99 1f       	adc	r25, r25
     450:	0a 94       	dec	r0
     452:	e2 f7       	brpl	.-8      	; 0x44c
     454:	aa 27       	eor	r26, r26
     456:	97 fd       	sbrc	r25, 7
     458:	a0 95       	com	r26
     45a:	ba 2f       	mov	r27, r26
     45c:	8a 21       	and	r24, r10
     45e:	9b 21       	and	r25, r11
     460:	ac 21       	and	r26, r12
     462:	bd 21       	and	r27, r13
     464:	00 97       	sbiw	r24, 0x00	; 0
     466:	a1 05       	cpc	r26, r1
     468:	b1 05       	cpc	r27, r1
     46a:	79 f0       	breq	.+30     	; 0x48a
     46c:	2f 2d       	mov	r18, r15
     46e:	33 27       	eor	r19, r19
     470:	44 27       	eor	r20, r20
     472:	55 27       	eor	r21, r21
     474:	fb 01       	movw	r30, r22
     476:	85 81       	ldd	r24, Z+5	; 0x05
     478:	96 81       	ldd	r25, Z+6	; 0x06
     47a:	a7 81       	ldd	r26, Z+7	; 0x07
     47c:	b0 85       	ldd	r27, Z+8	; 0x08
     47e:	82 17       	cp	r24, r18
     480:	93 07       	cpc	r25, r19
     482:	a4 07       	cpc	r26, r20
     484:	b5 07       	cpc	r27, r21
     486:	0c f4       	brge	.+2      	; 0x48a
     488:	f5 80       	ldd	r15, Z+5	; 0x05
     48a:	e3 94       	inc	r14
     48c:	0f 5f       	subi	r16, 0xFF	; 255
     48e:	1f 4f       	sbci	r17, 0xFF	; 255
     490:	67 5f       	subi	r22, 0xF7	; 247
     492:	7f 4f       	sbci	r23, 0xFF	; 255
     494:	f2 e0       	ldi	r31, 0x02	; 2
     496:	fe 15       	cp	r31, r14
     498:	a8 f6       	brcc	.-86     	; 0x444
     49a:	8f b7       	in	r24, 0x3f	; 63
     49c:	f8 94       	cli
     49e:	99 27       	eor	r25, r25
     4a0:	f0 92 fb 03 	sts	0x03FB, r15
     4a4:	f1 be       	out	0x31, r15	; 49
     4a6:	10 92 f4 03 	sts	0x03F4, r1
     4aa:	8f bf       	out	0x3f, r24	; 63
     4ac:	0e 94 1e 07 	call	0xe3c
     4b0:	df 91       	pop	r29
     4b2:	cf 91       	pop	r28
     4b4:	1f 91       	pop	r17
     4b6:	0f 91       	pop	r16
     4b8:	ff 90       	pop	r15
     4ba:	ef 90       	pop	r14
     4bc:	df 90       	pop	r13
     4be:	cf 90       	pop	r12
     4c0:	bf 90       	pop	r11
     4c2:	af 90       	pop	r10
     4c4:	08 95       	ret

000004c6 <__vector_18>:
     4c6:	1f 92       	push	r1
     4c8:	0f 92       	push	r0
     4ca:	0f b6       	in	r0, 0x3f	; 63
     4cc:	0f 92       	push	r0
     4ce:	11 24       	eor	r1, r1
     4d0:	2f 93       	push	r18
     4d2:	3f 93       	push	r19
     4d4:	4f 93       	push	r20
     4d6:	5f 93       	push	r21
     4d8:	6f 93       	push	r22
     4da:	7f 93       	push	r23
     4dc:	8f 93       	push	r24
     4de:	9f 93       	push	r25
     4e0:	af 93       	push	r26
     4e2:	bf 93       	push	r27
     4e4:	ef 93       	push	r30
     4e6:	ff 93       	push	r31
     4e8:	5f 9b       	sbis	0x0b, 7	; 11
     4ea:	06 c0       	rjmp	.+12     	; 0x4f8
     4ec:	8c b1       	in	r24, 0x0c	; 12
     4ee:	40 e0       	ldi	r20, 0x00	; 0
     4f0:	50 e0       	ldi	r21, 0x00	; 0
     4f2:	60 e0       	ldi	r22, 0x00	; 0
     4f4:	0e 94 71 19 	call	0x32e2
     4f8:	ff 91       	pop	r31
     4fa:	ef 91       	pop	r30
     4fc:	bf 91       	pop	r27
     4fe:	af 91       	pop	r26
     500:	9f 91       	pop	r25
     502:	8f 91       	pop	r24
     504:	7f 91       	pop	r23
     506:	6f 91       	pop	r22
     508:	5f 91       	pop	r21
     50a:	4f 91       	pop	r20
     50c:	3f 91       	pop	r19
     50e:	2f 91       	pop	r18
     510:	0f 90       	pop	r0
     512:	0f be       	out	0x3f, r0	; 63
     514:	0f 90       	pop	r0
     516:	1f 90       	pop	r1
     518:	18 95       	reti

0000051a <__vector_20>:
     51a:	78 94       	sei
     51c:	1f 92       	push	r1
     51e:	0f 92       	push	r0
     520:	0f b6       	in	r0, 0x3f	; 63
     522:	0f 92       	push	r0
     524:	11 24       	eor	r1, r1
     526:	2f 93       	push	r18
     528:	3f 93       	push	r19
     52a:	4f 93       	push	r20
     52c:	5f 93       	push	r21
     52e:	6f 93       	push	r22
     530:	7f 93       	push	r23
     532:	8f 93       	push	r24
     534:	9f 93       	push	r25
     536:	af 93       	push	r26
     538:	bf 93       	push	r27
     53a:	ef 93       	push	r30
     53c:	ff 93       	push	r31
     53e:	0e 94 3d 1b 	call	0x367a
     542:	ff 91       	pop	r31
     544:	ef 91       	pop	r30
     546:	bf 91       	pop	r27
     548:	af 91       	pop	r26
     54a:	9f 91       	pop	r25
     54c:	8f 91       	pop	r24
     54e:	7f 91       	pop	r23
     550:	6f 91       	pop	r22
     552:	5f 91       	pop	r21
     554:	4f 91       	pop	r20
     556:	3f 91       	pop	r19
     558:	2f 91       	pop	r18
     55a:	0f 90       	pop	r0
     55c:	0f be       	out	0x3f, r0	; 63
     55e:	0f 90       	pop	r0
     560:	1f 90       	pop	r1
     562:	18 95       	reti

00000564 <TOS_post>:
     564:	ac 01       	movw	r20, r24
     566:	8f b7       	in	r24, 0x3f	; 63
     568:	f8 94       	cli
     56a:	28 2f       	mov	r18, r24
     56c:	33 27       	eor	r19, r19
     56e:	e0 91 f1 03 	lds	r30, 0x03F1
     572:	80 91 f1 03 	lds	r24, 0x03F1
     576:	8f 5f       	subi	r24, 0xFF	; 255
     578:	80 93 f1 03 	sts	0x03F1, r24
     57c:	80 91 f1 03 	lds	r24, 0x03F1
     580:	87 70       	andi	r24, 0x07	; 7
     582:	80 93 f1 03 	sts	0x03F1, r24
     586:	90 91 f1 03 	lds	r25, 0x03F1
     58a:	80 91 b6 03 	lds	r24, 0x03B6
     58e:	98 17       	cp	r25, r24
     590:	59 f0       	breq	.+22     	; 0x5a8
     592:	2f bf       	out	0x3f, r18	; 63
     594:	ff 27       	eor	r31, r31
     596:	ee 0f       	add	r30, r30
     598:	ff 1f       	adc	r31, r31
     59a:	e3 58       	subi	r30, 0x83	; 131
     59c:	fc 4f       	sbci	r31, 0xFC	; 252
     59e:	40 83       	st	Z, r20
     5a0:	51 83       	std	Z+1, r21	; 0x01
     5a2:	81 e0       	ldi	r24, 0x01	; 1
     5a4:	90 e0       	ldi	r25, 0x00	; 0
     5a6:	08 95       	ret
     5a8:	e0 93 f1 03 	sts	0x03F1, r30
     5ac:	2f bf       	out	0x3f, r18	; 63
     5ae:	80 e0       	ldi	r24, 0x00	; 0
     5b0:	90 e0       	ldi	r25, 0x00	; 0
     5b2:	08 95       	ret

000005b4 <main>:
     5b4:	cf ee       	ldi	r28, 0xEF	; 239
     5b6:	d0 e1       	ldi	r29, 0x10	; 16
     5b8:	de bf       	out	0x3e, r29	; 62
     5ba:	cd bf       	out	0x3d, r28	; 61
     5bc:	d2 9a       	sbi	0x1a, 2	; 26
     5be:	d0 9a       	sbi	0x1a, 0	; 26
     5c0:	d1 9a       	sbi	0x1a, 1	; 26
     5c2:	d6 98       	cbi	0x1a, 6	; 26
     5c4:	a7 9a       	sbi	0x14, 7	; 20
     5c6:	a6 9a       	sbi	0x14, 6	; 20
     5c8:	a5 9a       	sbi	0x14, 5	; 20
     5ca:	a4 9a       	sbi	0x14, 4	; 20
     5cc:	a3 9a       	sbi	0x14, 3	; 20
     5ce:	a2 9a       	sbi	0x14, 2	; 20
     5d0:	a1 9a       	sbi	0x14, 1	; 20
     5d2:	a0 9a       	sbi	0x14, 0	; 20
     5d4:	8c 9a       	sbi	0x11, 4	; 17
     5d6:	8f 9a       	sbi	0x11, 7	; 17
     5d8:	8e 9a       	sbi	0x11, 6	; 17
     5da:	bb 98       	cbi	0x17, 3	; 23
     5dc:	bf 98       	cbi	0x17, 7	; 23
     5de:	d4 98       	cbi	0x1a, 4	; 26
     5e0:	dc 98       	cbi	0x1b, 4	; 27
     5e2:	d3 9a       	sbi	0x1a, 3	; 26
     5e4:	8b 9a       	sbi	0x11, 3	; 17
     5e6:	8d 9a       	sbi	0x11, 5	; 17
     5e8:	db 9a       	sbi	0x1b, 3	; 27
     5ea:	da 9a       	sbi	0x1b, 2	; 27
     5ec:	d8 9a       	sbi	0x1b, 0	; 27
     5ee:	d9 9a       	sbi	0x1b, 1	; 27
     5f0:	83 e0       	ldi	r24, 0x03	; 3
     5f2:	8c 5f       	subi	r24, 0xFC	; 252
     5f4:	87 39       	cpi	r24, 0x97	; 151
     5f6:	e8 f3       	brcs	.-6      	; 0x5f2
     5f8:	10 e0       	ldi	r17, 0x00	; 0
     5fa:	8a e0       	ldi	r24, 0x0A	; 10
     5fc:	80 93 6c 03 	sts	0x036C, r24
     600:	10 93 f1 03 	sts	0x03F1, r17
     604:	10 93 b6 03 	sts	0x03B6, r17
     608:	8f b7       	in	r24, 0x3f	; 63
     60a:	f8 94       	cli
     60c:	99 27       	eor	r25, r25
     60e:	10 93 4d 04 	sts	0x044D, r17
     612:	da 9a       	sbi	0x1b, 2	; 27
     614:	d8 9a       	sbi	0x1b, 0	; 27
     616:	d9 9a       	sbi	0x1b, 1	; 27
     618:	8f bf       	out	0x3f, r24	; 63
     61a:	10 93 12 04 	sts	0x0412, r17
     61e:	80 e1       	ldi	r24, 0x10	; 16
     620:	de 01       	movw	r26, r28
     622:	11 96       	adiw	r26, 0x01	; 1
     624:	e6 e0       	ldi	r30, 0x06	; 6
     626:	f2 e0       	ldi	r31, 0x02	; 2
     628:	01 90       	ld	r0, Z+
     62a:	0d 92       	st	X+, r0
     62c:	8a 95       	dec	r24
     62e:	e1 f7       	brne	.-8      	; 0x628
     630:	48 e0       	ldi	r20, 0x08	; 8
     632:	50 e0       	ldi	r21, 0x00	; 0
     634:	be 01       	movw	r22, r28
     636:	6f 5f       	subi	r22, 0xFF	; 255
     638:	7f 4f       	sbci	r23, 0xFF	; 255
     63a:	8c ef       	ldi	r24, 0xFC	; 252
     63c:	93 e0       	ldi	r25, 0x03	; 3
     63e:	0e 94 cc 05 	call	0xb98
     642:	48 e0       	ldi	r20, 0x08	; 8
     644:	50 e0       	ldi	r21, 0x00	; 0
     646:	be 01       	movw	r22, r28
     648:	67 5f       	subi	r22, 0xF7	; 247
     64a:	7f 4f       	sbci	r23, 0xFF	; 255
     64c:	89 eb       	ldi	r24, 0xB9	; 185
     64e:	93 e0       	ldi	r25, 0x03	; 3
     650:	0e 94 cc 05 	call	0xb98
     654:	28 e0       	ldi	r18, 0x08	; 8
     656:	30 e0       	ldi	r19, 0x00	; 0
     658:	8f b7       	in	r24, 0x3f	; 63
     65a:	f8 94       	cli
     65c:	48 2f       	mov	r20, r24
     65e:	20 93 c3 03 	sts	0x03C3, r18
     662:	10 93 1a 03 	sts	0x031A, r17
     666:	10 93 1b 03 	sts	0x031B, r17
     66a:	81 e1       	ldi	r24, 0x11	; 17
     66c:	80 93 df 03 	sts	0x03DF, r24
     670:	84 e1       	ldi	r24, 0x14	; 20
     672:	80 93 47 04 	sts	0x0447, r24
     676:	10 93 81 04 	sts	0x0481, r17
     67a:	10 93 82 04 	sts	0x0482, r17
     67e:	10 93 1e 03 	sts	0x031E, r17
     682:	e3 e2       	ldi	r30, 0x23	; 35
     684:	f3 e0       	ldi	r31, 0x03	; 3
     686:	11 92       	st	Z+, r1
     688:	21 50       	subi	r18, 0x01	; 1
     68a:	30 40       	sbci	r19, 0x00	; 0
     68c:	e1 f7       	brne	.-8      	; 0x686
     68e:	08 e0       	ldi	r16, 0x08	; 8
     690:	10 e0       	ldi	r17, 0x00	; 0
     692:	80 91 00 01 	lds	r24, 0x0100
     696:	90 91 01 01 	lds	r25, 0x0101
     69a:	80 93 25 03 	sts	0x0325, r24
     69e:	89 2f       	mov	r24, r25
     6a0:	99 0f       	add	r25, r25
     6a2:	99 0b       	sbc	r25, r25
     6a4:	80 93 26 03 	sts	0x0326, r24
     6a8:	4f bf       	out	0x3f, r20	; 63
     6aa:	00 93 10 03 	sts	0x0310, r16
     6ae:	40 2f       	mov	r20, r16
     6b0:	6c ef       	ldi	r22, 0xFC	; 252
     6b2:	73 e0       	ldi	r23, 0x03	; 3
     6b4:	80 e8       	ldi	r24, 0x80	; 128
     6b6:	92 e0       	ldi	r25, 0x02	; 2
     6b8:	0e 94 df 05 	call	0xbbe
     6bc:	e8 2e       	mov	r14, r24
     6be:	ff 24       	eor	r15, r15
     6c0:	40 2f       	mov	r20, r16
     6c2:	69 eb       	ldi	r22, 0xB9	; 185
     6c4:	73 e0       	ldi	r23, 0x03	; 3
     6c6:	8a e9       	ldi	r24, 0x9A	; 154
     6c8:	94 e0       	ldi	r25, 0x04	; 4
     6ca:	0e 94 df 05 	call	0xbbe
     6ce:	ee 20       	and	r14, r14
     6d0:	11 f0       	breq	.+4      	; 0x6d6
     6d2:	99 27       	eor	r25, r25
     6d4:	02 c0       	rjmp	.+4      	; 0x6da
     6d6:	80 e0       	ldi	r24, 0x00	; 0
     6d8:	90 e0       	ldi	r25, 0x00	; 0
     6da:	88 23       	and	r24, r24
     6dc:	19 f0       	breq	.+6      	; 0x6e4
     6de:	81 e0       	ldi	r24, 0x01	; 1
     6e0:	90 e0       	ldi	r25, 0x00	; 0
     6e2:	02 c0       	rjmp	.+4      	; 0x6e8
     6e4:	80 e0       	ldi	r24, 0x00	; 0
     6e6:	90 e0       	ldi	r25, 0x00	; 0
     6e8:	88 23       	and	r24, r24
     6ea:	41 f0       	breq	.+16     	; 0x6fc
     6ec:	8f b7       	in	r24, 0x3f	; 63
     6ee:	f8 94       	cli
     6f0:	28 2f       	mov	r18, r24
     6f2:	33 27       	eor	r19, r19
     6f4:	81 e0       	ldi	r24, 0x01	; 1
     6f6:	80 93 38 03 	sts	0x0338, r24
     6fa:	2f bf       	out	0x3f, r18	; 63
     6fc:	8f b7       	in	r24, 0x3f	; 63
     6fe:	f8 94       	cli
     700:	08 2f       	mov	r16, r24
     702:	0e 94 07 06 	call	0xc0e
     706:	0e 94 36 06 	call	0xc6c
     70a:	8f b7       	in	r24, 0x3f	; 63
     70c:	f8 94       	cli
     70e:	99 27       	eor	r25, r25
     710:	10 92 f6 03 	sts	0x03F6, r1
     714:	8f bf       	out	0x3f, r24	; 63
     716:	8f b7       	in	r24, 0x3f	; 63
     718:	f8 94       	cli
     71a:	28 2f       	mov	r18, r24
     71c:	33 27       	eor	r19, r19
     71e:	81 e0       	ldi	r24, 0x01	; 1
     720:	90 e0       	ldi	r25, 0x00	; 0
     722:	80 93 75 03 	sts	0x0375, r24
     726:	82 e0       	ldi	r24, 0x02	; 2
     728:	80 93 96 04 	sts	0x0496, r24
     72c:	8c e3       	ldi	r24, 0x3C	; 60
     72e:	93 e0       	ldi	r25, 0x03	; 3
     730:	90 93 37 03 	sts	0x0337, r25
     734:	80 93 36 03 	sts	0x0336, r24
     738:	10 92 3f 03 	sts	0x033F, r1
     73c:	85 e2       	ldi	r24, 0x25	; 37
     73e:	90 e0       	ldi	r25, 0x00	; 0
     740:	90 93 49 04 	sts	0x0449, r25
     744:	80 93 48 04 	sts	0x0448, r24
     748:	10 92 f0 03 	sts	0x03F0, r1
     74c:	10 92 e1 03 	sts	0x03E1, r1
     750:	10 92 e0 03 	sts	0x03E0, r1
     754:	10 92 c2 03 	sts	0x03C2, r1
     758:	10 92 c1 03 	sts	0x03C1, r1
     75c:	10 92 20 03 	sts	0x0320, r1
     760:	10 92 1f 03 	sts	0x031F, r1
     764:	10 92 58 05 	sts	0x0558, r1
     768:	10 92 f8 03 	sts	0x03F8, r1
     76c:	10 92 ef 03 	sts	0x03EF, r1
     770:	8f ef       	ldi	r24, 0xFF	; 255
     772:	9f ef       	ldi	r25, 0xFF	; 255
     774:	90 93 19 03 	sts	0x0319, r25
     778:	80 93 18 03 	sts	0x0318, r24
     77c:	90 93 91 03 	sts	0x0391, r25
     780:	80 93 90 03 	sts	0x0390, r24
     784:	10 92 23 02 	sts	0x0223, r1
     788:	10 92 68 03 	sts	0x0368, r1
     78c:	e6 eb       	ldi	r30, 0xB6	; 182
     78e:	f0 e0       	ldi	r31, 0x00	; 0
     790:	84 91       	lpm	r24, Z
     792:	99 27       	eor	r25, r25
     794:	90 93 e3 03 	sts	0x03E3, r25
     798:	80 93 e2 03 	sts	0x03E2, r24
     79c:	2f bf       	out	0x3f, r18	; 63
     79e:	8f b7       	in	r24, 0x3f	; 63
     7a0:	f8 94       	cli
     7a2:	99 27       	eor	r25, r25
     7a4:	b9 98       	cbi	0x17, 1	; 23
     7a6:	bb 98       	cbi	0x17, 3	; 23
     7a8:	ba 98       	cbi	0x17, 2	; 23
     7aa:	6b 98       	cbi	0x0d, 3	; 13
     7ac:	6a 98       	cbi	0x0d, 2	; 13
     7ae:	6f 9a       	sbi	0x0d, 7	; 13
     7b0:	6e 9a       	sbi	0x0d, 6	; 13
     7b2:	8f bf       	out	0x3f, r24	; 63
     7b4:	d6 98       	cbi	0x1a, 6	; 26
     7b6:	8c 9a       	sbi	0x11, 4	; 17
     7b8:	8e 9a       	sbi	0x11, 6	; 17
     7ba:	8f 9a       	sbi	0x11, 7	; 17
     7bc:	94 9a       	sbi	0x12, 4	; 18
     7be:	97 9a       	sbi	0x12, 7	; 18
     7c0:	96 9a       	sbi	0x12, 6	; 18
     7c2:	6a e3       	ldi	r22, 0x3A	; 58
     7c4:	80 91 3f 03 	lds	r24, 0x033F
     7c8:	0e 94 7a 06 	call	0xcf4
     7cc:	6b e3       	ldi	r22, 0x3B	; 59
     7ce:	80 e0       	ldi	r24, 0x00	; 0
     7d0:	0e 94 7a 06 	call	0xcf4
     7d4:	80 ed       	ldi	r24, 0xD0	; 208
     7d6:	97 e0       	ldi	r25, 0x07	; 7
     7d8:	00 00       	nop
     7da:	00 00       	nop
     7dc:	00 00       	nop
     7de:	00 00       	nop
     7e0:	00 00       	nop
     7e2:	00 00       	nop
     7e4:	00 00       	nop
     7e6:	00 00       	nop
     7e8:	01 97       	sbiw	r24, 0x01	; 1
     7ea:	18 16       	cp	r1, r24
     7ec:	19 06       	cpc	r1, r25
     7ee:	a4 f3       	brlt	.-24     	; 0x7d8
     7f0:	80 e8       	ldi	r24, 0x80	; 128
     7f2:	80 93 a0 03 	sts	0x03A0, r24
     7f6:	68 2f       	mov	r22, r24
     7f8:	8b e0       	ldi	r24, 0x0B	; 11
     7fa:	0e 94 7a 06 	call	0xcf4
     7fe:	80 e9       	ldi	r24, 0x90	; 144
     800:	80 93 a2 03 	sts	0x03A2, r24
     804:	68 2f       	mov	r22, r24
     806:	84 e0       	ldi	r24, 0x04	; 4
     808:	0e 94 7a 06 	call	0xcf4
     80c:	10 92 a4 03 	sts	0x03A4, r1
     810:	8f e6       	ldi	r24, 0x6F	; 111
     812:	80 93 a5 03 	sts	0x03A5, r24
     816:	85 e5       	ldi	r24, 0x55	; 85
     818:	80 93 a6 03 	sts	0x03A6, r24
     81c:	0e 94 9e 06 	call	0xd3c
     820:	11 e0       	ldi	r17, 0x01	; 1
     822:	10 93 a8 03 	sts	0x03A8, r17
     826:	61 2f       	mov	r22, r17
     828:	83 e1       	ldi	r24, 0x13	; 19
     82a:	0e 94 7a 06 	call	0xcf4
     82e:	10 93 b3 03 	sts	0x03B3, r17
     832:	85 e9       	ldi	r24, 0x95	; 149
     834:	93 e0       	ldi	r25, 0x03	; 3
     836:	dc 01       	movw	r26, r24
     838:	11 96       	adiw	r26, 0x01	; 1
     83a:	ee eb       	ldi	r30, 0xBE	; 190
     83c:	f0 e0       	ldi	r31, 0x00	; 0
     83e:	9c 01       	movw	r18, r24
     840:	22 5e       	subi	r18, 0xE2	; 226
     842:	3f 4f       	sbci	r19, 0xFF	; 255
     844:	84 91       	lpm	r24, Z
     846:	8d 93       	st	X+, r24
     848:	31 96       	adiw	r30, 0x01	; 1
     84a:	2a 17       	cp	r18, r26
     84c:	3b 07       	cpc	r19, r27
     84e:	d4 f7       	brge	.-12     	; 0x844
     850:	0e 94 9e 06 	call	0xd3c
     854:	11 e0       	ldi	r17, 0x01	; 1
     856:	66 e9       	ldi	r22, 0x96	; 150
     858:	e6 2e       	mov	r14, r22
     85a:	63 e0       	ldi	r22, 0x03	; 3
     85c:	f6 2e       	mov	r15, r22
     85e:	f7 01       	movw	r30, r14
     860:	81 91       	ld	r24, Z+
     862:	7f 01       	movw	r14, r30
     864:	68 2f       	mov	r22, r24
     866:	81 2f       	mov	r24, r17
     868:	0e 94 7a 06 	call	0xcf4
     86c:	1f 5f       	subi	r17, 0xFF	; 255
     86e:	1d 30       	cpi	r17, 0x0D	; 13
     870:	b0 f3       	brcs	.-20     	; 0x85e
     872:	80 91 a7 03 	lds	r24, 0x03A7
     876:	68 2f       	mov	r22, r24
     878:	82 e1       	ldi	r24, 0x12	; 18
     87a:	0e 94 7a 06 	call	0xcf4
     87e:	60 e0       	ldi	r22, 0x00	; 0
     880:	8b e0       	ldi	r24, 0x0B	; 11
     882:	0e 94 7a 06 	call	0xcf4
     886:	6f e3       	ldi	r22, 0x3F	; 63
     888:	82 e4       	ldi	r24, 0x42	; 66
     88a:	0e 94 7a 06 	call	0xcf4
     88e:	61 e1       	ldi	r22, 0x11	; 17
     890:	80 e0       	ldi	r24, 0x00	; 0
     892:	0e 94 7a 06 	call	0xcf4
     896:	66 ea       	ldi	r22, 0xA6	; 166
     898:	8e e0       	ldi	r24, 0x0E	; 14
     89a:	0e 94 7a 06 	call	0xcf4
     89e:	8e e0       	ldi	r24, 0x0E	; 14
     8a0:	0e 94 b1 06 	call	0xd62
     8a4:	83 ff       	sbrs	r24, 3
     8a6:	fb cf       	rjmp	.-10     	; 0x89e
     8a8:	66 e2       	ldi	r22, 0x26	; 38
     8aa:	8e e0       	ldi	r24, 0x0E	; 14
     8ac:	0e 94 7a 06 	call	0xcf4
     8b0:	61 ee       	ldi	r22, 0xE1	; 225
     8b2:	80 e0       	ldi	r24, 0x00	; 0
     8b4:	0e 94 7a 06 	call	0xcf4
     8b8:	80 91 b2 03 	lds	r24, 0x03B2
     8bc:	68 2f       	mov	r22, r24
     8be:	89 e0       	ldi	r24, 0x09	; 9
     8c0:	0e 94 7a 06 	call	0xcf4
     8c4:	60 e0       	ldi	r22, 0x00	; 0
     8c6:	8b e0       	ldi	r24, 0x0B	; 11
     8c8:	0e 94 7a 06 	call	0xcf4
     8cc:	66 ea       	ldi	r22, 0xA6	; 166
     8ce:	8e e0       	ldi	r24, 0x0E	; 14
     8d0:	0e 94 7a 06 	call	0xcf4
     8d4:	1e e0       	ldi	r17, 0x0E	; 14
     8d6:	81 2f       	mov	r24, r17
     8d8:	0e 94 b1 06 	call	0xd62
     8dc:	83 ff       	sbrs	r24, 3
     8de:	fa cf       	rjmp	.-12     	; 0x8d4
     8e0:	66 e2       	ldi	r22, 0x26	; 38
     8e2:	81 2f       	mov	r24, r17
     8e4:	0e 94 7a 06 	call	0xcf4
     8e8:	80 e9       	ldi	r24, 0x90	; 144
     8ea:	80 93 a2 03 	sts	0x03A2, r24
     8ee:	68 2f       	mov	r22, r24
     8f0:	8d e0       	ldi	r24, 0x0D	; 13
     8f2:	0e 94 7a 06 	call	0xcf4
     8f6:	80 91 b3 03 	lds	r24, 0x03B3
     8fa:	28 2f       	mov	r18, r24
     8fc:	33 27       	eor	r19, r19
     8fe:	8f b7       	in	r24, 0x3f	; 63
     900:	f8 94       	cli
     902:	99 27       	eor	r25, r25
     904:	20 93 69 03 	sts	0x0369, r18
     908:	8f bf       	out	0x3f, r24	; 63
     90a:	0e 94 e4 06 	call	0xdc8
     90e:	8f b7       	in	r24, 0x3f	; 63
     910:	f8 94       	cli
     912:	99 27       	eor	r25, r25
     914:	10 92 85 04 	sts	0x0485, r1
     918:	8f bf       	out	0x3f, r24	; 63
     91a:	8f b7       	in	r24, 0x3f	; 63
     91c:	f8 94       	cli
     91e:	99 27       	eor	r25, r25
     920:	10 92 5d 05 	sts	0x055D, r1
     924:	10 92 5c 05 	sts	0x055C, r1
     928:	10 92 80 04 	sts	0x0480, r1
     92c:	10 92 7f 04 	sts	0x047F, r1
     930:	10 92 b8 03 	sts	0x03B8, r1
     934:	10 92 b7 03 	sts	0x03B7, r1
     938:	8f bf       	out	0x3f, r24	; 63
     93a:	0e 94 e4 06 	call	0xdc8
     93e:	8f b7       	in	r24, 0x3f	; 63
     940:	f8 94       	cli
     942:	99 27       	eor	r25, r25
     944:	16 b9       	out	0x06, r17	; 6
     946:	17 b8       	out	0x07, r1	; 7
     948:	8f bf       	out	0x3f, r24	; 63
     94a:	8f b7       	in	r24, 0x3f	; 63
     94c:	f8 94       	cli
     94e:	48 2f       	mov	r20, r24
     950:	55 27       	eor	r21, r21
     952:	20 91 00 01 	lds	r18, 0x0100
     956:	30 91 01 01 	lds	r19, 0x0101
     95a:	81 e5       	ldi	r24, 0x51	; 81
     95c:	97 e3       	ldi	r25, 0x37	; 55
     95e:	28 9f       	mul	r18, r24
     960:	b0 01       	movw	r22, r0
     962:	29 9f       	mul	r18, r25
     964:	70 0d       	add	r23, r0
     966:	38 9f       	mul	r19, r24
     968:	70 0d       	add	r23, r0
     96a:	11 24       	eor	r1, r1
     96c:	cb 01       	movw	r24, r22
     96e:	8f 5a       	subi	r24, 0xAF	; 175
     970:	98 4c       	sbci	r25, 0xC8	; 200
     972:	90 93 11 04 	sts	0x0411, r25
     976:	80 93 10 04 	sts	0x0410, r24
     97a:	90 93 5a 05 	sts	0x055A, r25
     97e:	80 93 59 05 	sts	0x0559, r24
     982:	85 e8       	ldi	r24, 0x85	; 133
     984:	9f e0       	ldi	r25, 0x0F	; 15
     986:	28 9f       	mul	r18, r24
     988:	f0 01       	movw	r30, r0
     98a:	29 9f       	mul	r18, r25
     98c:	f0 0d       	add	r31, r0
     98e:	38 9f       	mul	r19, r24
     990:	f0 0d       	add	r31, r0
     992:	11 24       	eor	r1, r1
     994:	cf 01       	movw	r24, r30
     996:	8b 57       	subi	r24, 0x7B	; 123
     998:	90 4f       	sbci	r25, 0xF0	; 240
     99a:	90 93 6e 03 	sts	0x036E, r25
     99e:	80 93 6d 03 	sts	0x036D, r24
     9a2:	4f bf       	out	0x3f, r20	; 63
     9a4:	0e 94 07 06 	call	0xc0e
     9a8:	80 91 00 01 	lds	r24, 0x0100
     9ac:	90 91 01 01 	lds	r25, 0x0101
     9b0:	90 93 f3 03 	sts	0x03F3, r25
     9b4:	80 93 f2 03 	sts	0x03F2, r24
     9b8:	10 92 7a 03 	sts	0x037A, r1
     9bc:	10 92 71 03 	sts	0x0371, r1
     9c0:	10 92 70 03 	sts	0x0370, r1
     9c4:	10 92 e9 03 	sts	0x03E9, r1
     9c8:	10 92 e8 03 	sts	0x03E8, r1
     9cc:	0f bf       	out	0x3f, r16	; 63
     9ce:	10 92 14 04 	sts	0x0414, r1
     9d2:	10 92 13 04 	sts	0x0413, r1
     9d6:	0e 94 07 06 	call	0xc0e
     9da:	0e 94 36 06 	call	0xc6c
     9de:	10 92 90 00 	sts	0x0090, r1
     9e2:	8f e0       	ldi	r24, 0x0F	; 15
     9e4:	89 b9       	out	0x09, r24	; 9
     9e6:	72 e0       	ldi	r23, 0x02	; 2
     9e8:	7b b9       	out	0x0b, r23	; 11
     9ea:	86 e0       	ldi	r24, 0x06	; 6
     9ec:	80 93 95 00 	sts	0x0095, r24
     9f0:	88 ed       	ldi	r24, 0xD8	; 216
     9f2:	8a b9       	out	0x0a, r24	; 10
     9f4:	8f b7       	in	r24, 0x3f	; 63
     9f6:	f8 94       	cli
     9f8:	99 27       	eor	r25, r25
     9fa:	60 91 75 03 	lds	r22, 0x0375
     9fe:	8f bf       	out	0x3f, r24	; 63
     a00:	61 30       	cpi	r22, 0x01	; 1
     a02:	09 f0       	breq	.+2      	; 0xa06
     a04:	7f c0       	rjmp	.+254    	; 0xb04
     a06:	8f b7       	in	r24, 0x3f	; 63
     a08:	f8 94       	cli
     a0a:	48 2f       	mov	r20, r24
     a0c:	55 27       	eor	r21, r21
     a0e:	e0 91 36 03 	lds	r30, 0x0336
     a12:	f0 91 37 03 	lds	r31, 0x0337
     a16:	13 82       	std	Z+3, r1	; 0x03
     a18:	70 93 75 03 	sts	0x0375, r23
     a1c:	10 92 f8 03 	sts	0x03F8, r1
     a20:	10 92 58 05 	sts	0x0558, r1
     a24:	8f ef       	ldi	r24, 0xFF	; 255
     a26:	9f ef       	ldi	r25, 0xFF	; 255
     a28:	90 93 19 03 	sts	0x0319, r25
     a2c:	80 93 18 03 	sts	0x0318, r24
     a30:	80 91 23 02 	lds	r24, 0x0223
     a34:	99 27       	eor	r25, r25
     a36:	88 0f       	add	r24, r24
     a38:	99 1f       	adc	r25, r25
     a3a:	fc 01       	movw	r30, r24
     a3c:	e4 57       	subi	r30, 0x74	; 116
     a3e:	ff 4f       	sbci	r31, 0xFF	; 255
     a40:	24 91       	lpm	r18, Z
     a42:	33 27       	eor	r19, r19
     a44:	32 2f       	mov	r19, r18
     a46:	22 27       	eor	r18, r18
     a48:	83 57       	subi	r24, 0x73	; 115
     a4a:	9f 4f       	sbci	r25, 0xFF	; 255
     a4c:	fc 01       	movw	r30, r24
     a4e:	84 91       	lpm	r24, Z
     a50:	99 27       	eor	r25, r25
     a52:	28 2b       	or	r18, r24
     a54:	39 2b       	or	r19, r25
     a56:	30 93 98 04 	sts	0x0498, r19
     a5a:	20 93 97 04 	sts	0x0497, r18
     a5e:	4f bf       	out	0x3f, r20	; 63
     a60:	80 91 68 03 	lds	r24, 0x0368
     a64:	88 23       	and	r24, r24
     a66:	69 f5       	brne	.+90     	; 0xac2
     a68:	6b e3       	ldi	r22, 0x3B	; 59
     a6a:	0e 94 7a 06 	call	0xcf4
     a6e:	80 ed       	ldi	r24, 0xD0	; 208
     a70:	97 e0       	ldi	r25, 0x07	; 7
     a72:	00 00       	nop
     a74:	00 00       	nop
     a76:	00 00       	nop
     a78:	00 00       	nop
     a7a:	00 00       	nop
     a7c:	00 00       	nop
     a7e:	00 00       	nop
     a80:	00 00       	nop
     a82:	01 97       	sbiw	r24, 0x01	; 1
     a84:	18 16       	cp	r1, r24
     a86:	19 06       	cpc	r1, r25
     a88:	a4 f3       	brlt	.-24     	; 0xa72
     a8a:	69 e3       	ldi	r22, 0x39	; 57
     a8c:	80 e0       	ldi	r24, 0x00	; 0
     a8e:	0e 94 7a 06 	call	0xcf4
     a92:	88 ec       	ldi	r24, 0xC8	; 200
     a94:	90 e0       	ldi	r25, 0x00	; 0
     a96:	00 00       	nop
     a98:	00 00       	nop
     a9a:	00 00       	nop
     a9c:	00 00       	nop
     a9e:	00 00       	nop
     aa0:	00 00       	nop
     aa2:	00 00       	nop
     aa4:	00 00       	nop
     aa6:	01 97       	sbiw	r24, 0x01	; 1
     aa8:	18 16       	cp	r1, r24
     aaa:	19 06       	cpc	r1, r25
     aac:	a4 f3       	brlt	.-24     	; 0xa96
     aae:	bb 98       	cbi	0x17, 3	; 23
     ab0:	ba 98       	cbi	0x17, 2	; 23
     ab2:	0e 94 ff 06 	call	0xdfe
     ab6:	80 ec       	ldi	r24, 0xC0	; 192
     ab8:	8d b9       	out	0x0d, r24	; 13
     aba:	b8 98       	cbi	0x17, 0	; 23
     abc:	0e 94 1e 07 	call	0xe3c
     ac0:	21 c0       	rjmp	.+66     	; 0xb04
     ac2:	99 27       	eor	r25, r25
     ac4:	88 0f       	add	r24, r24
     ac6:	99 1f       	adc	r25, r25
     ac8:	fc 01       	movw	r30, r24
     aca:	ef 55       	subi	r30, 0x5F	; 95
     acc:	ff 4f       	sbci	r31, 0xFF	; 255
     ace:	24 91       	lpm	r18, Z
     ad0:	33 27       	eor	r19, r19
     ad2:	52 2f       	mov	r21, r18
     ad4:	44 27       	eor	r20, r20
     ad6:	8e 55       	subi	r24, 0x5E	; 94
     ad8:	9f 4f       	sbci	r25, 0xFF	; 255
     ada:	fc 01       	movw	r30, r24
     adc:	84 91       	lpm	r24, Z
     ade:	99 27       	eor	r25, r25
     ae0:	48 2b       	or	r20, r24
     ae2:	59 2b       	or	r21, r25
     ae4:	8f b7       	in	r24, 0x3f	; 63
     ae6:	f8 94       	cli
     ae8:	28 2f       	mov	r18, r24
     aea:	33 27       	eor	r19, r19
     aec:	88 e0       	ldi	r24, 0x08	; 8
     aee:	80 93 75 03 	sts	0x0375, r24
     af2:	2f bf       	out	0x3f, r18	; 63
     af4:	ca 01       	movw	r24, r20
     af6:	aa 27       	eor	r26, r26
     af8:	bb 27       	eor	r27, r27
     afa:	9c 01       	movw	r18, r24
     afc:	ad 01       	movw	r20, r26
     afe:	87 2f       	mov	r24, r23
     b00:	0e 94 30 07 	call	0xe60
     b04:	28 ee       	ldi	r18, 0xE8	; 232
     b06:	33 e0       	ldi	r19, 0x03	; 3
     b08:	40 e0       	ldi	r20, 0x00	; 0
     b0a:	50 e0       	ldi	r21, 0x00	; 0
     b0c:	60 e0       	ldi	r22, 0x00	; 0
     b0e:	81 e0       	ldi	r24, 0x01	; 1
     b10:	0e 94 30 07 	call	0xe60
     b14:	8f b7       	in	r24, 0x3f	; 63
     b16:	f8 94       	cli
     b18:	99 27       	eor	r25, r25
     b1a:	10 92 7a 03 	sts	0x037A, r1
     b1e:	8f bf       	out	0x3f, r24	; 63
     b20:	0e 94 1e 07 	call	0xe3c
     b24:	2a ef       	ldi	r18, 0xFA	; 250
     b26:	30 e0       	ldi	r19, 0x00	; 0
     b28:	40 e0       	ldi	r20, 0x00	; 0
     b2a:	50 e0       	ldi	r21, 0x00	; 0
     b2c:	60 e0       	ldi	r22, 0x00	; 0
     b2e:	86 2f       	mov	r24, r22
     b30:	0e 94 30 07 	call	0xe60
     b34:	78 94       	sei
     b36:	90 91 b6 03 	lds	r25, 0x03B6
     b3a:	80 91 f1 03 	lds	r24, 0x03F1
     b3e:	98 17       	cp	r25, r24
     b40:	19 f4       	brne	.+6      	; 0xb48
     b42:	80 e0       	ldi	r24, 0x00	; 0
     b44:	90 e0       	ldi	r25, 0x00	; 0
     b46:	1f c0       	rjmp	.+62     	; 0xb86
     b48:	8f b7       	in	r24, 0x3f	; 63
     b4a:	f8 94       	cli
     b4c:	28 2f       	mov	r18, r24
     b4e:	33 27       	eor	r19, r19
     b50:	90 91 b6 03 	lds	r25, 0x03B6
     b54:	80 91 b6 03 	lds	r24, 0x03B6
     b58:	8f 5f       	subi	r24, 0xFF	; 255
     b5a:	80 93 b6 03 	sts	0x03B6, r24
     b5e:	80 91 b6 03 	lds	r24, 0x03B6
     b62:	87 70       	andi	r24, 0x07	; 7
     b64:	80 93 b6 03 	sts	0x03B6, r24
     b68:	e9 2f       	mov	r30, r25
     b6a:	ff 27       	eor	r31, r31
     b6c:	ee 0f       	add	r30, r30
     b6e:	ff 1f       	adc	r31, r31
     b70:	e3 58       	subi	r30, 0x83	; 131
     b72:	fc 4f       	sbci	r31, 0xFC	; 252
     b74:	80 81       	ld	r24, Z
     b76:	91 81       	ldd	r25, Z+1	; 0x01
     b78:	10 82       	st	Z, r1
     b7a:	11 82       	std	Z+1, r1	; 0x01
     b7c:	2f bf       	out	0x3f, r18	; 63
     b7e:	fc 01       	movw	r30, r24
     b80:	09 95       	icall
     b82:	81 e0       	ldi	r24, 0x01	; 1
     b84:	90 e0       	ldi	r25, 0x00	; 0
     b86:	88 23       	and	r24, r24
     b88:	b1 f6       	brne	.-84     	; 0xb36
     b8a:	85 b7       	in	r24, 0x35	; 53
     b8c:	80 62       	ori	r24, 0x20	; 32
     b8e:	85 bf       	out	0x35, r24	; 53
     b90:	88 95       	sleep
     b92:	00 00       	nop
     b94:	00 00       	nop
     b96:	cf cf       	rjmp	.-98     	; 0xb36

00000b98 <nmemcpy>:
     b98:	9c 01       	movw	r18, r24
     b9a:	d9 01       	movw	r26, r18
     b9c:	fb 01       	movw	r30, r22
     b9e:	41 50       	subi	r20, 0x01	; 1
     ba0:	50 40       	sbci	r21, 0x00	; 0
     ba2:	8f ef       	ldi	r24, 0xFF	; 255
     ba4:	4f 3f       	cpi	r20, 0xFF	; 255
     ba6:	58 07       	cpc	r21, r24
     ba8:	41 f0       	breq	.+16     	; 0xbba
     baa:	81 91       	ld	r24, Z+
     bac:	8d 93       	st	X+, r24
     bae:	41 50       	subi	r20, 0x01	; 1
     bb0:	50 40       	sbci	r21, 0x00	; 0
     bb2:	8f ef       	ldi	r24, 0xFF	; 255
     bb4:	4f 3f       	cpi	r20, 0xFF	; 255
     bb6:	58 07       	cpc	r21, r24
     bb8:	c1 f7       	brne	.-16     	; 0xbaa
     bba:	c9 01       	movw	r24, r18
     bbc:	08 95       	ret

00000bbe <SkipJackM$setupKey>:
     bbe:	0f 93       	push	r16
     bc0:	1f 93       	push	r17
     bc2:	cf 93       	push	r28
     bc4:	df 93       	push	r29
     bc6:	8c 01       	movw	r16, r24
     bc8:	eb 01       	movw	r28, r22
     bca:	20 e0       	ldi	r18, 0x00	; 0
     bcc:	30 e0       	ldi	r19, 0x00	; 0
     bce:	c9 01       	movw	r24, r18
     bd0:	6a e0       	ldi	r22, 0x0A	; 10
     bd2:	70 e0       	ldi	r23, 0x00	; 0
     bd4:	0e 94 07 20 	call	0x400e
     bd8:	fc 01       	movw	r30, r24
     bda:	84 2f       	mov	r24, r20
     bdc:	99 27       	eor	r25, r25
     bde:	d8 01       	movw	r26, r16
     be0:	a2 0f       	add	r26, r18
     be2:	b3 1f       	adc	r27, r19
     be4:	2f 5f       	subi	r18, 0xFF	; 255
     be6:	3f 4f       	sbci	r19, 0xFF	; 255
     be8:	e8 17       	cp	r30, r24
     bea:	f9 07       	cpc	r31, r25
     bec:	14 f0       	brlt	.+4      	; 0xbf2
     bee:	1c 92       	st	X, r1
     bf0:	04 c0       	rjmp	.+8      	; 0xbfa
     bf2:	ec 0f       	add	r30, r28
     bf4:	fd 1f       	adc	r31, r29
     bf6:	80 81       	ld	r24, Z
     bf8:	8c 93       	st	X, r24
     bfa:	20 38       	cpi	r18, 0x80	; 128
     bfc:	31 05       	cpc	r19, r1
     bfe:	3c f3       	brlt	.-50     	; 0xbce
     c00:	81 e0       	ldi	r24, 0x01	; 1
     c02:	90 e0       	ldi	r25, 0x00	; 0
     c04:	df 91       	pop	r29
     c06:	cf 91       	pop	r28
     c08:	1f 91       	pop	r17
     c0a:	0f 91       	pop	r16
     c0c:	08 95       	ret

00000c0e <TimerM$StdControl$init>:
     c0e:	10 92 28 05 	sts	0x0528, r1
     c12:	10 92 29 05 	sts	0x0529, r1
     c16:	10 92 2a 05 	sts	0x052A, r1
     c1a:	10 92 2b 05 	sts	0x052B, r1
     c1e:	10 92 f4 03 	sts	0x03F4, r1
     c22:	8f ef       	ldi	r24, 0xFF	; 255
     c24:	80 93 57 05 	sts	0x0557, r24
     c28:	80 93 7e 02 	sts	0x027E, r24
     c2c:	10 92 7b 03 	sts	0x037B, r1
     c30:	83 e0       	ldi	r24, 0x03	; 3
     c32:	80 93 f5 03 	sts	0x03F5, r24
     c36:	96 ee       	ldi	r25, 0xE6	; 230
     c38:	90 93 fb 03 	sts	0x03FB, r25
     c3c:	8f b7       	in	r24, 0x3f	; 63
     c3e:	f8 94       	cli
     c40:	28 2f       	mov	r18, r24
     c42:	33 27       	eor	r19, r19
     c44:	87 b7       	in	r24, 0x37	; 55
     c46:	8e 7f       	andi	r24, 0xFE	; 254
     c48:	87 bf       	out	0x37, r24	; 55
     c4a:	87 b7       	in	r24, 0x37	; 55
     c4c:	8d 7f       	andi	r24, 0xFD	; 253
     c4e:	87 bf       	out	0x37, r24	; 55
     c50:	80 b7       	in	r24, 0x30	; 48
     c52:	88 60       	ori	r24, 0x08	; 8
     c54:	80 bf       	out	0x30, r24	; 48
     c56:	8b e0       	ldi	r24, 0x0B	; 11
     c58:	83 bf       	out	0x33, r24	; 51
     c5a:	12 be       	out	0x32, r1	; 50
     c5c:	91 bf       	out	0x31, r25	; 49
     c5e:	87 b7       	in	r24, 0x37	; 55
     c60:	82 60       	ori	r24, 0x02	; 2
     c62:	87 bf       	out	0x37, r24	; 55
     c64:	2f bf       	out	0x3f, r18	; 63
     c66:	81 e0       	ldi	r24, 0x01	; 1
     c68:	90 e0       	ldi	r25, 0x00	; 0
     c6a:	08 95       	ret

00000c6c <FramerM$HDLCInitialize>:
     c6c:	8f b7       	in	r24, 0x3f	; 63
     c6e:	f8 94       	cli
     c70:	68 2f       	mov	r22, r24
     c72:	80 e0       	ldi	r24, 0x00	; 0
     c74:	90 e0       	ldi	r25, 0x00	; 0
     c76:	46 e2       	ldi	r20, 0x26	; 38
     c78:	52 e0       	ldi	r21, 0x02	; 2
     c7a:	9c 01       	movw	r18, r24
     c7c:	f9 01       	movw	r30, r18
     c7e:	e8 0f       	add	r30, r24
     c80:	f9 1f       	adc	r31, r25
     c82:	ec 5f       	subi	r30, 0xFC	; 252
     c84:	fb 4f       	sbci	r31, 0xFB	; 251
     c86:	44 83       	std	Z+4, r20	; 0x04
     c88:	55 83       	std	Z+5, r21	; 0x05
     c8a:	12 82       	std	Z+2, r1	; 0x02
     c8c:	13 82       	std	Z+3, r1	; 0x03
     c8e:	11 82       	std	Z+1, r1	; 0x01
     c90:	01 96       	adiw	r24, 0x01	; 1
     c92:	2b 5f       	subi	r18, 0xFB	; 251
     c94:	3f 4f       	sbci	r19, 0xFF	; 255
     c96:	45 5d       	subi	r20, 0xD5	; 213
     c98:	5f 4f       	sbci	r21, 0xFF	; 255
     c9a:	82 30       	cpi	r24, 0x02	; 2
     c9c:	91 05       	cpc	r25, r1
     c9e:	74 f3       	brlt	.-36     	; 0xc7c
     ca0:	10 92 92 04 	sts	0x0492, r1
     ca4:	10 92 e5 03 	sts	0x03E5, r1
     ca8:	10 92 e4 03 	sts	0x03E4, r1
     cac:	10 92 6b 03 	sts	0x036B, r1
     cb0:	10 92 6a 03 	sts	0x036A, r1
     cb4:	10 92 25 02 	sts	0x0225, r1
     cb8:	10 92 24 02 	sts	0x0224, r1
     cbc:	10 92 7d 02 	sts	0x027D, r1
     cc0:	10 92 7c 02 	sts	0x027C, r1
     cc4:	10 92 91 04 	sts	0x0491, r1
     cc8:	10 92 f7 03 	sts	0x03F7, r1
     ccc:	10 92 95 04 	sts	0x0495, r1
     cd0:	10 92 74 03 	sts	0x0374, r1
     cd4:	10 92 73 03 	sts	0x0373, r1
     cd8:	10 92 8f 03 	sts	0x038F, r1
     cdc:	10 92 8e 03 	sts	0x038E, r1
     ce0:	80 91 08 04 	lds	r24, 0x0408
     ce4:	90 91 09 04 	lds	r25, 0x0409
     ce8:	90 93 4c 04 	sts	0x044C, r25
     cec:	80 93 4b 04 	sts	0x044B, r24
     cf0:	6f bf       	out	0x3f, r22	; 63
     cf2:	08 95       	ret

00000cf4 <HPLCC1000M$HPLCC1000$write>:
     cf4:	88 0f       	add	r24, r24
     cf6:	94 98       	cbi	0x12, 4	; 18
     cf8:	96 e0       	ldi	r25, 0x06	; 6
     cfa:	87 ff       	sbrs	r24, 7
     cfc:	02 c0       	rjmp	.+4      	; 0xd02
     cfe:	97 9a       	sbi	0x12, 7	; 18
     d00:	01 c0       	rjmp	.+2      	; 0xd04
     d02:	97 98       	cbi	0x12, 7	; 18
     d04:	96 98       	cbi	0x12, 6	; 18
     d06:	96 9a       	sbi	0x12, 6	; 18
     d08:	88 0f       	add	r24, r24
     d0a:	91 50       	subi	r25, 0x01	; 1
     d0c:	97 ff       	sbrs	r25, 7
     d0e:	f5 cf       	rjmp	.-22     	; 0xcfa
     d10:	97 9a       	sbi	0x12, 7	; 18
     d12:	96 98       	cbi	0x12, 6	; 18
     d14:	96 9a       	sbi	0x12, 6	; 18
     d16:	94 9a       	sbi	0x12, 4	; 18
     d18:	97 e0       	ldi	r25, 0x07	; 7
     d1a:	67 ff       	sbrs	r22, 7
     d1c:	02 c0       	rjmp	.+4      	; 0xd22
     d1e:	97 9a       	sbi	0x12, 7	; 18
     d20:	01 c0       	rjmp	.+2      	; 0xd24
     d22:	97 98       	cbi	0x12, 7	; 18
     d24:	96 98       	cbi	0x12, 6	; 18
     d26:	96 9a       	sbi	0x12, 6	; 18
     d28:	66 0f       	add	r22, r22
     d2a:	91 50       	subi	r25, 0x01	; 1
     d2c:	97 ff       	sbrs	r25, 7
     d2e:	f5 cf       	rjmp	.-22     	; 0xd1a
     d30:	94 9a       	sbi	0x12, 4	; 18
     d32:	97 9a       	sbi	0x12, 7	; 18
     d34:	96 9a       	sbi	0x12, 6	; 18
     d36:	81 e0       	ldi	r24, 0x01	; 1
     d38:	90 e0       	ldi	r25, 0x00	; 0
     d3a:	08 95       	ret

00000d3c <CC1000ControlM$cc1000SetModem>:
     d3c:	80 91 a4 03 	lds	r24, 0x03A4
     d40:	68 2f       	mov	r22, r24
     d42:	8f e0       	ldi	r24, 0x0F	; 15
     d44:	0e 94 7a 06 	call	0xcf4
     d48:	80 91 a5 03 	lds	r24, 0x03A5
     d4c:	68 2f       	mov	r22, r24
     d4e:	80 e1       	ldi	r24, 0x10	; 16
     d50:	0e 94 7a 06 	call	0xcf4
     d54:	80 91 a6 03 	lds	r24, 0x03A6
     d58:	68 2f       	mov	r22, r24
     d5a:	81 e1       	ldi	r24, 0x11	; 17
     d5c:	0e 94 7a 06 	call	0xcf4
     d60:	08 95       	ret

00000d62 <HPLCC1000M$HPLCC1000$read>:
     d62:	90 e0       	ldi	r25, 0x00	; 0
     d64:	88 0f       	add	r24, r24
     d66:	94 98       	cbi	0x12, 4	; 18
     d68:	26 e0       	ldi	r18, 0x06	; 6
     d6a:	30 e0       	ldi	r19, 0x00	; 0
     d6c:	87 ff       	sbrs	r24, 7
     d6e:	02 c0       	rjmp	.+4      	; 0xd74
     d70:	97 9a       	sbi	0x12, 7	; 18
     d72:	01 c0       	rjmp	.+2      	; 0xd76
     d74:	97 98       	cbi	0x12, 7	; 18
     d76:	96 98       	cbi	0x12, 6	; 18
     d78:	96 9a       	sbi	0x12, 6	; 18
     d7a:	88 0f       	add	r24, r24
     d7c:	21 50       	subi	r18, 0x01	; 1
     d7e:	30 40       	sbci	r19, 0x00	; 0
     d80:	37 ff       	sbrs	r19, 7
     d82:	f4 cf       	rjmp	.-24     	; 0xd6c
     d84:	27 e0       	ldi	r18, 0x07	; 7
     d86:	30 e0       	ldi	r19, 0x00	; 0
     d88:	97 98       	cbi	0x12, 7	; 18
     d8a:	96 98       	cbi	0x12, 6	; 18
     d8c:	96 9a       	sbi	0x12, 6	; 18
     d8e:	8f 98       	cbi	0x11, 7	; 17
     d90:	94 9a       	sbi	0x12, 4	; 18
     d92:	96 98       	cbi	0x12, 6	; 18
     d94:	40 e0       	ldi	r20, 0x00	; 0
     d96:	50 e0       	ldi	r21, 0x00	; 0
     d98:	87 99       	sbic	0x10, 7	; 16
     d9a:	41 e0       	ldi	r20, 0x01	; 1
     d9c:	89 2f       	mov	r24, r25
     d9e:	99 27       	eor	r25, r25
     da0:	21 50       	subi	r18, 0x01	; 1
     da2:	30 40       	sbci	r19, 0x00	; 0
     da4:	44 23       	and	r20, r20
     da6:	29 f0       	breq	.+10     	; 0xdb2
     da8:	88 0f       	add	r24, r24
     daa:	99 1f       	adc	r25, r25
     dac:	98 2f       	mov	r25, r24
     dae:	91 60       	ori	r25, 0x01	; 1
     db0:	02 c0       	rjmp	.+4      	; 0xdb6
     db2:	98 2f       	mov	r25, r24
     db4:	99 0f       	add	r25, r25
     db6:	96 9a       	sbi	0x12, 6	; 18
     db8:	37 ff       	sbrs	r19, 7
     dba:	eb cf       	rjmp	.-42     	; 0xd92
     dbc:	94 9a       	sbi	0x12, 4	; 18
     dbe:	8f 9a       	sbi	0x11, 7	; 17
     dc0:	97 9a       	sbi	0x12, 7	; 18
     dc2:	89 2f       	mov	r24, r25
     dc4:	99 27       	eor	r25, r25
     dc6:	08 95       	ret

00000dc8 <HPLADCM$init_portmap>:
     dc8:	8f b7       	in	r24, 0x3f	; 63
     dca:	f8 94       	cli
     dcc:	28 2f       	mov	r18, r24
     dce:	80 91 72 03 	lds	r24, 0x0372
     dd2:	88 23       	and	r24, r24
     dd4:	91 f4       	brne	.+36     	; 0xdfa
     dd6:	80 e0       	ldi	r24, 0x00	; 0
     dd8:	90 e0       	ldi	r25, 0x00	; 0
     dda:	e5 e8       	ldi	r30, 0x85	; 133
     ddc:	f4 e0       	ldi	r31, 0x04	; 4
     dde:	81 93       	st	Z+, r24
     de0:	01 96       	adiw	r24, 0x01	; 1
     de2:	8c 30       	cpi	r24, 0x0C	; 12
     de4:	91 05       	cpc	r25, r1
     de6:	dc f3       	brlt	.-10     	; 0xdde
     de8:	8e e1       	ldi	r24, 0x1E	; 30
     dea:	80 93 8f 04 	sts	0x048F, r24
     dee:	8f e1       	ldi	r24, 0x1F	; 31
     df0:	80 93 90 04 	sts	0x0490, r24
     df4:	81 e0       	ldi	r24, 0x01	; 1
     df6:	80 93 72 03 	sts	0x0372, r24
     dfa:	2f bf       	out	0x3f, r18	; 63
     dfc:	08 95       	ret

00000dfe <CC1000ControlM$CC1000Control$RxMode>:
     dfe:	61 e1       	ldi	r22, 0x11	; 17
     e00:	80 e0       	ldi	r24, 0x00	; 0
     e02:	0e 94 7a 06 	call	0xcf4
     e06:	80 91 9e 03 	lds	r24, 0x039E
     e0a:	68 2f       	mov	r22, r24
     e0c:	89 e0       	ldi	r24, 0x09	; 9
     e0e:	0e 94 7a 06 	call	0xcf4
     e12:	60 e0       	ldi	r22, 0x00	; 0
     e14:	8b e0       	ldi	r24, 0x0B	; 11
     e16:	0e 94 7a 06 	call	0xcf4
     e1a:	8a ef       	ldi	r24, 0xFA	; 250
     e1c:	90 e0       	ldi	r25, 0x00	; 0
     e1e:	00 00       	nop
     e20:	00 00       	nop
     e22:	00 00       	nop
     e24:	00 00       	nop
     e26:	00 00       	nop
     e28:	00 00       	nop
     e2a:	00 00       	nop
     e2c:	00 00       	nop
     e2e:	01 97       	sbiw	r24, 0x01	; 1
     e30:	18 16       	cp	r1, r24
     e32:	19 06       	cpc	r1, r25
     e34:	a4 f3       	brlt	.-24     	; 0xe1e
     e36:	81 e0       	ldi	r24, 0x01	; 1
     e38:	90 e0       	ldi	r25, 0x00	; 0
     e3a:	08 95       	ret

00000e3c <HPLPowerManagementM$PowerManagement$adjustPower>:
     e3c:	80 91 03 01 	lds	r24, 0x0103
     e40:	88 23       	and	r24, r24
     e42:	29 f4       	brne	.+10     	; 0xe4e
     e44:	80 ee       	ldi	r24, 0xE0	; 224
     e46:	9c e1       	ldi	r25, 0x1C	; 28
     e48:	0e 94 b2 02 	call	0x564
     e4c:	06 c0       	rjmp	.+12     	; 0xe5a
     e4e:	85 b7       	in	r24, 0x35	; 53
     e50:	83 7e       	andi	r24, 0xE3	; 227
     e52:	85 bf       	out	0x35, r24	; 53
     e54:	85 b7       	in	r24, 0x35	; 53
     e56:	80 62       	ori	r24, 0x20	; 32
     e58:	85 bf       	out	0x35, r24	; 53
     e5a:	80 e0       	ldi	r24, 0x00	; 0
     e5c:	90 e0       	ldi	r25, 0x00	; 0
     e5e:	08 95       	ret

00000e60 <TimerM$Timer$start>:
     e60:	cf 92       	push	r12
     e62:	df 92       	push	r13
     e64:	ef 92       	push	r14
     e66:	ff 92       	push	r15
     e68:	0f 93       	push	r16
     e6a:	1f 93       	push	r17
     e6c:	cf 93       	push	r28
     e6e:	df 93       	push	r29
     e70:	79 01       	movw	r14, r18
     e72:	8a 01       	movw	r16, r20
     e74:	83 30       	cpi	r24, 0x03	; 3
     e76:	10 f4       	brcc	.+4      	; 0xe7c
     e78:	62 30       	cpi	r22, 0x02	; 2
     e7a:	1c f0       	brlt	.+6      	; 0xe82
     e7c:	80 e0       	ldi	r24, 0x00	; 0
     e7e:	90 e0       	ldi	r25, 0x00	; 0
     e80:	53 c0       	rjmp	.+166    	; 0xf28
     e82:	28 2f       	mov	r18, r24
     e84:	33 27       	eor	r19, r19
     e86:	f9 01       	movw	r30, r18
     e88:	a3 e0       	ldi	r26, 0x03	; 3
     e8a:	ee 0f       	add	r30, r30
     e8c:	ff 1f       	adc	r31, r31
     e8e:	aa 95       	dec	r26
     e90:	e1 f7       	brne	.-8      	; 0xe8a
     e92:	e2 0f       	add	r30, r18
     e94:	f3 1f       	adc	r31, r19
     e96:	ec 53       	subi	r30, 0x3C	; 60
     e98:	fc 4f       	sbci	r31, 0xFC	; 252
     e9a:	e1 82       	std	Z+1, r14	; 0x01
     e9c:	f2 82       	std	Z+2, r15	; 0x02
     e9e:	03 83       	std	Z+3, r16	; 0x03
     ea0:	14 83       	std	Z+4, r17	; 0x04
     ea2:	60 83       	st	Z, r22
     ea4:	8f b7       	in	r24, 0x3f	; 63
     ea6:	f8 94       	cli
     ea8:	c8 2f       	mov	r28, r24
     eaa:	dd 27       	eor	r29, r29
     eac:	82 b7       	in	r24, 0x32	; 50
     eae:	e8 0e       	add	r14, r24
     eb0:	f1 1c       	adc	r15, r1
     eb2:	01 1d       	adc	r16, r1
     eb4:	11 1d       	adc	r17, r1
     eb6:	e5 82       	std	Z+5, r14	; 0x05
     eb8:	f6 82       	std	Z+6, r15	; 0x06
     eba:	07 83       	std	Z+7, r16	; 0x07
     ebc:	10 87       	std	Z+8, r17	; 0x08
     ebe:	f1 e0       	ldi	r31, 0x01	; 1
     ec0:	cf 2e       	mov	r12, r31
     ec2:	d1 2c       	mov	r13, r1
     ec4:	c6 01       	movw	r24, r12
     ec6:	02 c0       	rjmp	.+4      	; 0xecc
     ec8:	88 0f       	add	r24, r24
     eca:	99 1f       	adc	r25, r25
     ecc:	2a 95       	dec	r18
     ece:	e2 f7       	brpl	.-8      	; 0xec8
     ed0:	9c 01       	movw	r18, r24
     ed2:	44 27       	eor	r20, r20
     ed4:	37 fd       	sbrc	r19, 7
     ed6:	40 95       	com	r20
     ed8:	54 2f       	mov	r21, r20
     eda:	80 91 28 05 	lds	r24, 0x0528
     ede:	90 91 29 05 	lds	r25, 0x0529
     ee2:	a0 91 2a 05 	lds	r26, 0x052A
     ee6:	b0 91 2b 05 	lds	r27, 0x052B
     eea:	82 2b       	or	r24, r18
     eec:	93 2b       	or	r25, r19
     eee:	a4 2b       	or	r26, r20
     ef0:	b5 2b       	or	r27, r21
     ef2:	80 93 28 05 	sts	0x0528, r24
     ef6:	90 93 29 05 	sts	0x0529, r25
     efa:	a0 93 2a 05 	sts	0x052A, r26
     efe:	b0 93 2b 05 	sts	0x052B, r27
     f02:	80 91 fb 03 	lds	r24, 0x03FB
     f06:	99 27       	eor	r25, r25
     f08:	aa 27       	eor	r26, r26
     f0a:	bb 27       	eor	r27, r27
     f0c:	e8 16       	cp	r14, r24
     f0e:	f9 06       	cpc	r15, r25
     f10:	0a 07       	cpc	r16, r26
     f12:	1b 07       	cpc	r17, r27
     f14:	38 f4       	brcc	.+14     	; 0xf24
     f16:	e0 92 fb 03 	sts	0x03FB, r14
     f1a:	e1 be       	out	0x31, r14	; 49
     f1c:	10 92 f4 03 	sts	0x03F4, r1
     f20:	0e 94 1e 07 	call	0xe3c
     f24:	cf bf       	out	0x3f, r28	; 63
     f26:	c6 01       	movw	r24, r12
     f28:	df 91       	pop	r29
     f2a:	cf 91       	pop	r28
     f2c:	1f 91       	pop	r17
     f2e:	0f 91       	pop	r16
     f30:	ff 90       	pop	r15
     f32:	ef 90       	pop	r14
     f34:	df 90       	pop	r13
     f36:	cf 90       	pop	r12
     f38:	08 95       	ret

00000f3a <received>:
     f3a:	cf 93       	push	r28
     f3c:	df 93       	push	r29
     f3e:	ec 01       	movw	r28, r24
     f40:	40 91 00 01 	lds	r20, 0x0100
     f44:	50 91 01 01 	lds	r21, 0x0101
     f48:	8f b7       	in	r24, 0x3f	; 63
     f4a:	f8 94       	cli
     f4c:	28 2f       	mov	r18, r24
     f4e:	33 27       	eor	r19, r19
     f50:	80 91 e8 03 	lds	r24, 0x03E8
     f54:	90 91 e9 03 	lds	r25, 0x03E9
     f58:	01 96       	adiw	r24, 0x01	; 1
     f5a:	90 93 e9 03 	sts	0x03E9, r25
     f5e:	80 93 e8 03 	sts	0x03E8, r24
     f62:	2f bf       	out	0x3f, r18	; 63
     f64:	8a a1       	ldd	r24, Y+34	; 0x22
     f66:	9b a1       	ldd	r25, Y+35	; 0x23
     f68:	01 97       	sbiw	r24, 0x01	; 1
     f6a:	d9 f4       	brne	.+54     	; 0xfa2
     f6c:	9b 81       	ldd	r25, Y+3	; 0x03
     f6e:	80 91 02 01 	lds	r24, 0x0102
     f72:	98 17       	cp	r25, r24
     f74:	b1 f4       	brne	.+44     	; 0xfa2
     f76:	88 81       	ld	r24, Y
     f78:	99 81       	ldd	r25, Y+1	; 0x01
     f7a:	2f ef       	ldi	r18, 0xFF	; 255
     f7c:	8f 3f       	cpi	r24, 0xFF	; 255
     f7e:	92 07       	cpc	r25, r18
     f80:	19 f0       	breq	.+6      	; 0xf88
     f82:	84 17       	cp	r24, r20
     f84:	95 07       	cpc	r25, r21
     f86:	69 f4       	brne	.+26     	; 0xfa2
     f88:	9a 81       	ldd	r25, Y+2	; 0x02
     f8a:	83 e0       	ldi	r24, 0x03	; 3
     f8c:	8c 5f       	subi	r24, 0xFC	; 252
     f8e:	8b 32       	cpi	r24, 0x2B	; 43
     f90:	e8 f3       	brcs	.-6      	; 0xf8c
     f92:	8a a5       	ldd	r24, Y+42	; 0x2a
     f94:	81 50       	subi	r24, 0x01	; 1
     f96:	82 30       	cpi	r24, 0x02	; 2
     f98:	20 f4       	brcc	.+8      	; 0xfa2
     f9a:	94 30       	cpi	r25, 0x04	; 4
     f9c:	11 f4       	brne	.+4      	; 0xfa2
     f9e:	0e 94 d5 07 	call	0xfaa
     fa2:	ce 01       	movw	r24, r28
     fa4:	df 91       	pop	r29
     fa6:	cf 91       	pop	r28
     fa8:	08 95       	ret

00000faa <LedsC$Leds$redToggle>:
     faa:	8f b7       	in	r24, 0x3f	; 63
     fac:	f8 94       	cli
     fae:	38 2f       	mov	r19, r24
     fb0:	20 91 4d 04 	lds	r18, 0x044D
     fb4:	20 ff       	sbrs	r18, 0
     fb6:	06 c0       	rjmp	.+12     	; 0xfc4
     fb8:	8f b7       	in	r24, 0x3f	; 63
     fba:	f8 94       	cli
     fbc:	99 27       	eor	r25, r25
     fbe:	da 9a       	sbi	0x1b, 2	; 27
     fc0:	2e 7f       	andi	r18, 0xFE	; 254
     fc2:	05 c0       	rjmp	.+10     	; 0xfce
     fc4:	8f b7       	in	r24, 0x3f	; 63
     fc6:	f8 94       	cli
     fc8:	99 27       	eor	r25, r25
     fca:	da 98       	cbi	0x1b, 2	; 27
     fcc:	21 60       	ori	r18, 0x01	; 1
     fce:	20 93 4d 04 	sts	0x044D, r18
     fd2:	8f bf       	out	0x3f, r24	; 63
     fd4:	3f bf       	out	0x3f, r19	; 63
     fd6:	81 e0       	ldi	r24, 0x01	; 1
     fd8:	90 e0       	ldi	r25, 0x00	; 0
     fda:	08 95       	ret

00000fdc <__vector_21>:
     fdc:	1f 92       	push	r1
     fde:	0f 92       	push	r0
     fe0:	0f b6       	in	r0, 0x3f	; 63
     fe2:	0f 92       	push	r0
     fe4:	11 24       	eor	r1, r1
     fe6:	ff 92       	push	r15
     fe8:	0f 93       	push	r16
     fea:	1f 93       	push	r17
     fec:	2f 93       	push	r18
     fee:	3f 93       	push	r19
     ff0:	4f 93       	push	r20
     ff2:	5f 93       	push	r21
     ff4:	6f 93       	push	r22
     ff6:	7f 93       	push	r23
     ff8:	8f 93       	push	r24
     ffa:	9f 93       	push	r25
     ffc:	af 93       	push	r26
     ffe:	bf 93       	push	r27
    1000:	cf 93       	push	r28
    1002:	df 93       	push	r29
    1004:	ef 93       	push	r30
    1006:	ff 93       	push	r31
    1008:	c4 b1       	in	r28, 0x04	; 4
    100a:	d5 b1       	in	r29, 0x05	; 5
    100c:	d3 70       	andi	r29, 0x03	; 3
    100e:	34 9a       	sbi	0x06, 4	; 6
    1010:	37 98       	cbi	0x06, 7	; 6
    1012:	78 94       	sei
    1014:	8f b7       	in	r24, 0x3f	; 63
    1016:	f8 94       	cli
    1018:	f8 2e       	mov	r15, r24
    101a:	80 91 5c 05 	lds	r24, 0x055C
    101e:	08 2f       	mov	r16, r24
    1020:	11 27       	eor	r17, r17
    1022:	21 e0       	ldi	r18, 0x01	; 1
    1024:	30 e0       	ldi	r19, 0x00	; 0
    1026:	00 2e       	mov	r0, r16
    1028:	02 c0       	rjmp	.+4      	; 0x102e
    102a:	22 0f       	add	r18, r18
    102c:	33 1f       	adc	r19, r19
    102e:	0a 94       	dec	r0
    1030:	e2 f7       	brpl	.-8      	; 0x102a
    1032:	80 91 7f 04 	lds	r24, 0x047F
    1036:	90 91 80 04 	lds	r25, 0x0480
    103a:	82 23       	and	r24, r18
    103c:	93 23       	and	r25, r19
    103e:	89 2b       	or	r24, r25
    1040:	61 f4       	brne	.+24     	; 0x105a
    1042:	20 95       	com	r18
    1044:	30 95       	com	r19
    1046:	80 91 b7 03 	lds	r24, 0x03B7
    104a:	90 91 b8 03 	lds	r25, 0x03B8
    104e:	82 23       	and	r24, r18
    1050:	93 23       	and	r25, r19
    1052:	90 93 b8 03 	sts	0x03B8, r25
    1056:	80 93 b7 03 	sts	0x03B7, r24
    105a:	40 91 b7 03 	lds	r20, 0x03B7
    105e:	50 91 b8 03 	lds	r21, 0x03B8
    1062:	41 15       	cp	r20, r1
    1064:	51 05       	cpc	r21, r1
    1066:	11 f1       	breq	.+68     	; 0x10ac
    1068:	20 91 5c 05 	lds	r18, 0x055C
    106c:	30 91 5d 05 	lds	r19, 0x055D
    1070:	2f 5f       	subi	r18, 0xFF	; 255
    1072:	3f 4f       	sbci	r19, 0xFF	; 255
    1074:	2c 30       	cpi	r18, 0x0C	; 12
    1076:	31 05       	cpc	r19, r1
    1078:	11 f0       	breq	.+4      	; 0x107e
    107a:	c9 01       	movw	r24, r18
    107c:	02 c0       	rjmp	.+4      	; 0x1082
    107e:	80 e0       	ldi	r24, 0x00	; 0
    1080:	90 e0       	ldi	r25, 0x00	; 0
    1082:	9c 01       	movw	r18, r24
    1084:	81 e0       	ldi	r24, 0x01	; 1
    1086:	90 e0       	ldi	r25, 0x00	; 0
    1088:	02 2e       	mov	r0, r18
    108a:	02 c0       	rjmp	.+4      	; 0x1090
    108c:	88 0f       	add	r24, r24
    108e:	99 1f       	adc	r25, r25
    1090:	0a 94       	dec	r0
    1092:	e2 f7       	brpl	.-8      	; 0x108c
    1094:	84 23       	and	r24, r20
    1096:	95 23       	and	r25, r21
    1098:	89 2b       	or	r24, r25
    109a:	51 f3       	breq	.-44     	; 0x1070
    109c:	30 93 5d 05 	sts	0x055D, r19
    10a0:	20 93 5c 05 	sts	0x055C, r18
    10a4:	80 91 5c 05 	lds	r24, 0x055C
    10a8:	0e 94 9d 08 	call	0x113a
    10ac:	ff be       	out	0x3f, r15	; 63
    10ae:	01 15       	cp	r16, r1
    10b0:	11 05       	cpc	r17, r1
    10b2:	69 f4       	brne	.+26     	; 0x10ce
    10b4:	8f b7       	in	r24, 0x3f	; 63
    10b6:	f8 94       	cli
    10b8:	28 2f       	mov	r18, r24
    10ba:	33 27       	eor	r19, r19
    10bc:	d0 93 91 03 	sts	0x0391, r29
    10c0:	c0 93 90 03 	sts	0x0390, r28
    10c4:	81 e0       	ldi	r24, 0x01	; 1
    10c6:	80 93 ef 03 	sts	0x03EF, r24
    10ca:	2f bf       	out	0x3f, r18	; 63
    10cc:	01 c0       	rjmp	.+2      	; 0x10d0
    10ce:	80 e0       	ldi	r24, 0x00	; 0
    10d0:	99 27       	eor	r25, r25
    10d2:	2f b7       	in	r18, 0x3f	; 63
    10d4:	f8 94       	cli
    10d6:	88 23       	and	r24, r24
    10d8:	c9 f4       	brne	.+50     	; 0x110c
    10da:	61 e0       	ldi	r22, 0x01	; 1
    10dc:	70 e0       	ldi	r23, 0x00	; 0
    10de:	02 c0       	rjmp	.+4      	; 0x10e4
    10e0:	66 0f       	add	r22, r22
    10e2:	77 1f       	adc	r23, r23
    10e4:	0a 95       	dec	r16
    10e6:	e2 f7       	brpl	.-8      	; 0x10e0
    10e8:	40 91 7f 04 	lds	r20, 0x047F
    10ec:	50 91 80 04 	lds	r21, 0x0480
    10f0:	ca 01       	movw	r24, r20
    10f2:	86 23       	and	r24, r22
    10f4:	97 23       	and	r25, r23
    10f6:	89 2b       	or	r24, r25
    10f8:	49 f0       	breq	.+18     	; 0x110c
    10fa:	cb 01       	movw	r24, r22
    10fc:	80 95       	com	r24
    10fe:	90 95       	com	r25
    1100:	48 23       	and	r20, r24
    1102:	59 23       	and	r21, r25
    1104:	50 93 80 04 	sts	0x0480, r21
    1108:	40 93 7f 04 	sts	0x047F, r20
    110c:	2f bf       	out	0x3f, r18	; 63
    110e:	ff 91       	pop	r31
    1110:	ef 91       	pop	r30
    1112:	df 91       	pop	r29
    1114:	cf 91       	pop	r28
    1116:	bf 91       	pop	r27
    1118:	af 91       	pop	r26
    111a:	9f 91       	pop	r25
    111c:	8f 91       	pop	r24
    111e:	7f 91       	pop	r23
    1120:	6f 91       	pop	r22
    1122:	5f 91       	pop	r21
    1124:	4f 91       	pop	r20
    1126:	3f 91       	pop	r19
    1128:	2f 91       	pop	r18
    112a:	1f 91       	pop	r17
    112c:	0f 91       	pop	r16
    112e:	ff 90       	pop	r15
    1130:	0f 90       	pop	r0
    1132:	0f be       	out	0x3f, r0	; 63
    1134:	0f 90       	pop	r0
    1136:	1f 90       	pop	r1
    1138:	18 95       	reti

0000113a <HPLADCM$ADC$samplePort>:
    113a:	98 2f       	mov	r25, r24
    113c:	8f b7       	in	r24, 0x3f	; 63
    113e:	f8 94       	cli
    1140:	28 2f       	mov	r18, r24
    1142:	33 27       	eor	r19, r19
    1144:	e5 e8       	ldi	r30, 0x85	; 133
    1146:	f4 e0       	ldi	r31, 0x04	; 4
    1148:	e9 0f       	add	r30, r25
    114a:	f1 1d       	adc	r31, r1
    114c:	80 81       	ld	r24, Z
    114e:	8f 71       	andi	r24, 0x1F	; 31
    1150:	87 b9       	out	0x07, r24	; 7
    1152:	2f bf       	out	0x3f, r18	; 63
    1154:	37 9a       	sbi	0x06, 7	; 6
    1156:	36 9a       	sbi	0x06, 6	; 6
    1158:	81 e0       	ldi	r24, 0x01	; 1
    115a:	90 e0       	ldi	r25, 0x00	; 0
    115c:	08 95       	ret

0000115e <CC1000RadioIntTinySecM$SpiByteFifo$dataReady>:
    115e:	cf 92       	push	r12
    1160:	df 92       	push	r13
    1162:	ef 92       	push	r14
    1164:	ff 92       	push	r15
    1166:	0f 93       	push	r16
    1168:	1f 93       	push	r17
    116a:	cf 93       	push	r28
    116c:	df 93       	push	r29
    116e:	cd b7       	in	r28, 0x3d	; 61
    1170:	de b7       	in	r29, 0x3e	; 62
    1172:	22 97       	sbiw	r28, 0x02	; 2
    1174:	0f b6       	in	r0, 0x3f	; 63
    1176:	f8 94       	cli
    1178:	de bf       	out	0x3e, r29	; 62
    117a:	0f be       	out	0x3f, r0	; 63
    117c:	cd bf       	out	0x3d, r28	; 61
    117e:	48 2f       	mov	r20, r24
    1180:	80 91 69 03 	lds	r24, 0x0369
    1184:	81 11       	cpse	r24, r1
    1186:	40 95       	com	r20
    1188:	80 91 75 03 	lds	r24, 0x0375
    118c:	68 2f       	mov	r22, r24
    118e:	77 27       	eor	r23, r23
    1190:	63 30       	cpi	r22, 0x03	; 3
    1192:	71 05       	cpc	r23, r1
    1194:	09 f4       	brne	.+2      	; 0x1198
    1196:	9b c1       	rjmp	.+822    	; 0x14ce
    1198:	64 30       	cpi	r22, 0x04	; 4
    119a:	71 05       	cpc	r23, r1
    119c:	64 f4       	brge	.+24     	; 0x11b6
    119e:	61 30       	cpi	r22, 0x01	; 1
    11a0:	71 05       	cpc	r23, r1
    11a2:	09 f4       	brne	.+2      	; 0x11a6
    11a4:	95 c4       	rjmp	.+2346   	; 0x1ad0
    11a6:	62 30       	cpi	r22, 0x02	; 2
    11a8:	71 05       	cpc	r23, r1
    11aa:	0c f0       	brlt	.+2      	; 0x11ae
    11ac:	fd c0       	rjmp	.+506    	; 0x13a8
    11ae:	61 15       	cp	r22, r1
    11b0:	71 05       	cpc	r23, r1
    11b2:	91 f0       	breq	.+36     	; 0x11d8
    11b4:	8d c4       	rjmp	.+2330   	; 0x1ad0
    11b6:	65 30       	cpi	r22, 0x05	; 5
    11b8:	71 05       	cpc	r23, r1
    11ba:	09 f4       	brne	.+2      	; 0x11be
    11bc:	6b c3       	rjmp	.+1750   	; 0x1894
    11be:	65 30       	cpi	r22, 0x05	; 5
    11c0:	71 05       	cpc	r23, r1
    11c2:	0c f4       	brge	.+2      	; 0x11c6
    11c4:	05 c3       	rjmp	.+1546   	; 0x17d0
    11c6:	66 30       	cpi	r22, 0x06	; 6
    11c8:	71 05       	cpc	r23, r1
    11ca:	09 f4       	brne	.+2      	; 0x11ce
    11cc:	e2 c3       	rjmp	.+1988   	; 0x1992
    11ce:	67 30       	cpi	r22, 0x07	; 7
    11d0:	71 05       	cpc	r23, r1
    11d2:	09 f4       	brne	.+2      	; 0x11d6
    11d4:	a2 c3       	rjmp	.+1860   	; 0x191a
    11d6:	7c c4       	rjmp	.+2296   	; 0x1ad0
    11d8:	20 91 6f 03 	lds	r18, 0x036F
    11dc:	8f b7       	in	r24, 0x3f	; 63
    11de:	f8 94       	cli
    11e0:	99 27       	eor	r25, r25
    11e2:	20 93 92 03 	sts	0x0392, r18
    11e6:	8f bf       	out	0x3f, r24	; 63
    11e8:	40 91 21 03 	lds	r20, 0x0321
    11ec:	50 91 22 03 	lds	r21, 0x0322
    11f0:	4f 5f       	subi	r20, 0xFF	; 255
    11f2:	5f 4f       	sbci	r21, 0xFF	; 255
    11f4:	50 93 22 03 	sts	0x0322, r21
    11f8:	40 93 21 03 	sts	0x0321, r20
    11fc:	80 91 96 04 	lds	r24, 0x0496
    1200:	99 27       	eor	r25, r25
    1202:	85 30       	cpi	r24, 0x05	; 5
    1204:	91 05       	cpc	r25, r1
    1206:	09 f4       	brne	.+2      	; 0x120a
    1208:	63 c0       	rjmp	.+198    	; 0x12d0
    120a:	86 30       	cpi	r24, 0x06	; 6
    120c:	91 05       	cpc	r25, r1
    120e:	4c f4       	brge	.+18     	; 0x1222
    1210:	83 30       	cpi	r24, 0x03	; 3
    1212:	91 05       	cpc	r25, r1
    1214:	d9 f0       	breq	.+54     	; 0x124c
    1216:	84 30       	cpi	r24, 0x04	; 4
    1218:	91 05       	cpc	r25, r1
    121a:	74 f5       	brge	.+92     	; 0x1278
    121c:	02 97       	sbiw	r24, 0x02	; 2
    121e:	49 f0       	breq	.+18     	; 0x1232
    1220:	b5 c0       	rjmp	.+362    	; 0x138c
    1222:	87 30       	cpi	r24, 0x07	; 7
    1224:	91 05       	cpc	r25, r1
    1226:	09 f4       	brne	.+2      	; 0x122a
    1228:	a9 c0       	rjmp	.+338    	; 0x137c
    122a:	07 97       	sbiw	r24, 0x07	; 7
    122c:	0c f4       	brge	.+2      	; 0x1230
    122e:	96 c0       	rjmp	.+300    	; 0x135c
    1230:	ad c0       	rjmp	.+346    	; 0x138c
    1232:	80 91 97 04 	lds	r24, 0x0497
    1236:	90 91 98 04 	lds	r25, 0x0498
    123a:	48 17       	cp	r20, r24
    123c:	59 07       	cpc	r21, r25
    123e:	08 f4       	brcc	.+2      	; 0x1242
    1240:	47 c4       	rjmp	.+2190   	; 0x1ad0
    1242:	83 e3       	ldi	r24, 0x33	; 51
    1244:	80 93 6f 03 	sts	0x036F, r24
    1248:	83 e0       	ldi	r24, 0x03	; 3
    124a:	9d c0       	rjmp	.+314    	; 0x1386
    124c:	8c ec       	ldi	r24, 0xCC	; 204
    124e:	80 93 6f 03 	sts	0x036F, r24
    1252:	e0 91 26 05 	lds	r30, 0x0526
    1256:	f0 91 27 05 	lds	r31, 0x0527
    125a:	83 81       	ldd	r24, Z+3	; 0x03
    125c:	87 ff       	sbrs	r24, 7
    125e:	02 c0       	rjmp	.+4      	; 0x1264
    1260:	85 e0       	ldi	r24, 0x05	; 5
    1262:	01 c0       	rjmp	.+2      	; 0x1266
    1264:	84 e0       	ldi	r24, 0x04	; 4
    1266:	80 93 96 04 	sts	0x0496, r24
    126a:	8f ef       	ldi	r24, 0xFF	; 255
    126c:	9f ef       	ldi	r25, 0xFF	; 255
    126e:	90 93 22 03 	sts	0x0322, r25
    1272:	80 93 21 03 	sts	0x0321, r24
    1276:	2c c4       	rjmp	.+2136   	; 0x1ad0
    1278:	80 91 21 03 	lds	r24, 0x0321
    127c:	28 2f       	mov	r18, r24
    127e:	33 27       	eor	r19, r19
    1280:	80 91 93 03 	lds	r24, 0x0393
    1284:	90 91 94 03 	lds	r25, 0x0394
    1288:	28 17       	cp	r18, r24
    128a:	39 07       	cpc	r19, r25
    128c:	d8 f4       	brcc	.+54     	; 0x12c4
    128e:	e0 91 26 05 	lds	r30, 0x0526
    1292:	f0 91 27 05 	lds	r31, 0x0527
    1296:	e4 0f       	add	r30, r20
    1298:	f5 1f       	adc	r31, r21
    129a:	20 81       	ld	r18, Z
    129c:	20 93 6f 03 	sts	0x036F, r18
    12a0:	80 91 93 04 	lds	r24, 0x0493
    12a4:	90 91 94 04 	lds	r25, 0x0494
    12a8:	e7 e7       	ldi	r30, 0x77	; 119
    12aa:	f1 e0       	ldi	r31, 0x01	; 1
    12ac:	29 27       	eor	r18, r25
    12ae:	22 0f       	add	r18, r18
    12b0:	f1 1d       	adc	r31, r1
    12b2:	e2 0f       	add	r30, r18
    12b4:	f1 1d       	adc	r31, r1
    12b6:	c8 95       	lpm
    12b8:	98 2f       	mov	r25, r24
    12ba:	80 2d       	mov	r24, r0
    12bc:	31 96       	adiw	r30, 0x01	; 1
    12be:	c8 95       	lpm
    12c0:	90 25       	eor	r25, r0
    12c2:	ab c3       	rjmp	.+1878   	; 0x1a1a
    12c4:	80 91 93 04 	lds	r24, 0x0493
    12c8:	80 93 6f 03 	sts	0x036F, r24
    12cc:	86 e0       	ldi	r24, 0x06	; 6
    12ce:	5b c0       	rjmp	.+182    	; 0x1386
    12d0:	e0 e0       	ldi	r30, 0x00	; 0
    12d2:	a0 91 1a 02 	lds	r26, 0x021A
    12d6:	b0 91 1b 02 	lds	r27, 0x021B
    12da:	9d 01       	movw	r18, r26
    12dc:	2f 5f       	subi	r18, 0xFF	; 255
    12de:	3f 4f       	sbci	r19, 0xFF	; 255
    12e0:	30 93 1b 02 	sts	0x021B, r19
    12e4:	20 93 1a 02 	sts	0x021A, r18
    12e8:	40 91 16 02 	lds	r20, 0x0216
    12ec:	50 91 17 02 	lds	r21, 0x0217
    12f0:	24 17       	cp	r18, r20
    12f2:	35 07       	cpc	r19, r21
    12f4:	a4 f4       	brge	.+40     	; 0x131e
    12f6:	24 30       	cpi	r18, 0x04	; 4
    12f8:	31 05       	cpc	r19, r1
    12fa:	49 f4       	brne	.+18     	; 0x130e
    12fc:	80 91 04 01 	lds	r24, 0x0104
    1300:	88 23       	and	r24, r24
    1302:	29 f4       	brne	.+10     	; 0x130e
    1304:	15 96       	adiw	r26, 0x05	; 5
    1306:	b0 93 1b 02 	sts	0x021B, r27
    130a:	a0 93 1a 02 	sts	0x021A, r26
    130e:	e0 91 1a 02 	lds	r30, 0x021A
    1312:	f0 91 1b 02 	lds	r31, 0x021B
    1316:	ea 5e       	subi	r30, 0xEA	; 234
    1318:	fb 4f       	sbci	r31, 0xFB	; 251
    131a:	e0 81       	ld	r30, Z
    131c:	1c c0       	rjmp	.+56     	; 0x1356
    131e:	ca 01       	movw	r24, r20
    1320:	04 96       	adiw	r24, 0x04	; 4
    1322:	28 17       	cp	r18, r24
    1324:	39 07       	cpc	r19, r25
    1326:	5c f4       	brge	.+22     	; 0x133e
    1328:	f9 01       	movw	r30, r18
    132a:	e4 1b       	sub	r30, r20
    132c:	f5 0b       	sbc	r31, r21
    132e:	ea 5e       	subi	r30, 0xEA	; 234
    1330:	fb 4f       	sbci	r31, 0xFB	; 251
    1332:	e5 a1       	ldd	r30, Z+37	; 0x25
    1334:	4d 5f       	subi	r20, 0xFD	; 253
    1336:	5f 4f       	sbci	r21, 0xFF	; 255
    1338:	24 17       	cp	r18, r20
    133a:	35 07       	cpc	r19, r21
    133c:	61 f4       	brne	.+24     	; 0x1356
    133e:	8f b7       	in	r24, 0x3f	; 63
    1340:	f8 94       	cli
    1342:	28 2f       	mov	r18, r24
    1344:	33 27       	eor	r19, r19
    1346:	70 93 22 03 	sts	0x0322, r23
    134a:	60 93 21 03 	sts	0x0321, r22
    134e:	87 e0       	ldi	r24, 0x07	; 7
    1350:	80 93 96 04 	sts	0x0496, r24
    1354:	2f bf       	out	0x3f, r18	; 63
    1356:	e0 93 6f 03 	sts	0x036F, r30
    135a:	ba c3       	rjmp	.+1908   	; 0x1ad0
    135c:	80 91 93 04 	lds	r24, 0x0493
    1360:	90 91 94 04 	lds	r25, 0x0494
    1364:	89 2f       	mov	r24, r25
    1366:	99 27       	eor	r25, r25
    1368:	80 93 6f 03 	sts	0x036F, r24
    136c:	87 e0       	ldi	r24, 0x07	; 7
    136e:	80 93 96 04 	sts	0x0496, r24
    1372:	70 93 22 03 	sts	0x0322, r23
    1376:	60 93 21 03 	sts	0x0321, r22
    137a:	aa c3       	rjmp	.+1876   	; 0x1ad0
    137c:	44 30       	cpi	r20, 0x04	; 4
    137e:	51 05       	cpc	r21, r1
    1380:	08 f4       	brcc	.+2      	; 0x1384
    1382:	a6 c3       	rjmp	.+1868   	; 0x1ad0
    1384:	88 e0       	ldi	r24, 0x08	; 8
    1386:	80 93 96 04 	sts	0x0496, r24
    138a:	a2 c3       	rjmp	.+1860   	; 0x1ad0
    138c:	bb 98       	cbi	0x17, 3	; 23
    138e:	ba 98       	cbi	0x17, 2	; 23
    1390:	0e 94 ff 06 	call	0xdfe
    1394:	10 92 58 05 	sts	0x0558, r1
    1398:	8d e0       	ldi	r24, 0x0D	; 13
    139a:	9c e1       	ldi	r25, 0x1C	; 28
    139c:	0e 94 b2 02 	call	0x564
    13a0:	88 23       	and	r24, r24
    13a2:	09 f4       	brne	.+2      	; 0x13a6
    13a4:	95 c3       	rjmp	.+1834   	; 0x1ad0
    13a6:	10 c2       	rjmp	.+1056   	; 0x17c8
    13a8:	4a 3a       	cpi	r20, 0xAA	; 170
    13aa:	19 f0       	breq	.+6      	; 0x13b2
    13ac:	45 35       	cpi	r20, 0x55	; 85
    13ae:	09 f0       	breq	.+2      	; 0x13b2
    13b0:	5a c0       	rjmp	.+180    	; 0x1466
    13b2:	20 91 e0 03 	lds	r18, 0x03E0
    13b6:	30 91 e1 03 	lds	r19, 0x03E1
    13ba:	2f 5f       	subi	r18, 0xFF	; 255
    13bc:	3f 4f       	sbci	r19, 0xFF	; 255
    13be:	30 93 e1 03 	sts	0x03E1, r19
    13c2:	20 93 e0 03 	sts	0x03E0, r18
    13c6:	80 91 68 03 	lds	r24, 0x0368
    13ca:	e8 2f       	mov	r30, r24
    13cc:	ff 27       	eor	r31, r31
    13ce:	e6 56       	subi	r30, 0x66	; 102
    13d0:	ff 4f       	sbci	r31, 0xFF	; 255
    13d2:	84 91       	lpm	r24, Z
    13d4:	99 27       	eor	r25, r25
    13d6:	82 17       	cp	r24, r18
    13d8:	93 07       	cpc	r25, r19
    13da:	08 f0       	brcs	.+2      	; 0x13de
    13dc:	79 c3       	rjmp	.+1778   	; 0x1ad0
    13de:	10 92 39 03 	sts	0x0339, r1
    13e2:	10 92 e1 03 	sts	0x03E1, r1
    13e6:	10 92 e0 03 	sts	0x03E0, r1
    13ea:	10 92 ec 03 	sts	0x03EC, r1
    13ee:	10 92 eb 03 	sts	0x03EB, r1
    13f2:	10 92 f0 03 	sts	0x03F0, r1
    13f6:	10 92 94 04 	sts	0x0494, r1
    13fa:	10 92 93 04 	sts	0x0493, r1
    13fe:	82 e2       	ldi	r24, 0x22	; 34
    1400:	90 e0       	ldi	r25, 0x00	; 0
    1402:	90 93 49 04 	sts	0x0449, r25
    1406:	80 93 48 04 	sts	0x0448, r24
    140a:	e0 91 36 03 	lds	r30, 0x0336
    140e:	f0 91 37 03 	lds	r31, 0x0337
    1412:	8e e4       	ldi	r24, 0x4E	; 78
    1414:	94 e0       	ldi	r25, 0x04	; 4
    1416:	90 93 77 03 	sts	0x0377, r25
    141a:	80 93 76 03 	sts	0x0376, r24
    141e:	f0 93 79 03 	sts	0x0379, r31
    1422:	e0 93 78 03 	sts	0x0378, r30
    1426:	10 92 1d 02 	sts	0x021D, r1
    142a:	10 92 1c 02 	sts	0x021C, r1
    142e:	85 e2       	ldi	r24, 0x25	; 37
    1430:	90 e0       	ldi	r25, 0x00	; 0
    1432:	90 93 19 02 	sts	0x0219, r25
    1436:	80 93 18 02 	sts	0x0218, r24
    143a:	10 92 05 01 	sts	0x0105, r1
    143e:	10 92 7c 04 	sts	0x047C, r1
    1442:	10 92 7d 04 	sts	0x047D, r1
    1446:	10 92 7e 04 	sts	0x047E, r1
    144a:	10 92 1a 03 	sts	0x031A, r1
    144e:	10 92 1b 03 	sts	0x031B, r1
    1452:	10 92 81 04 	sts	0x0481, r1
    1456:	10 92 82 04 	sts	0x0482, r1
    145a:	10 92 1e 03 	sts	0x031E, r1
    145e:	12 a2       	std	Z+34, r1	; 0x22
    1460:	13 a2       	std	Z+35, r1	; 0x23
    1462:	84 e0       	ldi	r24, 0x04	; 4
    1464:	b2 c1       	rjmp	.+868    	; 0x17ca
    1466:	80 91 58 05 	lds	r24, 0x0558
    146a:	88 23       	and	r24, r24
    146c:	09 f4       	brne	.+2      	; 0x1470
    146e:	30 c3       	rjmp	.+1632   	; 0x1ad0
    1470:	80 91 18 03 	lds	r24, 0x0318
    1474:	90 91 19 03 	lds	r25, 0x0319
    1478:	01 97       	sbiw	r24, 0x01	; 1
    147a:	90 93 19 03 	sts	0x0319, r25
    147e:	80 93 18 03 	sts	0x0318, r24
    1482:	18 16       	cp	r1, r24
    1484:	19 06       	cpc	r1, r25
    1486:	0c f4       	brge	.+2      	; 0x148a
    1488:	23 c3       	rjmp	.+1606   	; 0x1ad0
    148a:	10 92 ef 03 	sts	0x03EF, r1
    148e:	8f b7       	in	r24, 0x3f	; 63
    1490:	f8 94       	cli
    1492:	18 2f       	mov	r17, r24
    1494:	20 91 b7 03 	lds	r18, 0x03B7
    1498:	30 91 b8 03 	lds	r19, 0x03B8
    149c:	20 fd       	sbrc	r18, 0
    149e:	10 c0       	rjmp	.+32     	; 0x14c0
    14a0:	c9 01       	movw	r24, r18
    14a2:	81 60       	ori	r24, 0x01	; 1
    14a4:	90 93 b8 03 	sts	0x03B8, r25
    14a8:	80 93 b7 03 	sts	0x03B7, r24
    14ac:	21 15       	cp	r18, r1
    14ae:	31 05       	cpc	r19, r1
    14b0:	39 f4       	brne	.+14     	; 0x14c0
    14b2:	30 93 5d 05 	sts	0x055D, r19
    14b6:	20 93 5c 05 	sts	0x055C, r18
    14ba:	80 e0       	ldi	r24, 0x00	; 0
    14bc:	0e 94 9d 08 	call	0x113a
    14c0:	1f bf       	out	0x3f, r17	; 63
    14c2:	10 92 e1 03 	sts	0x03E1, r1
    14c6:	10 92 e0 03 	sts	0x03E0, r1
    14ca:	83 e0       	ldi	r24, 0x03	; 3
    14cc:	7e c1       	rjmp	.+764    	; 0x17ca
    14ce:	4a 3a       	cpi	r20, 0xAA	; 170
    14d0:	09 f4       	brne	.+2      	; 0x14d4
    14d2:	66 c1       	rjmp	.+716    	; 0x17a0
    14d4:	45 35       	cpi	r20, 0x55	; 85
    14d6:	09 f4       	brne	.+2      	; 0x14da
    14d8:	63 c1       	rjmp	.+710    	; 0x17a0
    14da:	80 91 ef 03 	lds	r24, 0x03EF
    14de:	88 23       	and	r24, r24
    14e0:	09 f4       	brne	.+2      	; 0x14e4
    14e2:	f6 c2       	rjmp	.+1516   	; 0x1ad0
    14e4:	80 91 68 03 	lds	r24, 0x0368
    14e8:	e8 2f       	mov	r30, r24
    14ea:	ff 27       	eor	r31, r31
    14ec:	ea 54       	subi	r30, 0x4A	; 74
    14ee:	ff 4f       	sbci	r31, 0xFF	; 255
    14f0:	84 91       	lpm	r24, Z
    14f2:	28 2f       	mov	r18, r24
    14f4:	33 27       	eor	r19, r19
    14f6:	80 91 90 03 	lds	r24, 0x0390
    14fa:	90 91 91 03 	lds	r25, 0x0391
    14fe:	28 17       	cp	r18, r24
    1500:	39 07       	cpc	r19, r25
    1502:	08 f0       	brcs	.+2      	; 0x1506
    1504:	4d c1       	rjmp	.+666    	; 0x17a0
    1506:	61 ee       	ldi	r22, 0xE1	; 225
    1508:	80 e0       	ldi	r24, 0x00	; 0
    150a:	0e 94 7a 06 	call	0xcf4
    150e:	80 91 b2 03 	lds	r24, 0x03B2
    1512:	68 2f       	mov	r22, r24
    1514:	89 e0       	ldi	r24, 0x09	; 9
    1516:	0e 94 7a 06 	call	0xcf4
    151a:	8a ef       	ldi	r24, 0xFA	; 250
    151c:	90 e0       	ldi	r25, 0x00	; 0
    151e:	00 00       	nop
    1520:	00 00       	nop
    1522:	00 00       	nop
    1524:	00 00       	nop
    1526:	00 00       	nop
    1528:	00 00       	nop
    152a:	00 00       	nop
    152c:	00 00       	nop
    152e:	01 97       	sbiw	r24, 0x01	; 1
    1530:	18 16       	cp	r1, r24
    1532:	19 06       	cpc	r1, r25
    1534:	a4 f3       	brlt	.-24     	; 0x151e
    1536:	80 91 a0 03 	lds	r24, 0x03A0
    153a:	68 2f       	mov	r22, r24
    153c:	8b e0       	ldi	r24, 0x0B	; 11
    153e:	0e 94 7a 06 	call	0xcf4
    1542:	84 e1       	ldi	r24, 0x14	; 20
    1544:	90 e0       	ldi	r25, 0x00	; 0
    1546:	00 00       	nop
    1548:	00 00       	nop
    154a:	00 00       	nop
    154c:	00 00       	nop
    154e:	00 00       	nop
    1550:	00 00       	nop
    1552:	00 00       	nop
    1554:	00 00       	nop
    1556:	01 97       	sbiw	r24, 0x01	; 1
    1558:	18 16       	cp	r1, r24
    155a:	19 06       	cpc	r1, r25
    155c:	a4 f3       	brlt	.-24     	; 0x1546
    155e:	bb 9a       	sbi	0x17, 3	; 23
    1560:	ba 9a       	sbi	0x17, 2	; 23
    1562:	10 92 22 03 	sts	0x0322, r1
    1566:	10 92 21 03 	sts	0x0321, r1
    156a:	10 92 94 04 	sts	0x0494, r1
    156e:	10 92 93 04 	sts	0x0493, r1
    1572:	10 92 75 03 	sts	0x0375, r1
    1576:	82 e0       	ldi	r24, 0x02	; 2
    1578:	80 93 96 04 	sts	0x0496, r24
    157c:	2a ea       	ldi	r18, 0xAA	; 170
    157e:	20 93 6f 03 	sts	0x036F, r18
    1582:	8f b7       	in	r24, 0x3f	; 63
    1584:	f8 94       	cli
    1586:	99 27       	eor	r25, r25
    1588:	20 93 92 03 	sts	0x0392, r18
    158c:	8f bf       	out	0x3f, r24	; 63
    158e:	e0 91 26 05 	lds	r30, 0x0526
    1592:	f0 91 27 05 	lds	r31, 0x0527
    1596:	83 81       	ldd	r24, Z+3	; 0x03
    1598:	87 ff       	sbrs	r24, 7
    159a:	9a c2       	rjmp	.+1332   	; 0x1ad0
    159c:	78 94       	sei
    159e:	80 91 04 01 	lds	r24, 0x0104
    15a2:	88 23       	and	r24, r24
    15a4:	09 f4       	brne	.+2      	; 0x15a8
    15a6:	aa c0       	rjmp	.+340    	; 0x16fc
    15a8:	04 e0       	ldi	r16, 0x04	; 4
    15aa:	10 e0       	ldi	r17, 0x00	; 0
    15ac:	80 91 c3 03 	lds	r24, 0x03C3
    15b0:	99 27       	eor	r25, r25
    15b2:	04 97       	sbiw	r24, 0x04	; 4
    15b4:	80 17       	cp	r24, r16
    15b6:	91 07       	cpc	r25, r17
    15b8:	08 f4       	brcc	.+2      	; 0x15bc
    15ba:	8c 01       	movw	r16, r24
    15bc:	80 91 e6 03 	lds	r24, 0x03E6
    15c0:	90 91 e7 03 	lds	r25, 0x03E7
    15c4:	04 96       	adiw	r24, 0x04	; 4
    15c6:	44 e0       	ldi	r20, 0x04	; 4
    15c8:	50 e0       	ldi	r21, 0x00	; 0
    15ca:	63 e2       	ldi	r22, 0x23	; 35
    15cc:	73 e0       	ldi	r23, 0x03	; 3
    15ce:	0e 94 cc 05 	call	0xb98
    15d2:	a8 01       	movw	r20, r16
    15d4:	60 91 e6 03 	lds	r22, 0x03E6
    15d8:	70 91 e7 03 	lds	r23, 0x03E7
    15dc:	87 e2       	ldi	r24, 0x27	; 39
    15de:	93 e0       	ldi	r25, 0x03	; 3
    15e0:	0e 94 cc 05 	call	0xb98
    15e4:	40 2f       	mov	r20, r16
    15e6:	4c 5f       	subi	r20, 0xFC	; 252
    15e8:	80 91 c3 03 	lds	r24, 0x03C3
    15ec:	48 17       	cp	r20, r24
    15ee:	40 f4       	brcc	.+16     	; 0x1600
    15f0:	e4 2f       	mov	r30, r20
    15f2:	ff 27       	eor	r31, r31
    15f4:	ed 5d       	subi	r30, 0xDD	; 221
    15f6:	fc 4f       	sbci	r31, 0xFC	; 252
    15f8:	10 82       	st	Z, r1
    15fa:	4f 5f       	subi	r20, 0xFF	; 255
    15fc:	48 17       	cp	r20, r24
    15fe:	c0 f3       	brcs	.-16     	; 0x15f0
    1600:	99 27       	eor	r25, r25
    1602:	e0 90 20 02 	lds	r14, 0x0220
    1606:	f0 90 21 02 	lds	r15, 0x0221
    160a:	c0 90 3a 03 	lds	r12, 0x033A
    160e:	d0 90 3b 03 	lds	r13, 0x033B
    1612:	e8 16       	cp	r14, r24
    1614:	f9 06       	cpc	r15, r25
    1616:	0c f0       	brlt	.+2      	; 0x161a
    1618:	54 c0       	rjmp	.+168    	; 0x16c2
    161a:	0e 94 ad 0d 	call	0x1b5a
    161e:	89 83       	std	Y+1, r24	; 0x01
    1620:	9a 83       	std	Y+2, r25	; 0x02
    1622:	1e 2d       	mov	r17, r14
    1624:	2e 2d       	mov	r18, r14
    1626:	33 27       	eor	r19, r19
    1628:	80 91 c3 03 	lds	r24, 0x03C3
    162c:	99 27       	eor	r25, r25
    162e:	01 97       	sbiw	r24, 0x01	; 1
    1630:	28 17       	cp	r18, r24
    1632:	39 07       	cpc	r19, r25
    1634:	d4 f4       	brge	.+52     	; 0x166a
    1636:	2c 0d       	add	r18, r12
    1638:	3d 1d       	adc	r19, r13
    163a:	2b 5f       	subi	r18, 0xFB	; 251
    163c:	3f 4f       	sbci	r19, 0xFF	; 255
    163e:	42 e0       	ldi	r20, 0x02	; 2
    1640:	50 e0       	ldi	r21, 0x00	; 0
    1642:	be 01       	movw	r22, r28
    1644:	6f 5f       	subi	r22, 0xFF	; 255
    1646:	7f 4f       	sbci	r23, 0xFF	; 255
    1648:	c9 01       	movw	r24, r18
    164a:	0e 94 cc 05 	call	0xb98
    164e:	0e 94 ad 0d 	call	0x1b5a
    1652:	89 83       	std	Y+1, r24	; 0x01
    1654:	9a 83       	std	Y+2, r25	; 0x02
    1656:	1e 5f       	subi	r17, 0xFE	; 254
    1658:	21 2f       	mov	r18, r17
    165a:	33 27       	eor	r19, r19
    165c:	80 91 c3 03 	lds	r24, 0x03C3
    1660:	99 27       	eor	r25, r25
    1662:	01 97       	sbiw	r24, 0x01	; 1
    1664:	28 17       	cp	r18, r24
    1666:	39 07       	cpc	r19, r25
    1668:	34 f3       	brlt	.-52     	; 0x1636
    166a:	21 2f       	mov	r18, r17
    166c:	33 27       	eor	r19, r19
    166e:	80 91 c3 03 	lds	r24, 0x03C3
    1672:	99 27       	eor	r25, r25
    1674:	01 97       	sbiw	r24, 0x01	; 1
    1676:	28 17       	cp	r18, r24
    1678:	39 07       	cpc	r19, r25
    167a:	71 f4       	brne	.+28     	; 0x1698
    167c:	c2 0e       	add	r12, r18
    167e:	d3 1e       	adc	r13, r19
    1680:	85 e0       	ldi	r24, 0x05	; 5
    1682:	90 e0       	ldi	r25, 0x00	; 0
    1684:	c8 0e       	add	r12, r24
    1686:	d9 1e       	adc	r13, r25
    1688:	41 e0       	ldi	r20, 0x01	; 1
    168a:	50 e0       	ldi	r21, 0x00	; 0
    168c:	be 01       	movw	r22, r28
    168e:	64 0f       	add	r22, r20
    1690:	75 1f       	adc	r23, r21
    1692:	c6 01       	movw	r24, r12
    1694:	0e 94 cc 05 	call	0xb98
    1698:	60 91 3a 03 	lds	r22, 0x033A
    169c:	70 91 3b 03 	lds	r23, 0x033B
    16a0:	6b 5f       	subi	r22, 0xFB	; 251
    16a2:	7f 4f       	sbci	r23, 0xFF	; 255
    16a4:	80 91 e6 03 	lds	r24, 0x03E6
    16a8:	90 91 e7 03 	lds	r25, 0x03E7
    16ac:	08 96       	adiw	r24, 0x08	; 8
    16ae:	20 91 c3 03 	lds	r18, 0x03C3
    16b2:	33 27       	eor	r19, r19
    16b4:	03 e2       	ldi	r16, 0x23	; 35
    16b6:	13 e0       	ldi	r17, 0x03	; 3
    16b8:	ac 01       	movw	r20, r24
    16ba:	11 c0       	rjmp	.+34     	; 0x16de
    16bc:	8f 5f       	subi	r24, 0xFF	; 255
    16be:	80 83       	st	Z, r24
    16c0:	3c c0       	rjmp	.+120    	; 0x173a
    16c2:	45 e0       	ldi	r20, 0x05	; 5
    16c4:	50 e0       	ldi	r21, 0x00	; 0
    16c6:	c4 0e       	add	r12, r20
    16c8:	d5 1e       	adc	r13, r21
    16ca:	80 91 e6 03 	lds	r24, 0x03E6
    16ce:	90 91 e7 03 	lds	r25, 0x03E7
    16d2:	08 96       	adiw	r24, 0x08	; 8
    16d4:	03 e2       	ldi	r16, 0x23	; 35
    16d6:	13 e0       	ldi	r17, 0x03	; 3
    16d8:	97 01       	movw	r18, r14
    16da:	ac 01       	movw	r20, r24
    16dc:	b6 01       	movw	r22, r12
    16de:	80 e8       	ldi	r24, 0x80	; 128
    16e0:	92 e0       	ldi	r25, 0x02	; 2
    16e2:	0e 94 d0 0d 	call	0x1ba0
    16e6:	40 e0       	ldi	r20, 0x00	; 0
    16e8:	e3 e2       	ldi	r30, 0x23	; 35
    16ea:	f3 e0       	ldi	r31, 0x03	; 3
    16ec:	80 81       	ld	r24, Z
    16ee:	8f 3f       	cpi	r24, 0xFF	; 255
    16f0:	29 f7       	brne	.-54     	; 0x16bc
    16f2:	11 92       	st	Z+, r1
    16f4:	4f 5f       	subi	r20, 0xFF	; 255
    16f6:	42 30       	cpi	r20, 0x02	; 2
    16f8:	c8 f3       	brcs	.-14     	; 0x16ec
    16fa:	1f c0       	rjmp	.+62     	; 0x173a
    16fc:	e0 91 e6 03 	lds	r30, 0x03E6
    1700:	f0 91 e7 03 	lds	r31, 0x03E7
    1704:	34 96       	adiw	r30, 0x04	; 4
    1706:	83 e0       	ldi	r24, 0x03	; 3
    1708:	90 e0       	ldi	r25, 0x00	; 0
    170a:	11 92       	st	Z+, r1
    170c:	01 97       	sbiw	r24, 0x01	; 1
    170e:	5f ef       	ldi	r21, 0xFF	; 255
    1710:	8f 3f       	cpi	r24, 0xFF	; 255
    1712:	95 07       	cpc	r25, r21
    1714:	d1 f7       	brne	.-12     	; 0x170a
    1716:	20 91 3a 03 	lds	r18, 0x033A
    171a:	30 91 3b 03 	lds	r19, 0x033B
    171e:	2b 5f       	subi	r18, 0xFB	; 251
    1720:	3f 4f       	sbci	r19, 0xFF	; 255
    1722:	80 91 e6 03 	lds	r24, 0x03E6
    1726:	90 91 e7 03 	lds	r25, 0x03E7
    172a:	08 96       	adiw	r24, 0x08	; 8
    172c:	40 91 20 02 	lds	r20, 0x0220
    1730:	50 91 21 02 	lds	r21, 0x0221
    1734:	b9 01       	movw	r22, r18
    1736:	0e 94 cc 05 	call	0xb98
    173a:	e0 90 e6 03 	lds	r14, 0x03E6
    173e:	f0 90 e7 03 	lds	r15, 0x03E7
    1742:	00 91 16 02 	lds	r16, 0x0216
    1746:	10 91 17 02 	lds	r17, 0x0217
    174a:	29 e2       	ldi	r18, 0x29	; 41
    174c:	c2 2e       	mov	r12, r18
    174e:	d1 2c       	mov	r13, r1
    1750:	ce 0c       	add	r12, r14
    1752:	df 1c       	adc	r13, r15
    1754:	b8 01       	movw	r22, r16
    1756:	8a e9       	ldi	r24, 0x9A	; 154
    1758:	94 e0       	ldi	r25, 0x04	; 4
    175a:	0e 94 4d 10 	call	0x209a
    175e:	81 30       	cpi	r24, 0x01	; 1
    1760:	71 f4       	brne	.+28     	; 0x177e
    1762:	a8 01       	movw	r20, r16
    1764:	b7 01       	movw	r22, r14
    1766:	8a e9       	ldi	r24, 0x9A	; 154
    1768:	94 e0       	ldi	r25, 0x04	; 4
    176a:	0e 94 86 10 	call	0x210c
    176e:	81 30       	cpi	r24, 0x01	; 1
    1770:	31 f4       	brne	.+12     	; 0x177e
    1772:	45 e0       	ldi	r20, 0x05	; 5
    1774:	b6 01       	movw	r22, r12
    1776:	8a e9       	ldi	r24, 0x9A	; 154
    1778:	94 e0       	ldi	r25, 0x04	; 4
    177a:	0e 94 cf 10 	call	0x219e
    177e:	80 91 e6 03 	lds	r24, 0x03E6
    1782:	90 91 e7 03 	lds	r25, 0x03E7
    1786:	9c 01       	movw	r18, r24
    1788:	2b 5d       	subi	r18, 0xDB	; 219
    178a:	3f 4f       	sbci	r19, 0xFF	; 255
    178c:	44 e0       	ldi	r20, 0x04	; 4
    178e:	50 e0       	ldi	r21, 0x00	; 0
    1790:	89 96       	adiw	r24, 0x29	; 41
    1792:	bc 01       	movw	r22, r24
    1794:	c9 01       	movw	r24, r18
    1796:	0e 94 cc 05 	call	0xb98
    179a:	8f b7       	in	r24, 0x3f	; 63
    179c:	f8 94       	cli
    179e:	98 c1       	rjmp	.+816    	; 0x1ad0
    17a0:	0e 94 ad 0d 	call	0x1b5a
    17a4:	8f 70       	andi	r24, 0x0F	; 15
    17a6:	90 70       	andi	r25, 0x00	; 0
    17a8:	24 e2       	ldi	r18, 0x24	; 36
    17aa:	30 e0       	ldi	r19, 0x00	; 0
    17ac:	82 9f       	mul	r24, r18
    17ae:	a0 01       	movw	r20, r0
    17b0:	83 9f       	mul	r24, r19
    17b2:	50 0d       	add	r21, r0
    17b4:	92 9f       	mul	r25, r18
    17b6:	50 0d       	add	r21, r0
    17b8:	11 24       	eor	r1, r1
    17ba:	ca 01       	movw	r24, r20
    17bc:	82 0f       	add	r24, r18
    17be:	93 1f       	adc	r25, r19
    17c0:	90 93 19 03 	sts	0x0319, r25
    17c4:	80 93 18 03 	sts	0x0318, r24
    17c8:	82 e0       	ldi	r24, 0x02	; 2
    17ca:	80 93 75 03 	sts	0x0375, r24
    17ce:	80 c1       	rjmp	.+768    	; 0x1ad0
    17d0:	4a 3a       	cpi	r20, 0xAA	; 170
    17d2:	11 f0       	breq	.+4      	; 0x17d8
    17d4:	45 35       	cpi	r20, 0x55	; 85
    17d6:	19 f4       	brne	.+6      	; 0x17de
    17d8:	40 93 20 03 	sts	0x0320, r20
    17dc:	79 c1       	rjmp	.+754    	; 0x1ad0
    17de:	80 91 39 03 	lds	r24, 0x0339
    17e2:	99 27       	eor	r25, r25
    17e4:	00 97       	sbiw	r24, 0x00	; 0
    17e6:	21 f0       	breq	.+8      	; 0x17f0
    17e8:	03 97       	sbiw	r24, 0x03	; 3
    17ea:	0c f0       	brlt	.+2      	; 0x17ee
    17ec:	4a c0       	rjmp	.+148    	; 0x1882
    17ee:	06 c0       	rjmp	.+12     	; 0x17fc
    17f0:	40 93 1f 03 	sts	0x031F, r20
    17f4:	49 c0       	rjmp	.+146    	; 0x1888
    17f6:	0e 94 d5 07 	call	0xfaa
    17fa:	43 c0       	rjmp	.+134    	; 0x1882
    17fc:	20 91 1f 03 	lds	r18, 0x031F
    1800:	30 91 20 03 	lds	r19, 0x0320
    1804:	92 2f       	mov	r25, r18
    1806:	88 27       	eor	r24, r24
    1808:	90 93 20 03 	sts	0x0320, r25
    180c:	80 93 1f 03 	sts	0x031F, r24
    1810:	40 93 1f 03 	sts	0x031F, r20
    1814:	00 e0       	ldi	r16, 0x00	; 0
    1816:	22 0f       	add	r18, r18
    1818:	33 1f       	adc	r19, r19
    181a:	47 fd       	sbrc	r20, 7
    181c:	21 60       	ori	r18, 0x01	; 1
    181e:	44 0f       	add	r20, r20
    1820:	53 e3       	ldi	r21, 0x33	; 51
    1822:	2c 3c       	cpi	r18, 0xCC	; 204
    1824:	35 07       	cpc	r19, r21
    1826:	49 f5       	brne	.+82     	; 0x187a
    1828:	e0 91 36 03 	lds	r30, 0x0336
    182c:	f0 91 37 03 	lds	r31, 0x0337
    1830:	43 81       	ldd	r20, Z+3	; 0x03
    1832:	44 23       	and	r20, r20
    1834:	01 f7       	brne	.-64     	; 0x17f6
    1836:	85 e0       	ldi	r24, 0x05	; 5
    1838:	80 93 75 03 	sts	0x0375, r24
    183c:	8f b7       	in	r24, 0x3f	; 63
    183e:	f8 94       	cli
    1840:	18 2f       	mov	r17, r24
    1842:	20 91 b7 03 	lds	r18, 0x03B7
    1846:	30 91 b8 03 	lds	r19, 0x03B8
    184a:	20 fd       	sbrc	r18, 0
    184c:	10 c0       	rjmp	.+32     	; 0x186e
    184e:	c9 01       	movw	r24, r18
    1850:	81 60       	ori	r24, 0x01	; 1
    1852:	90 93 b8 03 	sts	0x03B8, r25
    1856:	80 93 b7 03 	sts	0x03B7, r24
    185a:	21 15       	cp	r18, r1
    185c:	31 05       	cpc	r19, r1
    185e:	39 f4       	brne	.+14     	; 0x186e
    1860:	30 93 5d 05 	sts	0x055D, r19
    1864:	20 93 5c 05 	sts	0x055C, r18
    1868:	84 2f       	mov	r24, r20
    186a:	0e 94 9d 08 	call	0x113a
    186e:	1f bf       	out	0x3f, r17	; 63
    1870:	87 e0       	ldi	r24, 0x07	; 7
    1872:	80 1b       	sub	r24, r16
    1874:	80 93 f0 03 	sts	0x03F0, r24
    1878:	07 c0       	rjmp	.+14     	; 0x1888
    187a:	0f 5f       	subi	r16, 0xFF	; 255
    187c:	08 30       	cpi	r16, 0x08	; 8
    187e:	58 f2       	brcs	.-106    	; 0x1816
    1880:	03 c0       	rjmp	.+6      	; 0x1888
    1882:	82 e0       	ldi	r24, 0x02	; 2
    1884:	80 93 75 03 	sts	0x0375, r24
    1888:	80 91 39 03 	lds	r24, 0x0339
    188c:	8f 5f       	subi	r24, 0xFF	; 255
    188e:	80 93 39 03 	sts	0x0339, r24
    1892:	1e c1       	rjmp	.+572    	; 0x1ad0
    1894:	80 91 1f 03 	lds	r24, 0x031F
    1898:	90 91 20 03 	lds	r25, 0x0320
    189c:	98 2f       	mov	r25, r24
    189e:	88 27       	eor	r24, r24
    18a0:	90 93 20 03 	sts	0x0320, r25
    18a4:	80 93 1f 03 	sts	0x031F, r24
    18a8:	40 93 1f 03 	sts	0x031F, r20
    18ac:	20 91 1f 03 	lds	r18, 0x031F
    18b0:	30 91 20 03 	lds	r19, 0x0320
    18b4:	00 90 f0 03 	lds	r0, 0x03F0
    18b8:	02 c0       	rjmp	.+4      	; 0x18be
    18ba:	36 95       	lsr	r19
    18bc:	27 95       	ror	r18
    18be:	0a 94       	dec	r0
    18c0:	e2 f7       	brpl	.-8      	; 0x18ba
    18c2:	e0 91 36 03 	lds	r30, 0x0336
    18c6:	f0 91 37 03 	lds	r31, 0x0337
    18ca:	80 91 eb 03 	lds	r24, 0x03EB
    18ce:	90 91 ec 03 	lds	r25, 0x03EC
    18d2:	e8 0f       	add	r30, r24
    18d4:	f9 1f       	adc	r31, r25
    18d6:	20 83       	st	Z, r18
    18d8:	80 91 eb 03 	lds	r24, 0x03EB
    18dc:	90 91 ec 03 	lds	r25, 0x03EC
    18e0:	01 96       	adiw	r24, 0x01	; 1
    18e2:	90 93 ec 03 	sts	0x03EC, r25
    18e6:	80 93 eb 03 	sts	0x03EB, r24
    18ea:	80 91 93 04 	lds	r24, 0x0493
    18ee:	90 91 94 04 	lds	r25, 0x0494
    18f2:	e7 e7       	ldi	r30, 0x77	; 119
    18f4:	f1 e0       	ldi	r31, 0x01	; 1
    18f6:	42 2f       	mov	r20, r18
    18f8:	49 27       	eor	r20, r25
    18fa:	44 0f       	add	r20, r20
    18fc:	f1 1d       	adc	r31, r1
    18fe:	e4 0f       	add	r30, r20
    1900:	f1 1d       	adc	r31, r1
    1902:	c8 95       	lpm
    1904:	98 2f       	mov	r25, r24
    1906:	80 2d       	mov	r24, r0
    1908:	31 96       	adiw	r30, 0x01	; 1
    190a:	c8 95       	lpm
    190c:	90 25       	eor	r25, r0
    190e:	90 93 94 04 	sts	0x0494, r25
    1912:	80 93 93 04 	sts	0x0493, r24
    1916:	82 2f       	mov	r24, r18
    1918:	39 c0       	rjmp	.+114    	; 0x198c
    191a:	80 91 1f 03 	lds	r24, 0x031F
    191e:	90 91 20 03 	lds	r25, 0x0320
    1922:	98 2f       	mov	r25, r24
    1924:	88 27       	eor	r24, r24
    1926:	90 93 20 03 	sts	0x0320, r25
    192a:	80 93 1f 03 	sts	0x031F, r24
    192e:	40 93 1f 03 	sts	0x031F, r20
    1932:	00 91 1f 03 	lds	r16, 0x031F
    1936:	10 91 20 03 	lds	r17, 0x0320
    193a:	00 90 f0 03 	lds	r0, 0x03F0
    193e:	02 c0       	rjmp	.+4      	; 0x1944
    1940:	16 95       	lsr	r17
    1942:	07 95       	ror	r16
    1944:	0a 94       	dec	r0
    1946:	e2 f7       	brpl	.-8      	; 0x1940
    1948:	20 91 eb 03 	lds	r18, 0x03EB
    194c:	30 91 ec 03 	lds	r19, 0x03EC
    1950:	2f 5f       	subi	r18, 0xFF	; 255
    1952:	3f 4f       	sbci	r19, 0xFF	; 255
    1954:	30 93 ec 03 	sts	0x03EC, r19
    1958:	20 93 eb 03 	sts	0x03EB, r18
    195c:	80 91 48 04 	lds	r24, 0x0448
    1960:	90 91 49 04 	lds	r25, 0x0449
    1964:	04 96       	adiw	r24, 0x04	; 4
    1966:	28 17       	cp	r18, r24
    1968:	39 07       	cpc	r19, r25
    196a:	79 f4       	brne	.+30     	; 0x198a
    196c:	0e 94 7f 18 	call	0x30fe
    1970:	82 e0       	ldi	r24, 0x02	; 2
    1972:	80 93 75 03 	sts	0x0375, r24
    1976:	e0 91 36 03 	lds	r30, 0x0336
    197a:	f0 91 37 03 	lds	r31, 0x0337
    197e:	80 91 90 03 	lds	r24, 0x0390
    1982:	90 91 91 03 	lds	r25, 0x0391
    1986:	84 a3       	std	Z+36, r24	; 0x24
    1988:	95 a3       	std	Z+37, r25	; 0x25
    198a:	80 2f       	mov	r24, r16
    198c:	0e 94 0e 11 	call	0x221c
    1990:	9f c0       	rjmp	.+318    	; 0x1ad0
    1992:	80 91 1f 03 	lds	r24, 0x031F
    1996:	90 91 20 03 	lds	r25, 0x0320
    199a:	98 2f       	mov	r25, r24
    199c:	88 27       	eor	r24, r24
    199e:	90 93 20 03 	sts	0x0320, r25
    19a2:	80 93 1f 03 	sts	0x031F, r24
    19a6:	40 93 1f 03 	sts	0x031F, r20
    19aa:	20 91 1f 03 	lds	r18, 0x031F
    19ae:	30 91 20 03 	lds	r19, 0x0320
    19b2:	00 90 f0 03 	lds	r0, 0x03F0
    19b6:	02 c0       	rjmp	.+4      	; 0x19bc
    19b8:	36 95       	lsr	r19
    19ba:	27 95       	ror	r18
    19bc:	0a 94       	dec	r0
    19be:	e2 f7       	brpl	.-8      	; 0x19b8
    19c0:	42 2f       	mov	r20, r18
    19c2:	e0 91 36 03 	lds	r30, 0x0336
    19c6:	f0 91 37 03 	lds	r31, 0x0337
    19ca:	80 91 eb 03 	lds	r24, 0x03EB
    19ce:	90 91 ec 03 	lds	r25, 0x03EC
    19d2:	e8 0f       	add	r30, r24
    19d4:	f9 1f       	adc	r31, r25
    19d6:	20 83       	st	Z, r18
    19d8:	80 91 eb 03 	lds	r24, 0x03EB
    19dc:	90 91 ec 03 	lds	r25, 0x03EC
    19e0:	01 96       	adiw	r24, 0x01	; 1
    19e2:	90 93 ec 03 	sts	0x03EC, r25
    19e6:	80 93 eb 03 	sts	0x03EB, r24
    19ea:	20 91 48 04 	lds	r18, 0x0448
    19ee:	30 91 49 04 	lds	r19, 0x0449
    19f2:	82 17       	cp	r24, r18
    19f4:	93 07       	cpc	r25, r19
    19f6:	b0 f4       	brcc	.+44     	; 0x1a24
    19f8:	80 91 93 04 	lds	r24, 0x0493
    19fc:	90 91 94 04 	lds	r25, 0x0494
    1a00:	e7 e7       	ldi	r30, 0x77	; 119
    1a02:	f1 e0       	ldi	r31, 0x01	; 1
    1a04:	49 27       	eor	r20, r25
    1a06:	44 0f       	add	r20, r20
    1a08:	f1 1d       	adc	r31, r1
    1a0a:	e4 0f       	add	r30, r20
    1a0c:	f1 1d       	adc	r31, r1
    1a0e:	c8 95       	lpm
    1a10:	98 2f       	mov	r25, r24
    1a12:	80 2d       	mov	r24, r0
    1a14:	31 96       	adiw	r30, 0x01	; 1
    1a16:	c8 95       	lpm
    1a18:	90 25       	eor	r25, r0
    1a1a:	90 93 94 04 	sts	0x0494, r25
    1a1e:	80 93 93 04 	sts	0x0493, r24
    1a22:	56 c0       	rjmp	.+172    	; 0x1ad0
    1a24:	82 17       	cp	r24, r18
    1a26:	93 07       	cpc	r25, r19
    1a28:	e1 f4       	brne	.+56     	; 0x1a62
    1a2a:	80 91 93 04 	lds	r24, 0x0493
    1a2e:	90 91 94 04 	lds	r25, 0x0494
    1a32:	e7 e7       	ldi	r30, 0x77	; 119
    1a34:	f1 e0       	ldi	r31, 0x01	; 1
    1a36:	49 27       	eor	r20, r25
    1a38:	44 0f       	add	r20, r20
    1a3a:	f1 1d       	adc	r31, r1
    1a3c:	e4 0f       	add	r30, r20
    1a3e:	f1 1d       	adc	r31, r1
    1a40:	c8 95       	lpm
    1a42:	98 2f       	mov	r25, r24
    1a44:	80 2d       	mov	r24, r0
    1a46:	31 96       	adiw	r30, 0x01	; 1
    1a48:	c8 95       	lpm
    1a4a:	90 25       	eor	r25, r0
    1a4c:	90 93 94 04 	sts	0x0494, r25
    1a50:	80 93 93 04 	sts	0x0493, r24
    1a54:	82 e2       	ldi	r24, 0x22	; 34
    1a56:	90 e0       	ldi	r25, 0x00	; 0
    1a58:	90 93 ec 03 	sts	0x03EC, r25
    1a5c:	80 93 eb 03 	sts	0x03EB, r24
    1a60:	37 c0       	rjmp	.+110    	; 0x1ad0
    1a62:	84 97       	sbiw	r24, 0x24	; 36
    1a64:	a8 f1       	brcs	.+106    	; 0x1ad0
    1a66:	e0 91 36 03 	lds	r30, 0x0336
    1a6a:	f0 91 37 03 	lds	r31, 0x0337
    1a6e:	22 a1       	ldd	r18, Z+34	; 0x22
    1a70:	33 a1       	ldd	r19, Z+35	; 0x23
    1a72:	80 91 93 04 	lds	r24, 0x0493
    1a76:	90 91 94 04 	lds	r25, 0x0494
    1a7a:	28 17       	cp	r18, r24
    1a7c:	39 07       	cpc	r19, r25
    1a7e:	29 f4       	brne	.+10     	; 0x1a8a
    1a80:	81 e0       	ldi	r24, 0x01	; 1
    1a82:	90 e0       	ldi	r25, 0x00	; 0
    1a84:	82 a3       	std	Z+34, r24	; 0x22
    1a86:	93 a3       	std	Z+35, r25	; 0x23
    1a88:	02 c0       	rjmp	.+4      	; 0x1a8e
    1a8a:	12 a2       	std	Z+34, r1	; 0x22
    1a8c:	13 a2       	std	Z+35, r1	; 0x23
    1a8e:	0e 94 7f 18 	call	0x30fe
    1a92:	12 e0       	ldi	r17, 0x02	; 2
    1a94:	10 93 75 03 	sts	0x0375, r17
    1a98:	e0 91 36 03 	lds	r30, 0x0336
    1a9c:	f0 91 37 03 	lds	r31, 0x0337
    1aa0:	80 91 90 03 	lds	r24, 0x0390
    1aa4:	90 91 91 03 	lds	r25, 0x0391
    1aa8:	84 a3       	std	Z+36, r24	; 0x24
    1aaa:	95 a3       	std	Z+37, r25	; 0x25
    1aac:	85 e2       	ldi	r24, 0x25	; 37
    1aae:	98 e1       	ldi	r25, 0x18	; 24
    1ab0:	0e 94 b2 02 	call	0x564
    1ab4:	88 23       	and	r24, r24
    1ab6:	61 f4       	brne	.+24     	; 0x1ad0
    1ab8:	e0 91 36 03 	lds	r30, 0x0336
    1abc:	f0 91 37 03 	lds	r31, 0x0337
    1ac0:	83 83       	std	Z+3, r24	; 0x03
    1ac2:	10 93 75 03 	sts	0x0375, r17
    1ac6:	80 ec       	ldi	r24, 0xC0	; 192
    1ac8:	8d b9       	out	0x0d, r24	; 13
    1aca:	b8 98       	cbi	0x17, 0	; 23
    1acc:	0e 94 1e 07 	call	0xe3c
    1ad0:	81 e0       	ldi	r24, 0x01	; 1
    1ad2:	90 e0       	ldi	r25, 0x00	; 0
    1ad4:	22 96       	adiw	r28, 0x02	; 2
    1ad6:	0f b6       	in	r0, 0x3f	; 63
    1ad8:	f8 94       	cli
    1ada:	de bf       	out	0x3e, r29	; 62
    1adc:	0f be       	out	0x3f, r0	; 63
    1ade:	cd bf       	out	0x3d, r28	; 61
    1ae0:	df 91       	pop	r29
    1ae2:	cf 91       	pop	r28
    1ae4:	1f 91       	pop	r17
    1ae6:	0f 91       	pop	r16
    1ae8:	ff 90       	pop	r15
    1aea:	ef 90       	pop	r14
    1aec:	df 90       	pop	r13
    1aee:	cf 90       	pop	r12
    1af0:	08 95       	ret

00001af2 <CC1000RadioIntTinySecM$swapLengthAndGroup>:
    1af2:	fc 01       	movw	r30, r24
    1af4:	93 81       	ldd	r25, Z+3	; 0x03
    1af6:	84 81       	ldd	r24, Z+4	; 0x04
    1af8:	83 83       	std	Z+3, r24	; 0x03
    1afa:	94 83       	std	Z+4, r25	; 0x04
    1afc:	08 95       	ret

00001afe <AMStandardTinySec$reportSendDone>:
    1afe:	fc 01       	movw	r30, r24
    1b00:	8f b7       	in	r24, 0x3f	; 63
    1b02:	f8 94       	cli
    1b04:	99 27       	eor	r25, r25
    1b06:	10 92 7a 03 	sts	0x037A, r1
    1b0a:	8f bf       	out	0x3f, r24	; 63
    1b0c:	81 a5       	ldd	r24, Z+41	; 0x29
    1b0e:	82 30       	cpi	r24, 0x02	; 2
    1b10:	d1 f4       	brne	.+52     	; 0x1b46
    1b12:	82 81       	ldd	r24, Z+2	; 0x02
    1b14:	84 30       	cpi	r24, 0x04	; 4
    1b16:	f1 f4       	brne	.+60     	; 0x1b54
    1b18:	8f b7       	in	r24, 0x3f	; 63
    1b1a:	f8 94       	cli
    1b1c:	38 2f       	mov	r19, r24
    1b1e:	20 91 4d 04 	lds	r18, 0x044D
    1b22:	21 ff       	sbrs	r18, 1
    1b24:	06 c0       	rjmp	.+12     	; 0x1b32
    1b26:	8f b7       	in	r24, 0x3f	; 63
    1b28:	f8 94       	cli
    1b2a:	99 27       	eor	r25, r25
    1b2c:	d9 9a       	sbi	0x1b, 1	; 27
    1b2e:	2d 7f       	andi	r18, 0xFD	; 253
    1b30:	05 c0       	rjmp	.+10     	; 0x1b3c
    1b32:	8f b7       	in	r24, 0x3f	; 63
    1b34:	f8 94       	cli
    1b36:	99 27       	eor	r25, r25
    1b38:	d9 98       	cbi	0x1b, 1	; 27
    1b3a:	22 60       	ori	r18, 0x02	; 2
    1b3c:	20 93 4d 04 	sts	0x044D, r18
    1b40:	8f bf       	out	0x3f, r24	; 63
    1b42:	3f bf       	out	0x3f, r19	; 63
    1b44:	07 c0       	rjmp	.+14     	; 0x1b54
    1b46:	81 30       	cpi	r24, 0x01	; 1
    1b48:	29 f0       	breq	.+10     	; 0x1b54
    1b4a:	83 30       	cpi	r24, 0x03	; 3
    1b4c:	19 f0       	breq	.+6      	; 0x1b54
    1b4e:	80 e0       	ldi	r24, 0x00	; 0
    1b50:	90 e0       	ldi	r25, 0x00	; 0
    1b52:	08 95       	ret
    1b54:	81 e0       	ldi	r24, 0x01	; 1
    1b56:	90 e0       	ldi	r25, 0x00	; 0
    1b58:	08 95       	ret

00001b5a <RandomLFSR$Random$rand>:
    1b5a:	8f b7       	in	r24, 0x3f	; 63
    1b5c:	f8 94       	cli
    1b5e:	48 2f       	mov	r20, r24
    1b60:	55 27       	eor	r21, r21
    1b62:	20 91 10 04 	lds	r18, 0x0410
    1b66:	30 91 11 04 	lds	r19, 0x0411
    1b6a:	83 2f       	mov	r24, r19
    1b6c:	88 1f       	adc	r24, r24
    1b6e:	88 27       	eor	r24, r24
    1b70:	88 1f       	adc	r24, r24
    1b72:	22 0f       	add	r18, r18
    1b74:	33 1f       	adc	r19, r19
    1b76:	88 23       	and	r24, r24
    1b78:	21 f0       	breq	.+8      	; 0x1b82
    1b7a:	8b e0       	ldi	r24, 0x0B	; 11
    1b7c:	90 e1       	ldi	r25, 0x10	; 16
    1b7e:	28 27       	eor	r18, r24
    1b80:	39 27       	eor	r19, r25
    1b82:	2f 5f       	subi	r18, 0xFF	; 255
    1b84:	3f 4f       	sbci	r19, 0xFF	; 255
    1b86:	30 93 11 04 	sts	0x0411, r19
    1b8a:	20 93 10 04 	sts	0x0410, r18
    1b8e:	80 91 6d 03 	lds	r24, 0x036D
    1b92:	90 91 6e 03 	lds	r25, 0x036E
    1b96:	28 27       	eor	r18, r24
    1b98:	39 27       	eor	r19, r25
    1b9a:	4f bf       	out	0x3f, r20	; 63
    1b9c:	c9 01       	movw	r24, r18
    1b9e:	08 95       	ret

00001ba0 <CBCModeM$BlockCipherMode$encrypt>:
    1ba0:	2f 92       	push	r2
    1ba2:	3f 92       	push	r3
    1ba4:	4f 92       	push	r4
    1ba6:	5f 92       	push	r5
    1ba8:	6f 92       	push	r6
    1baa:	7f 92       	push	r7
    1bac:	8f 92       	push	r8
    1bae:	9f 92       	push	r9
    1bb0:	af 92       	push	r10
    1bb2:	bf 92       	push	r11
    1bb4:	cf 92       	push	r12
    1bb6:	df 92       	push	r13
    1bb8:	ef 92       	push	r14
    1bba:	ff 92       	push	r15
    1bbc:	0f 93       	push	r16
    1bbe:	1f 93       	push	r17
    1bc0:	cf 93       	push	r28
    1bc2:	df 93       	push	r29
    1bc4:	cd b7       	in	r28, 0x3d	; 61
    1bc6:	de b7       	in	r29, 0x3e	; 62
    1bc8:	62 97       	sbiw	r28, 0x12	; 18
    1bca:	0f b6       	in	r0, 0x3f	; 63
    1bcc:	f8 94       	cli
    1bce:	de bf       	out	0x3e, r29	; 62
    1bd0:	0f be       	out	0x3f, r0	; 63
    1bd2:	cd bf       	out	0x3d, r28	; 61
    1bd4:	4c 01       	movw	r8, r24
    1bd6:	69 8b       	std	Y+17, r22	; 0x11
    1bd8:	7a 8b       	std	Y+18, r23	; 0x12
    1bda:	2a 01       	movw	r4, r20
    1bdc:	79 01       	movw	r14, r18
    1bde:	cc 24       	eor	r12, r12
    1be0:	dd 24       	eor	r13, r13
    1be2:	80 e8       	ldi	r24, 0x80	; 128
    1be4:	90 e0       	ldi	r25, 0x00	; 0
    1be6:	88 0e       	add	r8, r24
    1be8:	99 1e       	adc	r9, r25
    1bea:	f4 01       	movw	r30, r8
    1bec:	30 88       	ldd	r3, Z+16	; 0x10
    1bee:	80 e8       	ldi	r24, 0x80	; 128
    1bf0:	9f ef       	ldi	r25, 0xFF	; 255
    1bf2:	88 0e       	add	r8, r24
    1bf4:	99 1e       	adc	r9, r25
    1bf6:	23 2c       	mov	r2, r3
    1bf8:	23 0c       	add	r2, r3
    1bfa:	21 15       	cp	r18, r1
    1bfc:	31 05       	cpc	r19, r1
    1bfe:	09 f4       	brne	.+2      	; 0x1c02
    1c00:	bc c0       	rjmp	.+376    	; 0x1d7a
    1c02:	83 2f       	mov	r24, r19
    1c04:	99 27       	eor	r25, r25
    1c06:	63 2c       	mov	r6, r3
    1c08:	77 24       	eor	r7, r7
    1c0a:	68 16       	cp	r6, r24
    1c0c:	79 06       	cpc	r7, r25
    1c0e:	08 f4       	brcc	.+2      	; 0x1c12
    1c10:	b1 c0       	rjmp	.+354    	; 0x1d74
    1c12:	26 15       	cp	r18, r6
    1c14:	37 05       	cpc	r19, r7
    1c16:	08 f4       	brcc	.+2      	; 0x1c1a
    1c18:	ad c0       	rjmp	.+346    	; 0x1d74
    1c1a:	69 e0       	ldi	r22, 0x09	; 9
    1c1c:	a6 2e       	mov	r10, r22
    1c1e:	b1 2c       	mov	r11, r1
    1c20:	ac 0e       	add	r10, r28
    1c22:	bd 1e       	adc	r11, r29
    1c24:	a5 01       	movw	r20, r10
    1c26:	b8 01       	movw	r22, r16
    1c28:	c4 01       	movw	r24, r8
    1c2a:	0e 94 d9 0e 	call	0x1db2
    1c2e:	88 23       	and	r24, r24
    1c30:	09 f4       	brne	.+2      	; 0x1c34
    1c32:	a0 c0       	rjmp	.+320    	; 0x1d74
    1c34:	85 01       	movw	r16, r10
    1c36:	e6 14       	cp	r14, r6
    1c38:	f7 04       	cpc	r15, r7
    1c3a:	c9 f4       	brne	.+50     	; 0x1c6e
    1c3c:	40 e0       	ldi	r20, 0x00	; 0
    1c3e:	43 15       	cp	r20, r3
    1c40:	98 f4       	brcc	.+38     	; 0x1c68
    1c42:	e4 2f       	mov	r30, r20
    1c44:	ff 27       	eor	r31, r31
    1c46:	92 01       	movw	r18, r4
    1c48:	2e 0f       	add	r18, r30
    1c4a:	3f 1f       	adc	r19, r31
    1c4c:	a9 89       	ldd	r26, Y+17	; 0x11
    1c4e:	ba 89       	ldd	r27, Y+18	; 0x12
    1c50:	ae 0f       	add	r26, r30
    1c52:	bf 1f       	adc	r27, r31
    1c54:	ea 0d       	add	r30, r10
    1c56:	fb 1d       	adc	r31, r11
    1c58:	8c 91       	ld	r24, X
    1c5a:	90 81       	ld	r25, Z
    1c5c:	89 27       	eor	r24, r25
    1c5e:	f9 01       	movw	r30, r18
    1c60:	80 83       	st	Z, r24
    1c62:	4f 5f       	subi	r20, 0xFF	; 255
    1c64:	43 15       	cp	r20, r3
    1c66:	68 f3       	brcs	.-38     	; 0x1c42
    1c68:	a2 01       	movw	r20, r4
    1c6a:	b2 01       	movw	r22, r4
    1c6c:	7e c0       	rjmp	.+252    	; 0x1d6a
    1c6e:	a2 2c       	mov	r10, r2
    1c70:	bb 24       	eor	r11, r11
    1c72:	ae 14       	cp	r10, r14
    1c74:	bf 04       	cpc	r11, r15
    1c76:	90 f5       	brcc	.+100    	; 0x1cdc
    1c78:	c7 01       	movw	r24, r14
    1c7a:	8a 19       	sub	r24, r10
    1c7c:	9b 09       	sbc	r25, r11
    1c7e:	c8 16       	cp	r12, r24
    1c80:	d9 06       	cpc	r13, r25
    1c82:	60 f5       	brcc	.+88     	; 0x1cdc
    1c84:	40 e0       	ldi	r20, 0x00	; 0
    1c86:	43 15       	cp	r20, r3
    1c88:	b0 f4       	brcc	.+44     	; 0x1cb6
    1c8a:	a4 2f       	mov	r26, r20
    1c8c:	bb 27       	eor	r27, r27
    1c8e:	f6 01       	movw	r30, r12
    1c90:	ea 0f       	add	r30, r26
    1c92:	fb 1f       	adc	r31, r27
    1c94:	92 01       	movw	r18, r4
    1c96:	2e 0f       	add	r18, r30
    1c98:	3f 1f       	adc	r19, r31
    1c9a:	89 89       	ldd	r24, Y+17	; 0x11
    1c9c:	9a 89       	ldd	r25, Y+18	; 0x12
    1c9e:	e8 0f       	add	r30, r24
    1ca0:	f9 1f       	adc	r31, r25
    1ca2:	a0 0f       	add	r26, r16
    1ca4:	b1 1f       	adc	r27, r17
    1ca6:	80 81       	ld	r24, Z
    1ca8:	9c 91       	ld	r25, X
    1caa:	89 27       	eor	r24, r25
    1cac:	f9 01       	movw	r30, r18
    1cae:	80 83       	st	Z, r24
    1cb0:	4f 5f       	subi	r20, 0xFF	; 255
    1cb2:	43 15       	cp	r20, r3
    1cb4:	50 f3       	brcs	.-44     	; 0x1c8a
    1cb6:	82 01       	movw	r16, r4
    1cb8:	0c 0d       	add	r16, r12
    1cba:	1d 1d       	adc	r17, r13
    1cbc:	a8 01       	movw	r20, r16
    1cbe:	b8 01       	movw	r22, r16
    1cc0:	c4 01       	movw	r24, r8
    1cc2:	0e 94 d9 0e 	call	0x1db2
    1cc6:	88 23       	and	r24, r24
    1cc8:	09 f4       	brne	.+2      	; 0x1ccc
    1cca:	54 c0       	rjmp	.+168    	; 0x1d74
    1ccc:	c6 0c       	add	r12, r6
    1cce:	d7 1c       	adc	r13, r7
    1cd0:	c7 01       	movw	r24, r14
    1cd2:	8a 19       	sub	r24, r10
    1cd4:	9b 09       	sbc	r25, r11
    1cd6:	c8 16       	cp	r12, r24
    1cd8:	d9 06       	cpc	r13, r25
    1cda:	a0 f2       	brcs	.-88     	; 0x1c84
    1cdc:	40 e0       	ldi	r20, 0x00	; 0
    1cde:	43 15       	cp	r20, r3
    1ce0:	b0 f4       	brcc	.+44     	; 0x1d0e
    1ce2:	a4 2f       	mov	r26, r20
    1ce4:	bb 27       	eor	r27, r27
    1ce6:	9e 01       	movw	r18, r28
    1ce8:	2a 0f       	add	r18, r26
    1cea:	3b 1f       	adc	r19, r27
    1cec:	f6 01       	movw	r30, r12
    1cee:	ea 0f       	add	r30, r26
    1cf0:	fb 1f       	adc	r31, r27
    1cf2:	89 89       	ldd	r24, Y+17	; 0x11
    1cf4:	9a 89       	ldd	r25, Y+18	; 0x12
    1cf6:	e8 0f       	add	r30, r24
    1cf8:	f9 1f       	adc	r31, r25
    1cfa:	a0 0f       	add	r26, r16
    1cfc:	b1 1f       	adc	r27, r17
    1cfe:	80 81       	ld	r24, Z
    1d00:	9c 91       	ld	r25, X
    1d02:	89 27       	eor	r24, r25
    1d04:	f9 01       	movw	r30, r18
    1d06:	81 83       	std	Z+1, r24	; 0x01
    1d08:	4f 5f       	subi	r20, 0xFF	; 255
    1d0a:	43 15       	cp	r20, r3
    1d0c:	50 f3       	brcs	.-44     	; 0x1ce2
    1d0e:	8e 01       	movw	r16, r28
    1d10:	0f 5f       	subi	r16, 0xFF	; 255
    1d12:	1f 4f       	sbci	r17, 0xFF	; 255
    1d14:	a8 01       	movw	r20, r16
    1d16:	b8 01       	movw	r22, r16
    1d18:	c4 01       	movw	r24, r8
    1d1a:	0e 94 d9 0e 	call	0x1db2
    1d1e:	88 23       	and	r24, r24
    1d20:	49 f1       	breq	.+82     	; 0x1d74
    1d22:	4e 2d       	mov	r20, r14
    1d24:	4c 19       	sub	r20, r12
    1d26:	43 19       	sub	r20, r3
    1d28:	30 e0       	ldi	r19, 0x00	; 0
    1d2a:	34 17       	cp	r19, r20
    1d2c:	c0 f4       	brcc	.+48     	; 0x1d5e
    1d2e:	83 2f       	mov	r24, r19
    1d30:	99 27       	eor	r25, r25
    1d32:	d6 01       	movw	r26, r12
    1d34:	a3 0d       	add	r26, r3
    1d36:	b1 1d       	adc	r27, r1
    1d38:	a8 0f       	add	r26, r24
    1d3a:	b9 1f       	adc	r27, r25
    1d3c:	e9 89       	ldd	r30, Y+17	; 0x11
    1d3e:	fa 89       	ldd	r31, Y+18	; 0x12
    1d40:	ea 0f       	add	r30, r26
    1d42:	fb 1f       	adc	r31, r27
    1d44:	20 81       	ld	r18, Z
    1d46:	a4 0d       	add	r26, r4
    1d48:	b5 1d       	adc	r27, r5
    1d4a:	f8 01       	movw	r30, r16
    1d4c:	e8 0f       	add	r30, r24
    1d4e:	f9 1f       	adc	r31, r25
    1d50:	80 81       	ld	r24, Z
    1d52:	8c 93       	st	X, r24
    1d54:	82 27       	eor	r24, r18
    1d56:	80 83       	st	Z, r24
    1d58:	3f 5f       	subi	r19, 0xFF	; 255
    1d5a:	34 17       	cp	r19, r20
    1d5c:	40 f3       	brcs	.-48     	; 0x1d2e
    1d5e:	c4 0c       	add	r12, r4
    1d60:	d5 1c       	adc	r13, r5
    1d62:	a6 01       	movw	r20, r12
    1d64:	be 01       	movw	r22, r28
    1d66:	6f 5f       	subi	r22, 0xFF	; 255
    1d68:	7f 4f       	sbci	r23, 0xFF	; 255
    1d6a:	c4 01       	movw	r24, r8
    1d6c:	0e 94 d9 0e 	call	0x1db2
    1d70:	88 23       	and	r24, r24
    1d72:	19 f4       	brne	.+6      	; 0x1d7a
    1d74:	40 e0       	ldi	r20, 0x00	; 0
    1d76:	50 e0       	ldi	r21, 0x00	; 0
    1d78:	02 c0       	rjmp	.+4      	; 0x1d7e
    1d7a:	41 e0       	ldi	r20, 0x01	; 1
    1d7c:	50 e0       	ldi	r21, 0x00	; 0
    1d7e:	ca 01       	movw	r24, r20
    1d80:	62 96       	adiw	r28, 0x12	; 18
    1d82:	0f b6       	in	r0, 0x3f	; 63
    1d84:	f8 94       	cli
    1d86:	de bf       	out	0x3e, r29	; 62
    1d88:	0f be       	out	0x3f, r0	; 63
    1d8a:	cd bf       	out	0x3d, r28	; 61
    1d8c:	df 91       	pop	r29
    1d8e:	cf 91       	pop	r28
    1d90:	1f 91       	pop	r17
    1d92:	0f 91       	pop	r16
    1d94:	ff 90       	pop	r15
    1d96:	ef 90       	pop	r14
    1d98:	df 90       	pop	r13
    1d9a:	cf 90       	pop	r12
    1d9c:	bf 90       	pop	r11
    1d9e:	af 90       	pop	r10
    1da0:	9f 90       	pop	r9
    1da2:	8f 90       	pop	r8
    1da4:	7f 90       	pop	r7
    1da6:	6f 90       	pop	r6
    1da8:	5f 90       	pop	r5
    1daa:	4f 90       	pop	r4
    1dac:	3f 90       	pop	r3
    1dae:	2f 90       	pop	r2
    1db0:	08 95       	ret

00001db2 <SkipJackM$BlockCipher$encrypt>:
    1db2:	8f 92       	push	r8
    1db4:	9f 92       	push	r9
    1db6:	af 92       	push	r10
    1db8:	bf 92       	push	r11
    1dba:	cf 92       	push	r12
    1dbc:	df 92       	push	r13
    1dbe:	ef 92       	push	r14
    1dc0:	ff 92       	push	r15
    1dc2:	0f 93       	push	r16
    1dc4:	1f 93       	push	r17
    1dc6:	cf 93       	push	r28
    1dc8:	df 93       	push	r29
    1dca:	4c 01       	movw	r8, r24
    1dcc:	fb 01       	movw	r30, r22
    1dce:	7a 01       	movw	r14, r20
    1dd0:	51 e0       	ldi	r21, 0x01	; 1
    1dd2:	dc 01       	movw	r26, r24
    1dd4:	80 81       	ld	r24, Z
    1dd6:	99 27       	eor	r25, r25
    1dd8:	78 2f       	mov	r23, r24
    1dda:	66 27       	eor	r22, r22
    1ddc:	81 81       	ldd	r24, Z+1	; 0x01
    1dde:	99 27       	eor	r25, r25
    1de0:	68 2b       	or	r22, r24
    1de2:	79 2b       	or	r23, r25
    1de4:	32 96       	adiw	r30, 0x02	; 2
    1de6:	80 81       	ld	r24, Z
    1de8:	99 27       	eor	r25, r25
    1dea:	38 2f       	mov	r19, r24
    1dec:	22 27       	eor	r18, r18
    1dee:	81 81       	ldd	r24, Z+1	; 0x01
    1df0:	99 27       	eor	r25, r25
    1df2:	28 2b       	or	r18, r24
    1df4:	39 2b       	or	r19, r25
    1df6:	32 96       	adiw	r30, 0x02	; 2
    1df8:	80 81       	ld	r24, Z
    1dfa:	99 27       	eor	r25, r25
    1dfc:	18 2f       	mov	r17, r24
    1dfe:	00 27       	eor	r16, r16
    1e00:	81 81       	ldd	r24, Z+1	; 0x01
    1e02:	99 27       	eor	r25, r25
    1e04:	08 2b       	or	r16, r24
    1e06:	19 2b       	or	r17, r25
    1e08:	32 96       	adiw	r30, 0x02	; 2
    1e0a:	80 81       	ld	r24, Z
    1e0c:	99 27       	eor	r25, r25
    1e0e:	d8 2e       	mov	r13, r24
    1e10:	cc 24       	eor	r12, r12
    1e12:	81 81       	ldd	r24, Z+1	; 0x01
    1e14:	99 27       	eor	r25, r25
    1e16:	c8 2a       	or	r12, r24
    1e18:	d9 2a       	or	r13, r25
    1e1a:	41 e0       	ldi	r20, 0x01	; 1
    1e1c:	a4 2e       	mov	r10, r20
    1e1e:	b1 2c       	mov	r11, r1
    1e20:	e6 01       	movw	r28, r12
    1e22:	68 01       	movw	r12, r16
    1e24:	89 01       	movw	r16, r18
    1e26:	87 2f       	mov	r24, r23
    1e28:	99 27       	eor	r25, r25
    1e2a:	98 2f       	mov	r25, r24
    1e2c:	46 2f       	mov	r20, r22
    1e2e:	8c 91       	ld	r24, X
    1e30:	86 27       	eor	r24, r22
    1e32:	e8 2f       	mov	r30, r24
    1e34:	ff 27       	eor	r31, r31
    1e36:	ea 5f       	subi	r30, 0xFA	; 250
    1e38:	fe 4f       	sbci	r31, 0xFE	; 254
    1e3a:	80 81       	ld	r24, Z
    1e3c:	98 27       	eor	r25, r24
    1e3e:	11 96       	adiw	r26, 0x01	; 1
    1e40:	8c 91       	ld	r24, X
    1e42:	11 97       	sbiw	r26, 0x01	; 1
    1e44:	89 27       	eor	r24, r25
    1e46:	e8 2f       	mov	r30, r24
    1e48:	ff 27       	eor	r31, r31
    1e4a:	ea 5f       	subi	r30, 0xFA	; 250
    1e4c:	fe 4f       	sbci	r31, 0xFE	; 254
    1e4e:	80 81       	ld	r24, Z
    1e50:	48 27       	eor	r20, r24
    1e52:	12 96       	adiw	r26, 0x02	; 2
    1e54:	8c 91       	ld	r24, X
    1e56:	12 97       	sbiw	r26, 0x02	; 2
    1e58:	84 27       	eor	r24, r20
    1e5a:	e8 2f       	mov	r30, r24
    1e5c:	ff 27       	eor	r31, r31
    1e5e:	ea 5f       	subi	r30, 0xFA	; 250
    1e60:	fe 4f       	sbci	r31, 0xFE	; 254
    1e62:	80 81       	ld	r24, Z
    1e64:	98 27       	eor	r25, r24
    1e66:	13 96       	adiw	r26, 0x03	; 3
    1e68:	8c 91       	ld	r24, X
    1e6a:	13 97       	sbiw	r26, 0x03	; 3
    1e6c:	89 27       	eor	r24, r25
    1e6e:	e8 2f       	mov	r30, r24
    1e70:	ff 27       	eor	r31, r31
    1e72:	ea 5f       	subi	r30, 0xFA	; 250
    1e74:	fe 4f       	sbci	r31, 0xFE	; 254
    1e76:	80 81       	ld	r24, Z
    1e78:	48 27       	eor	r20, r24
    1e7a:	89 2f       	mov	r24, r25
    1e7c:	99 27       	eor	r25, r25
    1e7e:	38 2f       	mov	r19, r24
    1e80:	22 27       	eor	r18, r18
    1e82:	84 2f       	mov	r24, r20
    1e84:	99 27       	eor	r25, r25
    1e86:	28 2b       	or	r18, r24
    1e88:	39 2b       	or	r19, r25
    1e8a:	be 01       	movw	r22, r28
    1e8c:	62 27       	eor	r22, r18
    1e8e:	73 27       	eor	r23, r19
    1e90:	6a 25       	eor	r22, r10
    1e92:	7b 25       	eor	r23, r11
    1e94:	5f 5f       	subi	r21, 0xFF	; 255
    1e96:	08 94       	sec
    1e98:	a1 1c       	adc	r10, r1
    1e9a:	b1 1c       	adc	r11, r1
    1e9c:	14 96       	adiw	r26, 0x04	; 4
    1e9e:	59 30       	cpi	r21, 0x09	; 9
    1ea0:	08 f4       	brcc	.+2      	; 0x1ea4
    1ea2:	be cf       	rjmp	.-132    	; 0x1e20
    1ea4:	d4 01       	movw	r26, r8
    1ea6:	90 96       	adiw	r26, 0x20	; 32
    1ea8:	59 e0       	ldi	r21, 0x09	; 9
    1eaa:	eb 01       	movw	r28, r22
    1eac:	b6 01       	movw	r22, r12
    1eae:	68 01       	movw	r12, r16
    1eb0:	8e 01       	movw	r16, r28
    1eb2:	02 27       	eor	r16, r18
    1eb4:	13 27       	eor	r17, r19
    1eb6:	85 2f       	mov	r24, r21
    1eb8:	99 27       	eor	r25, r25
    1eba:	08 27       	eor	r16, r24
    1ebc:	19 27       	eor	r17, r25
    1ebe:	8d 2f       	mov	r24, r29
    1ec0:	99 27       	eor	r25, r25
    1ec2:	98 2f       	mov	r25, r24
    1ec4:	4c 2f       	mov	r20, r28
    1ec6:	8c 91       	ld	r24, X
    1ec8:	8c 27       	eor	r24, r28
    1eca:	e8 2f       	mov	r30, r24
    1ecc:	ff 27       	eor	r31, r31
    1ece:	ea 5f       	subi	r30, 0xFA	; 250
    1ed0:	fe 4f       	sbci	r31, 0xFE	; 254
    1ed2:	80 81       	ld	r24, Z
    1ed4:	98 27       	eor	r25, r24
    1ed6:	11 96       	adiw	r26, 0x01	; 1
    1ed8:	8c 91       	ld	r24, X
    1eda:	11 97       	sbiw	r26, 0x01	; 1
    1edc:	89 27       	eor	r24, r25
    1ede:	e8 2f       	mov	r30, r24
    1ee0:	ff 27       	eor	r31, r31
    1ee2:	ea 5f       	subi	r30, 0xFA	; 250
    1ee4:	fe 4f       	sbci	r31, 0xFE	; 254
    1ee6:	80 81       	ld	r24, Z
    1ee8:	48 27       	eor	r20, r24
    1eea:	12 96       	adiw	r26, 0x02	; 2
    1eec:	8c 91       	ld	r24, X
    1eee:	12 97       	sbiw	r26, 0x02	; 2
    1ef0:	84 27       	eor	r24, r20
    1ef2:	e8 2f       	mov	r30, r24
    1ef4:	ff 27       	eor	r31, r31
    1ef6:	ea 5f       	subi	r30, 0xFA	; 250
    1ef8:	fe 4f       	sbci	r31, 0xFE	; 254
    1efa:	80 81       	ld	r24, Z
    1efc:	98 27       	eor	r25, r24
    1efe:	13 96       	adiw	r26, 0x03	; 3
    1f00:	8c 91       	ld	r24, X
    1f02:	13 97       	sbiw	r26, 0x03	; 3
    1f04:	89 27       	eor	r24, r25
    1f06:	e8 2f       	mov	r30, r24
    1f08:	ff 27       	eor	r31, r31
    1f0a:	ea 5f       	subi	r30, 0xFA	; 250
    1f0c:	fe 4f       	sbci	r31, 0xFE	; 254
    1f0e:	80 81       	ld	r24, Z
    1f10:	48 27       	eor	r20, r24
    1f12:	89 2f       	mov	r24, r25
    1f14:	99 27       	eor	r25, r25
    1f16:	38 2f       	mov	r19, r24
    1f18:	22 27       	eor	r18, r18
    1f1a:	84 2f       	mov	r24, r20
    1f1c:	99 27       	eor	r25, r25
    1f1e:	28 2b       	or	r18, r24
    1f20:	39 2b       	or	r19, r25
    1f22:	5f 5f       	subi	r21, 0xFF	; 255
    1f24:	14 96       	adiw	r26, 0x04	; 4
    1f26:	51 31       	cpi	r21, 0x11	; 17
    1f28:	08 f4       	brcc	.+2      	; 0x1f2c
    1f2a:	bf cf       	rjmp	.-130    	; 0x1eaa
    1f2c:	59 31       	cpi	r21, 0x19	; 25
    1f2e:	08 f0       	brcs	.+2      	; 0x1f32
    1f30:	41 c0       	rjmp	.+130    	; 0x1fb4
    1f32:	e6 01       	movw	r28, r12
    1f34:	68 01       	movw	r12, r16
    1f36:	89 01       	movw	r16, r18
    1f38:	87 2f       	mov	r24, r23
    1f3a:	99 27       	eor	r25, r25
    1f3c:	98 2f       	mov	r25, r24
    1f3e:	46 2f       	mov	r20, r22
    1f40:	8c 91       	ld	r24, X
    1f42:	86 27       	eor	r24, r22
    1f44:	e8 2f       	mov	r30, r24
    1f46:	ff 27       	eor	r31, r31
    1f48:	ea 5f       	subi	r30, 0xFA	; 250
    1f4a:	fe 4f       	sbci	r31, 0xFE	; 254
    1f4c:	80 81       	ld	r24, Z
    1f4e:	98 27       	eor	r25, r24
    1f50:	11 96       	adiw	r26, 0x01	; 1
    1f52:	8c 91       	ld	r24, X
    1f54:	11 97       	sbiw	r26, 0x01	; 1
    1f56:	89 27       	eor	r24, r25
    1f58:	e8 2f       	mov	r30, r24
    1f5a:	ff 27       	eor	r31, r31
    1f5c:	ea 5f       	subi	r30, 0xFA	; 250
    1f5e:	fe 4f       	sbci	r31, 0xFE	; 254
    1f60:	80 81       	ld	r24, Z
    1f62:	48 27       	eor	r20, r24
    1f64:	12 96       	adiw	r26, 0x02	; 2
    1f66:	8c 91       	ld	r24, X
    1f68:	12 97       	sbiw	r26, 0x02	; 2
    1f6a:	84 27       	eor	r24, r20
    1f6c:	e8 2f       	mov	r30, r24
    1f6e:	ff 27       	eor	r31, r31
    1f70:	ea 5f       	subi	r30, 0xFA	; 250
    1f72:	fe 4f       	sbci	r31, 0xFE	; 254
    1f74:	80 81       	ld	r24, Z
    1f76:	98 27       	eor	r25, r24
    1f78:	13 96       	adiw	r26, 0x03	; 3
    1f7a:	8c 91       	ld	r24, X
    1f7c:	13 97       	sbiw	r26, 0x03	; 3
    1f7e:	89 27       	eor	r24, r25
    1f80:	e8 2f       	mov	r30, r24
    1f82:	ff 27       	eor	r31, r31
    1f84:	ea 5f       	subi	r30, 0xFA	; 250
    1f86:	fe 4f       	sbci	r31, 0xFE	; 254
    1f88:	80 81       	ld	r24, Z
    1f8a:	48 27       	eor	r20, r24
    1f8c:	89 2f       	mov	r24, r25
    1f8e:	99 27       	eor	r25, r25
    1f90:	38 2f       	mov	r19, r24
    1f92:	22 27       	eor	r18, r18
    1f94:	84 2f       	mov	r24, r20
    1f96:	99 27       	eor	r25, r25
    1f98:	28 2b       	or	r18, r24
    1f9a:	39 2b       	or	r19, r25
    1f9c:	be 01       	movw	r22, r28
    1f9e:	62 27       	eor	r22, r18
    1fa0:	73 27       	eor	r23, r19
    1fa2:	85 2f       	mov	r24, r21
    1fa4:	99 27       	eor	r25, r25
    1fa6:	68 27       	eor	r22, r24
    1fa8:	79 27       	eor	r23, r25
    1faa:	5f 5f       	subi	r21, 0xFF	; 255
    1fac:	14 96       	adiw	r26, 0x04	; 4
    1fae:	59 31       	cpi	r21, 0x19	; 25
    1fb0:	08 f4       	brcc	.+2      	; 0x1fb4
    1fb2:	bf cf       	rjmp	.-130    	; 0x1f32
    1fb4:	51 32       	cpi	r21, 0x21	; 33
    1fb6:	08 f0       	brcs	.+2      	; 0x1fba
    1fb8:	41 c0       	rjmp	.+130    	; 0x203c
    1fba:	eb 01       	movw	r28, r22
    1fbc:	b6 01       	movw	r22, r12
    1fbe:	68 01       	movw	r12, r16
    1fc0:	8e 01       	movw	r16, r28
    1fc2:	02 27       	eor	r16, r18
    1fc4:	13 27       	eor	r17, r19
    1fc6:	85 2f       	mov	r24, r21
    1fc8:	99 27       	eor	r25, r25
    1fca:	08 27       	eor	r16, r24
    1fcc:	19 27       	eor	r17, r25
    1fce:	8d 2f       	mov	r24, r29
    1fd0:	99 27       	eor	r25, r25
    1fd2:	98 2f       	mov	r25, r24
    1fd4:	4c 2f       	mov	r20, r28
    1fd6:	8c 91       	ld	r24, X
    1fd8:	8c 27       	eor	r24, r28
    1fda:	e8 2f       	mov	r30, r24
    1fdc:	ff 27       	eor	r31, r31
    1fde:	ea 5f       	subi	r30, 0xFA	; 250
    1fe0:	fe 4f       	sbci	r31, 0xFE	; 254
    1fe2:	80 81       	ld	r24, Z
    1fe4:	98 27       	eor	r25, r24
    1fe6:	11 96       	adiw	r26, 0x01	; 1
    1fe8:	8c 91       	ld	r24, X
    1fea:	11 97       	sbiw	r26, 0x01	; 1
    1fec:	89 27       	eor	r24, r25
    1fee:	e8 2f       	mov	r30, r24
    1ff0:	ff 27       	eor	r31, r31
    1ff2:	ea 5f       	subi	r30, 0xFA	; 250
    1ff4:	fe 4f       	sbci	r31, 0xFE	; 254
    1ff6:	80 81       	ld	r24, Z
    1ff8:	48 27       	eor	r20, r24
    1ffa:	12 96       	adiw	r26, 0x02	; 2
    1ffc:	8c 91       	ld	r24, X
    1ffe:	12 97       	sbiw	r26, 0x02	; 2
    2000:	84 27       	eor	r24, r20
    2002:	e8 2f       	mov	r30, r24
    2004:	ff 27       	eor	r31, r31
    2006:	ea 5f       	subi	r30, 0xFA	; 250
    2008:	fe 4f       	sbci	r31, 0xFE	; 254
    200a:	80 81       	ld	r24, Z
    200c:	98 27       	eor	r25, r24
    200e:	13 96       	adiw	r26, 0x03	; 3
    2010:	8c 91       	ld	r24, X
    2012:	13 97       	sbiw	r26, 0x03	; 3
    2014:	89 27       	eor	r24, r25
    2016:	e8 2f       	mov	r30, r24
    2018:	ff 27       	eor	r31, r31
    201a:	ea 5f       	subi	r30, 0xFA	; 250
    201c:	fe 4f       	sbci	r31, 0xFE	; 254
    201e:	80 81       	ld	r24, Z
    2020:	48 27       	eor	r20, r24
    2022:	89 2f       	mov	r24, r25
    2024:	99 27       	eor	r25, r25
    2026:	38 2f       	mov	r19, r24
    2028:	22 27       	eor	r18, r18
    202a:	84 2f       	mov	r24, r20
    202c:	99 27       	eor	r25, r25
    202e:	28 2b       	or	r18, r24
    2030:	39 2b       	or	r19, r25
    2032:	5f 5f       	subi	r21, 0xFF	; 255
    2034:	14 96       	adiw	r26, 0x04	; 4
    2036:	51 32       	cpi	r21, 0x21	; 33
    2038:	08 f4       	brcc	.+2      	; 0x203c
    203a:	bf cf       	rjmp	.-130    	; 0x1fba
    203c:	87 2f       	mov	r24, r23
    203e:	99 27       	eor	r25, r25
    2040:	f7 01       	movw	r30, r14
    2042:	80 83       	st	Z, r24
    2044:	61 83       	std	Z+1, r22	; 0x01
    2046:	82 e0       	ldi	r24, 0x02	; 2
    2048:	90 e0       	ldi	r25, 0x00	; 0
    204a:	e8 0e       	add	r14, r24
    204c:	f9 1e       	adc	r15, r25
    204e:	83 2f       	mov	r24, r19
    2050:	99 27       	eor	r25, r25
    2052:	f7 01       	movw	r30, r14
    2054:	80 83       	st	Z, r24
    2056:	21 83       	std	Z+1, r18	; 0x01
    2058:	82 e0       	ldi	r24, 0x02	; 2
    205a:	90 e0       	ldi	r25, 0x00	; 0
    205c:	e8 0e       	add	r14, r24
    205e:	f9 1e       	adc	r15, r25
    2060:	81 2f       	mov	r24, r17
    2062:	99 27       	eor	r25, r25
    2064:	f7 01       	movw	r30, r14
    2066:	80 83       	st	Z, r24
    2068:	01 83       	std	Z+1, r16	; 0x01
    206a:	82 e0       	ldi	r24, 0x02	; 2
    206c:	90 e0       	ldi	r25, 0x00	; 0
    206e:	e8 0e       	add	r14, r24
    2070:	f9 1e       	adc	r15, r25
    2072:	8d 2d       	mov	r24, r13
    2074:	99 27       	eor	r25, r25
    2076:	f7 01       	movw	r30, r14
    2078:	80 83       	st	Z, r24
    207a:	c1 82       	std	Z+1, r12	; 0x01
    207c:	81 e0       	ldi	r24, 0x01	; 1
    207e:	90 e0       	ldi	r25, 0x00	; 0
    2080:	df 91       	pop	r29
    2082:	cf 91       	pop	r28
    2084:	1f 91       	pop	r17
    2086:	0f 91       	pop	r16
    2088:	ff 90       	pop	r15
    208a:	ef 90       	pop	r14
    208c:	df 90       	pop	r13
    208e:	cf 90       	pop	r12
    2090:	bf 90       	pop	r11
    2092:	af 90       	pop	r10
    2094:	9f 90       	pop	r9
    2096:	8f 90       	pop	r8
    2098:	08 95       	ret

0000209a <CBCMAC$MAC$initIncrementalMAC>:
    209a:	0f 93       	push	r16
    209c:	1f 93       	push	r17
    209e:	cf 93       	push	r28
    20a0:	df 93       	push	r29
    20a2:	cd b7       	in	r28, 0x3d	; 61
    20a4:	de b7       	in	r29, 0x3e	; 62
    20a6:	28 97       	sbiw	r28, 0x08	; 8
    20a8:	0f b6       	in	r0, 0x3f	; 63
    20aa:	f8 94       	cli
    20ac:	de bf       	out	0x3e, r29	; 62
    20ae:	0f be       	out	0x3f, r0	; 63
    20b0:	cd bf       	out	0x3d, r28	; 61
    20b2:	dc 01       	movw	r26, r24
    20b4:	cb 01       	movw	r24, r22
    20b6:	33 e0       	ldi	r19, 0x03	; 3
    20b8:	96 95       	lsr	r25
    20ba:	87 95       	ror	r24
    20bc:	3a 95       	dec	r19
    20be:	e1 f7       	brne	.-8      	; 0x20b8
    20c0:	8e 01       	movw	r16, r28
    20c2:	0f 5f       	subi	r16, 0xFF	; 255
    20c4:	1f 4f       	sbci	r17, 0xFF	; 255
    20c6:	f8 01       	movw	r30, r16
    20c8:	25 e0       	ldi	r18, 0x05	; 5
    20ca:	30 e0       	ldi	r19, 0x00	; 0
    20cc:	11 92       	st	Z+, r1
    20ce:	21 50       	subi	r18, 0x01	; 1
    20d0:	30 40       	sbci	r19, 0x00	; 0
    20d2:	9f ef       	ldi	r25, 0xFF	; 255
    20d4:	2f 3f       	cpi	r18, 0xFF	; 255
    20d6:	39 07       	cpc	r19, r25
    20d8:	c9 f7       	brne	.-14     	; 0x20cc
    20da:	1f 82       	std	Y+7, r1	; 0x07
    20dc:	88 87       	std	Y+8, r24	; 0x08
    20de:	fd 01       	movw	r30, r26
    20e0:	e0 58       	subi	r30, 0x80	; 128
    20e2:	ff 4f       	sbci	r31, 0xFF	; 255
    20e4:	60 87       	std	Z+8, r22	; 0x08
    20e6:	71 87       	std	Z+9, r23	; 0x09
    20e8:	12 86       	std	Z+10, r1	; 0x0a
    20ea:	af 01       	movw	r20, r30
    20ec:	b8 01       	movw	r22, r16
    20ee:	cd 01       	movw	r24, r26
    20f0:	0e 94 d9 0e 	call	0x1db2
    20f4:	99 27       	eor	r25, r25
    20f6:	28 96       	adiw	r28, 0x08	; 8
    20f8:	0f b6       	in	r0, 0x3f	; 63
    20fa:	f8 94       	cli
    20fc:	de bf       	out	0x3e, r29	; 62
    20fe:	0f be       	out	0x3f, r0	; 63
    2100:	cd bf       	out	0x3d, r28	; 61
    2102:	df 91       	pop	r29
    2104:	cf 91       	pop	r28
    2106:	1f 91       	pop	r17
    2108:	0f 91       	pop	r16
    210a:	08 95       	ret

0000210c <CBCMAC$MAC$incrementalMAC>:
    210c:	af 92       	push	r10
    210e:	bf 92       	push	r11
    2110:	cf 92       	push	r12
    2112:	df 92       	push	r13
    2114:	ff 92       	push	r15
    2116:	0f 93       	push	r16
    2118:	1f 93       	push	r17
    211a:	cf 93       	push	r28
    211c:	df 93       	push	r29
    211e:	6c 01       	movw	r12, r24
    2120:	5b 01       	movw	r10, r22
    2122:	8a 01       	movw	r16, r20
    2124:	ec 01       	movw	r28, r24
    2126:	c0 58       	subi	r28, 0x80	; 128
    2128:	df 4f       	sbci	r29, 0xFF	; 255
    212a:	2a 85       	ldd	r18, Y+10	; 0x0a
    212c:	88 85       	ldd	r24, Y+8	; 0x08
    212e:	99 85       	ldd	r25, Y+9	; 0x09
    2130:	84 17       	cp	r24, r20
    2132:	95 07       	cpc	r25, r21
    2134:	18 f4       	brcc	.+6      	; 0x213c
    2136:	80 e0       	ldi	r24, 0x00	; 0
    2138:	90 e0       	ldi	r25, 0x00	; 0
    213a:	27 c0       	rjmp	.+78     	; 0x218a
    213c:	ff 24       	eor	r15, r15
    213e:	45 2b       	or	r20, r21
    2140:	d9 f0       	breq	.+54     	; 0x2178
    2142:	de 01       	movw	r26, r28
    2144:	a2 0f       	add	r26, r18
    2146:	b1 1d       	adc	r27, r1
    2148:	f5 01       	movw	r30, r10
    214a:	ef 0d       	add	r30, r15
    214c:	f1 1d       	adc	r31, r1
    214e:	8c 91       	ld	r24, X
    2150:	90 81       	ld	r25, Z
    2152:	89 27       	eor	r24, r25
    2154:	8c 93       	st	X, r24
    2156:	2f 5f       	subi	r18, 0xFF	; 255
    2158:	27 30       	cpi	r18, 0x07	; 7
    215a:	41 f4       	brne	.+16     	; 0x216c
    215c:	ae 01       	movw	r20, r28
    215e:	be 01       	movw	r22, r28
    2160:	c6 01       	movw	r24, r12
    2162:	0e 94 d9 0e 	call	0x1db2
    2166:	88 23       	and	r24, r24
    2168:	31 f3       	breq	.-52     	; 0x2136
    216a:	20 e0       	ldi	r18, 0x00	; 0
    216c:	f3 94       	inc	r15
    216e:	8f 2d       	mov	r24, r15
    2170:	99 27       	eor	r25, r25
    2172:	80 17       	cp	r24, r16
    2174:	91 07       	cpc	r25, r17
    2176:	28 f3       	brcs	.-54     	; 0x2142
    2178:	88 85       	ldd	r24, Y+8	; 0x08
    217a:	99 85       	ldd	r25, Y+9	; 0x09
    217c:	80 1b       	sub	r24, r16
    217e:	91 0b       	sbc	r25, r17
    2180:	88 87       	std	Y+8, r24	; 0x08
    2182:	99 87       	std	Y+9, r25	; 0x09
    2184:	2a 87       	std	Y+10, r18	; 0x0a
    2186:	81 e0       	ldi	r24, 0x01	; 1
    2188:	90 e0       	ldi	r25, 0x00	; 0
    218a:	df 91       	pop	r29
    218c:	cf 91       	pop	r28
    218e:	1f 91       	pop	r17
    2190:	0f 91       	pop	r16
    2192:	ff 90       	pop	r15
    2194:	df 90       	pop	r13
    2196:	cf 90       	pop	r12
    2198:	bf 90       	pop	r11
    219a:	af 90       	pop	r10
    219c:	08 95       	ret

0000219e <CBCMAC$MAC$getIncrementalMAC>:
    219e:	df 92       	push	r13
    21a0:	ef 92       	push	r14
    21a2:	ff 92       	push	r15
    21a4:	0f 93       	push	r16
    21a6:	1f 93       	push	r17
    21a8:	cf 93       	push	r28
    21aa:	df 93       	push	r29
    21ac:	9c 01       	movw	r18, r24
    21ae:	7b 01       	movw	r14, r22
    21b0:	d4 2e       	mov	r13, r20
    21b2:	ec 01       	movw	r28, r24
    21b4:	c0 58       	subi	r28, 0x80	; 128
    21b6:	df 4f       	sbci	r29, 0xFF	; 255
    21b8:	9a 85       	ldd	r25, Y+10	; 0x0a
    21ba:	84 2f       	mov	r24, r20
    21bc:	81 50       	subi	r24, 0x01	; 1
    21be:	88 30       	cpi	r24, 0x08	; 8
    21c0:	28 f4       	brcc	.+10     	; 0x21cc
    21c2:	08 85       	ldd	r16, Y+8	; 0x08
    21c4:	19 85       	ldd	r17, Y+9	; 0x09
    21c6:	01 15       	cp	r16, r1
    21c8:	11 05       	cpc	r17, r1
    21ca:	19 f0       	breq	.+6      	; 0x21d2
    21cc:	80 e0       	ldi	r24, 0x00	; 0
    21ce:	90 e0       	ldi	r25, 0x00	; 0
    21d0:	1d c0       	rjmp	.+58     	; 0x220c
    21d2:	99 23       	and	r25, r25
    21d4:	91 f0       	breq	.+36     	; 0x21fa
    21d6:	9f 5f       	subi	r25, 0xFF	; 255
    21d8:	fe 01       	movw	r30, r28
    21da:	e9 0f       	add	r30, r25
    21dc:	f1 1d       	adc	r31, r1
    21de:	80 81       	ld	r24, Z
    21e0:	91 e0       	ldi	r25, 0x01	; 1
    21e2:	89 27       	eor	r24, r25
    21e4:	80 83       	st	Z, r24
    21e6:	ae 01       	movw	r20, r28
    21e8:	be 01       	movw	r22, r28
    21ea:	c9 01       	movw	r24, r18
    21ec:	0e 94 d9 0e 	call	0x1db2
    21f0:	88 23       	and	r24, r24
    21f2:	11 f4       	brne	.+4      	; 0x21f8
    21f4:	c8 01       	movw	r24, r16
    21f6:	0a c0       	rjmp	.+20     	; 0x220c
    21f8:	1a 86       	std	Y+10, r1	; 0x0a
    21fa:	8d 2d       	mov	r24, r13
    21fc:	99 27       	eor	r25, r25
    21fe:	ac 01       	movw	r20, r24
    2200:	be 01       	movw	r22, r28
    2202:	c7 01       	movw	r24, r14
    2204:	0e 94 cc 05 	call	0xb98
    2208:	81 e0       	ldi	r24, 0x01	; 1
    220a:	90 e0       	ldi	r25, 0x00	; 0
    220c:	df 91       	pop	r29
    220e:	cf 91       	pop	r28
    2210:	1f 91       	pop	r17
    2212:	0f 91       	pop	r16
    2214:	ff 90       	pop	r15
    2216:	ef 90       	pop	r14
    2218:	df 90       	pop	r13
    221a:	08 95       	ret

0000221c <TinySecM$TinySecRadio$byteReceived>:
    221c:	cf 93       	push	r28
    221e:	48 2f       	mov	r20, r24
    2220:	cf ef       	ldi	r28, 0xFF	; 255
    2222:	6c 2f       	mov	r22, r28
    2224:	a0 91 1c 02 	lds	r26, 0x021C
    2228:	b0 91 1d 02 	lds	r27, 0x021D
    222c:	20 91 18 02 	lds	r18, 0x0218
    2230:	30 91 19 02 	lds	r19, 0x0219
    2234:	a2 17       	cp	r26, r18
    2236:	b3 07       	cpc	r27, r19
    2238:	0c f0       	brlt	.+2      	; 0x223c
    223a:	41 c0       	rjmp	.+130    	; 0x22be
    223c:	80 91 05 01 	lds	r24, 0x0105
    2240:	88 23       	and	r24, r24
    2242:	21 f5       	brne	.+72     	; 0x228c
    2244:	a4 30       	cpi	r26, 0x04	; 4
    2246:	b1 05       	cpc	r27, r1
    2248:	09 f5       	brne	.+66     	; 0x228c
    224a:	cd 01       	movw	r24, r26
    224c:	04 96       	adiw	r24, 0x04	; 4
    224e:	90 93 1d 02 	sts	0x021D, r25
    2252:	80 93 1c 02 	sts	0x021C, r24
    2256:	e0 91 76 03 	lds	r30, 0x0376
    225a:	f0 91 77 03 	lds	r31, 0x0377
    225e:	e8 0f       	add	r30, r24
    2260:	f9 1f       	adc	r31, r25
    2262:	40 83       	st	Z, r20
    2264:	80 91 1c 02 	lds	r24, 0x021C
    2268:	90 91 1d 02 	lds	r25, 0x021D
    226c:	01 96       	adiw	r24, 0x01	; 1
    226e:	90 93 1d 02 	sts	0x021D, r25
    2272:	80 93 1c 02 	sts	0x021C, r24
    2276:	80 91 1c 02 	lds	r24, 0x021C
    227a:	84 50       	subi	r24, 0x04	; 4
    227c:	60 91 c3 03 	lds	r22, 0x03C3
    2280:	6c 0f       	add	r22, r28
    2282:	68 23       	and	r22, r24
    2284:	6c 5f       	subi	r22, 0xFC	; 252
    2286:	c8 2f       	mov	r28, r24
    2288:	c4 50       	subi	r28, 0x04	; 4
    228a:	31 c0       	rjmp	.+98     	; 0x22ee
    228c:	e0 91 76 03 	lds	r30, 0x0376
    2290:	f0 91 77 03 	lds	r31, 0x0377
    2294:	ea 0f       	add	r30, r26
    2296:	fb 1f       	adc	r31, r27
    2298:	40 83       	st	Z, r20
    229a:	80 91 1c 02 	lds	r24, 0x021C
    229e:	90 91 1d 02 	lds	r25, 0x021D
    22a2:	01 96       	adiw	r24, 0x01	; 1
    22a4:	90 93 1d 02 	sts	0x021D, r25
    22a8:	80 93 1c 02 	sts	0x021C, r24
    22ac:	60 91 c3 03 	lds	r22, 0x03C3
    22b0:	61 50       	subi	r22, 0x01	; 1
    22b2:	80 91 1c 02 	lds	r24, 0x021C
    22b6:	68 23       	and	r22, r24
    22b8:	c8 2f       	mov	r28, r24
    22ba:	c8 50       	subi	r28, 0x08	; 8
    22bc:	18 c0       	rjmp	.+48     	; 0x22ee
    22be:	c9 01       	movw	r24, r18
    22c0:	04 96       	adiw	r24, 0x04	; 4
    22c2:	a8 17       	cp	r26, r24
    22c4:	b9 07       	cpc	r27, r25
    22c6:	9c f4       	brge	.+38     	; 0x22ee
    22c8:	80 91 76 03 	lds	r24, 0x0376
    22cc:	90 91 77 03 	lds	r25, 0x0377
    22d0:	a2 1b       	sub	r26, r18
    22d2:	b3 0b       	sbc	r27, r19
    22d4:	a8 0f       	add	r26, r24
    22d6:	b9 1f       	adc	r27, r25
    22d8:	95 96       	adiw	r26, 0x25	; 37
    22da:	4c 93       	st	X, r20
    22dc:	80 91 1c 02 	lds	r24, 0x021C
    22e0:	90 91 1d 02 	lds	r25, 0x021D
    22e4:	01 96       	adiw	r24, 0x01	; 1
    22e6:	90 93 1d 02 	sts	0x021D, r25
    22ea:	80 93 1c 02 	sts	0x021C, r24
    22ee:	20 91 1c 02 	lds	r18, 0x021C
    22f2:	30 91 1d 02 	lds	r19, 0x021D
    22f6:	80 91 18 02 	lds	r24, 0x0218
    22fa:	90 91 19 02 	lds	r25, 0x0219
    22fe:	28 17       	cp	r18, r24
    2300:	39 07       	cpc	r19, r25
    2302:	0c f0       	brlt	.+2      	; 0x2306
    2304:	af c0       	rjmp	.+350    	; 0x2464
    2306:	24 30       	cpi	r18, 0x04	; 4
    2308:	31 05       	cpc	r19, r1
    230a:	09 f0       	breq	.+2      	; 0x230e
    230c:	78 c0       	rjmp	.+240    	; 0x23fe
    230e:	e0 91 76 03 	lds	r30, 0x0376
    2312:	f0 91 77 03 	lds	r31, 0x0377
    2316:	83 81       	ldd	r24, Z+3	; 0x03
    2318:	99 27       	eor	r25, r25
    231a:	8f 73       	andi	r24, 0x3F	; 63
    231c:	90 70       	andi	r25, 0x00	; 0
    231e:	90 93 1f 02 	sts	0x021F, r25
    2322:	80 93 1e 02 	sts	0x021E, r24
    2326:	4e 97       	sbiw	r24, 0x1e	; 30
    2328:	34 f0       	brlt	.+12     	; 0x2336
    232a:	40 e0       	ldi	r20, 0x00	; 0
    232c:	60 e0       	ldi	r22, 0x00	; 0
    232e:	70 e0       	ldi	r23, 0x00	; 0
    2330:	84 2f       	mov	r24, r20
    2332:	0e 94 aa 12 	call	0x2554
    2336:	e0 91 76 03 	lds	r30, 0x0376
    233a:	f0 91 77 03 	lds	r31, 0x0377
    233e:	83 81       	ldd	r24, Z+3	; 0x03
    2340:	87 ff       	sbrs	r24, 7
    2342:	4e c0       	rjmp	.+156    	; 0x23e0
    2344:	86 ff       	sbrs	r24, 6
    2346:	04 c0       	rjmp	.+8      	; 0x2350
    2348:	81 e0       	ldi	r24, 0x01	; 1
    234a:	80 93 05 01 	sts	0x0105, r24
    234e:	02 c0       	rjmp	.+4      	; 0x2354
    2350:	10 92 05 01 	sts	0x0105, r1
    2354:	88 e0       	ldi	r24, 0x08	; 8
    2356:	90 e0       	ldi	r25, 0x00	; 0
    2358:	90 93 19 02 	sts	0x0219, r25
    235c:	80 93 18 02 	sts	0x0218, r24
    2360:	80 91 c3 03 	lds	r24, 0x03C3
    2364:	28 2f       	mov	r18, r24
    2366:	33 27       	eor	r19, r19
    2368:	40 91 1e 02 	lds	r20, 0x021E
    236c:	50 91 1f 02 	lds	r21, 0x021F
    2370:	42 17       	cp	r20, r18
    2372:	53 07       	cpc	r21, r19
    2374:	5c f4       	brge	.+22     	; 0x238c
    2376:	80 91 05 01 	lds	r24, 0x0105
    237a:	88 23       	and	r24, r24
    237c:	39 f0       	breq	.+14     	; 0x238c
    237e:	28 5f       	subi	r18, 0xF8	; 248
    2380:	3f 4f       	sbci	r19, 0xFF	; 255
    2382:	30 93 19 02 	sts	0x0219, r19
    2386:	20 93 18 02 	sts	0x0218, r18
    238a:	0a c0       	rjmp	.+20     	; 0x23a0
    238c:	80 91 18 02 	lds	r24, 0x0218
    2390:	90 91 19 02 	lds	r25, 0x0219
    2394:	84 0f       	add	r24, r20
    2396:	95 1f       	adc	r25, r21
    2398:	90 93 19 02 	sts	0x0219, r25
    239c:	80 93 18 02 	sts	0x0218, r24
    23a0:	80 91 05 01 	lds	r24, 0x0105
    23a4:	88 23       	and	r24, r24
    23a6:	29 f0       	breq	.+10     	; 0x23b2
    23a8:	80 91 18 02 	lds	r24, 0x0218
    23ac:	90 91 19 02 	lds	r25, 0x0219
    23b0:	0e c0       	rjmp	.+28     	; 0x23ce
    23b2:	34 96       	adiw	r30, 0x04	; 4
    23b4:	83 e0       	ldi	r24, 0x03	; 3
    23b6:	90 e0       	ldi	r25, 0x00	; 0
    23b8:	11 92       	st	Z+, r1
    23ba:	01 97       	sbiw	r24, 0x01	; 1
    23bc:	2f ef       	ldi	r18, 0xFF	; 255
    23be:	8f 3f       	cpi	r24, 0xFF	; 255
    23c0:	92 07       	cpc	r25, r18
    23c2:	d1 f7       	brne	.-12     	; 0x23b8
    23c4:	80 91 18 02 	lds	r24, 0x0218
    23c8:	90 91 19 02 	lds	r25, 0x0219
    23cc:	04 97       	sbiw	r24, 0x04	; 4
    23ce:	41 e0       	ldi	r20, 0x01	; 1
    23d0:	bc 01       	movw	r22, r24
    23d2:	84 2f       	mov	r24, r20
    23d4:	0e 94 aa 12 	call	0x2554
    23d8:	81 e0       	ldi	r24, 0x01	; 1
    23da:	80 93 1b 03 	sts	0x031B, r24
    23de:	3f c0       	rjmp	.+126    	; 0x245e
    23e0:	80 91 1e 02 	lds	r24, 0x021E
    23e4:	90 91 1f 02 	lds	r25, 0x021F
    23e8:	05 96       	adiw	r24, 0x05	; 5
    23ea:	90 93 19 02 	sts	0x0219, r25
    23ee:	80 93 18 02 	sts	0x0218, r24
    23f2:	40 e0       	ldi	r20, 0x00	; 0
    23f4:	bc 01       	movw	r22, r24
    23f6:	81 e0       	ldi	r24, 0x01	; 1
    23f8:	0e 94 aa 12 	call	0x2554
    23fc:	30 c0       	rjmp	.+96     	; 0x245e
    23fe:	66 23       	and	r22, r22
    2400:	11 f4       	brne	.+4      	; 0x2406
    2402:	60 91 c3 03 	lds	r22, 0x03C3
    2406:	26 2f       	mov	r18, r22
    2408:	33 27       	eor	r19, r19
    240a:	27 fd       	sbrc	r18, 7
    240c:	30 95       	com	r19
    240e:	40 91 c3 03 	lds	r20, 0x03C3
    2412:	84 2f       	mov	r24, r20
    2414:	99 27       	eor	r25, r25
    2416:	28 17       	cp	r18, r24
    2418:	39 07       	cpc	r19, r25
    241a:	34 f0       	brlt	.+12     	; 0x2428
    241c:	80 91 1c 02 	lds	r24, 0x021C
    2420:	86 1b       	sub	r24, r22
    2422:	64 2f       	mov	r22, r20
    2424:	0e 94 c6 12 	call	0x258c
    2428:	80 91 05 01 	lds	r24, 0x0105
    242c:	88 23       	and	r24, r24
    242e:	b9 f0       	breq	.+46     	; 0x245e
    2430:	cc 23       	and	r28, r28
    2432:	21 f4       	brne	.+8      	; 0x243c
    2434:	81 e0       	ldi	r24, 0x01	; 1
    2436:	80 93 82 04 	sts	0x0482, r24
    243a:	11 c0       	rjmp	.+34     	; 0x245e
    243c:	2c 2f       	mov	r18, r28
    243e:	33 27       	eor	r19, r19
    2440:	27 fd       	sbrc	r18, 7
    2442:	30 95       	com	r19
    2444:	60 91 c3 03 	lds	r22, 0x03C3
    2448:	86 2f       	mov	r24, r22
    244a:	99 27       	eor	r25, r25
    244c:	01 97       	sbiw	r24, 0x01	; 1
    244e:	28 23       	and	r18, r24
    2450:	39 23       	and	r19, r25
    2452:	23 2b       	or	r18, r19
    2454:	21 f4       	brne	.+8      	; 0x245e
    2456:	c6 1b       	sub	r28, r22
    2458:	8c 2f       	mov	r24, r28
    245a:	0e 94 db 12 	call	0x25b6
    245e:	0e 94 f0 12 	call	0x25e0
    2462:	74 c0       	rjmp	.+232    	; 0x254c
    2464:	28 17       	cp	r18, r24
    2466:	39 07       	cpc	r19, r25
    2468:	09 f0       	breq	.+2      	; 0x246c
    246a:	4f c0       	rjmp	.+158    	; 0x250a
    246c:	66 23       	and	r22, r22
    246e:	11 f4       	brne	.+4      	; 0x2474
    2470:	60 91 c3 03 	lds	r22, 0x03C3
    2474:	80 91 1c 02 	lds	r24, 0x021C
    2478:	86 1b       	sub	r24, r22
    247a:	0e 94 c6 12 	call	0x258c
    247e:	81 e0       	ldi	r24, 0x01	; 1
    2480:	80 93 1e 03 	sts	0x031E, r24
    2484:	80 91 05 01 	lds	r24, 0x0105
    2488:	88 23       	and	r24, r24
    248a:	c1 f0       	breq	.+48     	; 0x24bc
    248c:	2c 2f       	mov	r18, r28
    248e:	33 27       	eor	r19, r19
    2490:	27 fd       	sbrc	r18, 7
    2492:	30 95       	com	r19
    2494:	60 91 c3 03 	lds	r22, 0x03C3
    2498:	86 2f       	mov	r24, r22
    249a:	99 27       	eor	r25, r25
    249c:	01 97       	sbiw	r24, 0x01	; 1
    249e:	28 23       	and	r18, r24
    24a0:	39 23       	and	r19, r25
    24a2:	23 2b       	or	r18, r19
    24a4:	11 f4       	brne	.+4      	; 0x24aa
    24a6:	c6 1b       	sub	r28, r22
    24a8:	05 c0       	rjmp	.+10     	; 0x24b4
    24aa:	86 2f       	mov	r24, r22
    24ac:	81 50       	subi	r24, 0x01	; 1
    24ae:	8c 23       	and	r24, r28
    24b0:	c8 1b       	sub	r28, r24
    24b2:	68 2f       	mov	r22, r24
    24b4:	8c 2f       	mov	r24, r28
    24b6:	0e 94 db 12 	call	0x25b6
    24ba:	12 c0       	rjmp	.+36     	; 0x24e0
    24bc:	20 91 76 03 	lds	r18, 0x0376
    24c0:	30 91 77 03 	lds	r19, 0x0377
    24c4:	28 5f       	subi	r18, 0xF8	; 248
    24c6:	3f 4f       	sbci	r19, 0xFF	; 255
    24c8:	80 91 78 03 	lds	r24, 0x0378
    24cc:	90 91 79 03 	lds	r25, 0x0379
    24d0:	05 96       	adiw	r24, 0x05	; 5
    24d2:	40 91 1e 02 	lds	r20, 0x021E
    24d6:	50 91 1f 02 	lds	r21, 0x021F
    24da:	b9 01       	movw	r22, r18
    24dc:	0e 94 cc 05 	call	0xb98
    24e0:	0e 94 f0 12 	call	0x25e0
    24e4:	e0 91 76 03 	lds	r30, 0x0376
    24e8:	f0 91 77 03 	lds	r31, 0x0377
    24ec:	91 e0       	ldi	r25, 0x01	; 1
    24ee:	96 a7       	std	Z+46, r25	; 0x2e
    24f0:	e0 91 78 03 	lds	r30, 0x0378
    24f4:	f0 91 79 03 	lds	r31, 0x0379
    24f8:	80 91 02 01 	lds	r24, 0x0102
    24fc:	84 83       	std	Z+4, r24	; 0x04
    24fe:	e0 91 76 03 	lds	r30, 0x0376
    2502:	f0 91 77 03 	lds	r31, 0x0377
    2506:	87 a5       	ldd	r24, Z+47	; 0x2f
    2508:	18 c0       	rjmp	.+48     	; 0x253a
    250a:	04 96       	adiw	r24, 0x04	; 4
    250c:	28 17       	cp	r18, r24
    250e:	39 07       	cpc	r19, r25
    2510:	d1 f4       	brne	.+52     	; 0x2546
    2512:	e0 91 76 03 	lds	r30, 0x0376
    2516:	f0 91 77 03 	lds	r31, 0x0377
    251a:	c1 e0       	ldi	r28, 0x01	; 1
    251c:	c7 a7       	std	Z+47, r28	; 0x2f
    251e:	e0 91 76 03 	lds	r30, 0x0376
    2522:	f0 91 77 03 	lds	r31, 0x0377
    2526:	80 a9       	ldd	r24, Z+48	; 0x30
    2528:	88 23       	and	r24, r24
    252a:	11 f0       	breq	.+4      	; 0x2530
    252c:	0e 94 c6 15 	call	0x2b8c
    2530:	e0 91 76 03 	lds	r30, 0x0376
    2534:	f0 91 77 03 	lds	r31, 0x0377
    2538:	86 a5       	ldd	r24, Z+46	; 0x2e
    253a:	88 23       	and	r24, r24
    253c:	39 f0       	breq	.+14     	; 0x254c
    253e:	81 e0       	ldi	r24, 0x01	; 1
    2540:	0e 94 09 18 	call	0x3012
    2544:	03 c0       	rjmp	.+6      	; 0x254c
    2546:	80 e0       	ldi	r24, 0x00	; 0
    2548:	90 e0       	ldi	r25, 0x00	; 0
    254a:	02 c0       	rjmp	.+4      	; 0x2550
    254c:	81 e0       	ldi	r24, 0x01	; 1
    254e:	90 e0       	ldi	r25, 0x00	; 0
    2550:	cf 91       	pop	r28
    2552:	08 95       	ret

00002554 <CC1000RadioIntTinySecM$TinySec$receiveInitDone>:
    2554:	98 2f       	mov	r25, r24
    2556:	8f b7       	in	r24, 0x3f	; 63
    2558:	f8 94       	cli
    255a:	58 2f       	mov	r21, r24
    255c:	70 93 49 04 	sts	0x0449, r23
    2560:	60 93 48 04 	sts	0x0448, r22
    2564:	91 30       	cpi	r25, 0x01	; 1
    2566:	31 f4       	brne	.+12     	; 0x2574
    2568:	44 23       	and	r20, r20
    256a:	11 f0       	breq	.+4      	; 0x2570
    256c:	87 e0       	ldi	r24, 0x07	; 7
    256e:	08 c0       	rjmp	.+16     	; 0x2580
    2570:	86 e0       	ldi	r24, 0x06	; 6
    2572:	06 c0       	rjmp	.+12     	; 0x2580
    2574:	e0 91 36 03 	lds	r30, 0x0336
    2578:	f0 91 37 03 	lds	r31, 0x0337
    257c:	13 82       	std	Z+3, r1	; 0x03
    257e:	82 e0       	ldi	r24, 0x02	; 2
    2580:	80 93 75 03 	sts	0x0375, r24
    2584:	5f bf       	out	0x3f, r21	; 63
    2586:	81 e0       	ldi	r24, 0x01	; 1
    2588:	90 e0       	ldi	r25, 0x00	; 0
    258a:	08 95       	ret

0000258c <TinySecM$postIncrementalMAC>:
    258c:	98 2f       	mov	r25, r24
    258e:	80 91 1a 03 	lds	r24, 0x031A
    2592:	88 23       	and	r24, r24
    2594:	31 f0       	breq	.+12     	; 0x25a2
    2596:	80 91 1c 03 	lds	r24, 0x031C
    259a:	86 0f       	add	r24, r22
    259c:	80 93 1c 03 	sts	0x031C, r24
    25a0:	07 c0       	rjmp	.+14     	; 0x25b0
    25a2:	81 e0       	ldi	r24, 0x01	; 1
    25a4:	80 93 1a 03 	sts	0x031A, r24
    25a8:	90 93 1c 03 	sts	0x031C, r25
    25ac:	60 93 1d 03 	sts	0x031D, r22
    25b0:	81 e0       	ldi	r24, 0x01	; 1
    25b2:	90 e0       	ldi	r25, 0x00	; 0
    25b4:	08 95       	ret

000025b6 <TinySecM$postIncrementalDecrypt>:
    25b6:	98 2f       	mov	r25, r24
    25b8:	80 91 81 04 	lds	r24, 0x0481
    25bc:	88 23       	and	r24, r24
    25be:	31 f0       	breq	.+12     	; 0x25cc
    25c0:	80 91 84 04 	lds	r24, 0x0484
    25c4:	86 0f       	add	r24, r22
    25c6:	80 93 84 04 	sts	0x0484, r24
    25ca:	07 c0       	rjmp	.+14     	; 0x25da
    25cc:	81 e0       	ldi	r24, 0x01	; 1
    25ce:	80 93 81 04 	sts	0x0481, r24
    25d2:	90 93 83 04 	sts	0x0483, r25
    25d6:	60 93 84 04 	sts	0x0484, r22
    25da:	81 e0       	ldi	r24, 0x01	; 1
    25dc:	90 e0       	ldi	r25, 0x00	; 0
    25de:	08 95       	ret

000025e0 <TinySecM$checkQueuedCrypto>:
    25e0:	2f 92       	push	r2
    25e2:	3f 92       	push	r3
    25e4:	4f 92       	push	r4
    25e6:	5f 92       	push	r5
    25e8:	6f 92       	push	r6
    25ea:	7f 92       	push	r7
    25ec:	8f 92       	push	r8
    25ee:	9f 92       	push	r9
    25f0:	af 92       	push	r10
    25f2:	bf 92       	push	r11
    25f4:	cf 92       	push	r12
    25f6:	df 92       	push	r13
    25f8:	ef 92       	push	r14
    25fa:	ff 92       	push	r15
    25fc:	0f 93       	push	r16
    25fe:	1f 93       	push	r17
    2600:	cf 93       	push	r28
    2602:	df 93       	push	r29
    2604:	cd b7       	in	r28, 0x3d	; 61
    2606:	de b7       	in	r29, 0x3e	; 62
    2608:	24 97       	sbiw	r28, 0x04	; 4
    260a:	0f b6       	in	r0, 0x3f	; 63
    260c:	f8 94       	cli
    260e:	de bf       	out	0x3e, r29	; 62
    2610:	0f be       	out	0x3f, r0	; 63
    2612:	cd bf       	out	0x3d, r28	; 61
    2614:	21 e0       	ldi	r18, 0x01	; 1
    2616:	2b 83       	std	Y+3, r18	; 0x03
    2618:	90 91 df 03 	lds	r25, 0x03DF
    261c:	93 31       	cpi	r25, 0x13	; 19
    261e:	21 f0       	breq	.+8      	; 0x2628
    2620:	80 91 47 04 	lds	r24, 0x0447
    2624:	86 31       	cpi	r24, 0x16	; 22
    2626:	19 f4       	brne	.+6      	; 0x262e
    2628:	81 e0       	ldi	r24, 0x01	; 1
    262a:	90 e0       	ldi	r25, 0x00	; 0
    262c:	96 c2       	rjmp	.+1324   	; 0x2b5a
    262e:	80 91 1b 03 	lds	r24, 0x031B
    2632:	88 23       	and	r24, r24
    2634:	49 f1       	breq	.+82     	; 0x2688
    2636:	10 92 1b 03 	sts	0x031B, r1
    263a:	91 31       	cpi	r25, 0x11	; 17
    263c:	21 f4       	brne	.+8      	; 0x2646
    263e:	80 91 38 03 	lds	r24, 0x0338
    2642:	88 23       	and	r24, r24
    2644:	19 f4       	brne	.+6      	; 0x264c
    2646:	80 e0       	ldi	r24, 0x00	; 0
    2648:	90 e0       	ldi	r25, 0x00	; 0
    264a:	1d c0       	rjmp	.+58     	; 0x2686
    264c:	83 e1       	ldi	r24, 0x13	; 19
    264e:	80 93 df 03 	sts	0x03DF, r24
    2652:	78 94       	sei
    2654:	80 91 18 02 	lds	r24, 0x0218
    2658:	90 91 19 02 	lds	r25, 0x0219
    265c:	bc 01       	movw	r22, r24
    265e:	8a e9       	ldi	r24, 0x9A	; 154
    2660:	94 e0       	ldi	r25, 0x04	; 4
    2662:	0e 94 4d 10 	call	0x209a
    2666:	08 2f       	mov	r16, r24
    2668:	11 27       	eor	r17, r17
    266a:	8f b7       	in	r24, 0x3f	; 63
    266c:	f8 94       	cli
    266e:	82 e1       	ldi	r24, 0x12	; 18
    2670:	80 93 df 03 	sts	0x03DF, r24
    2674:	0e 94 f0 12 	call	0x25e0
    2678:	00 23       	and	r16, r16
    267a:	11 f0       	breq	.+4      	; 0x2680
    267c:	99 27       	eor	r25, r25
    267e:	02 c0       	rjmp	.+4      	; 0x2684
    2680:	80 e0       	ldi	r24, 0x00	; 0
    2682:	90 e0       	ldi	r25, 0x00	; 0
    2684:	99 27       	eor	r25, r25
    2686:	8b 83       	std	Y+3, r24	; 0x03
    2688:	80 91 1a 03 	lds	r24, 0x031A
    268c:	88 23       	and	r24, r24
    268e:	09 f4       	brne	.+2      	; 0x2692
    2690:	40 c0       	rjmp	.+128    	; 0x2712
    2692:	10 92 1a 03 	sts	0x031A, r1
    2696:	40 91 1c 03 	lds	r20, 0x031C
    269a:	90 91 1d 03 	lds	r25, 0x031D
    269e:	80 91 38 03 	lds	r24, 0x0338
    26a2:	88 23       	and	r24, r24
    26a4:	61 f1       	breq	.+88     	; 0x26fe
    26a6:	45 32       	cpi	r20, 0x25	; 37
    26a8:	50 f5       	brcc	.+84     	; 0x26fe
    26aa:	f0 90 df 03 	lds	r15, 0x03DF
    26ae:	61 e1       	ldi	r22, 0x11	; 17
    26b0:	f6 16       	cp	r15, r22
    26b2:	29 f1       	breq	.+74     	; 0x26fe
    26b4:	82 e1       	ldi	r24, 0x12	; 18
    26b6:	f8 16       	cp	r15, r24
    26b8:	11 f5       	brne	.+68     	; 0x26fe
    26ba:	83 e1       	ldi	r24, 0x13	; 19
    26bc:	80 93 df 03 	sts	0x03DF, r24
    26c0:	78 94       	sei
    26c2:	20 91 76 03 	lds	r18, 0x0376
    26c6:	30 91 77 03 	lds	r19, 0x0377
    26ca:	24 0f       	add	r18, r20
    26cc:	31 1d       	adc	r19, r1
    26ce:	89 2f       	mov	r24, r25
    26d0:	99 27       	eor	r25, r25
    26d2:	ac 01       	movw	r20, r24
    26d4:	b9 01       	movw	r22, r18
    26d6:	8a e9       	ldi	r24, 0x9A	; 154
    26d8:	94 e0       	ldi	r25, 0x04	; 4
    26da:	0e 94 86 10 	call	0x210c
    26de:	08 2f       	mov	r16, r24
    26e0:	11 27       	eor	r17, r17
    26e2:	8f b7       	in	r24, 0x3f	; 63
    26e4:	f8 94       	cli
    26e6:	f0 92 df 03 	sts	0x03DF, r15
    26ea:	0e 94 f0 12 	call	0x25e0
    26ee:	00 23       	and	r16, r16
    26f0:	11 f0       	breq	.+4      	; 0x26f6
    26f2:	99 27       	eor	r25, r25
    26f4:	02 c0       	rjmp	.+4      	; 0x26fa
    26f6:	80 e0       	ldi	r24, 0x00	; 0
    26f8:	90 e0       	ldi	r25, 0x00	; 0
    26fa:	99 27       	eor	r25, r25
    26fc:	02 c0       	rjmp	.+4      	; 0x2702
    26fe:	80 e0       	ldi	r24, 0x00	; 0
    2700:	90 e0       	ldi	r25, 0x00	; 0
    2702:	9b 81       	ldd	r25, Y+3	; 0x03
    2704:	99 23       	and	r25, r25
    2706:	11 f0       	breq	.+4      	; 0x270c
    2708:	99 27       	eor	r25, r25
    270a:	02 c0       	rjmp	.+4      	; 0x2710
    270c:	80 e0       	ldi	r24, 0x00	; 0
    270e:	90 e0       	ldi	r25, 0x00	; 0
    2710:	8b 83       	std	Y+3, r24	; 0x03
    2712:	80 91 1e 03 	lds	r24, 0x031E
    2716:	88 23       	and	r24, r24
    2718:	09 f4       	brne	.+2      	; 0x271c
    271a:	45 c0       	rjmp	.+138    	; 0x27a6
    271c:	10 92 1e 03 	sts	0x031E, r1
    2720:	80 91 38 03 	lds	r24, 0x0338
    2724:	88 23       	and	r24, r24
    2726:	a9 f1       	breq	.+106    	; 0x2792
    2728:	80 91 df 03 	lds	r24, 0x03DF
    272c:	81 31       	cpi	r24, 0x11	; 17
    272e:	89 f1       	breq	.+98     	; 0x2792
    2730:	82 31       	cpi	r24, 0x12	; 18
    2732:	79 f5       	brne	.+94     	; 0x2792
    2734:	83 e1       	ldi	r24, 0x13	; 19
    2736:	80 93 df 03 	sts	0x03DF, r24
    273a:	78 94       	sei
    273c:	80 91 76 03 	lds	r24, 0x0376
    2740:	90 91 77 03 	lds	r25, 0x0377
    2744:	89 96       	adiw	r24, 0x29	; 41
    2746:	45 e0       	ldi	r20, 0x05	; 5
    2748:	bc 01       	movw	r22, r24
    274a:	8a e9       	ldi	r24, 0x9A	; 154
    274c:	94 e0       	ldi	r25, 0x04	; 4
    274e:	0e 94 cf 10 	call	0x219e
    2752:	08 2f       	mov	r16, r24
    2754:	11 27       	eor	r17, r17
    2756:	8f b7       	in	r24, 0x3f	; 63
    2758:	f8 94       	cli
    275a:	e0 91 76 03 	lds	r30, 0x0376
    275e:	f0 91 77 03 	lds	r31, 0x0377
    2762:	81 e0       	ldi	r24, 0x01	; 1
    2764:	80 ab       	std	Z+48, r24	; 0x30
    2766:	e0 91 76 03 	lds	r30, 0x0376
    276a:	f0 91 77 03 	lds	r31, 0x0377
    276e:	87 a5       	ldd	r24, Z+47	; 0x2f
    2770:	88 23       	and	r24, r24
    2772:	11 f0       	breq	.+4      	; 0x2778
    2774:	0e 94 c6 15 	call	0x2b8c
    2778:	81 e1       	ldi	r24, 0x11	; 17
    277a:	80 93 df 03 	sts	0x03DF, r24
    277e:	0e 94 f0 12 	call	0x25e0
    2782:	00 23       	and	r16, r16
    2784:	11 f0       	breq	.+4      	; 0x278a
    2786:	99 27       	eor	r25, r25
    2788:	02 c0       	rjmp	.+4      	; 0x278e
    278a:	80 e0       	ldi	r24, 0x00	; 0
    278c:	90 e0       	ldi	r25, 0x00	; 0
    278e:	99 27       	eor	r25, r25
    2790:	02 c0       	rjmp	.+4      	; 0x2796
    2792:	80 e0       	ldi	r24, 0x00	; 0
    2794:	90 e0       	ldi	r25, 0x00	; 0
    2796:	eb 81       	ldd	r30, Y+3	; 0x03
    2798:	ee 23       	and	r30, r30
    279a:	11 f0       	breq	.+4      	; 0x27a0
    279c:	99 27       	eor	r25, r25
    279e:	02 c0       	rjmp	.+4      	; 0x27a4
    27a0:	80 e0       	ldi	r24, 0x00	; 0
    27a2:	90 e0       	ldi	r25, 0x00	; 0
    27a4:	8b 83       	std	Y+3, r24	; 0x03
    27a6:	80 91 82 04 	lds	r24, 0x0482
    27aa:	88 23       	and	r24, r24
    27ac:	61 f0       	breq	.+24     	; 0x27c6
    27ae:	10 92 82 04 	sts	0x0482, r1
    27b2:	0e 94 f6 15 	call	0x2bec
    27b6:	fb 81       	ldd	r31, Y+3	; 0x03
    27b8:	ff 23       	and	r31, r31
    27ba:	11 f0       	breq	.+4      	; 0x27c0
    27bc:	99 27       	eor	r25, r25
    27be:	02 c0       	rjmp	.+4      	; 0x27c4
    27c0:	80 e0       	ldi	r24, 0x00	; 0
    27c2:	90 e0       	ldi	r25, 0x00	; 0
    27c4:	8b 83       	std	Y+3, r24	; 0x03
    27c6:	80 91 81 04 	lds	r24, 0x0481
    27ca:	88 23       	and	r24, r24
    27cc:	09 f4       	brne	.+2      	; 0x27d0
    27ce:	c2 c1       	rjmp	.+900    	; 0x2b54
    27d0:	10 92 81 04 	sts	0x0481, r1
    27d4:	80 91 47 04 	lds	r24, 0x0447
    27d8:	85 31       	cpi	r24, 0x15	; 21
    27da:	09 f0       	breq	.+2      	; 0x27de
    27dc:	ab c1       	rjmp	.+854    	; 0x2b34
    27de:	90 91 83 04 	lds	r25, 0x0483
    27e2:	40 91 84 04 	lds	r20, 0x0484
    27e6:	80 91 38 03 	lds	r24, 0x0338
    27ea:	88 23       	and	r24, r24
    27ec:	19 f4       	brne	.+6      	; 0x27f4
    27ee:	80 e0       	ldi	r24, 0x00	; 0
    27f0:	90 e0       	ldi	r25, 0x00	; 0
    27f2:	9c c1       	rjmp	.+824    	; 0x2b2c
    27f4:	86 e1       	ldi	r24, 0x16	; 22
    27f6:	80 93 47 04 	sts	0x0447, r24
    27fa:	78 94       	sei
    27fc:	a0 90 76 03 	lds	r10, 0x0376
    2800:	b0 90 77 03 	lds	r11, 0x0377
    2804:	a9 0e       	add	r10, r25
    2806:	b1 1c       	adc	r11, r1
    2808:	60 90 78 03 	lds	r6, 0x0378
    280c:	70 90 79 03 	lds	r7, 0x0379
    2810:	85 e0       	ldi	r24, 0x05	; 5
    2812:	90 e0       	ldi	r25, 0x00	; 0
    2814:	68 0e       	add	r6, r24
    2816:	79 1e       	adc	r7, r25
    2818:	e8 e0       	ldi	r30, 0x08	; 8
    281a:	f0 e0       	ldi	r31, 0x00	; 0
    281c:	ae 0e       	add	r10, r30
    281e:	bf 1e       	adc	r11, r31
    2820:	e4 2e       	mov	r14, r20
    2822:	ff 24       	eor	r15, r15
    2824:	e0 e0       	ldi	r30, 0x00	; 0
    2826:	4e 2e       	mov	r4, r30
    2828:	e3 e0       	ldi	r30, 0x03	; 3
    282a:	5e 2e       	mov	r5, r30
    282c:	f0 91 10 03 	lds	r31, 0x0310
    2830:	fc 83       	std	Y+4, r31	; 0x04
    2832:	c0 90 13 03 	lds	r12, 0x0313
    2836:	d0 90 14 03 	lds	r13, 0x0314
    283a:	e1 14       	cp	r14, r1
    283c:	f1 04       	cpc	r15, r1
    283e:	09 f4       	brne	.+2      	; 0x2842
    2840:	4c c1       	rjmp	.+664    	; 0x2ada
    2842:	80 91 11 03 	lds	r24, 0x0311
    2846:	90 91 12 03 	lds	r25, 0x0312
    284a:	8e 15       	cp	r24, r14
    284c:	9f 05       	cpc	r25, r15
    284e:	d8 f4       	brcc	.+54     	; 0x2886
    2850:	17 c0       	rjmp	.+46     	; 0x2880
    2852:	a7 01       	movw	r20, r14
    2854:	b5 01       	movw	r22, r10
    2856:	cf 01       	movw	r24, r30
    2858:	0e 94 cc 05 	call	0xb98
    285c:	f2 01       	movw	r30, r4
    285e:	c3 8a       	std	Z+19, r12	; 0x13
    2860:	d4 8a       	std	Z+20, r13	; 0x14
    2862:	c9 82       	std	Y+1, r12	; 0x01
    2864:	da 82       	std	Y+2, r13	; 0x02
    2866:	80 91 16 03 	lds	r24, 0x0316
    286a:	8e 0d       	add	r24, r14
    286c:	86 8b       	std	Z+22, r24	; 0x16
    286e:	80 91 11 03 	lds	r24, 0x0311
    2872:	90 91 12 03 	lds	r25, 0x0312
    2876:	8e 19       	sub	r24, r14
    2878:	9f 09       	sbc	r25, r15
    287a:	81 8b       	std	Z+17, r24	; 0x11
    287c:	92 8b       	std	Z+18, r25	; 0x12
    287e:	2f c1       	rjmp	.+606    	; 0x2ade
    2880:	80 e0       	ldi	r24, 0x00	; 0
    2882:	90 e0       	ldi	r25, 0x00	; 0
    2884:	2e c1       	rjmp	.+604    	; 0x2ae2
    2886:	e1 14       	cp	r14, r1
    2888:	f1 04       	cpc	r15, r1
    288a:	09 f4       	brne	.+2      	; 0x288e
    288c:	23 c1       	rjmp	.+582    	; 0x2ad4
    288e:	80 91 15 03 	lds	r24, 0x0315
    2892:	90 91 17 03 	lds	r25, 0x0317
    2896:	88 23       	and	r24, r24
    2898:	41 f0       	breq	.+16     	; 0x28aa
    289a:	70 e0       	ldi	r23, 0x00	; 0
    289c:	87 2e       	mov	r8, r23
    289e:	73 e0       	ldi	r23, 0x03	; 3
    28a0:	97 2e       	mov	r9, r23
    28a2:	68 e0       	ldi	r22, 0x08	; 8
    28a4:	26 2e       	mov	r2, r22
    28a6:	31 2c       	mov	r3, r1
    28a8:	08 c0       	rjmp	.+16     	; 0x28ba
    28aa:	58 e0       	ldi	r21, 0x08	; 8
    28ac:	85 2e       	mov	r8, r21
    28ae:	53 e0       	ldi	r21, 0x03	; 3
    28b0:	95 2e       	mov	r9, r21
    28b2:	48 ef       	ldi	r20, 0xF8	; 248
    28b4:	24 2e       	mov	r2, r20
    28b6:	4f ef       	ldi	r20, 0xFF	; 255
    28b8:	34 2e       	mov	r3, r20
    28ba:	28 0c       	add	r2, r8
    28bc:	39 1c       	adc	r3, r9
    28be:	93 30       	cpi	r25, 0x03	; 3
    28c0:	39 f1       	breq	.+78     	; 0x2910
    28c2:	80 91 16 03 	lds	r24, 0x0316
    28c6:	48 2f       	mov	r20, r24
    28c8:	55 27       	eor	r21, r21
    28ca:	ca 01       	movw	r24, r20
    28cc:	8e 0d       	add	r24, r14
    28ce:	9f 1d       	adc	r25, r15
    28d0:	fc 81       	ldd	r31, Y+4	; 0x04
    28d2:	2f 2f       	mov	r18, r31
    28d4:	33 27       	eor	r19, r19
    28d6:	f4 01       	movw	r30, r8
    28d8:	e4 0f       	add	r30, r20
    28da:	f5 1f       	adc	r31, r21
    28dc:	82 17       	cp	r24, r18
    28de:	93 07       	cpc	r25, r19
    28e0:	08 f4       	brcc	.+2      	; 0x28e4
    28e2:	b7 cf       	rjmp	.-146    	; 0x2852
    28e4:	89 01       	movw	r16, r18
    28e6:	04 1b       	sub	r16, r20
    28e8:	15 0b       	sbc	r17, r21
    28ea:	a8 01       	movw	r20, r16
    28ec:	b5 01       	movw	r22, r10
    28ee:	cf 01       	movw	r24, r30
    28f0:	0e 94 cc 05 	call	0xb98
    28f4:	80 91 11 03 	lds	r24, 0x0311
    28f8:	90 91 12 03 	lds	r25, 0x0312
    28fc:	80 1b       	sub	r24, r16
    28fe:	91 0b       	sbc	r25, r17
    2900:	f2 01       	movw	r30, r4
    2902:	81 8b       	std	Z+17, r24	; 0x11
    2904:	92 8b       	std	Z+18, r25	; 0x12
    2906:	a0 0e       	add	r10, r16
    2908:	b1 1e       	adc	r11, r17
    290a:	e0 1a       	sub	r14, r16
    290c:	f1 0a       	sbc	r15, r17
    290e:	16 8a       	std	Z+22, r1	; 0x16
    2910:	80 91 17 03 	lds	r24, 0x0317
    2914:	88 23       	and	r24, r24
    2916:	f9 f4       	brne	.+62     	; 0x2956
    2918:	a3 01       	movw	r20, r6
    291a:	b4 01       	movw	r22, r8
    291c:	80 e8       	ldi	r24, 0x80	; 128
    291e:	92 e0       	ldi	r25, 0x02	; 2
    2920:	0e 94 a9 16 	call	0x2d52
    2924:	81 30       	cpi	r24, 0x01	; 1
    2926:	09 f0       	breq	.+2      	; 0x292a
    2928:	ab cf       	rjmp	.-170    	; 0x2880
    292a:	fc 81       	ldd	r31, Y+4	; 0x04
    292c:	4f 2f       	mov	r20, r31
    292e:	55 27       	eor	r21, r21
    2930:	41 15       	cp	r20, r1
    2932:	51 05       	cpc	r21, r1
    2934:	51 f0       	breq	.+20     	; 0x294a
    2936:	d1 01       	movw	r26, r2
    2938:	f3 01       	movw	r30, r6
    293a:	9a 01       	movw	r18, r20
    293c:	80 81       	ld	r24, Z
    293e:	9d 91       	ld	r25, X+
    2940:	89 27       	eor	r24, r25
    2942:	81 93       	st	Z+, r24
    2944:	21 50       	subi	r18, 0x01	; 1
    2946:	30 40       	sbci	r19, 0x00	; 0
    2948:	c9 f7       	brne	.-14     	; 0x293c
    294a:	f2 01       	movw	r30, r4
    294c:	43 8b       	std	Z+19, r20	; 0x13
    294e:	54 8b       	std	Z+20, r21	; 0x14
    2950:	49 83       	std	Y+1, r20	; 0x01
    2952:	5a 83       	std	Y+2, r21	; 0x02
    2954:	c4 c0       	rjmp	.+392    	; 0x2ade
    2956:	81 30       	cpi	r24, 0x01	; 1
    2958:	89 f5       	brne	.+98     	; 0x29bc
    295a:	83 01       	movw	r16, r6
    295c:	0c 0d       	add	r16, r12
    295e:	1d 1d       	adc	r17, r13
    2960:	a8 01       	movw	r20, r16
    2962:	b4 01       	movw	r22, r8
    2964:	80 e8       	ldi	r24, 0x80	; 128
    2966:	92 e0       	ldi	r25, 0x02	; 2
    2968:	0e 94 a9 16 	call	0x2d52
    296c:	81 30       	cpi	r24, 0x01	; 1
    296e:	09 f0       	breq	.+2      	; 0x2972
    2970:	87 cf       	rjmp	.-242    	; 0x2880
    2972:	fc 81       	ldd	r31, Y+4	; 0x04
    2974:	4f 2f       	mov	r20, r31
    2976:	55 27       	eor	r21, r21
    2978:	41 15       	cp	r20, r1
    297a:	51 05       	cpc	r21, r1
    297c:	51 f0       	breq	.+20     	; 0x2992
    297e:	d1 01       	movw	r26, r2
    2980:	f8 01       	movw	r30, r16
    2982:	9a 01       	movw	r18, r20
    2984:	80 81       	ld	r24, Z
    2986:	9d 91       	ld	r25, X+
    2988:	89 27       	eor	r24, r25
    298a:	81 93       	st	Z+, r24
    298c:	21 50       	subi	r18, 0x01	; 1
    298e:	30 40       	sbci	r19, 0x00	; 0
    2990:	c9 f7       	brne	.-14     	; 0x2984
    2992:	c4 0e       	add	r12, r20
    2994:	d5 1e       	adc	r13, r21
    2996:	90 e0       	ldi	r25, 0x00	; 0
    2998:	80 91 15 03 	lds	r24, 0x0315
    299c:	88 23       	and	r24, r24
    299e:	09 f4       	brne	.+2      	; 0x29a2
    29a0:	91 e0       	ldi	r25, 0x01	; 1
    29a2:	f2 01       	movw	r30, r4
    29a4:	95 8b       	std	Z+21, r25	; 0x15
    29a6:	44 0f       	add	r20, r20
    29a8:	55 1f       	adc	r21, r21
    29aa:	80 91 11 03 	lds	r24, 0x0311
    29ae:	90 91 12 03 	lds	r25, 0x0312
    29b2:	48 17       	cp	r20, r24
    29b4:	59 07       	cpc	r21, r25
    29b6:	10 f0       	brcs	.+4      	; 0x29bc
    29b8:	82 e0       	ldi	r24, 0x02	; 2
    29ba:	0f c0       	rjmp	.+30     	; 0x29da
    29bc:	80 91 17 03 	lds	r24, 0x0317
    29c0:	82 30       	cpi	r24, 0x02	; 2
    29c2:	69 f4       	brne	.+26     	; 0x29de
    29c4:	a4 01       	movw	r20, r8
    29c6:	b4 01       	movw	r22, r8
    29c8:	80 e8       	ldi	r24, 0x80	; 128
    29ca:	92 e0       	ldi	r25, 0x02	; 2
    29cc:	0e 94 a9 16 	call	0x2d52
    29d0:	81 30       	cpi	r24, 0x01	; 1
    29d2:	09 f0       	breq	.+2      	; 0x29d6
    29d4:	55 cf       	rjmp	.-342    	; 0x2880
    29d6:	83 e0       	ldi	r24, 0x03	; 3
    29d8:	f2 01       	movw	r30, r4
    29da:	87 8b       	std	Z+23, r24	; 0x17
    29dc:	77 c0       	rjmp	.+238    	; 0x2acc
    29de:	83 30       	cpi	r24, 0x03	; 3
    29e0:	09 f0       	breq	.+2      	; 0x29e4
    29e2:	74 c0       	rjmp	.+232    	; 0x2acc
    29e4:	80 91 16 03 	lds	r24, 0x0316
    29e8:	99 27       	eor	r25, r25
    29ea:	8c 01       	movw	r16, r24
    29ec:	0e 0d       	add	r16, r14
    29ee:	1f 1d       	adc	r17, r15
    29f0:	9c 01       	movw	r18, r24
    29f2:	80 17       	cp	r24, r16
    29f4:	91 07       	cpc	r25, r17
    29f6:	44 f5       	brge	.+80     	; 0x2a48
    29f8:	ac 01       	movw	r20, r24
    29fa:	48 0d       	add	r20, r8
    29fc:	59 1d       	adc	r21, r9
    29fe:	d6 01       	movw	r26, r12
    2a00:	fc 81       	ldd	r31, Y+4	; 0x04
    2a02:	af 0f       	add	r26, r31
    2a04:	b1 1d       	adc	r27, r1
    2a06:	a2 0f       	add	r26, r18
    2a08:	b3 1f       	adc	r27, r19
    2a0a:	a6 0d       	add	r26, r6
    2a0c:	b7 1d       	adc	r27, r7
    2a0e:	80 91 16 03 	lds	r24, 0x0316
    2a12:	b9 01       	movw	r22, r18
    2a14:	68 1b       	sub	r22, r24
    2a16:	71 09       	sbc	r23, r1
    2a18:	6a 0d       	add	r22, r10
    2a1a:	7b 1d       	adc	r23, r11
    2a1c:	fa 01       	movw	r30, r20
    2a1e:	80 81       	ld	r24, Z
    2a20:	fb 01       	movw	r30, r22
    2a22:	90 81       	ld	r25, Z
    2a24:	89 27       	eor	r24, r25
    2a26:	8c 93       	st	X, r24
    2a28:	80 91 16 03 	lds	r24, 0x0316
    2a2c:	f9 01       	movw	r30, r18
    2a2e:	e8 1b       	sub	r30, r24
    2a30:	f1 09       	sbc	r31, r1
    2a32:	ea 0d       	add	r30, r10
    2a34:	fb 1d       	adc	r31, r11
    2a36:	80 81       	ld	r24, Z
    2a38:	fa 01       	movw	r30, r20
    2a3a:	81 93       	st	Z+, r24
    2a3c:	af 01       	movw	r20, r30
    2a3e:	2f 5f       	subi	r18, 0xFF	; 255
    2a40:	3f 4f       	sbci	r19, 0xFF	; 255
    2a42:	20 17       	cp	r18, r16
    2a44:	31 07       	cpc	r19, r17
    2a46:	dc f2       	brlt	.-74     	; 0x29fe
    2a48:	00 91 11 03 	lds	r16, 0x0311
    2a4c:	10 91 12 03 	lds	r17, 0x0312
    2a50:	0e 19       	sub	r16, r14
    2a52:	1f 09       	sbc	r17, r15
    2a54:	f2 01       	movw	r30, r4
    2a56:	01 8b       	std	Z+17, r16	; 0x11
    2a58:	12 8b       	std	Z+18, r17	; 0x12
    2a5a:	01 15       	cp	r16, r1
    2a5c:	11 05       	cpc	r17, r1
    2a5e:	39 f0       	breq	.+14     	; 0x2a6e
    2a60:	80 91 16 03 	lds	r24, 0x0316
    2a64:	8e 0d       	add	r24, r14
    2a66:	86 8b       	std	Z+22, r24	; 0x16
    2a68:	ee 24       	eor	r14, r14
    2a6a:	ff 24       	eor	r15, r15
    2a6c:	2f c0       	rjmp	.+94     	; 0x2acc
    2a6e:	c6 0c       	add	r12, r6
    2a70:	d7 1c       	adc	r13, r7
    2a72:	a6 01       	movw	r20, r12
    2a74:	b4 01       	movw	r22, r8
    2a76:	80 e8       	ldi	r24, 0x80	; 128
    2a78:	92 e0       	ldi	r25, 0x02	; 2
    2a7a:	0e 94 a9 16 	call	0x2d52
    2a7e:	81 30       	cpi	r24, 0x01	; 1
    2a80:	09 f0       	breq	.+2      	; 0x2a84
    2a82:	fe ce       	rjmp	.-516    	; 0x2880
    2a84:	fc 81       	ldd	r31, Y+4	; 0x04
    2a86:	4f 2f       	mov	r20, r31
    2a88:	55 27       	eor	r21, r21
    2a8a:	04 17       	cp	r16, r20
    2a8c:	15 07       	cpc	r17, r21
    2a8e:	54 f4       	brge	.+20     	; 0x2aa4
    2a90:	d1 01       	movw	r26, r2
    2a92:	f6 01       	movw	r30, r12
    2a94:	9a 01       	movw	r18, r20
    2a96:	80 81       	ld	r24, Z
    2a98:	9d 91       	ld	r25, X+
    2a9a:	89 27       	eor	r24, r25
    2a9c:	81 93       	st	Z+, r24
    2a9e:	21 50       	subi	r18, 0x01	; 1
    2aa0:	30 40       	sbci	r19, 0x00	; 0
    2aa2:	c9 f7       	brne	.-14     	; 0x2a96
    2aa4:	f2 01       	movw	r30, r4
    2aa6:	11 8a       	std	Z+17, r1	; 0x11
    2aa8:	12 8a       	std	Z+18, r1	; 0x12
    2aaa:	4e 0d       	add	r20, r14
    2aac:	5f 1d       	adc	r21, r15
    2aae:	80 91 16 03 	lds	r24, 0x0316
    2ab2:	48 0f       	add	r20, r24
    2ab4:	51 1d       	adc	r21, r1
    2ab6:	80 91 13 03 	lds	r24, 0x0313
    2aba:	90 91 14 03 	lds	r25, 0x0314
    2abe:	84 0f       	add	r24, r20
    2ac0:	95 1f       	adc	r25, r21
    2ac2:	83 8b       	std	Z+19, r24	; 0x13
    2ac4:	94 8b       	std	Z+20, r25	; 0x14
    2ac6:	89 83       	std	Y+1, r24	; 0x01
    2ac8:	9a 83       	std	Y+2, r25	; 0x02
    2aca:	09 c0       	rjmp	.+18     	; 0x2ade
    2acc:	e1 14       	cp	r14, r1
    2ace:	f1 04       	cpc	r15, r1
    2ad0:	09 f0       	breq	.+2      	; 0x2ad4
    2ad2:	dd ce       	rjmp	.-582    	; 0x288e
    2ad4:	f2 01       	movw	r30, r4
    2ad6:	c3 8a       	std	Z+19, r12	; 0x13
    2ad8:	d4 8a       	std	Z+20, r13	; 0x14
    2ada:	c9 82       	std	Y+1, r12	; 0x01
    2adc:	da 82       	std	Y+2, r13	; 0x02
    2ade:	81 e0       	ldi	r24, 0x01	; 1
    2ae0:	90 e0       	ldi	r25, 0x00	; 0
    2ae2:	18 2f       	mov	r17, r24
    2ae4:	8f b7       	in	r24, 0x3f	; 63
    2ae6:	f8 94       	cli
    2ae8:	85 e1       	ldi	r24, 0x15	; 21
    2aea:	80 93 47 04 	sts	0x0447, r24
    2aee:	80 91 c3 03 	lds	r24, 0x03C3
    2af2:	99 27       	eor	r25, r25
    2af4:	20 91 1e 02 	lds	r18, 0x021E
    2af8:	30 91 1f 02 	lds	r19, 0x021F
    2afc:	49 81       	ldd	r20, Y+1	; 0x01
    2afe:	5a 81       	ldd	r21, Y+2	; 0x02
    2b00:	28 17       	cp	r18, r24
    2b02:	39 07       	cpc	r19, r25
    2b04:	24 f4       	brge	.+8      	; 0x2b0e
    2b06:	48 17       	cp	r20, r24
    2b08:	59 07       	cpc	r21, r25
    2b0a:	39 f4       	brne	.+14     	; 0x2b1a
    2b0c:	03 c0       	rjmp	.+6      	; 0x2b14
    2b0e:	42 17       	cp	r20, r18
    2b10:	53 07       	cpc	r21, r19
    2b12:	19 f4       	brne	.+6      	; 0x2b1a
    2b14:	84 e1       	ldi	r24, 0x14	; 20
    2b16:	80 93 47 04 	sts	0x0447, r24
    2b1a:	0e 94 f0 12 	call	0x25e0
    2b1e:	11 23       	and	r17, r17
    2b20:	11 f0       	breq	.+4      	; 0x2b26
    2b22:	99 27       	eor	r25, r25
    2b24:	02 c0       	rjmp	.+4      	; 0x2b2a
    2b26:	80 e0       	ldi	r24, 0x00	; 0
    2b28:	90 e0       	ldi	r25, 0x00	; 0
    2b2a:	99 27       	eor	r25, r25
    2b2c:	fb 81       	ldd	r31, Y+3	; 0x03
    2b2e:	ff 23       	and	r31, r31
    2b30:	41 f4       	brne	.+16     	; 0x2b42
    2b32:	09 c0       	rjmp	.+18     	; 0x2b46
    2b34:	84 31       	cpi	r24, 0x14	; 20
    2b36:	59 f4       	brne	.+22     	; 0x2b4e
    2b38:	0e 94 f6 15 	call	0x2bec
    2b3c:	2b 81       	ldd	r18, Y+3	; 0x03
    2b3e:	22 23       	and	r18, r18
    2b40:	11 f0       	breq	.+4      	; 0x2b46
    2b42:	99 27       	eor	r25, r25
    2b44:	02 c0       	rjmp	.+4      	; 0x2b4a
    2b46:	80 e0       	ldi	r24, 0x00	; 0
    2b48:	90 e0       	ldi	r25, 0x00	; 0
    2b4a:	8b 83       	std	Y+3, r24	; 0x03
    2b4c:	03 c0       	rjmp	.+6      	; 0x2b54
    2b4e:	80 e0       	ldi	r24, 0x00	; 0
    2b50:	90 e0       	ldi	r25, 0x00	; 0
    2b52:	03 c0       	rjmp	.+6      	; 0x2b5a
    2b54:	6b 81       	ldd	r22, Y+3	; 0x03
    2b56:	86 2f       	mov	r24, r22
    2b58:	99 27       	eor	r25, r25
    2b5a:	24 96       	adiw	r28, 0x04	; 4
    2b5c:	0f b6       	in	r0, 0x3f	; 63
    2b5e:	f8 94       	cli
    2b60:	de bf       	out	0x3e, r29	; 62
    2b62:	0f be       	out	0x3f, r0	; 63
    2b64:	cd bf       	out	0x3d, r28	; 61
    2b66:	df 91       	pop	r29
    2b68:	cf 91       	pop	r28
    2b6a:	1f 91       	pop	r17
    2b6c:	0f 91       	pop	r16
    2b6e:	ff 90       	pop	r15
    2b70:	ef 90       	pop	r14
    2b72:	df 90       	pop	r13
    2b74:	cf 90       	pop	r12
    2b76:	bf 90       	pop	r11
    2b78:	af 90       	pop	r10
    2b7a:	9f 90       	pop	r9
    2b7c:	8f 90       	pop	r8
    2b7e:	7f 90       	pop	r7
    2b80:	6f 90       	pop	r6
    2b82:	5f 90       	pop	r5
    2b84:	4f 90       	pop	r4
    2b86:	3f 90       	pop	r3
    2b88:	2f 90       	pop	r2
    2b8a:	08 95       	ret

00002b8c <TinySecM$verifyMAC>:
    2b8c:	80 91 38 03 	lds	r24, 0x0338
    2b90:	88 23       	and	r24, r24
    2b92:	49 f0       	breq	.+18     	; 0x2ba6
    2b94:	a0 91 76 03 	lds	r26, 0x0376
    2b98:	b0 91 77 03 	lds	r27, 0x0377
    2b9c:	d0 96       	adiw	r26, 0x30	; 48
    2b9e:	8c 91       	ld	r24, X
    2ba0:	d0 97       	sbiw	r26, 0x30	; 48
    2ba2:	88 23       	and	r24, r24
    2ba4:	71 f4       	brne	.+28     	; 0x2bc2
    2ba6:	80 e0       	ldi	r24, 0x00	; 0
    2ba8:	90 e0       	ldi	r25, 0x00	; 0
    2baa:	08 95       	ret
    2bac:	d0 96       	adiw	r26, 0x30	; 48
    2bae:	1c 92       	st	X, r1
    2bb0:	e0 91 78 03 	lds	r30, 0x0378
    2bb4:	f0 91 79 03 	lds	r31, 0x0379
    2bb8:	12 a2       	std	Z+34, r1	; 0x22
    2bba:	13 a2       	std	Z+35, r1	; 0x23
    2bbc:	81 e0       	ldi	r24, 0x01	; 1
    2bbe:	90 e0       	ldi	r25, 0x00	; 0
    2bc0:	08 95       	ret
    2bc2:	fd 01       	movw	r30, r26
    2bc4:	9d 01       	movw	r18, r26
    2bc6:	2d 5f       	subi	r18, 0xFD	; 253
    2bc8:	3f 4f       	sbci	r19, 0xFF	; 255
    2bca:	91 a5       	ldd	r25, Z+41	; 0x29
    2bcc:	85 a1       	ldd	r24, Z+37	; 0x25
    2bce:	98 17       	cp	r25, r24
    2bd0:	69 f7       	brne	.-38     	; 0x2bac
    2bd2:	31 96       	adiw	r30, 0x01	; 1
    2bd4:	2e 17       	cp	r18, r30
    2bd6:	3f 07       	cpc	r19, r31
    2bd8:	c4 f7       	brge	.-16     	; 0x2bca
    2bda:	e0 91 78 03 	lds	r30, 0x0378
    2bde:	f0 91 79 03 	lds	r31, 0x0379
    2be2:	81 e0       	ldi	r24, 0x01	; 1
    2be4:	90 e0       	ldi	r25, 0x00	; 0
    2be6:	82 a3       	std	Z+34, r24	; 0x22
    2be8:	93 a3       	std	Z+35, r25	; 0x23
    2bea:	08 95       	ret

00002bec <TinySecM$decryptIncrementalInit>:
    2bec:	0f 93       	push	r16
    2bee:	1f 93       	push	r17
    2bf0:	cf 93       	push	r28
    2bf2:	df 93       	push	r29
    2bf4:	cd b7       	in	r28, 0x3d	; 61
    2bf6:	de b7       	in	r29, 0x3e	; 62
    2bf8:	60 97       	sbiw	r28, 0x10	; 16
    2bfa:	0f b6       	in	r0, 0x3f	; 63
    2bfc:	f8 94       	cli
    2bfe:	de bf       	out	0x3e, r29	; 62
    2c00:	0f be       	out	0x3f, r0	; 63
    2c02:	cd bf       	out	0x3d, r28	; 61
    2c04:	04 e0       	ldi	r16, 0x04	; 4
    2c06:	10 e0       	ldi	r17, 0x00	; 0
    2c08:	10 92 22 02 	sts	0x0222, r1
    2c0c:	80 91 47 04 	lds	r24, 0x0447
    2c10:	84 31       	cpi	r24, 0x14	; 20
    2c12:	21 f4       	brne	.+8      	; 0x2c1c
    2c14:	80 91 38 03 	lds	r24, 0x0338
    2c18:	88 23       	and	r24, r24
    2c1a:	19 f4       	brne	.+6      	; 0x2c22
    2c1c:	80 e0       	ldi	r24, 0x00	; 0
    2c1e:	90 e0       	ldi	r25, 0x00	; 0
    2c20:	54 c0       	rjmp	.+168    	; 0x2cca
    2c22:	86 e1       	ldi	r24, 0x16	; 22
    2c24:	80 93 47 04 	sts	0x0447, r24
    2c28:	78 94       	sei
    2c2a:	80 91 c3 03 	lds	r24, 0x03C3
    2c2e:	99 27       	eor	r25, r25
    2c30:	04 97       	sbiw	r24, 0x04	; 4
    2c32:	80 17       	cp	r24, r16
    2c34:	91 07       	cpc	r25, r17
    2c36:	08 f4       	brcc	.+2      	; 0x2c3a
    2c38:	8c 01       	movw	r16, r24
    2c3a:	80 91 76 03 	lds	r24, 0x0376
    2c3e:	90 91 77 03 	lds	r25, 0x0377
    2c42:	04 96       	adiw	r24, 0x04	; 4
    2c44:	44 e0       	ldi	r20, 0x04	; 4
    2c46:	50 e0       	ldi	r21, 0x00	; 0
    2c48:	bc 01       	movw	r22, r24
    2c4a:	ce 01       	movw	r24, r28
    2c4c:	01 96       	adiw	r24, 0x01	; 1
    2c4e:	0e 94 cc 05 	call	0xb98
    2c52:	a8 01       	movw	r20, r16
    2c54:	60 91 76 03 	lds	r22, 0x0376
    2c58:	70 91 77 03 	lds	r23, 0x0377
    2c5c:	ce 01       	movw	r24, r28
    2c5e:	05 96       	adiw	r24, 0x05	; 5
    2c60:	0e 94 cc 05 	call	0xb98
    2c64:	a8 01       	movw	r20, r16
    2c66:	4c 5f       	subi	r20, 0xFC	; 252
    2c68:	5f 4f       	sbci	r21, 0xFF	; 255
    2c6a:	20 91 c3 03 	lds	r18, 0x03C3
    2c6e:	82 2f       	mov	r24, r18
    2c70:	99 27       	eor	r25, r25
    2c72:	48 17       	cp	r20, r24
    2c74:	59 07       	cpc	r21, r25
    2c76:	4c f4       	brge	.+18     	; 0x2c8a
    2c78:	fe 01       	movw	r30, r28
    2c7a:	e4 0f       	add	r30, r20
    2c7c:	f5 1f       	adc	r31, r21
    2c7e:	11 82       	std	Z+1, r1	; 0x01
    2c80:	4f 5f       	subi	r20, 0xFF	; 255
    2c82:	5f 4f       	sbci	r21, 0xFF	; 255
    2c84:	48 17       	cp	r20, r24
    2c86:	59 07       	cpc	r21, r25
    2c88:	bc f3       	brlt	.-18     	; 0x2c78
    2c8a:	82 2f       	mov	r24, r18
    2c8c:	99 27       	eor	r25, r25
    2c8e:	40 91 1e 02 	lds	r20, 0x021E
    2c92:	50 91 1f 02 	lds	r21, 0x021F
    2c96:	be 01       	movw	r22, r28
    2c98:	6f 5f       	subi	r22, 0xFF	; 255
    2c9a:	7f 4f       	sbci	r23, 0xFF	; 255
    2c9c:	48 17       	cp	r20, r24
    2c9e:	59 07       	cpc	r21, r25
    2ca0:	0c f4       	brge	.+2      	; 0x2ca4
    2ca2:	ac 01       	movw	r20, r24
    2ca4:	80 e8       	ldi	r24, 0x80	; 128
    2ca6:	92 e0       	ldi	r25, 0x02	; 2
    2ca8:	0e 94 70 16 	call	0x2ce0
    2cac:	18 2f       	mov	r17, r24
    2cae:	8f b7       	in	r24, 0x3f	; 63
    2cb0:	f8 94       	cli
    2cb2:	85 e1       	ldi	r24, 0x15	; 21
    2cb4:	80 93 47 04 	sts	0x0447, r24
    2cb8:	0e 94 f0 12 	call	0x25e0
    2cbc:	11 23       	and	r17, r17
    2cbe:	11 f0       	breq	.+4      	; 0x2cc4
    2cc0:	99 27       	eor	r25, r25
    2cc2:	02 c0       	rjmp	.+4      	; 0x2cc8
    2cc4:	80 e0       	ldi	r24, 0x00	; 0
    2cc6:	90 e0       	ldi	r25, 0x00	; 0
    2cc8:	99 27       	eor	r25, r25
    2cca:	60 96       	adiw	r28, 0x10	; 16
    2ccc:	0f b6       	in	r0, 0x3f	; 63
    2cce:	f8 94       	cli
    2cd0:	de bf       	out	0x3e, r29	; 62
    2cd2:	0f be       	out	0x3f, r0	; 63
    2cd4:	cd bf       	out	0x3d, r28	; 61
    2cd6:	df 91       	pop	r29
    2cd8:	cf 91       	pop	r28
    2cda:	1f 91       	pop	r17
    2cdc:	0f 91       	pop	r16
    2cde:	08 95       	ret

00002ce0 <CBCModeM$BlockCipherMode$initIncrementalDecrypt>:
    2ce0:	0f 93       	push	r16
    2ce2:	1f 93       	push	r17
    2ce4:	cf 93       	push	r28
    2ce6:	df 93       	push	r29
    2ce8:	9c 01       	movw	r18, r24
    2cea:	8a 01       	movw	r16, r20
    2cec:	ec 01       	movw	r28, r24
    2cee:	c0 58       	subi	r28, 0x80	; 128
    2cf0:	df 4f       	sbci	r29, 0xFF	; 255
    2cf2:	41 15       	cp	r20, r1
    2cf4:	51 05       	cpc	r21, r1
    2cf6:	31 f1       	breq	.+76     	; 0x2d44
    2cf8:	88 89       	ldd	r24, Y+16	; 0x10
    2cfa:	99 27       	eor	r25, r25
    2cfc:	48 17       	cp	r20, r24
    2cfe:	59 07       	cpc	r21, r25
    2d00:	50 f0       	brcs	.+20     	; 0x2d16
    2d02:	49 8b       	std	Y+17, r20	; 0x11
    2d04:	5a 8b       	std	Y+18, r21	; 0x12
    2d06:	ae 01       	movw	r20, r28
    2d08:	c9 01       	movw	r24, r18
    2d0a:	0e 94 d9 0e 	call	0x1db2
    2d0e:	28 2f       	mov	r18, r24
    2d10:	33 27       	eor	r19, r19
    2d12:	21 30       	cpi	r18, 0x01	; 1
    2d14:	19 f0       	breq	.+6      	; 0x2d1c
    2d16:	80 e0       	ldi	r24, 0x00	; 0
    2d18:	90 e0       	ldi	r25, 0x00	; 0
    2d1a:	16 c0       	rjmp	.+44     	; 0x2d48
    2d1c:	1b 8a       	std	Y+19, r1	; 0x13
    2d1e:	1c 8a       	std	Y+20, r1	; 0x14
    2d20:	1e 8a       	std	Y+22, r1	; 0x16
    2d22:	1d 8a       	std	Y+21, r1	; 0x15
    2d24:	88 89       	ldd	r24, Y+16	; 0x10
    2d26:	99 27       	eor	r25, r25
    2d28:	08 17       	cp	r16, r24
    2d2a:	19 07       	cpc	r17, r25
    2d2c:	11 f4       	brne	.+4      	; 0x2d32
    2d2e:	1f 8a       	std	Y+23, r1	; 0x17
    2d30:	09 c0       	rjmp	.+18     	; 0x2d44
    2d32:	88 0f       	add	r24, r24
    2d34:	99 1f       	adc	r25, r25
    2d36:	80 17       	cp	r24, r16
    2d38:	91 07       	cpc	r25, r17
    2d3a:	18 f0       	brcs	.+6      	; 0x2d42
    2d3c:	82 e0       	ldi	r24, 0x02	; 2
    2d3e:	8f 8b       	std	Y+23, r24	; 0x17
    2d40:	01 c0       	rjmp	.+2      	; 0x2d44
    2d42:	2f 8b       	std	Y+23, r18	; 0x17
    2d44:	81 e0       	ldi	r24, 0x01	; 1
    2d46:	90 e0       	ldi	r25, 0x00	; 0
    2d48:	df 91       	pop	r29
    2d4a:	cf 91       	pop	r28
    2d4c:	1f 91       	pop	r17
    2d4e:	0f 91       	pop	r16
    2d50:	08 95       	ret

00002d52 <SkipJackM$BlockCipher$decrypt>:
    2d52:	af 92       	push	r10
    2d54:	bf 92       	push	r11
    2d56:	df 92       	push	r13
    2d58:	ef 92       	push	r14
    2d5a:	ff 92       	push	r15
    2d5c:	0f 93       	push	r16
    2d5e:	1f 93       	push	r17
    2d60:	cf 93       	push	r28
    2d62:	df 93       	push	r29
    2d64:	dc 01       	movw	r26, r24
    2d66:	fb 01       	movw	r30, r22
    2d68:	ea 01       	movw	r28, r20
    2d6a:	80 e2       	ldi	r24, 0x20	; 32
    2d6c:	d8 2e       	mov	r13, r24
    2d6e:	a4 58       	subi	r26, 0x84	; 132
    2d70:	bf 4f       	sbci	r27, 0xFF	; 255
    2d72:	80 81       	ld	r24, Z
    2d74:	99 27       	eor	r25, r25
    2d76:	58 2f       	mov	r21, r24
    2d78:	44 27       	eor	r20, r20
    2d7a:	81 81       	ldd	r24, Z+1	; 0x01
    2d7c:	99 27       	eor	r25, r25
    2d7e:	48 2b       	or	r20, r24
    2d80:	59 2b       	or	r21, r25
    2d82:	32 96       	adiw	r30, 0x02	; 2
    2d84:	80 81       	ld	r24, Z
    2d86:	99 27       	eor	r25, r25
    2d88:	38 2f       	mov	r19, r24
    2d8a:	22 27       	eor	r18, r18
    2d8c:	81 81       	ldd	r24, Z+1	; 0x01
    2d8e:	99 27       	eor	r25, r25
    2d90:	28 2b       	or	r18, r24
    2d92:	39 2b       	or	r19, r25
    2d94:	32 96       	adiw	r30, 0x02	; 2
    2d96:	80 81       	ld	r24, Z
    2d98:	99 27       	eor	r25, r25
    2d9a:	18 2f       	mov	r17, r24
    2d9c:	00 27       	eor	r16, r16
    2d9e:	81 81       	ldd	r24, Z+1	; 0x01
    2da0:	99 27       	eor	r25, r25
    2da2:	08 2b       	or	r16, r24
    2da4:	19 2b       	or	r17, r25
    2da6:	32 96       	adiw	r30, 0x02	; 2
    2da8:	80 81       	ld	r24, Z
    2daa:	99 27       	eor	r25, r25
    2dac:	78 2f       	mov	r23, r24
    2dae:	66 27       	eor	r22, r22
    2db0:	81 81       	ldd	r24, Z+1	; 0x01
    2db2:	99 27       	eor	r25, r25
    2db4:	68 2b       	or	r22, r24
    2db6:	79 2b       	or	r23, r25
    2db8:	e0 e2       	ldi	r30, 0x20	; 32
    2dba:	ae 2e       	mov	r10, r30
    2dbc:	b1 2c       	mov	r11, r1
    2dbe:	7a 01       	movw	r14, r20
    2dc0:	83 2f       	mov	r24, r19
    2dc2:	99 27       	eor	r25, r25
    2dc4:	98 2f       	mov	r25, r24
    2dc6:	13 96       	adiw	r26, 0x03	; 3
    2dc8:	8c 91       	ld	r24, X
    2dca:	13 97       	sbiw	r26, 0x03	; 3
    2dcc:	89 27       	eor	r24, r25
    2dce:	e8 2f       	mov	r30, r24
    2dd0:	ff 27       	eor	r31, r31
    2dd2:	ea 5f       	subi	r30, 0xFA	; 250
    2dd4:	fe 4f       	sbci	r31, 0xFE	; 254
    2dd6:	80 81       	ld	r24, Z
    2dd8:	28 27       	eor	r18, r24
    2dda:	12 96       	adiw	r26, 0x02	; 2
    2ddc:	8c 91       	ld	r24, X
    2dde:	12 97       	sbiw	r26, 0x02	; 2
    2de0:	82 27       	eor	r24, r18
    2de2:	e8 2f       	mov	r30, r24
    2de4:	ff 27       	eor	r31, r31
    2de6:	ea 5f       	subi	r30, 0xFA	; 250
    2de8:	fe 4f       	sbci	r31, 0xFE	; 254
    2dea:	80 81       	ld	r24, Z
    2dec:	98 27       	eor	r25, r24
    2dee:	11 96       	adiw	r26, 0x01	; 1
    2df0:	8c 91       	ld	r24, X
    2df2:	11 97       	sbiw	r26, 0x01	; 1
    2df4:	89 27       	eor	r24, r25
    2df6:	e8 2f       	mov	r30, r24
    2df8:	ff 27       	eor	r31, r31
    2dfa:	ea 5f       	subi	r30, 0xFA	; 250
    2dfc:	fe 4f       	sbci	r31, 0xFE	; 254
    2dfe:	80 81       	ld	r24, Z
    2e00:	28 27       	eor	r18, r24
    2e02:	8c 91       	ld	r24, X
    2e04:	82 27       	eor	r24, r18
    2e06:	e8 2f       	mov	r30, r24
    2e08:	ff 27       	eor	r31, r31
    2e0a:	ea 5f       	subi	r30, 0xFA	; 250
    2e0c:	fe 4f       	sbci	r31, 0xFE	; 254
    2e0e:	80 81       	ld	r24, Z
    2e10:	98 27       	eor	r25, r24
    2e12:	89 2f       	mov	r24, r25
    2e14:	99 27       	eor	r25, r25
    2e16:	58 2f       	mov	r21, r24
    2e18:	44 27       	eor	r20, r20
    2e1a:	82 2f       	mov	r24, r18
    2e1c:	99 27       	eor	r25, r25
    2e1e:	48 2b       	or	r20, r24
    2e20:	59 2b       	or	r21, r25
    2e22:	9a 01       	movw	r18, r20
    2e24:	20 27       	eor	r18, r16
    2e26:	31 27       	eor	r19, r17
    2e28:	2a 25       	eor	r18, r10
    2e2a:	3b 25       	eor	r19, r11
    2e2c:	8b 01       	movw	r16, r22
    2e2e:	b7 01       	movw	r22, r14
    2e30:	da 94       	dec	r13
    2e32:	08 94       	sec
    2e34:	a1 08       	sbc	r10, r1
    2e36:	b1 08       	sbc	r11, r1
    2e38:	14 97       	sbiw	r26, 0x04	; 4
    2e3a:	f8 e1       	ldi	r31, 0x18	; 24
    2e3c:	fd 15       	cp	r31, r13
    2e3e:	08 f4       	brcc	.+2      	; 0x2e42
    2e40:	be cf       	rjmp	.-132    	; 0x2dbe
    2e42:	df 2e       	mov	r13, r31
    2e44:	7b 01       	movw	r14, r22
    2e46:	ba 01       	movw	r22, r20
    2e48:	62 27       	eor	r22, r18
    2e4a:	73 27       	eor	r23, r19
    2e4c:	8d 2d       	mov	r24, r13
    2e4e:	99 27       	eor	r25, r25
    2e50:	68 27       	eor	r22, r24
    2e52:	79 27       	eor	r23, r25
    2e54:	83 2f       	mov	r24, r19
    2e56:	99 27       	eor	r25, r25
    2e58:	98 2f       	mov	r25, r24
    2e5a:	13 96       	adiw	r26, 0x03	; 3
    2e5c:	8c 91       	ld	r24, X
    2e5e:	13 97       	sbiw	r26, 0x03	; 3
    2e60:	89 27       	eor	r24, r25
    2e62:	e8 2f       	mov	r30, r24
    2e64:	ff 27       	eor	r31, r31
    2e66:	ea 5f       	subi	r30, 0xFA	; 250
    2e68:	fe 4f       	sbci	r31, 0xFE	; 254
    2e6a:	80 81       	ld	r24, Z
    2e6c:	28 27       	eor	r18, r24
    2e6e:	12 96       	adiw	r26, 0x02	; 2
    2e70:	8c 91       	ld	r24, X
    2e72:	12 97       	sbiw	r26, 0x02	; 2
    2e74:	82 27       	eor	r24, r18
    2e76:	e8 2f       	mov	r30, r24
    2e78:	ff 27       	eor	r31, r31
    2e7a:	ea 5f       	subi	r30, 0xFA	; 250
    2e7c:	fe 4f       	sbci	r31, 0xFE	; 254
    2e7e:	80 81       	ld	r24, Z
    2e80:	98 27       	eor	r25, r24
    2e82:	11 96       	adiw	r26, 0x01	; 1
    2e84:	8c 91       	ld	r24, X
    2e86:	11 97       	sbiw	r26, 0x01	; 1
    2e88:	89 27       	eor	r24, r25
    2e8a:	e8 2f       	mov	r30, r24
    2e8c:	ff 27       	eor	r31, r31
    2e8e:	ea 5f       	subi	r30, 0xFA	; 250
    2e90:	fe 4f       	sbci	r31, 0xFE	; 254
    2e92:	80 81       	ld	r24, Z
    2e94:	28 27       	eor	r18, r24
    2e96:	8c 91       	ld	r24, X
    2e98:	82 27       	eor	r24, r18
    2e9a:	e8 2f       	mov	r30, r24
    2e9c:	ff 27       	eor	r31, r31
    2e9e:	ea 5f       	subi	r30, 0xFA	; 250
    2ea0:	fe 4f       	sbci	r31, 0xFE	; 254
    2ea2:	80 81       	ld	r24, Z
    2ea4:	98 27       	eor	r25, r24
    2ea6:	89 2f       	mov	r24, r25
    2ea8:	99 27       	eor	r25, r25
    2eaa:	58 2f       	mov	r21, r24
    2eac:	44 27       	eor	r20, r20
    2eae:	82 2f       	mov	r24, r18
    2eb0:	99 27       	eor	r25, r25
    2eb2:	48 2b       	or	r20, r24
    2eb4:	59 2b       	or	r21, r25
    2eb6:	98 01       	movw	r18, r16
    2eb8:	87 01       	movw	r16, r14
    2eba:	da 94       	dec	r13
    2ebc:	14 97       	sbiw	r26, 0x04	; 4
    2ebe:	f0 e1       	ldi	r31, 0x10	; 16
    2ec0:	fd 15       	cp	r31, r13
    2ec2:	08 f4       	brcc	.+2      	; 0x2ec6
    2ec4:	bf cf       	rjmp	.-130    	; 0x2e44
    2ec6:	88 e0       	ldi	r24, 0x08	; 8
    2ec8:	8d 15       	cp	r24, r13
    2eca:	08 f0       	brcs	.+2      	; 0x2ece
    2ecc:	41 c0       	rjmp	.+130    	; 0x2f50
    2ece:	7a 01       	movw	r14, r20
    2ed0:	83 2f       	mov	r24, r19
    2ed2:	99 27       	eor	r25, r25
    2ed4:	98 2f       	mov	r25, r24
    2ed6:	13 96       	adiw	r26, 0x03	; 3
    2ed8:	8c 91       	ld	r24, X
    2eda:	13 97       	sbiw	r26, 0x03	; 3
    2edc:	89 27       	eor	r24, r25
    2ede:	e8 2f       	mov	r30, r24
    2ee0:	ff 27       	eor	r31, r31
    2ee2:	ea 5f       	subi	r30, 0xFA	; 250
    2ee4:	fe 4f       	sbci	r31, 0xFE	; 254
    2ee6:	80 81       	ld	r24, Z
    2ee8:	28 27       	eor	r18, r24
    2eea:	12 96       	adiw	r26, 0x02	; 2
    2eec:	8c 91       	ld	r24, X
    2eee:	12 97       	sbiw	r26, 0x02	; 2
    2ef0:	82 27       	eor	r24, r18
    2ef2:	e8 2f       	mov	r30, r24
    2ef4:	ff 27       	eor	r31, r31
    2ef6:	ea 5f       	subi	r30, 0xFA	; 250
    2ef8:	fe 4f       	sbci	r31, 0xFE	; 254
    2efa:	80 81       	ld	r24, Z
    2efc:	98 27       	eor	r25, r24
    2efe:	11 96       	adiw	r26, 0x01	; 1
    2f00:	8c 91       	ld	r24, X
    2f02:	11 97       	sbiw	r26, 0x01	; 1
    2f04:	89 27       	eor	r24, r25
    2f06:	e8 2f       	mov	r30, r24
    2f08:	ff 27       	eor	r31, r31
    2f0a:	ea 5f       	subi	r30, 0xFA	; 250
    2f0c:	fe 4f       	sbci	r31, 0xFE	; 254
    2f0e:	80 81       	ld	r24, Z
    2f10:	28 27       	eor	r18, r24
    2f12:	8c 91       	ld	r24, X
    2f14:	82 27       	eor	r24, r18
    2f16:	e8 2f       	mov	r30, r24
    2f18:	ff 27       	eor	r31, r31
    2f1a:	ea 5f       	subi	r30, 0xFA	; 250
    2f1c:	fe 4f       	sbci	r31, 0xFE	; 254
    2f1e:	80 81       	ld	r24, Z
    2f20:	98 27       	eor	r25, r24
    2f22:	89 2f       	mov	r24, r25
    2f24:	99 27       	eor	r25, r25
    2f26:	58 2f       	mov	r21, r24
    2f28:	44 27       	eor	r20, r20
    2f2a:	82 2f       	mov	r24, r18
    2f2c:	99 27       	eor	r25, r25
    2f2e:	48 2b       	or	r20, r24
    2f30:	59 2b       	or	r21, r25
    2f32:	9a 01       	movw	r18, r20
    2f34:	20 27       	eor	r18, r16
    2f36:	31 27       	eor	r19, r17
    2f38:	8d 2d       	mov	r24, r13
    2f3a:	99 27       	eor	r25, r25
    2f3c:	28 27       	eor	r18, r24
    2f3e:	39 27       	eor	r19, r25
    2f40:	8b 01       	movw	r16, r22
    2f42:	b7 01       	movw	r22, r14
    2f44:	da 94       	dec	r13
    2f46:	14 97       	sbiw	r26, 0x04	; 4
    2f48:	f8 e0       	ldi	r31, 0x08	; 8
    2f4a:	fd 15       	cp	r31, r13
    2f4c:	08 f4       	brcc	.+2      	; 0x2f50
    2f4e:	bf cf       	rjmp	.-130    	; 0x2ece
    2f50:	dd 20       	and	r13, r13
    2f52:	09 f4       	brne	.+2      	; 0x2f56
    2f54:	3f c0       	rjmp	.+126    	; 0x2fd4
    2f56:	7b 01       	movw	r14, r22
    2f58:	ba 01       	movw	r22, r20
    2f5a:	62 27       	eor	r22, r18
    2f5c:	73 27       	eor	r23, r19
    2f5e:	8d 2d       	mov	r24, r13
    2f60:	99 27       	eor	r25, r25
    2f62:	68 27       	eor	r22, r24
    2f64:	79 27       	eor	r23, r25
    2f66:	83 2f       	mov	r24, r19
    2f68:	99 27       	eor	r25, r25
    2f6a:	98 2f       	mov	r25, r24
    2f6c:	13 96       	adiw	r26, 0x03	; 3
    2f6e:	8c 91       	ld	r24, X
    2f70:	13 97       	sbiw	r26, 0x03	; 3
    2f72:	89 27       	eor	r24, r25
    2f74:	e8 2f       	mov	r30, r24
    2f76:	ff 27       	eor	r31, r31
    2f78:	ea 5f       	subi	r30, 0xFA	; 250
    2f7a:	fe 4f       	sbci	r31, 0xFE	; 254
    2f7c:	80 81       	ld	r24, Z
    2f7e:	28 27       	eor	r18, r24
    2f80:	12 96       	adiw	r26, 0x02	; 2
    2f82:	8c 91       	ld	r24, X
    2f84:	12 97       	sbiw	r26, 0x02	; 2
    2f86:	82 27       	eor	r24, r18
    2f88:	e8 2f       	mov	r30, r24
    2f8a:	ff 27       	eor	r31, r31
    2f8c:	ea 5f       	subi	r30, 0xFA	; 250
    2f8e:	fe 4f       	sbci	r31, 0xFE	; 254
    2f90:	80 81       	ld	r24, Z
    2f92:	98 27       	eor	r25, r24
    2f94:	11 96       	adiw	r26, 0x01	; 1
    2f96:	8c 91       	ld	r24, X
    2f98:	11 97       	sbiw	r26, 0x01	; 1
    2f9a:	89 27       	eor	r24, r25
    2f9c:	e8 2f       	mov	r30, r24
    2f9e:	ff 27       	eor	r31, r31
    2fa0:	ea 5f       	subi	r30, 0xFA	; 250
    2fa2:	fe 4f       	sbci	r31, 0xFE	; 254
    2fa4:	80 81       	ld	r24, Z
    2fa6:	28 27       	eor	r18, r24
    2fa8:	8c 91       	ld	r24, X
    2faa:	82 27       	eor	r24, r18
    2fac:	e8 2f       	mov	r30, r24
    2fae:	ff 27       	eor	r31, r31
    2fb0:	ea 5f       	subi	r30, 0xFA	; 250
    2fb2:	fe 4f       	sbci	r31, 0xFE	; 254
    2fb4:	80 81       	ld	r24, Z
    2fb6:	98 27       	eor	r25, r24
    2fb8:	89 2f       	mov	r24, r25
    2fba:	99 27       	eor	r25, r25
    2fbc:	58 2f       	mov	r21, r24
    2fbe:	44 27       	eor	r20, r20
    2fc0:	82 2f       	mov	r24, r18
    2fc2:	99 27       	eor	r25, r25
    2fc4:	48 2b       	or	r20, r24
    2fc6:	59 2b       	or	r21, r25
    2fc8:	98 01       	movw	r18, r16
    2fca:	87 01       	movw	r16, r14
    2fcc:	da 94       	dec	r13
    2fce:	14 97       	sbiw	r26, 0x04	; 4
    2fd0:	dd 20       	and	r13, r13
    2fd2:	09 f6       	brne	.-126    	; 0x2f56
    2fd4:	85 2f       	mov	r24, r21
    2fd6:	99 27       	eor	r25, r25
    2fd8:	88 83       	st	Y, r24
    2fda:	49 83       	std	Y+1, r20	; 0x01
    2fdc:	22 96       	adiw	r28, 0x02	; 2
    2fde:	83 2f       	mov	r24, r19
    2fe0:	99 27       	eor	r25, r25
    2fe2:	88 83       	st	Y, r24
    2fe4:	29 83       	std	Y+1, r18	; 0x01
    2fe6:	22 96       	adiw	r28, 0x02	; 2
    2fe8:	81 2f       	mov	r24, r17
    2fea:	99 27       	eor	r25, r25
    2fec:	88 83       	st	Y, r24
    2fee:	09 83       	std	Y+1, r16	; 0x01
    2ff0:	22 96       	adiw	r28, 0x02	; 2
    2ff2:	87 2f       	mov	r24, r23
    2ff4:	99 27       	eor	r25, r25
    2ff6:	88 83       	st	Y, r24
    2ff8:	69 83       	std	Y+1, r22	; 0x01
    2ffa:	81 e0       	ldi	r24, 0x01	; 1
    2ffc:	90 e0       	ldi	r25, 0x00	; 0
    2ffe:	df 91       	pop	r29
    3000:	cf 91       	pop	r28
    3002:	1f 91       	pop	r17
    3004:	0f 91       	pop	r16
    3006:	ff 90       	pop	r15
    3008:	ef 90       	pop	r14
    300a:	df 90       	pop	r13
    300c:	bf 90       	pop	r11
    300e:	af 90       	pop	r10
    3010:	08 95       	ret

00003012 <CC1000RadioIntTinySecM$TinySec$receiveDone>:
    3012:	85 e2       	ldi	r24, 0x25	; 37
    3014:	98 e1       	ldi	r25, 0x18	; 24
    3016:	0e 94 b2 02 	call	0x564
    301a:	98 2f       	mov	r25, r24
    301c:	88 23       	and	r24, r24
    301e:	91 f4       	brne	.+36     	; 0x3044
    3020:	8f b7       	in	r24, 0x3f	; 63
    3022:	f8 94       	cli
    3024:	28 2f       	mov	r18, r24
    3026:	33 27       	eor	r19, r19
    3028:	82 e0       	ldi	r24, 0x02	; 2
    302a:	80 93 75 03 	sts	0x0375, r24
    302e:	e0 91 36 03 	lds	r30, 0x0336
    3032:	f0 91 37 03 	lds	r31, 0x0337
    3036:	93 83       	std	Z+3, r25	; 0x03
    3038:	2f bf       	out	0x3f, r18	; 63
    303a:	80 ec       	ldi	r24, 0xC0	; 192
    303c:	8d b9       	out	0x0d, r24	; 13
    303e:	b8 98       	cbi	0x17, 0	; 23
    3040:	0e 94 1e 07 	call	0xe3c
    3044:	81 e0       	ldi	r24, 0x01	; 1
    3046:	90 e0       	ldi	r25, 0x00	; 0
    3048:	08 95       	ret

0000304a <CC1000RadioIntTinySecM$PacketRcvd>:
    304a:	0f 93       	push	r16
    304c:	1f 93       	push	r17
    304e:	cf 93       	push	r28
    3050:	df 93       	push	r29
    3052:	8f b7       	in	r24, 0x3f	; 63
    3054:	f8 94       	cli
    3056:	08 2f       	mov	r16, r24
    3058:	11 27       	eor	r17, r17
    305a:	c0 91 36 03 	lds	r28, 0x0336
    305e:	d0 91 37 03 	lds	r29, 0x0337
    3062:	1f a2       	std	Y+39, r1	; 0x27
    3064:	18 a6       	std	Y+40, r1	; 0x28
    3066:	ce 01       	movw	r24, r28
    3068:	0e 94 79 0d 	call	0x1af2
    306c:	8c a1       	ldd	r24, Y+36	; 0x24
    306e:	9d a1       	ldd	r25, Y+37	; 0x25
    3070:	9c 01       	movw	r18, r24
    3072:	22 0f       	add	r18, r18
    3074:	33 1f       	adc	r19, r19
    3076:	22 0f       	add	r18, r18
    3078:	33 1f       	adc	r19, r19
    307a:	28 0f       	add	r18, r24
    307c:	39 1f       	adc	r19, r25
    307e:	40 91 e2 03 	lds	r20, 0x03E2
    3082:	50 91 e3 03 	lds	r21, 0x03E3
    3086:	ca 01       	movw	r24, r20
    3088:	88 0f       	add	r24, r24
    308a:	99 1f       	adc	r25, r25
    308c:	84 0f       	add	r24, r20
    308e:	95 1f       	adc	r25, r21
    3090:	28 0f       	add	r18, r24
    3092:	39 1f       	adc	r19, r25
    3094:	93 e0       	ldi	r25, 0x03	; 3
    3096:	36 95       	lsr	r19
    3098:	27 95       	ror	r18
    309a:	9a 95       	dec	r25
    309c:	e1 f7       	brne	.-8      	; 0x3096
    309e:	30 93 e3 03 	sts	0x03E3, r19
    30a2:	20 93 e2 03 	sts	0x03E2, r18
    30a6:	0f bf       	out	0x3f, r16	; 63
    30a8:	9c 81       	ldd	r25, Y+4	; 0x04
    30aa:	97 ff       	sbrs	r25, 7
    30ac:	06 c0       	rjmp	.+12     	; 0x30ba
    30ae:	96 ff       	sbrs	r25, 6
    30b0:	02 c0       	rjmp	.+4      	; 0x30b6
    30b2:	82 e0       	ldi	r24, 0x02	; 2
    30b4:	03 c0       	rjmp	.+6      	; 0x30bc
    30b6:	81 e0       	ldi	r24, 0x01	; 1
    30b8:	01 c0       	rjmp	.+2      	; 0x30bc
    30ba:	83 e0       	ldi	r24, 0x03	; 3
    30bc:	8a a7       	std	Y+42, r24	; 0x2a
    30be:	9f 73       	andi	r25, 0x3F	; 63
    30c0:	9c 83       	std	Y+4, r25	; 0x04
    30c2:	ce 01       	movw	r24, r28
    30c4:	0e 94 9d 07 	call	0xf3a
    30c8:	9c 01       	movw	r18, r24
    30ca:	8f b7       	in	r24, 0x3f	; 63
    30cc:	f8 94       	cli
    30ce:	99 27       	eor	r25, r25
    30d0:	21 15       	cp	r18, r1
    30d2:	31 05       	cpc	r19, r1
    30d4:	21 f0       	breq	.+8      	; 0x30de
    30d6:	30 93 37 03 	sts	0x0337, r19
    30da:	20 93 36 03 	sts	0x0336, r18
    30de:	e0 91 36 03 	lds	r30, 0x0336
    30e2:	f0 91 37 03 	lds	r31, 0x0337
    30e6:	13 82       	std	Z+3, r1	; 0x03
    30e8:	8f bf       	out	0x3f, r24	; 63
    30ea:	80 ec       	ldi	r24, 0xC0	; 192
    30ec:	8d b9       	out	0x0d, r24	; 13
    30ee:	b8 98       	cbi	0x17, 0	; 23
    30f0:	0e 94 1e 07 	call	0xe3c
    30f4:	df 91       	pop	r29
    30f6:	cf 91       	pop	r28
    30f8:	1f 91       	pop	r17
    30fa:	0f 91       	pop	r16
    30fc:	08 95       	ret

000030fe <HPLSpiM$SpiByteFifo$disableIntr>:
    30fe:	6f 98       	cbi	0x0d, 7	; 13
    3100:	b8 9a       	sbi	0x17, 0	; 23
    3102:	c0 98       	cbi	0x18, 0	; 24
    3104:	0e 94 1e 07 	call	0xe3c
    3108:	81 e0       	ldi	r24, 0x01	; 1
    310a:	90 e0       	ldi	r25, 0x00	; 0
    310c:	08 95       	ret

0000310e <__vector_15>:
    310e:	78 94       	sei
    3110:	1f 92       	push	r1
    3112:	0f 92       	push	r0
    3114:	0f b6       	in	r0, 0x3f	; 63
    3116:	0f 92       	push	r0
    3118:	11 24       	eor	r1, r1
    311a:	2f 93       	push	r18
    311c:	3f 93       	push	r19
    311e:	4f 93       	push	r20
    3120:	5f 93       	push	r21
    3122:	6f 93       	push	r22
    3124:	7f 93       	push	r23
    3126:	8f 93       	push	r24
    3128:	9f 93       	push	r25
    312a:	af 93       	push	r26
    312c:	bf 93       	push	r27
    312e:	ef 93       	push	r30
    3130:	ff 93       	push	r31
    3132:	8f b7       	in	r24, 0x3f	; 63
    3134:	f8 94       	cli
    3136:	28 2f       	mov	r18, r24
    3138:	33 27       	eor	r19, r19
    313a:	80 91 7c 03 	lds	r24, 0x037C
    313e:	88 23       	and	r24, r24
    3140:	69 f0       	breq	.+26     	; 0x315c
    3142:	80 91 ea 03 	lds	r24, 0x03EA
    3146:	80 93 4a 04 	sts	0x044A, r24
    314a:	88 60       	ori	r24, 0x08	; 8
    314c:	80 93 ea 03 	sts	0x03EA, r24
    3150:	83 bf       	out	0x33, r24	; 51
    3152:	80 91 8d 03 	lds	r24, 0x038D
    3156:	81 bf       	out	0x31, r24	; 49
    3158:	10 92 7c 03 	sts	0x037C, r1
    315c:	2f bf       	out	0x3f, r18	; 63
    315e:	83 e3       	ldi	r24, 0x33	; 51
    3160:	9c e1       	ldi	r25, 0x1C	; 28
    3162:	0e 94 b2 02 	call	0x564
    3166:	ff 91       	pop	r31
    3168:	ef 91       	pop	r30
    316a:	bf 91       	pop	r27
    316c:	af 91       	pop	r26
    316e:	9f 91       	pop	r25
    3170:	8f 91       	pop	r24
    3172:	7f 91       	pop	r23
    3174:	6f 91       	pop	r22
    3176:	5f 91       	pop	r21
    3178:	4f 91       	pop	r20
    317a:	3f 91       	pop	r19
    317c:	2f 91       	pop	r18
    317e:	0f 90       	pop	r0
    3180:	0f be       	out	0x3f, r0	; 63
    3182:	0f 90       	pop	r0
    3184:	1f 90       	pop	r1
    3186:	18 95       	reti

00003188 <FramerM$StartTx>:
    3188:	cf 93       	push	r28
    318a:	c1 e0       	ldi	r28, 0x01	; 1
    318c:	20 e0       	ldi	r18, 0x00	; 0
    318e:	8f b7       	in	r24, 0x3f	; 63
    3190:	f8 94       	cli
    3192:	38 2f       	mov	r19, r24
    3194:	80 91 92 04 	lds	r24, 0x0492
    3198:	88 23       	and	r24, r24
    319a:	91 f5       	brne	.+100    	; 0x3200
    319c:	80 91 5b 05 	lds	r24, 0x055B
    31a0:	99 27       	eor	r25, r25
    31a2:	81 ff       	sbrs	r24, 1
    31a4:	08 c0       	rjmp	.+16     	; 0x31b6
    31a6:	89 ef       	ldi	r24, 0xF9	; 249
    31a8:	93 e0       	ldi	r25, 0x03	; 3
    31aa:	90 93 b5 03 	sts	0x03B5, r25
    31ae:	80 93 b4 03 	sts	0x03B4, r24
    31b2:	80 e4       	ldi	r24, 0x40	; 64
    31b4:	1a c0       	rjmp	.+52     	; 0x31ea
    31b6:	82 ff       	sbrs	r24, 2
    31b8:	0f c0       	rjmp	.+30     	; 0x31d8
    31ba:	e0 91 7c 02 	lds	r30, 0x027C
    31be:	f0 91 7d 02 	lds	r31, 0x027D
    31c2:	f0 93 b5 03 	sts	0x03B5, r31
    31c6:	e0 93 b4 03 	sts	0x03B4, r30
    31ca:	82 e4       	ldi	r24, 0x42	; 66
    31cc:	80 93 7f 02 	sts	0x027F, r24
    31d0:	84 81       	ldd	r24, Z+4	; 0x04
    31d2:	99 27       	eor	r25, r25
    31d4:	05 96       	adiw	r24, 0x05	; 5
    31d6:	0d c0       	rjmp	.+26     	; 0x31f2
    31d8:	83 ff       	sbrs	r24, 3
    31da:	12 c0       	rjmp	.+36     	; 0x3200
    31dc:	87 e6       	ldi	r24, 0x67	; 103
    31de:	93 e0       	ldi	r25, 0x03	; 3
    31e0:	90 93 b5 03 	sts	0x03B5, r25
    31e4:	80 93 b4 03 	sts	0x03B4, r24
    31e8:	8f ef       	ldi	r24, 0xFF	; 255
    31ea:	80 93 7f 02 	sts	0x027F, r24
    31ee:	81 e0       	ldi	r24, 0x01	; 1
    31f0:	90 e0       	ldi	r25, 0x00	; 0
    31f2:	90 93 6b 03 	sts	0x036B, r25
    31f6:	80 93 6a 03 	sts	0x036A, r24
    31fa:	2c 2f       	mov	r18, r28
    31fc:	c0 93 92 04 	sts	0x0492, r28
    3200:	3f bf       	out	0x3f, r19	; 63
    3202:	22 23       	and	r18, r18
    3204:	f1 f0       	breq	.+60     	; 0x3242
    3206:	8f b7       	in	r24, 0x3f	; 63
    3208:	f8 94       	cli
    320a:	99 27       	eor	r25, r25
    320c:	10 92 25 02 	sts	0x0225, r1
    3210:	10 92 24 02 	sts	0x0224, r1
    3214:	10 92 e5 03 	sts	0x03E5, r1
    3218:	10 92 e4 03 	sts	0x03E4, r1
    321c:	8f bf       	out	0x3f, r24	; 63
    321e:	8e e7       	ldi	r24, 0x7E	; 126
    3220:	0e 94 25 19 	call	0x324a
    3224:	c8 2f       	mov	r28, r24
    3226:	81 30       	cpi	r24, 0x01	; 1
    3228:	61 f0       	breq	.+24     	; 0x3242
    322a:	8f b7       	in	r24, 0x3f	; 63
    322c:	f8 94       	cli
    322e:	28 2f       	mov	r18, r24
    3230:	33 27       	eor	r19, r19
    3232:	88 e0       	ldi	r24, 0x08	; 8
    3234:	80 93 92 04 	sts	0x0492, r24
    3238:	2f bf       	out	0x3f, r18	; 63
    323a:	8a e3       	ldi	r24, 0x3A	; 58
    323c:	99 e1       	ldi	r25, 0x19	; 25
    323e:	0e 94 b2 02 	call	0x564
    3242:	8c 2f       	mov	r24, r28
    3244:	99 27       	eor	r25, r25
    3246:	cf 91       	pop	r28
    3248:	08 95       	ret

0000324a <UARTM$ByteComm$txByte>:
    324a:	48 2f       	mov	r20, r24
    324c:	8f b7       	in	r24, 0x3f	; 63
    324e:	f8 94       	cli
    3250:	28 2f       	mov	r18, r24
    3252:	33 27       	eor	r19, r19
    3254:	90 91 f6 03 	lds	r25, 0x03F6
    3258:	81 e0       	ldi	r24, 0x01	; 1
    325a:	80 93 f6 03 	sts	0x03F6, r24
    325e:	2f bf       	out	0x3f, r18	; 63
    3260:	99 23       	and	r25, r25
    3262:	19 f0       	breq	.+6      	; 0x326a
    3264:	80 e0       	ldi	r24, 0x00	; 0
    3266:	90 e0       	ldi	r25, 0x00	; 0
    3268:	08 95       	ret
    326a:	4c b9       	out	0x0c, r20	; 12
    326c:	5e 9a       	sbi	0x0b, 6	; 11
    326e:	81 e0       	ldi	r24, 0x01	; 1
    3270:	90 e0       	ldi	r25, 0x00	; 0
    3272:	08 95       	ret

00003274 <FramerM$PacketSent>:
    3274:	61 e0       	ldi	r22, 0x01	; 1
    3276:	8f b7       	in	r24, 0x3f	; 63
    3278:	f8 94       	cli
    327a:	28 2f       	mov	r18, r24
    327c:	33 27       	eor	r19, r19
    327e:	80 91 92 04 	lds	r24, 0x0492
    3282:	88 30       	cpi	r24, 0x08	; 8
    3284:	19 f4       	brne	.+6      	; 0x328c
    3286:	60 e0       	ldi	r22, 0x00	; 0
    3288:	60 93 92 04 	sts	0x0492, r22
    328c:	2f bf       	out	0x3f, r18	; 63
    328e:	80 91 7f 02 	lds	r24, 0x027F
    3292:	90 91 5b 05 	lds	r25, 0x055B
    3296:	80 34       	cpi	r24, 0x40	; 64
    3298:	51 f4       	brne	.+20     	; 0x32ae
    329a:	8f b7       	in	r24, 0x3f	; 63
    329c:	f8 94       	cli
    329e:	28 2f       	mov	r18, r24
    32a0:	33 27       	eor	r19, r19
    32a2:	82 e0       	ldi	r24, 0x02	; 2
    32a4:	98 27       	eor	r25, r24
    32a6:	90 93 5b 05 	sts	0x055B, r25
    32aa:	2f bf       	out	0x3f, r18	; 63
    32ac:	17 c0       	rjmp	.+46     	; 0x32dc
    32ae:	8f b7       	in	r24, 0x3f	; 63
    32b0:	f8 94       	cli
    32b2:	28 2f       	mov	r18, r24
    32b4:	33 27       	eor	r19, r19
    32b6:	84 e0       	ldi	r24, 0x04	; 4
    32b8:	98 27       	eor	r25, r24
    32ba:	90 93 5b 05 	sts	0x055B, r25
    32be:	2f bf       	out	0x3f, r18	; 63
    32c0:	80 91 7c 02 	lds	r24, 0x027C
    32c4:	90 91 7d 02 	lds	r25, 0x027D
    32c8:	0e 94 7f 0d 	call	0x1afe
    32cc:	8f b7       	in	r24, 0x3f	; 63
    32ce:	f8 94       	cli
    32d0:	99 27       	eor	r25, r25
    32d2:	10 92 7d 02 	sts	0x027D, r1
    32d6:	10 92 7c 02 	sts	0x027C, r1
    32da:	8f bf       	out	0x3f, r24	; 63
    32dc:	0e 94 c4 18 	call	0x3188
    32e0:	08 95       	ret

000032e2 <FramerM$ByteComm$rxByteReady>:
    32e2:	38 2f       	mov	r19, r24
    32e4:	80 91 91 04 	lds	r24, 0x0491
    32e8:	99 27       	eor	r25, r25
    32ea:	82 30       	cpi	r24, 0x02	; 2
    32ec:	91 05       	cpc	r25, r1
    32ee:	09 f4       	brne	.+2      	; 0x32f2
    32f0:	6b c0       	rjmp	.+214    	; 0x33c8
    32f2:	83 30       	cpi	r24, 0x03	; 3
    32f4:	91 05       	cpc	r25, r1
    32f6:	2c f4       	brge	.+10     	; 0x3302
    32f8:	00 97       	sbiw	r24, 0x00	; 0
    32fa:	59 f0       	breq	.+22     	; 0x3312
    32fc:	01 97       	sbiw	r24, 0x01	; 1
    32fe:	81 f1       	breq	.+96     	; 0x3360
    3300:	b7 c1       	rjmp	.+878    	; 0x3670
    3302:	83 30       	cpi	r24, 0x03	; 3
    3304:	91 05       	cpc	r25, r1
    3306:	09 f4       	brne	.+2      	; 0x330a
    3308:	9c c0       	rjmp	.+312    	; 0x3442
    330a:	04 97       	sbiw	r24, 0x04	; 4
    330c:	09 f4       	brne	.+2      	; 0x3310
    330e:	59 c1       	rjmp	.+690    	; 0x35c2
    3310:	af c1       	rjmp	.+862    	; 0x3670
    3312:	3e 37       	cpi	r19, 0x7E	; 126
    3314:	09 f0       	breq	.+2      	; 0x3318
    3316:	ae c1       	rjmp	.+860    	; 0x3674
    3318:	80 91 f7 03 	lds	r24, 0x03F7
    331c:	99 27       	eor	r25, r25
    331e:	fc 01       	movw	r30, r24
    3320:	ee 0f       	add	r30, r30
    3322:	ff 1f       	adc	r31, r31
    3324:	ee 0f       	add	r30, r30
    3326:	ff 1f       	adc	r31, r31
    3328:	e8 0f       	add	r30, r24
    332a:	f9 1f       	adc	r31, r25
    332c:	e8 0f       	add	r30, r24
    332e:	f9 1f       	adc	r31, r25
    3330:	ec 5f       	subi	r30, 0xFC	; 252
    3332:	fb 4f       	sbci	r31, 0xFB	; 251
    3334:	82 81       	ldd	r24, Z+2	; 0x02
    3336:	93 81       	ldd	r25, Z+3	; 0x03
    3338:	00 97       	sbiw	r24, 0x00	; 0
    333a:	09 f0       	breq	.+2      	; 0x333e
    333c:	9b c1       	rjmp	.+822    	; 0x3674
    333e:	11 82       	std	Z+1, r1	; 0x01
    3340:	90 93 8f 03 	sts	0x038F, r25
    3344:	80 93 8e 03 	sts	0x038E, r24
    3348:	90 93 74 03 	sts	0x0374, r25
    334c:	80 93 73 03 	sts	0x0373, r24
    3350:	84 81       	ldd	r24, Z+4	; 0x04
    3352:	95 81       	ldd	r25, Z+5	; 0x05
    3354:	90 93 4c 04 	sts	0x044C, r25
    3358:	80 93 4b 04 	sts	0x044B, r24
    335c:	81 e0       	ldi	r24, 0x01	; 1
    335e:	85 c1       	rjmp	.+778    	; 0x366a
    3360:	3e 37       	cpi	r19, 0x7E	; 126
    3362:	09 f4       	brne	.+2      	; 0x3366
    3364:	87 c1       	rjmp	.+782    	; 0x3674
    3366:	80 91 f7 03 	lds	r24, 0x03F7
    336a:	99 27       	eor	r25, r25
    336c:	fc 01       	movw	r30, r24
    336e:	ee 0f       	add	r30, r30
    3370:	ff 1f       	adc	r31, r31
    3372:	ee 0f       	add	r30, r30
    3374:	ff 1f       	adc	r31, r31
    3376:	e8 0f       	add	r30, r24
    3378:	f9 1f       	adc	r31, r25
    337a:	e8 0f       	add	r30, r24
    337c:	f9 1f       	adc	r31, r25
    337e:	ec 5f       	subi	r30, 0xFC	; 252
    3380:	fb 4f       	sbci	r31, 0xFB	; 251
    3382:	30 83       	st	Z, r19
    3384:	80 91 8e 03 	lds	r24, 0x038E
    3388:	90 91 8f 03 	lds	r25, 0x038F
    338c:	e7 e7       	ldi	r30, 0x77	; 119
    338e:	f1 e0       	ldi	r31, 0x01	; 1
    3390:	23 2f       	mov	r18, r19
    3392:	29 27       	eor	r18, r25
    3394:	22 0f       	add	r18, r18
    3396:	f1 1d       	adc	r31, r1
    3398:	e2 0f       	add	r30, r18
    339a:	f1 1d       	adc	r31, r1
    339c:	c8 95       	lpm
    339e:	98 2f       	mov	r25, r24
    33a0:	80 2d       	mov	r24, r0
    33a2:	31 96       	adiw	r30, 0x01	; 1
    33a4:	c8 95       	lpm
    33a6:	90 25       	eor	r25, r0
    33a8:	90 93 8f 03 	sts	0x038F, r25
    33ac:	80 93 8e 03 	sts	0x038E, r24
    33b0:	83 2f       	mov	r24, r19
    33b2:	99 27       	eor	r25, r25
    33b4:	81 34       	cpi	r24, 0x41	; 65
    33b6:	91 05       	cpc	r25, r1
    33b8:	29 f0       	breq	.+10     	; 0x33c4
    33ba:	82 34       	cpi	r24, 0x42	; 66
    33bc:	91 05       	cpc	r25, r1
    33be:	09 f4       	brne	.+2      	; 0x33c2
    33c0:	53 c1       	rjmp	.+678    	; 0x3668
    33c2:	56 c1       	rjmp	.+684    	; 0x3670
    33c4:	82 e0       	ldi	r24, 0x02	; 2
    33c6:	51 c1       	rjmp	.+674    	; 0x366a
    33c8:	3e 37       	cpi	r19, 0x7E	; 126
    33ca:	09 f4       	brne	.+2      	; 0x33ce
    33cc:	51 c1       	rjmp	.+674    	; 0x3670
    33ce:	60 91 f7 03 	lds	r22, 0x03F7
    33d2:	3d 37       	cpi	r19, 0x7D	; 125
    33d4:	81 f4       	brne	.+32     	; 0x33f6
    33d6:	86 2f       	mov	r24, r22
    33d8:	99 27       	eor	r25, r25
    33da:	fc 01       	movw	r30, r24
    33dc:	ee 0f       	add	r30, r30
    33de:	ff 1f       	adc	r31, r31
    33e0:	ee 0f       	add	r30, r30
    33e2:	ff 1f       	adc	r31, r31
    33e4:	e8 0f       	add	r30, r24
    33e6:	f9 1f       	adc	r31, r25
    33e8:	e8 0f       	add	r30, r24
    33ea:	f9 1f       	adc	r31, r25
    33ec:	ec 5f       	subi	r30, 0xFC	; 252
    33ee:	fb 4f       	sbci	r31, 0xFB	; 251
    33f0:	80 e2       	ldi	r24, 0x20	; 32
    33f2:	81 83       	std	Z+1, r24	; 0x01
    33f4:	3f c1       	rjmp	.+638    	; 0x3674
    33f6:	86 2f       	mov	r24, r22
    33f8:	99 27       	eor	r25, r25
    33fa:	fc 01       	movw	r30, r24
    33fc:	ee 0f       	add	r30, r30
    33fe:	ff 1f       	adc	r31, r31
    3400:	ee 0f       	add	r30, r30
    3402:	ff 1f       	adc	r31, r31
    3404:	e8 0f       	add	r30, r24
    3406:	f9 1f       	adc	r31, r25
    3408:	e8 0f       	add	r30, r24
    340a:	f9 1f       	adc	r31, r25
    340c:	ec 5f       	subi	r30, 0xFC	; 252
    340e:	fb 4f       	sbci	r31, 0xFB	; 251
    3410:	21 81       	ldd	r18, Z+1	; 0x01
    3412:	23 27       	eor	r18, r19
    3414:	21 83       	std	Z+1, r18	; 0x01
    3416:	80 91 8e 03 	lds	r24, 0x038E
    341a:	90 91 8f 03 	lds	r25, 0x038F
    341e:	e7 e7       	ldi	r30, 0x77	; 119
    3420:	f1 e0       	ldi	r31, 0x01	; 1
    3422:	29 27       	eor	r18, r25
    3424:	22 0f       	add	r18, r18
    3426:	f1 1d       	adc	r31, r1
    3428:	e2 0f       	add	r30, r18
    342a:	f1 1d       	adc	r31, r1
    342c:	c8 95       	lpm
    342e:	98 2f       	mov	r25, r24
    3430:	80 2d       	mov	r24, r0
    3432:	31 96       	adiw	r30, 0x01	; 1
    3434:	c8 95       	lpm
    3436:	90 25       	eor	r25, r0
    3438:	90 93 8f 03 	sts	0x038F, r25
    343c:	80 93 8e 03 	sts	0x038E, r24
    3440:	13 c1       	rjmp	.+550    	; 0x3668
    3442:	40 91 73 03 	lds	r20, 0x0373
    3446:	50 91 74 03 	lds	r21, 0x0374
    344a:	4c 32       	cpi	r20, 0x2C	; 44
    344c:	51 05       	cpc	r21, r1
    344e:	08 f0       	brcs	.+2      	; 0x3452
    3450:	ba c0       	rjmp	.+372    	; 0x35c6
    3452:	3d 37       	cpi	r19, 0x7D	; 125
    3454:	11 f4       	brne	.+4      	; 0x345a
    3456:	84 e0       	ldi	r24, 0x04	; 4
    3458:	08 c1       	rjmp	.+528    	; 0x366a
    345a:	3e 37       	cpi	r19, 0x7E	; 126
    345c:	09 f0       	breq	.+2      	; 0x3460
    345e:	7f c0       	rjmp	.+254    	; 0x355e
    3460:	42 30       	cpi	r20, 0x02	; 2
    3462:	51 05       	cpc	r21, r1
    3464:	08 f4       	brcc	.+2      	; 0x3468
    3466:	5f c0       	rjmp	.+190    	; 0x3526
    3468:	e0 91 4b 04 	lds	r30, 0x044B
    346c:	f0 91 4c 04 	lds	r31, 0x044C
    3470:	e4 0f       	add	r30, r20
    3472:	f5 1f       	adc	r31, r21
    3474:	82 91       	ld	r24, -Z
    3476:	99 27       	eor	r25, r25
    3478:	38 2f       	mov	r19, r24
    347a:	22 27       	eor	r18, r18
    347c:	82 91       	ld	r24, -Z
    347e:	99 27       	eor	r25, r25
    3480:	28 2b       	or	r18, r24
    3482:	39 2b       	or	r19, r25
    3484:	80 91 8e 03 	lds	r24, 0x038E
    3488:	90 91 8f 03 	lds	r25, 0x038F
    348c:	60 91 f7 03 	lds	r22, 0x03F7
    3490:	28 17       	cp	r18, r24
    3492:	39 07       	cpc	r19, r25
    3494:	e1 f4       	brne	.+56     	; 0x34ce
    3496:	86 2f       	mov	r24, r22
    3498:	99 27       	eor	r25, r25
    349a:	fc 01       	movw	r30, r24
    349c:	ee 0f       	add	r30, r30
    349e:	ff 1f       	adc	r31, r31
    34a0:	ee 0f       	add	r30, r30
    34a2:	ff 1f       	adc	r31, r31
    34a4:	e8 0f       	add	r30, r24
    34a6:	f9 1f       	adc	r31, r25
    34a8:	e8 0f       	add	r30, r24
    34aa:	f9 1f       	adc	r31, r25
    34ac:	ec 5f       	subi	r30, 0xFC	; 252
    34ae:	fb 4f       	sbci	r31, 0xFB	; 251
    34b0:	42 50       	subi	r20, 0x02	; 2
    34b2:	50 40       	sbci	r21, 0x00	; 0
    34b4:	42 83       	std	Z+2, r20	; 0x02
    34b6:	53 83       	std	Z+3, r21	; 0x03
    34b8:	88 e1       	ldi	r24, 0x18	; 24
    34ba:	9d e1       	ldi	r25, 0x1D	; 29
    34bc:	0e 94 b2 02 	call	0x564
    34c0:	80 91 f7 03 	lds	r24, 0x03F7
    34c4:	8f 5f       	subi	r24, 0xFF	; 255
    34c6:	81 70       	andi	r24, 0x01	; 1
    34c8:	80 93 f7 03 	sts	0x03F7, r24
    34cc:	10 c0       	rjmp	.+32     	; 0x34ee
    34ce:	86 2f       	mov	r24, r22
    34d0:	99 27       	eor	r25, r25
    34d2:	fc 01       	movw	r30, r24
    34d4:	ee 0f       	add	r30, r30
    34d6:	ff 1f       	adc	r31, r31
    34d8:	ee 0f       	add	r30, r30
    34da:	ff 1f       	adc	r31, r31
    34dc:	e8 0f       	add	r30, r24
    34de:	f9 1f       	adc	r31, r25
    34e0:	e8 0f       	add	r30, r24
    34e2:	f9 1f       	adc	r31, r25
    34e4:	ec 5f       	subi	r30, 0xFC	; 252
    34e6:	fb 4f       	sbci	r31, 0xFB	; 251
    34e8:	12 82       	std	Z+2, r1	; 0x02
    34ea:	13 82       	std	Z+3, r1	; 0x03
    34ec:	11 82       	std	Z+1, r1	; 0x01
    34ee:	80 91 f7 03 	lds	r24, 0x03F7
    34f2:	99 27       	eor	r25, r25
    34f4:	fc 01       	movw	r30, r24
    34f6:	ee 0f       	add	r30, r30
    34f8:	ff 1f       	adc	r31, r31
    34fa:	ee 0f       	add	r30, r30
    34fc:	ff 1f       	adc	r31, r31
    34fe:	e8 0f       	add	r30, r24
    3500:	f9 1f       	adc	r31, r25
    3502:	e8 0f       	add	r30, r24
    3504:	f9 1f       	adc	r31, r25
    3506:	ec 5f       	subi	r30, 0xFC	; 252
    3508:	fb 4f       	sbci	r31, 0xFB	; 251
    350a:	82 81       	ldd	r24, Z+2	; 0x02
    350c:	93 81       	ldd	r25, Z+3	; 0x03
    350e:	89 2b       	or	r24, r25
    3510:	d9 f4       	brne	.+54     	; 0x3548
    3512:	84 81       	ldd	r24, Z+4	; 0x04
    3514:	95 81       	ldd	r25, Z+5	; 0x05
    3516:	90 93 4c 04 	sts	0x044C, r25
    351a:	80 93 4b 04 	sts	0x044B, r24
    351e:	81 e0       	ldi	r24, 0x01	; 1
    3520:	80 93 91 04 	sts	0x0491, r24
    3524:	13 c0       	rjmp	.+38     	; 0x354c
    3526:	80 91 f7 03 	lds	r24, 0x03F7
    352a:	99 27       	eor	r25, r25
    352c:	fc 01       	movw	r30, r24
    352e:	ee 0f       	add	r30, r30
    3530:	ff 1f       	adc	r31, r31
    3532:	ee 0f       	add	r30, r30
    3534:	ff 1f       	adc	r31, r31
    3536:	e8 0f       	add	r30, r24
    3538:	f9 1f       	adc	r31, r25
    353a:	e8 0f       	add	r30, r24
    353c:	f9 1f       	adc	r31, r25
    353e:	ec 5f       	subi	r30, 0xFC	; 252
    3540:	fb 4f       	sbci	r31, 0xFB	; 251
    3542:	12 82       	std	Z+2, r1	; 0x02
    3544:	13 82       	std	Z+3, r1	; 0x03
    3546:	11 82       	std	Z+1, r1	; 0x01
    3548:	10 92 91 04 	sts	0x0491, r1
    354c:	10 92 8f 03 	sts	0x038F, r1
    3550:	10 92 8e 03 	sts	0x038E, r1
    3554:	10 92 74 03 	sts	0x0374, r1
    3558:	10 92 73 03 	sts	0x0373, r1
    355c:	8b c0       	rjmp	.+278    	; 0x3674
    355e:	e0 91 4b 04 	lds	r30, 0x044B
    3562:	f0 91 4c 04 	lds	r31, 0x044C
    3566:	e4 0f       	add	r30, r20
    3568:	f5 1f       	adc	r31, r21
    356a:	30 83       	st	Z, r19
    356c:	40 91 73 03 	lds	r20, 0x0373
    3570:	50 91 74 03 	lds	r21, 0x0374
    3574:	42 30       	cpi	r20, 0x02	; 2
    3576:	51 05       	cpc	r21, r1
    3578:	e8 f0       	brcs	.+58     	; 0x35b4
    357a:	20 91 8e 03 	lds	r18, 0x038E
    357e:	30 91 8f 03 	lds	r19, 0x038F
    3582:	e0 91 4b 04 	lds	r30, 0x044B
    3586:	f0 91 4c 04 	lds	r31, 0x044C
    358a:	e4 0f       	add	r30, r20
    358c:	f5 1f       	adc	r31, r21
    358e:	32 97       	sbiw	r30, 0x02	; 2
    3590:	80 81       	ld	r24, Z
    3592:	e7 e7       	ldi	r30, 0x77	; 119
    3594:	f1 e0       	ldi	r31, 0x01	; 1
    3596:	83 27       	eor	r24, r19
    3598:	88 0f       	add	r24, r24
    359a:	f1 1d       	adc	r31, r1
    359c:	e8 0f       	add	r30, r24
    359e:	f1 1d       	adc	r31, r1
    35a0:	c8 95       	lpm
    35a2:	32 2f       	mov	r19, r18
    35a4:	20 2d       	mov	r18, r0
    35a6:	31 96       	adiw	r30, 0x01	; 1
    35a8:	c8 95       	lpm
    35aa:	30 25       	eor	r19, r0
    35ac:	30 93 8f 03 	sts	0x038F, r19
    35b0:	20 93 8e 03 	sts	0x038E, r18
    35b4:	4f 5f       	subi	r20, 0xFF	; 255
    35b6:	5f 4f       	sbci	r21, 0xFF	; 255
    35b8:	50 93 74 03 	sts	0x0374, r21
    35bc:	40 93 73 03 	sts	0x0373, r20
    35c0:	59 c0       	rjmp	.+178    	; 0x3674
    35c2:	3e 37       	cpi	r19, 0x7E	; 126
    35c4:	d1 f4       	brne	.+52     	; 0x35fa
    35c6:	10 92 8f 03 	sts	0x038F, r1
    35ca:	10 92 8e 03 	sts	0x038E, r1
    35ce:	10 92 74 03 	sts	0x0374, r1
    35d2:	10 92 73 03 	sts	0x0373, r1
    35d6:	80 91 f7 03 	lds	r24, 0x03F7
    35da:	99 27       	eor	r25, r25
    35dc:	fc 01       	movw	r30, r24
    35de:	ee 0f       	add	r30, r30
    35e0:	ff 1f       	adc	r31, r31
    35e2:	ee 0f       	add	r30, r30
    35e4:	ff 1f       	adc	r31, r31
    35e6:	e8 0f       	add	r30, r24
    35e8:	f9 1f       	adc	r31, r25
    35ea:	e8 0f       	add	r30, r24
    35ec:	f9 1f       	adc	r31, r25
    35ee:	ec 5f       	subi	r30, 0xFC	; 252
    35f0:	fb 4f       	sbci	r31, 0xFB	; 251
    35f2:	12 82       	std	Z+2, r1	; 0x02
    35f4:	13 82       	std	Z+3, r1	; 0x03
    35f6:	11 82       	std	Z+1, r1	; 0x01
    35f8:	3b c0       	rjmp	.+118    	; 0x3670
    35fa:	80 e2       	ldi	r24, 0x20	; 32
    35fc:	83 27       	eor	r24, r19
    35fe:	e0 91 4b 04 	lds	r30, 0x044B
    3602:	f0 91 4c 04 	lds	r31, 0x044C
    3606:	20 91 73 03 	lds	r18, 0x0373
    360a:	30 91 74 03 	lds	r19, 0x0374
    360e:	e2 0f       	add	r30, r18
    3610:	f3 1f       	adc	r31, r19
    3612:	80 83       	st	Z, r24
    3614:	40 91 73 03 	lds	r20, 0x0373
    3618:	50 91 74 03 	lds	r21, 0x0374
    361c:	42 30       	cpi	r20, 0x02	; 2
    361e:	51 05       	cpc	r21, r1
    3620:	e8 f0       	brcs	.+58     	; 0x365c
    3622:	20 91 8e 03 	lds	r18, 0x038E
    3626:	30 91 8f 03 	lds	r19, 0x038F
    362a:	e0 91 4b 04 	lds	r30, 0x044B
    362e:	f0 91 4c 04 	lds	r31, 0x044C
    3632:	e4 0f       	add	r30, r20
    3634:	f5 1f       	adc	r31, r21
    3636:	32 97       	sbiw	r30, 0x02	; 2
    3638:	80 81       	ld	r24, Z
    363a:	e7 e7       	ldi	r30, 0x77	; 119
    363c:	f1 e0       	ldi	r31, 0x01	; 1
    363e:	83 27       	eor	r24, r19
    3640:	88 0f       	add	r24, r24
    3642:	f1 1d       	adc	r31, r1
    3644:	e8 0f       	add	r30, r24
    3646:	f1 1d       	adc	r31, r1
    3648:	c8 95       	lpm
    364a:	32 2f       	mov	r19, r18
    364c:	20 2d       	mov	r18, r0
    364e:	31 96       	adiw	r30, 0x01	; 1
    3650:	c8 95       	lpm
    3652:	30 25       	eor	r19, r0
    3654:	30 93 8f 03 	sts	0x038F, r19
    3658:	20 93 8e 03 	sts	0x038E, r18
    365c:	4f 5f       	subi	r20, 0xFF	; 255
    365e:	5f 4f       	sbci	r21, 0xFF	; 255
    3660:	50 93 74 03 	sts	0x0374, r21
    3664:	40 93 73 03 	sts	0x0373, r20
    3668:	83 e0       	ldi	r24, 0x03	; 3
    366a:	80 93 91 04 	sts	0x0491, r24
    366e:	02 c0       	rjmp	.+4      	; 0x3674
    3670:	10 92 91 04 	sts	0x0491, r1
    3674:	81 e0       	ldi	r24, 0x01	; 1
    3676:	90 e0       	ldi	r25, 0x00	; 0
    3678:	08 95       	ret

0000367a <UARTM$HPLUART$putDone>:
    367a:	8f b7       	in	r24, 0x3f	; 63
    367c:	f8 94       	cli
    367e:	99 27       	eor	r25, r25
    3680:	20 91 f6 03 	lds	r18, 0x03F6
    3684:	10 92 f6 03 	sts	0x03F6, r1
    3688:	8f bf       	out	0x3f, r24	; 63
    368a:	22 23       	and	r18, r18
    368c:	09 f4       	brne	.+2      	; 0x3690
    368e:	a4 c0       	rjmp	.+328    	; 0x37d8
    3690:	80 91 92 04 	lds	r24, 0x0492
    3694:	87 30       	cpi	r24, 0x07	; 7
    3696:	31 f4       	brne	.+12     	; 0x36a4
    3698:	10 92 92 04 	sts	0x0492, r1
    369c:	8a e3       	ldi	r24, 0x3A	; 58
    369e:	99 e1       	ldi	r25, 0x19	; 25
    36a0:	0e 94 b2 02 	call	0x564
    36a4:	21 e0       	ldi	r18, 0x01	; 1
    36a6:	80 91 92 04 	lds	r24, 0x0492
    36aa:	99 27       	eor	r25, r25
    36ac:	84 30       	cpi	r24, 0x04	; 4
    36ae:	91 05       	cpc	r25, r1
    36b0:	09 f4       	brne	.+2      	; 0x36b4
    36b2:	6e c0       	rjmp	.+220    	; 0x3790
    36b4:	85 30       	cpi	r24, 0x05	; 5
    36b6:	91 05       	cpc	r25, r1
    36b8:	54 f4       	brge	.+20     	; 0x36ce
    36ba:	82 30       	cpi	r24, 0x02	; 2
    36bc:	91 05       	cpc	r25, r1
    36be:	61 f1       	breq	.+88     	; 0x3718
    36c0:	83 30       	cpi	r24, 0x03	; 3
    36c2:	91 05       	cpc	r25, r1
    36c4:	0c f0       	brlt	.+2      	; 0x36c8
    36c6:	58 c0       	rjmp	.+176    	; 0x3778
    36c8:	01 97       	sbiw	r24, 0x01	; 1
    36ca:	49 f0       	breq	.+18     	; 0x36de
    36cc:	7c c0       	rjmp	.+248    	; 0x37c6
    36ce:	86 30       	cpi	r24, 0x06	; 6
    36d0:	91 05       	cpc	r25, r1
    36d2:	09 f4       	brne	.+2      	; 0x36d6
    36d4:	71 c0       	rjmp	.+226    	; 0x37b8
    36d6:	06 97       	sbiw	r24, 0x06	; 6
    36d8:	0c f4       	brge	.+2      	; 0x36dc
    36da:	63 c0       	rjmp	.+198    	; 0x37a2
    36dc:	74 c0       	rjmp	.+232    	; 0x37c6
    36de:	82 e0       	ldi	r24, 0x02	; 2
    36e0:	80 93 92 04 	sts	0x0492, r24
    36e4:	20 91 24 02 	lds	r18, 0x0224
    36e8:	30 91 25 02 	lds	r19, 0x0225
    36ec:	80 91 7f 02 	lds	r24, 0x027F
    36f0:	e7 e7       	ldi	r30, 0x77	; 119
    36f2:	f1 e0       	ldi	r31, 0x01	; 1
    36f4:	83 27       	eor	r24, r19
    36f6:	88 0f       	add	r24, r24
    36f8:	f1 1d       	adc	r31, r1
    36fa:	e8 0f       	add	r30, r24
    36fc:	f1 1d       	adc	r31, r1
    36fe:	c8 95       	lpm
    3700:	32 2f       	mov	r19, r18
    3702:	20 2d       	mov	r18, r0
    3704:	31 96       	adiw	r30, 0x01	; 1
    3706:	c8 95       	lpm
    3708:	30 25       	eor	r19, r0
    370a:	30 93 25 02 	sts	0x0225, r19
    370e:	20 93 24 02 	sts	0x0224, r18
    3712:	80 91 7f 02 	lds	r24, 0x027F
    3716:	54 c0       	rjmp	.+168    	; 0x37c0
    3718:	e0 91 b4 03 	lds	r30, 0x03B4
    371c:	f0 91 b5 03 	lds	r31, 0x03B5
    3720:	20 91 e4 03 	lds	r18, 0x03E4
    3724:	30 91 e5 03 	lds	r19, 0x03E5
    3728:	e2 0f       	add	r30, r18
    372a:	f3 1f       	adc	r31, r19
    372c:	50 81       	ld	r21, Z
    372e:	80 91 24 02 	lds	r24, 0x0224
    3732:	90 91 25 02 	lds	r25, 0x0225
    3736:	e7 e7       	ldi	r30, 0x77	; 119
    3738:	f1 e0       	ldi	r31, 0x01	; 1
    373a:	45 2f       	mov	r20, r21
    373c:	49 27       	eor	r20, r25
    373e:	44 0f       	add	r20, r20
    3740:	f1 1d       	adc	r31, r1
    3742:	e4 0f       	add	r30, r20
    3744:	f1 1d       	adc	r31, r1
    3746:	c8 95       	lpm
    3748:	98 2f       	mov	r25, r24
    374a:	80 2d       	mov	r24, r0
    374c:	31 96       	adiw	r30, 0x01	; 1
    374e:	c8 95       	lpm
    3750:	90 25       	eor	r25, r0
    3752:	90 93 25 02 	sts	0x0225, r25
    3756:	80 93 24 02 	sts	0x0224, r24
    375a:	2f 5f       	subi	r18, 0xFF	; 255
    375c:	3f 4f       	sbci	r19, 0xFF	; 255
    375e:	30 93 e5 03 	sts	0x03E5, r19
    3762:	20 93 e4 03 	sts	0x03E4, r18
    3766:	80 91 6a 03 	lds	r24, 0x036A
    376a:	90 91 6b 03 	lds	r25, 0x036B
    376e:	28 17       	cp	r18, r24
    3770:	39 07       	cpc	r19, r25
    3772:	98 f0       	brcs	.+38     	; 0x379a
    3774:	84 e0       	ldi	r24, 0x04	; 4
    3776:	0f c0       	rjmp	.+30     	; 0x3796
    3778:	80 91 99 04 	lds	r24, 0x0499
    377c:	90 e2       	ldi	r25, 0x20	; 32
    377e:	89 27       	eor	r24, r25
    3780:	0e 94 25 19 	call	0x324a
    3784:	28 2f       	mov	r18, r24
    3786:	80 91 15 04 	lds	r24, 0x0415
    378a:	80 93 92 04 	sts	0x0492, r24
    378e:	1b c0       	rjmp	.+54     	; 0x37c6
    3790:	50 91 24 02 	lds	r21, 0x0224
    3794:	85 e0       	ldi	r24, 0x05	; 5
    3796:	80 93 92 04 	sts	0x0492, r24
    379a:	85 2f       	mov	r24, r21
    379c:	0e 94 ef 1b 	call	0x37de
    37a0:	11 c0       	rjmp	.+34     	; 0x37c4
    37a2:	80 91 24 02 	lds	r24, 0x0224
    37a6:	90 91 25 02 	lds	r25, 0x0225
    37aa:	29 2f       	mov	r18, r25
    37ac:	33 27       	eor	r19, r19
    37ae:	86 e0       	ldi	r24, 0x06	; 6
    37b0:	80 93 92 04 	sts	0x0492, r24
    37b4:	82 2f       	mov	r24, r18
    37b6:	f2 cf       	rjmp	.-28     	; 0x379c
    37b8:	87 e0       	ldi	r24, 0x07	; 7
    37ba:	80 93 92 04 	sts	0x0492, r24
    37be:	8e e7       	ldi	r24, 0x7E	; 126
    37c0:	0e 94 25 19 	call	0x324a
    37c4:	28 2f       	mov	r18, r24
    37c6:	21 30       	cpi	r18, 0x01	; 1
    37c8:	39 f0       	breq	.+14     	; 0x37d8
    37ca:	88 e0       	ldi	r24, 0x08	; 8
    37cc:	80 93 92 04 	sts	0x0492, r24
    37d0:	8a e3       	ldi	r24, 0x3A	; 58
    37d2:	99 e1       	ldi	r25, 0x19	; 25
    37d4:	0e 94 b2 02 	call	0x564
    37d8:	81 e0       	ldi	r24, 0x01	; 1
    37da:	90 e0       	ldi	r25, 0x00	; 0
    37dc:	08 95       	ret

000037de <FramerM$TxArbitraryByte>:
    37de:	98 2f       	mov	r25, r24
    37e0:	8d 57       	subi	r24, 0x7D	; 125
    37e2:	82 30       	cpi	r24, 0x02	; 2
    37e4:	78 f4       	brcc	.+30     	; 0x3804
    37e6:	8f b7       	in	r24, 0x3f	; 63
    37e8:	f8 94       	cli
    37ea:	28 2f       	mov	r18, r24
    37ec:	33 27       	eor	r19, r19
    37ee:	80 91 92 04 	lds	r24, 0x0492
    37f2:	80 93 15 04 	sts	0x0415, r24
    37f6:	83 e0       	ldi	r24, 0x03	; 3
    37f8:	80 93 92 04 	sts	0x0492, r24
    37fc:	90 93 99 04 	sts	0x0499, r25
    3800:	2f bf       	out	0x3f, r18	; 63
    3802:	9d e7       	ldi	r25, 0x7D	; 125
    3804:	89 2f       	mov	r24, r25
    3806:	0e 94 25 19 	call	0x324a
    380a:	99 27       	eor	r25, r25
    380c:	08 95       	ret

0000380e <__nesc_atomic_end>:
    380e:	8f bf       	out	0x3f, r24	; 63
    3810:	08 95       	ret

00003812 <__nesc_atomic_start>:
    3812:	8f b7       	in	r24, 0x3f	; 63
    3814:	f8 94       	cli
    3816:	99 27       	eor	r25, r25
    3818:	08 95       	ret

0000381a <CC1000RadioIntTinySecM$PacketSent>:
    381a:	ef 92       	push	r14
    381c:	ff 92       	push	r15
    381e:	0f 93       	push	r16
    3820:	1f 93       	push	r17
    3822:	8f b7       	in	r24, 0x3f	; 63
    3824:	f8 94       	cli
    3826:	e8 2e       	mov	r14, r24
    3828:	ff 24       	eor	r15, r15
    382a:	00 91 26 05 	lds	r16, 0x0526
    382e:	10 91 27 05 	lds	r17, 0x0527
    3832:	f8 01       	movw	r30, r16
    3834:	17 a2       	std	Z+39, r1	; 0x27
    3836:	10 a6       	std	Z+40, r1	; 0x28
    3838:	c8 01       	movw	r24, r16
    383a:	0e 94 79 0d 	call	0x1af2
    383e:	ef be       	out	0x3f, r14	; 63
    3840:	f8 01       	movw	r30, r16
    3842:	84 81       	ldd	r24, Z+4	; 0x04
    3844:	8f 73       	andi	r24, 0x3F	; 63
    3846:	84 83       	std	Z+4, r24	; 0x04
    3848:	61 e0       	ldi	r22, 0x01	; 1
    384a:	c8 01       	movw	r24, r16
    384c:	0e 94 7f 0d 	call	0x1afe
    3850:	8f b7       	in	r24, 0x3f	; 63
    3852:	f8 94       	cli
    3854:	99 27       	eor	r25, r25
    3856:	10 92 f8 03 	sts	0x03F8, r1
    385a:	8f bf       	out	0x3f, r24	; 63
    385c:	1f 91       	pop	r17
    385e:	0f 91       	pop	r16
    3860:	ff 90       	pop	r15
    3862:	ef 90       	pop	r14
    3864:	08 95       	ret

00003866 <TimerM$HandleFire>:
    3866:	8f 92       	push	r8
    3868:	9f 92       	push	r9
    386a:	af 92       	push	r10
    386c:	bf 92       	push	r11
    386e:	df 92       	push	r13
    3870:	ef 92       	push	r14
    3872:	ff 92       	push	r15
    3874:	0f 93       	push	r16
    3876:	1f 93       	push	r17
    3878:	cf 93       	push	r28
    387a:	df 93       	push	r29
    387c:	81 e0       	ldi	r24, 0x01	; 1
    387e:	80 93 f4 03 	sts	0x03F4, r24
    3882:	80 91 28 05 	lds	r24, 0x0528
    3886:	90 91 29 05 	lds	r25, 0x0529
    388a:	a0 91 2a 05 	lds	r26, 0x052A
    388e:	b0 91 2b 05 	lds	r27, 0x052B
    3892:	00 97       	sbiw	r24, 0x00	; 0
    3894:	a1 05       	cpc	r26, r1
    3896:	b1 05       	cpc	r27, r1
    3898:	09 f4       	brne	.+2      	; 0x389c
    389a:	84 c0       	rjmp	.+264    	; 0x39a4
    389c:	dd 24       	eor	r13, r13
    389e:	04 ec       	ldi	r16, 0xC4	; 196
    38a0:	13 e0       	ldi	r17, 0x03	; 3
    38a2:	ee 24       	eor	r14, r14
    38a4:	ff 24       	eor	r15, r15
    38a6:	61 e0       	ldi	r22, 0x01	; 1
    38a8:	70 e0       	ldi	r23, 0x00	; 0
    38aa:	0e 2c       	mov	r0, r14
    38ac:	02 c0       	rjmp	.+4      	; 0x38b2
    38ae:	66 0f       	add	r22, r22
    38b0:	77 1f       	adc	r23, r23
    38b2:	0a 94       	dec	r0
    38b4:	e2 f7       	brpl	.-8      	; 0x38ae
    38b6:	cb 01       	movw	r24, r22
    38b8:	aa 27       	eor	r26, r26
    38ba:	97 fd       	sbrc	r25, 7
    38bc:	a0 95       	com	r26
    38be:	ba 2f       	mov	r27, r26
    38c0:	80 90 28 05 	lds	r8, 0x0528
    38c4:	90 90 29 05 	lds	r9, 0x0529
    38c8:	a0 90 2a 05 	lds	r10, 0x052A
    38cc:	b0 90 2b 05 	lds	r11, 0x052B
    38d0:	88 21       	and	r24, r8
    38d2:	99 21       	and	r25, r9
    38d4:	aa 21       	and	r26, r10
    38d6:	bb 21       	and	r27, r11
    38d8:	00 97       	sbiw	r24, 0x00	; 0
    38da:	a1 05       	cpc	r26, r1
    38dc:	b1 05       	cpc	r27, r1
    38de:	09 f4       	brne	.+2      	; 0x38e2
    38e0:	57 c0       	rjmp	.+174    	; 0x3990
    38e2:	80 91 fb 03 	lds	r24, 0x03FB
    38e6:	99 27       	eor	r25, r25
    38e8:	01 96       	adiw	r24, 0x01	; 1
    38ea:	aa 27       	eor	r26, r26
    38ec:	97 fd       	sbrc	r25, 7
    38ee:	a0 95       	com	r26
    38f0:	ba 2f       	mov	r27, r26
    38f2:	f8 01       	movw	r30, r16
    38f4:	25 81       	ldd	r18, Z+5	; 0x05
    38f6:	36 81       	ldd	r19, Z+6	; 0x06
    38f8:	47 81       	ldd	r20, Z+7	; 0x07
    38fa:	50 85       	ldd	r21, Z+8	; 0x08
    38fc:	28 1b       	sub	r18, r24
    38fe:	39 0b       	sbc	r19, r25
    3900:	4a 0b       	sbc	r20, r26
    3902:	5b 0b       	sbc	r21, r27
    3904:	25 83       	std	Z+5, r18	; 0x05
    3906:	36 83       	std	Z+6, r19	; 0x06
    3908:	47 83       	std	Z+7, r20	; 0x07
    390a:	50 87       	std	Z+8, r21	; 0x08
    390c:	23 30       	cpi	r18, 0x03	; 3
    390e:	31 05       	cpc	r19, r1
    3910:	41 05       	cpc	r20, r1
    3912:	51 05       	cpc	r21, r1
    3914:	ec f5       	brge	.+122    	; 0x3990
    3916:	80 81       	ld	r24, Z
    3918:	88 23       	and	r24, r24
    391a:	69 f4       	brne	.+26     	; 0x3936
    391c:	81 81       	ldd	r24, Z+1	; 0x01
    391e:	92 81       	ldd	r25, Z+2	; 0x02
    3920:	a3 81       	ldd	r26, Z+3	; 0x03
    3922:	b4 81       	ldd	r27, Z+4	; 0x04
    3924:	28 0f       	add	r18, r24
    3926:	39 1f       	adc	r19, r25
    3928:	4a 1f       	adc	r20, r26
    392a:	5b 1f       	adc	r21, r27
    392c:	25 83       	std	Z+5, r18	; 0x05
    392e:	36 83       	std	Z+6, r19	; 0x06
    3930:	47 83       	std	Z+7, r20	; 0x07
    3932:	50 87       	std	Z+8, r21	; 0x08
    3934:	13 c0       	rjmp	.+38     	; 0x395c
    3936:	cb 01       	movw	r24, r22
    3938:	80 95       	com	r24
    393a:	90 95       	com	r25
    393c:	aa 27       	eor	r26, r26
    393e:	97 fd       	sbrc	r25, 7
    3940:	a0 95       	com	r26
    3942:	ba 2f       	mov	r27, r26
    3944:	88 22       	and	r8, r24
    3946:	99 22       	and	r9, r25
    3948:	aa 22       	and	r10, r26
    394a:	bb 22       	and	r11, r27
    394c:	80 92 28 05 	sts	0x0528, r8
    3950:	90 92 29 05 	sts	0x0529, r9
    3954:	a0 92 2a 05 	sts	0x052A, r10
    3958:	b0 92 2b 05 	sts	0x052B, r11
    395c:	80 91 57 05 	lds	r24, 0x0557
    3960:	82 30       	cpi	r24, 0x02	; 2
    3962:	19 f4       	brne	.+6      	; 0x396a
    3964:	8f ef       	ldi	r24, 0xFF	; 255
    3966:	80 93 57 05 	sts	0x0557, r24
    396a:	90 91 57 05 	lds	r25, 0x0557
    396e:	9f 5f       	subi	r25, 0xFF	; 255
    3970:	90 93 57 05 	sts	0x0557, r25
    3974:	80 91 7b 03 	lds	r24, 0x037B
    3978:	8f 5f       	subi	r24, 0xFF	; 255
    397a:	80 93 7b 03 	sts	0x037B, r24
    397e:	e9 2f       	mov	r30, r25
    3980:	ff 27       	eor	r31, r31
    3982:	ed 5c       	subi	r30, 0xCD	; 205
    3984:	fc 4f       	sbci	r31, 0xFC	; 252
    3986:	d0 82       	st	Z, r13
    3988:	87 e8       	ldi	r24, 0x87	; 135
    398a:	9d e1       	ldi	r25, 0x1D	; 29
    398c:	0e 94 b2 02 	call	0x564
    3990:	d3 94       	inc	r13
    3992:	08 94       	sec
    3994:	e1 1c       	adc	r14, r1
    3996:	f1 1c       	adc	r15, r1
    3998:	07 5f       	subi	r16, 0xF7	; 247
    399a:	1f 4f       	sbci	r17, 0xFF	; 255
    399c:	f2 e0       	ldi	r31, 0x02	; 2
    399e:	fd 15       	cp	r31, r13
    39a0:	08 f0       	brcs	.+2      	; 0x39a4
    39a2:	81 cf       	rjmp	.-254    	; 0x38a6
    39a4:	0e 94 04 02 	call	0x408
    39a8:	df 91       	pop	r29
    39aa:	cf 91       	pop	r28
    39ac:	1f 91       	pop	r17
    39ae:	0f 91       	pop	r16
    39b0:	ff 90       	pop	r15
    39b2:	ef 90       	pop	r14
    39b4:	df 90       	pop	r13
    39b6:	bf 90       	pop	r11
    39b8:	af 90       	pop	r10
    39ba:	9f 90       	pop	r9
    39bc:	8f 90       	pop	r8
    39be:	08 95       	ret

000039c0 <HPLPowerManagementM$doAdjustment>:
    39c0:	87 b7       	in	r24, 0x37	; 55
    39c2:	99 27       	eor	r25, r25
    39c4:	8c 7f       	andi	r24, 0xFC	; 252
    39c6:	00 97       	sbiw	r24, 0x00	; 0
    39c8:	19 f0       	breq	.+6      	; 0x39d0
    39ca:	80 e0       	ldi	r24, 0x00	; 0
    39cc:	90 e0       	ldi	r25, 0x00	; 0
    39ce:	1a c0       	rjmp	.+52     	; 0x3a04
    39d0:	6f 99       	sbic	0x0d, 7	; 13
    39d2:	18 c0       	rjmp	.+48     	; 0x3a04
    39d4:	37 9b       	sbis	0x06, 7	; 6
    39d6:	03 c0       	rjmp	.+6      	; 0x39de
    39d8:	88 e0       	ldi	r24, 0x08	; 8
    39da:	90 e0       	ldi	r25, 0x00	; 0
    39dc:	13 c0       	rjmp	.+38     	; 0x3a04
    39de:	87 b7       	in	r24, 0x37	; 55
    39e0:	99 27       	eor	r25, r25
    39e2:	83 70       	andi	r24, 0x03	; 3
    39e4:	90 70       	andi	r25, 0x00	; 0
    39e6:	89 2b       	or	r24, r25
    39e8:	59 f0       	breq	.+22     	; 0x3a00
    39ea:	81 b7       	in	r24, 0x31	; 49
    39ec:	92 b7       	in	r25, 0x32	; 50
    39ee:	89 1b       	sub	r24, r25
    39f0:	80 31       	cpi	r24, 0x10	; 16
    39f2:	18 f4       	brcc	.+6      	; 0x39fa
    39f4:	8c e1       	ldi	r24, 0x1C	; 28
    39f6:	90 e0       	ldi	r25, 0x00	; 0
    39f8:	05 c0       	rjmp	.+10     	; 0x3a04
    39fa:	88 e1       	ldi	r24, 0x18	; 24
    39fc:	90 e0       	ldi	r25, 0x00	; 0
    39fe:	02 c0       	rjmp	.+4      	; 0x3a04
    3a00:	80 e1       	ldi	r24, 0x10	; 16
    3a02:	90 e0       	ldi	r25, 0x00	; 0
    3a04:	38 2f       	mov	r19, r24
    3a06:	25 b7       	in	r18, 0x35	; 53
    3a08:	23 7e       	andi	r18, 0xE3	; 227
    3a0a:	8c 31       	cpi	r24, 0x1C	; 28
    3a0c:	21 f0       	breq	.+8      	; 0x3a16
    3a0e:	88 31       	cpi	r24, 0x18	; 24
    3a10:	11 f0       	breq	.+4      	; 0x3a16
    3a12:	08 c0       	rjmp	.+16     	; 0x3a24
    3a14:	00 00       	nop
    3a16:	80 b7       	in	r24, 0x30	; 48
    3a18:	99 27       	eor	r25, r25
    3a1a:	87 70       	andi	r24, 0x07	; 7
    3a1c:	90 70       	andi	r25, 0x00	; 0
    3a1e:	89 2b       	or	r24, r25
    3a20:	c9 f7       	brne	.-14     	; 0x3a14
    3a22:	23 7e       	andi	r18, 0xE3	; 227
    3a24:	23 2b       	or	r18, r19
    3a26:	25 bf       	out	0x35, r18	; 53
    3a28:	85 b7       	in	r24, 0x35	; 53
    3a2a:	80 62       	ori	r24, 0x20	; 32
    3a2c:	85 bf       	out	0x35, r24	; 53
    3a2e:	08 95       	ret

00003a30 <FramerM$PacketRcvd>:
    3a30:	0f 93       	push	r16
