
XnpCount:     file format elf32-avr

Sections:
Idx Name          Size      VMA       LMA       File off  Algn
  0 .data         00000008  00800100  000040c0  00004154  2**0
                  CONTENTS, ALLOC, LOAD, DATA
  1 .text         000040c0  00000000  00000000  00000094  2**1
                  CONTENTS, ALLOC, LOAD, READONLY, CODE
  2 .bss          00000252  00800108  00800108  0000415c  2**0
                  ALLOC
  3 .noinit       00000000  0080035a  0080035a  0000415c  2**0
                  CONTENTS
  4 .eeprom       00000000  00810000  00810000  0000415c  2**0
                  CONTENTS
  5 .stab         00000504  00000000  00000000  0000415c  2**2
                  CONTENTS, READONLY, DEBUGGING
  6 .stabstr      000000a0  00000000  00000000  00004660  2**0
                  CONTENTS, READONLY, DEBUGGING
Disassembly of section .text:

00000000 <__vectors>:
       0:	0c 94 18 02 	jmp	0x430
       4:	0c 94 35 02 	jmp	0x46a
       8:	0c 94 35 02 	jmp	0x46a
       c:	0c 94 0e 03 	jmp	0x61c
      10:	0c 94 35 02 	jmp	0x46a
      14:	0c 94 35 02 	jmp	0x46a
      18:	0c 94 35 02 	jmp	0x46a
      1c:	0c 94 35 02 	jmp	0x46a
      20:	0c 94 35 02 	jmp	0x46a
      24:	0c 94 35 02 	jmp	0x46a
      28:	0c 94 35 02 	jmp	0x46a
      2c:	0c 94 35 02 	jmp	0x46a
      30:	0c 94 35 02 	jmp	0x46a
      34:	0c 94 35 02 	jmp	0x46a
      38:	0c 94 35 02 	jmp	0x46a
      3c:	0c 94 5c 19 	jmp	0x32b8
      40:	0c 94 35 02 	jmp	0x46a
      44:	0c 94 37 02 	jmp	0x46e
      48:	0c 94 bf 02 	jmp	0x57e
      4c:	0c 94 35 02 	jmp	0x46a
      50:	0c 94 e9 02 	jmp	0x5d2
      54:	0c 94 c0 15 	jmp	0x2b80
      58:	0c 94 35 02 	jmp	0x46a
      5c:	0c 94 35 02 	jmp	0x46a
      60:	0c 94 35 02 	jmp	0x46a
      64:	0c 94 35 02 	jmp	0x46a
      68:	0c 94 35 02 	jmp	0x46a
      6c:	0c 94 35 02 	jmp	0x46a
      70:	0c 94 35 02 	jmp	0x46a
      74:	0c 94 35 02 	jmp	0x46a
      78:	0c 94 35 02 	jmp	0x46a
      7c:	0c 94 35 02 	jmp	0x46a
      80:	0c 94 35 02 	jmp	0x46a
      84:	0c 94 35 02 	jmp	0x46a
      88:	0c 94 35 02 	jmp	0x46a

0000008c <__ctors_end>:
      8c:	d3 0d       	add	r29, r3
      8e:	4d 0e       	add	r4, r29
      90:	2d 0e       	add	r2, r29
      92:	61 0e       	add	r6, r17
      94:	61 0e       	add	r6, r17
      96:	61 0e       	add	r6, r17
      98:	61 0e       	add	r6, r17
      9a:	61 0e       	add	r6, r17
      9c:	61 0e       	add	r6, r17
      9e:	61 0e       	add	r6, r17
      a0:	61 0e       	add	r6, r17
      a2:	61 0e       	add	r6, r17
      a4:	61 0e       	add	r6, r17
      a6:	61 0e       	add	r6, r17
      a8:	61 0e       	add	r6, r17
      aa:	61 0e       	add	r6, r17
      ac:	61 0e       	add	r6, r17
      ae:	61 0e       	add	r6, r17
      b0:	61 0e       	add	r6, r17
      b2:	61 0e       	add	r6, r17
      b4:	61 0e       	add	r6, r17
      b6:	61 0e       	add	r6, r17
      b8:	61 0e       	add	r6, r17
      ba:	61 0e       	add	r6, r17
      bc:	61 0e       	add	r6, r17
      be:	61 0e       	add	r6, r17
      c0:	61 0e       	add	r6, r17
      c2:	61 0e       	add	r6, r17
      c4:	61 0e       	add	r6, r17
      c6:	61 0e       	add	r6, r17
      c8:	61 0e       	add	r6, r17
      ca:	61 0e       	add	r6, r17
      cc:	61 0e       	add	r6, r17
      ce:	61 0e       	add	r6, r17
      d0:	61 0e       	add	r6, r17
      d2:	61 0e       	add	r6, r17
      d4:	61 0e       	add	r6, r17
      d6:	61 0e       	add	r6, r17
      d8:	61 0e       	add	r6, r17
      da:	61 0e       	add	r6, r17
      dc:	d6 0d       	add	r29, r6
      de:	f7 0d       	add	r31, r7
      e0:	61 0e       	add	r6, r17
      e2:	61 0e       	add	r6, r17
      e4:	61 0e       	add	r6, r17
      e6:	61 0e       	add	r6, r17
      e8:	61 0e       	add	r6, r17
      ea:	61 0e       	add	r6, r17
      ec:	61 0e       	add	r6, r17
      ee:	61 0e       	add	r6, r17
      f0:	13 0c       	add	r1, r3
      f2:	26 0c       	add	r2, r6
      f4:	61 0e       	add	r6, r17
      f6:	61 0e       	add	r6, r17
      f8:	f7 0d       	add	r31, r7
      fa:	61 0e       	add	r6, r17
      fc:	42 0e       	add	r4, r18
      fe:	61 0e       	add	r6, r17
     100:	61 0e       	add	r6, r17
     102:	61 0e       	add	r6, r17
     104:	4f 0c       	add	r4, r15
     106:	61 0e       	add	r6, r17
     108:	8d 0c       	add	r8, r13
     10a:	95 0c       	add	r9, r5
     10c:	c6 0c       	add	r12, r6
     10e:	21 0d       	add	r18, r1
     110:	61 0e       	add	r6, r17
     112:	78 0d       	add	r23, r8
     114:	95 0d       	add	r25, r5
     116:	61 0e       	add	r6, r17
     118:	61 0e       	add	r6, r17
     11a:	61 0e       	add	r6, r17
     11c:	61 0e       	add	r6, r17
     11e:	b0 0d       	add	r27, r0
     120:	b2 0d       	add	r27, r2
     122:	61 0e       	add	r6, r17
     124:	61 0e       	add	r6, r17
     126:	bc 0d       	add	r27, r12
     128:	c6 0d       	add	r28, r6
     12a:	61 0e       	add	r6, r17
     12c:	61 0e       	add	r6, r17
     12e:	61 0e       	add	r6, r17
     130:	61 0e       	add	r6, r17
     132:	61 0e       	add	r6, r17
     134:	61 0e       	add	r6, r17
     136:	61 0e       	add	r6, r17
     138:	61 0e       	add	r6, r17
     13a:	61 0e       	add	r6, r17
     13c:	61 0e       	add	r6, r17
     13e:	61 0e       	add	r6, r17
     140:	61 0e       	add	r6, r17
     142:	51 0e       	add	r5, r17

00000144 <CC1K_LPL_PreambleLength>:
     144:	00 1c       	adc	r0, r0
     146:	00 5e       	subi	r16, 0xE0	; 224
     148:	00 fa       	bst	r0, 0
     14a:	01 73       	andi	r16, 0x31	; 49
     14c:	01 ea       	ldi	r16, 0xA1	; 161
     14e:	04 bc       	out	0x24, r0	; 36
     150:	0a 5e       	subi	r16, 0xEA	; 234

00000152 <CC1K_LPL_ValidPrecursor>:
     152:	05 02       	muls	r16, r21
     154:	02 02       	muls	r16, r18
     156:	02 02       	muls	r16, r18
     158:	02 00       	.word	0x0002	; ????

00000159 <CC1K_LPL_SleepTime>:
     159:	00 00       	nop
     15b:	00 14       	cp	r0, r0
     15d:	00 55       	subi	r16, 0x50	; 80
     15f:	00 87       	std	Z+8, r16	; 0x08
     161:	00 b9       	out	0x00, r16	; 0
     163:	01 e5       	ldi	r16, 0x51	; 81
     165:	04 3d       	cpi	r16, 0xD4	; 212

00000167 <CC1K_LPL_SleepPreamble>:
     167:	00 08       	sbc	r0, r0
     169:	08 08       	sbc	r0, r8
     16b:	08 08       	sbc	r0, r8
     16d:	08 ae       	std	Y+56, r0	; 0x38

0000016e <CC1K_LPL_SquelchInit>:
     16e:	ae ef       	ldi	r26, 0xFE	; 254
     170:	ef ef       	ldi	r30, 0xFF	; 255
     172:	ef ef       	ldi	r30, 0xFF	; 255
     174:	ef 31       	cpi	r30, 0x1F	; 31

00000175 <CC1K_Params>:
     175:	31 58       	subi	r19, 0x81	; 129
     177:	00 00       	nop
     179:	57 f6       	brid	.-108    	; 0x10f
     17b:	85 03       	fmuls	r16, r21
     17d:	55 44       	sbci	r21, 0x45	; 69
     17f:	02 0f       	add	r16, r18
     181:	60 e0       	ldi	r22, 0x00	; 0
     183:	26 1c       	adc	r2, r6
     185:	6f 55       	subi	r22, 0x5F	; 95
     187:	70 01       	movw	r14, r0
     189:	00 00       	nop
     18b:	00 00       	nop
     18d:	00 00       	nop
     18f:	00 00       	nop
     191:	00 81       	ld	r16, Z
     193:	01 31       	cpi	r16, 0x11	; 17
     195:	7c 00       	.word	0x007c	; ????
     197:	00 7b       	andi	r16, 0xB0	; 176
     199:	f9 ae       	std	Y+57, r15	; 0x39
     19b:	02 38       	cpi	r16, 0x82	; 130
     19d:	8c 32       	cpi	r24, 0x2C	; 44
     19f:	80 40       	sbci	r24, 0x00	; 0
     1a1:	10 26       	eor	r1, r16
     1a3:	a1 6f       	ori	r26, 0xF1	; 241
     1a5:	55 10       	cpse	r5, r5
     1a7:	01 00       	.word	0x0001	; ????
     1a9:	00 00       	nop
     1ab:	00 00       	nop
     1ad:	00 00       	nop
     1af:	00 00       	nop
     1b1:	f3 01       	movw	r30, r6
     1b3:	31 51       	subi	r19, 0x11	; 17
     1b5:	00 00       	nop
     1b7:	50 f7       	brcc	.-44     	; 0x18d
     1b9:	4f 03       	fmul	r20, r23
     1bb:	0e 44       	sbci	r16, 0x4E	; 78
     1bd:	02 0f       	add	r16, r18
     1bf:	58 e0       	ldi	r21, 0x08	; 8
     1c1:	26 a1       	ldd	r18, Z+38	; 0x26
     1c3:	6f 55       	subi	r22, 0x5F	; 95
     1c5:	70 01       	movw	r14, r0
     1c7:	00 00       	nop
     1c9:	00 00       	nop
     1cb:	00 00       	nop
     1cd:	00 00       	nop
     1cf:	00 81       	ld	r16, Z
     1d1:	01 31       	cpi	r16, 0x11	; 17
     1d3:	5c e0       	ldi	r21, 0x0C	; 12
     1d5:	00 5c       	subi	r16, 0xC0	; 192
     1d7:	db 42       	sbci	r29, 0x2B	; 43
     1d9:	01 aa       	std	Z+49, r0	; 0x31
     1db:	8c 32       	cpi	r24, 0x2C	; 44
     1dd:	80 30       	cpi	r24, 0x00	; 0
     1df:	10 26       	eor	r1, r16
     1e1:	a1 6f       	ori	r26, 0xF1	; 241
     1e3:	55 10       	cpse	r5, r5
     1e5:	01 00       	.word	0x0001	; ????
     1e7:	00 00       	nop
     1e9:	00 00       	nop
     1eb:	00 00       	nop
     1ed:	00 00       	nop
     1ef:	f3 01       	movw	r30, r6
     1f1:	31 45       	sbci	r19, 0x51	; 81
     1f3:	60 00       	.word	0x0060	; ????
     1f5:	45 55       	subi	r20, 0x55	; 85
     1f7:	bb 03       	fmulsu	r19, r19
     1f9:	9c 80       	ldd	r9, Y+4	; 0x04
     1fb:	02 0f       	add	r16, r18
     1fd:	68 e0       	ldi	r22, 0x08	; 8
     1ff:	26 a1       	ldd	r18, Z+38	; 0x26
     201:	6f 54       	subi	r22, 0x4F	; 79
     203:	70 01       	movw	r14, r0
     205:	00 00       	nop
     207:	00 00       	nop
     209:	00 00       	nop
     20b:	00 00       	nop
     20d:	00 81       	ld	r16, Z
     20f:	01 31       	cpi	r16, 0x11	; 17
     211:	58 00       	.word	0x0058	; ????
     213:	00 57       	subi	r16, 0x70	; 112
     215:	f6 85       	ldd	r31, Z+14	; 0x0e
     217:	03 55       	subi	r16, 0x53	; 83
     219:	90 02       	muls	r25, r16
     21b:	0f 60       	ori	r16, 0x0F	; 15
     21d:	e0 26       	eor	r14, r16
     21f:	a1 6f       	ori	r26, 0xF1	; 241
     221:	55 70       	andi	r21, 0x05	; 5
     223:	01 00       	.word	0x0001	; ????
     225:	00 00       	nop
     227:	00 00       	nop
     229:	00 00       	nop
     22b:	00 00       	nop
     22d:	81 01       	movw	r16, r2

0000022f <crcTable>:
     22f:	00 00       	nop
     231:	21 10       	cpse	r2, r1
     233:	42 20       	and	r4, r2
     235:	63 30       	cpi	r22, 0x03	; 3
     237:	84 40       	sbci	r24, 0x04	; 4
     239:	a5 50       	subi	r26, 0x05	; 5
     23b:	c6 60       	ori	r28, 0x06	; 6
     23d:	e7 70       	andi	r30, 0x07	; 7
     23f:	08 81       	ld	r16, Y
     241:	29 91       	ld	r18, Y+
     243:	4a a1       	ldd	r20, Y+34	; 0x22
     245:	6b b1       	in	r22, 0x0b	; 11
     247:	8c c1       	rjmp	.+792    	; 0x561
     249:	ad d1       	rcall	.+858    	; 0x5a5
     24b:	ce e1       	ldi	r28, 0x1E	; 30
     24d:	ef f1       	brie	.+122    	; 0x2c9
     24f:	31 12       	cpse	r3, r17
     251:	10 02       	muls	r17, r16
     253:	73 32       	cpi	r23, 0x23	; 35
     255:	52 22       	and	r5, r18
     257:	b5 52       	subi	r27, 0x25	; 37
     259:	94 42       	sbci	r25, 0x24	; 36
     25b:	f7 72       	andi	r31, 0x27	; 39
     25d:	d6 62       	ori	r29, 0x26	; 38
     25f:	39 93       	st	Y+, r19
     261:	18 83       	st	Y, r17
     263:	7b b3       	in	r23, 0x1b	; 27
     265:	5a a3       	std	Y+34, r21	; 0x22
     267:	bd d3       	rcall	.+1914   	; 0x9e3
     269:	9c c3       	rjmp	.+1848   	; 0x9a3
     26b:	ff f3       	brie	.-2      	; 0x26b
     26d:	de e3       	ldi	r29, 0x3E	; 62
     26f:	62 24       	eor	r6, r2
     271:	43 34       	cpi	r20, 0x43	; 67
     273:	20 04       	cpc	r2, r0
     275:	01 14       	cp	r0, r1
     277:	e6 64       	ori	r30, 0x46	; 70
     279:	c7 74       	andi	r28, 0x47	; 71
     27b:	a4 44       	sbci	r26, 0x44	; 68
     27d:	85 54       	subi	r24, 0x45	; 69
     27f:	6a a5       	ldd	r22, Y+42	; 0x2a
     281:	4b b5       	in	r20, 0x2b	; 43
     283:	28 85       	ldd	r18, Y+8	; 0x08
     285:	09 95       	icall
     287:	ee e5       	ldi	r30, 0x5E	; 94
     289:	cf f5       	brid	.+114    	; 0x2fd
     28b:	ac c5       	rjmp	.+2904   	; 0xde5
     28d:	8d d5       	rcall	.+2842   	; 0xda9
     28f:	53 36       	cpi	r21, 0x63	; 99
     291:	72 26       	eor	r7, r18
     293:	11 16       	cp	r1, r17
     295:	30 06       	cpc	r3, r16
     297:	d7 76       	andi	r29, 0x67	; 103
     299:	f6 66       	ori	r31, 0x66	; 102
     29b:	95 56       	subi	r25, 0x65	; 101
     29d:	b4 46       	sbci	r27, 0x64	; 100
     29f:	5b b7       	in	r21, 0x3b	; 59
     2a1:	7a a7       	std	Y+42, r23	; 0x2a
     2a3:	19 97       	sbiw	r26, 0x09	; 9
     2a5:	38 87       	std	Y+8, r19	; 0x08
     2a7:	df f7       	brid	.-10     	; 0x29f
     2a9:	fe e7       	ldi	r31, 0x7E	; 126
     2ab:	9d d7       	rcall	.+3898   	; 0x11e7
     2ad:	bc c7       	rjmp	.+3960   	; 0x1227
     2af:	c4 48       	sbci	r28, 0x84	; 132
     2b1:	e5 58       	subi	r30, 0x85	; 133
     2b3:	86 68       	ori	r24, 0x86	; 134
     2b5:	a7 78       	andi	r26, 0x87	; 135
     2b7:	40 08       	sbc	r4, r0
     2b9:	61 18       	sub	r6, r1
     2bb:	02 28       	or	r0, r2
     2bd:	23 38       	cpi	r18, 0x83	; 131
     2bf:	cc c9       	rjmp	.-3176   	; 0xfffff659
     2c1:	ed d9       	rcall	.-3110   	; 0xfffff69d
     2c3:	8e e9       	ldi	r24, 0x9E	; 158
     2c5:	af f9       	.word	0xf9af	; ????
     2c7:	48 89       	ldd	r20, Y+16	; 0x10
     2c9:	69 99       	sbic	0x0d, 1	; 13
     2cb:	0a a9       	ldd	r16, Y+50	; 0x32
     2cd:	2b b9       	out	0x0b, r18	; 11
     2cf:	f5 5a       	subi	r31, 0xA5	; 165
     2d1:	d4 4a       	sbci	r29, 0xA4	; 164
     2d3:	b7 7a       	andi	r27, 0xA7	; 167
     2d5:	96 6a       	ori	r25, 0xA6	; 166
     2d7:	71 1a       	sub	r7, r17
     2d9:	50 0a       	sbc	r5, r16
     2db:	33 3a       	cpi	r19, 0xA3	; 163
     2dd:	12 2a       	or	r1, r18
     2df:	fd db       	rcall	.-2054   	; 0xfffffadb
     2e1:	dc cb       	rjmp	.-2120   	; 0xfffffa9b
     2e3:	bf fb       	.word	0xfbbf	; ????
     2e5:	9e eb       	ldi	r25, 0xBE	; 190
     2e7:	79 9b       	sbis	0x0f, 1	; 15
     2e9:	58 8b       	std	Y+16, r21	; 0x10
     2eb:	3b bb       	out	0x1b, r19	; 27
     2ed:	1a ab       	std	Y+50, r17	; 0x32
     2ef:	a6 6c       	ori	r26, 0xC6	; 198
     2f1:	87 7c       	andi	r24, 0xC7	; 199
     2f3:	e4 4c       	sbci	r30, 0xC4	; 196
     2f5:	c5 5c       	subi	r28, 0xC5	; 197
     2f7:	22 2c       	mov	r2, r2
     2f9:	03 3c       	cpi	r16, 0xC3	; 195
     2fb:	60 0c       	add	r6, r0
     2fd:	41 1c       	adc	r4, r1
     2ff:	ae ed       	ldi	r26, 0xDE	; 222
     301:	8f fd       	.word	0xfd8f	; ????
     303:	ec cd       	rjmp	.-1064   	; 0xfffffedd
     305:	cd dd       	rcall	.-1126   	; 0xfffffea1
     307:	2a ad       	ldd	r18, Y+58	; 0x3a
     309:	0b bd       	out	0x2b, r16	; 43
     30b:	68 8d       	ldd	r22, Y+24	; 0x18
     30d:	49 9d       	mul	r20, r9
     30f:	97 7e       	andi	r25, 0xE7	; 231
     311:	b6 6e       	ori	r27, 0xE6	; 230
     313:	d5 5e       	subi	r29, 0xE5	; 229
     315:	f4 4e       	sbci	r31, 0xE4	; 228
     317:	13 3e       	cpi	r17, 0xE3	; 227
     319:	32 2e       	mov	r3, r18
     31b:	51 1e       	adc	r5, r17
     31d:	70 0e       	add	r7, r16
     31f:	9f ff       	.word	0xff9f	; ????
     321:	be ef       	ldi	r27, 0xFE	; 254
     323:	dd df       	rcall	.-70     	; 0x2df
     325:	fc cf       	rjmp	.-8      	; 0x31f
     327:	1b bf       	out	0x3b, r17	; 59
     329:	3a af       	std	Y+58, r19	; 0x3a
     32b:	59 9f       	mul	r21, r25
     32d:	78 8f       	std	Y+24, r23	; 0x18
     32f:	88 91       	.word	0x9188	; ????
     331:	a9 81       	ldd	r26, Y+1	; 0x01
     333:	ca b1       	in	r28, 0x0a	; 10
     335:	eb a1       	ldd	r30, Y+35	; 0x23
     337:	0c d1       	rcall	.+536    	; 0x551
     339:	2d c1       	rjmp	.+602    	; 0x595
     33b:	4e f1       	brts	.+82     	; 0x38f
     33d:	6f e1       	ldi	r22, 0x1F	; 31
     33f:	80 10       	cpse	r8, r0
     341:	a1 00       	.word	0x00a1	; ????
     343:	c2 30       	cpi	r28, 0x02	; 2
     345:	e3 20       	and	r14, r3
     347:	04 50       	subi	r16, 0x04	; 4
     349:	25 40       	sbci	r18, 0x05	; 5
     34b:	46 70       	andi	r20, 0x06	; 6
     34d:	67 60       	ori	r22, 0x07	; 7
     34f:	b9 83       	std	Y+1, r27	; 0x01
     351:	98 93       	.word	0x9398	; ????
     353:	fb a3       	std	Y+35, r31	; 0x23
     355:	da b3       	in	r29, 0x1a	; 26
     357:	3d c3       	rjmp	.+1658   	; 0x9d3
     359:	1c d3       	rcall	.+1592   	; 0x993
     35b:	7f e3       	ldi	r23, 0x3F	; 63
     35d:	5e f3       	brts	.-42     	; 0x335
     35f:	b1 02       	muls	r27, r17
     361:	90 12       	cpse	r9, r16
     363:	f3 22       	and	r15, r19
     365:	d2 32       	cpi	r29, 0x22	; 34
     367:	35 42       	sbci	r19, 0x25	; 37
     369:	14 52       	subi	r17, 0x24	; 36
     36b:	77 62       	ori	r23, 0x27	; 39
     36d:	56 72       	andi	r21, 0x26	; 38
     36f:	ea b5       	in	r30, 0x2a	; 42
     371:	cb a5       	ldd	r28, Y+43	; 0x2b
     373:	a8 95       	wdr
     375:	89 85       	ldd	r24, Y+9	; 0x09
     377:	6e f5       	brtc	.+90     	; 0x3d3
     379:	4f e5       	ldi	r20, 0x5F	; 95
     37b:	2c d5       	rcall	.+2648   	; 0xdd5
     37d:	0d c5       	rjmp	.+2586   	; 0xd99
     37f:	e2 34       	cpi	r30, 0x42	; 66
     381:	c3 24       	eor	r12, r3
     383:	a0 14       	cp	r10, r0
     385:	81 04       	cpc	r8, r1
     387:	66 74       	andi	r22, 0x46	; 70
     389:	47 64       	ori	r20, 0x47	; 71
     38b:	24 54       	subi	r18, 0x44	; 68
     38d:	05 44       	sbci	r16, 0x45	; 69
     38f:	db a7       	std	Y+43, r29	; 0x2b
     391:	fa b7       	in	r31, 0x3a	; 58
     393:	99 87       	std	Y+9, r25	; 0x09
     395:	b8 97       	sbiw	r30, 0x28	; 40
     397:	5f e7       	ldi	r21, 0x7F	; 127
     399:	7e f7       	brtc	.-34     	; 0x379
     39b:	1d c7       	rjmp	.+3642   	; 0x11d7
     39d:	3c d7       	rcall	.+3704   	; 0x1217
     39f:	d3 26       	eor	r13, r19
     3a1:	f2 36       	cpi	r31, 0x62	; 98
     3a3:	91 06       	cpc	r9, r17
     3a5:	b0 16       	cp	r11, r16
     3a7:	57 66       	ori	r21, 0x67	; 103
     3a9:	76 76       	andi	r23, 0x66	; 102
     3ab:	15 46       	sbci	r17, 0x65	; 101
     3ad:	34 56       	subi	r19, 0x64	; 100
     3af:	4c d9       	rcall	.-3432   	; 0xfffff649
     3b1:	6d c9       	rjmp	.-3366   	; 0xfffff68d
     3b3:	0e f9       	.word	0xf90e	; ????
     3b5:	2f e9       	ldi	r18, 0x9F	; 159
     3b7:	c8 99       	sbic	0x19, 0	; 25
     3b9:	e9 89       	ldd	r30, Y+17	; 0x11
     3bb:	8a b9       	out	0x0a, r24	; 10
     3bd:	ab a9       	ldd	r26, Y+51	; 0x33
     3bf:	44 58       	subi	r20, 0x84	; 132
     3c1:	65 48       	sbci	r22, 0x85	; 133
     3c3:	06 78       	andi	r16, 0x86	; 134
     3c5:	27 68       	ori	r18, 0x87	; 135
     3c7:	c0 18       	sub	r12, r0
     3c9:	e1 08       	sbc	r14, r1
     3cb:	82 38       	cpi	r24, 0x82	; 130
     3cd:	a3 28       	or	r10, r3
     3cf:	7d cb       	rjmp	.-2310   	; 0xfffffacb
     3d1:	5c db       	rcall	.-2376   	; 0xfffffa8b
     3d3:	3f eb       	ldi	r19, 0xBF	; 191
     3d5:	1e fb       	.word	0xfb1e	; ????
     3d7:	f9 8b       	std	Y+17, r31	; 0x11
     3d9:	d8 9b       	sbis	0x1b, 0	; 27
     3db:	bb ab       	std	Y+51, r27	; 0x33
     3dd:	9a bb       	out	0x1a, r25	; 26
     3df:	75 4a       	sbci	r23, 0xA5	; 165
     3e1:	54 5a       	subi	r21, 0xA4	; 164
     3e3:	37 6a       	ori	r19, 0xA7	; 167
     3e5:	16 7a       	andi	r17, 0xA6	; 166
     3e7:	f1 0a       	sbc	r15, r17
     3e9:	d0 1a       	sub	r13, r16
     3eb:	b3 2a       	or	r11, r19
     3ed:	92 3a       	cpi	r25, 0xA2	; 162
     3ef:	2e fd       	.word	0xfd2e	; ????
     3f1:	0f ed       	ldi	r16, 0xDF	; 223
     3f3:	6c dd       	rcall	.-1320   	; 0xfffffecd
     3f5:	4d cd       	rjmp	.-1382   	; 0xfffffe91
     3f7:	aa bd       	out	0x2a, r26	; 42
     3f9:	8b ad       	ldd	r24, Y+59	; 0x3b
     3fb:	e8 9d       	mul	r30, r8
     3fd:	c9 8d       	ldd	r28, Y+25	; 0x19
     3ff:	26 7c       	andi	r18, 0xC6	; 198
     401:	07 6c       	ori	r16, 0xC7	; 199
     403:	64 5c       	subi	r22, 0xC4	; 196
     405:	45 4c       	sbci	r20, 0xC5	; 197
     407:	a2 3c       	cpi	r26, 0xC2	; 194
     409:	83 2c       	mov	r8, r3
     40b:	e0 1c       	adc	r14, r0
     40d:	c1 0c       	add	r12, r1
     40f:	1f ef       	ldi	r17, 0xFF	; 255
     411:	3e ff       	.word	0xff3e	; ????
     413:	5d cf       	rjmp	.-326    	; 0x2cf
     415:	7c df       	rcall	.-264    	; 0x30f
     417:	9b af       	std	Y+59, r25	; 0x3b
     419:	ba bf       	out	0x3a, r27	; 58
     41b:	d9 8f       	std	Y+25, r29	; 0x19
     41d:	f8 9f       	mul	r31, r24
     41f:	17 6e       	ori	r17, 0xE7	; 231
     421:	36 7e       	andi	r19, 0xE6	; 230
     423:	55 4e       	sbci	r21, 0xE5	; 229
     425:	74 5e       	subi	r23, 0xE4	; 228
     427:	93 2e       	mov	r9, r19
     429:	b2 3e       	cpi	r27, 0xE2	; 226
     42b:	d1 0e       	add	r13, r17
     42d:	f0 1e       	adc	r15, r16
     42f:	00 11       	cpse	r16, r0

00000430 <__init>:
     430:	11 24       	eor	r1, r1
     432:	1f be       	out	0x3f, r1	; 63
     434:	cf ef       	ldi	r28, 0xFF	; 255
     436:	d0 e1       	ldi	r29, 0x10	; 16
     438:	de bf       	out	0x3e, r29	; 62
     43a:	cd bf       	out	0x3d, r28	; 61

0000043c <__do_copy_data>:
     43c:	11 e0       	ldi	r17, 0x01	; 1
     43e:	a0 e0       	ldi	r26, 0x00	; 0
     440:	b1 e0       	ldi	r27, 0x01	; 1
     442:	e0 ec       	ldi	r30, 0xC0	; 192
     444:	f0 e4       	ldi	r31, 0x40	; 64
     446:	00 e0       	ldi	r16, 0x00	; 0
     448:	0b bf       	out	0x3b, r16	; 59
     44a:	02 c0       	rjmp	.+4      	; 0x450

0000044c <.__do_copy_data_loop>:
     44c:	07 90       	elpm	r0, Z+
     44e:	0d 92       	st	X+, r0

00000450 <.__do_copy_data_start>:
     450:	a8 30       	cpi	r26, 0x08	; 8
     452:	b1 07       	cpc	r27, r17
     454:	d9 f7       	brne	.-10     	; 0x44c

00000456 <__do_clear_bss>:
     456:	13 e0       	ldi	r17, 0x03	; 3
     458:	a8 e0       	ldi	r26, 0x08	; 8
     45a:	b1 e0       	ldi	r27, 0x01	; 1
     45c:	01 c0       	rjmp	.+2      	; 0x460

0000045e <.do_clear_bss_loop>:
     45e:	1d 92       	st	X+, r1

00000460 <.do_clear_bss_start>:
     460:	aa 35       	cpi	r26, 0x5A	; 90
     462:	b1 07       	cpc	r27, r17
     464:	e1 f7       	brne	.-8      	; 0x45e
     466:	0c 94 5f 03 	jmp	0x6be

0000046a <__bad_interrupt>:
     46a:	0c 94 00 00 	jmp	0x0

0000046e <__vector_17>:
     46e:	1f 92       	push	r1
     470:	0f 92       	push	r0
     472:	0f b6       	in	r0, 0x3f	; 63
     474:	0f 92       	push	r0
     476:	11 24       	eor	r1, r1
     478:	2f 93       	push	r18
     47a:	3f 93       	push	r19
     47c:	4f 93       	push	r20
     47e:	5f 93       	push	r21
     480:	6f 93       	push	r22
     482:	7f 93       	push	r23
     484:	8f 93       	push	r24
     486:	9f 93       	push	r25
     488:	af 93       	push	r26
     48a:	bf 93       	push	r27
     48c:	ef 93       	push	r30
     48e:	ff 93       	push	r31
     490:	9f b1       	in	r25, 0x0f	; 15
     492:	80 91 b6 01 	lds	r24, 0x01B6
     496:	8f b9       	out	0x0f, r24	; 15
     498:	89 2f       	mov	r24, r25
     49a:	0e 94 81 16 	call	0x2d02
     49e:	ff 91       	pop	r31
     4a0:	ef 91       	pop	r30
     4a2:	bf 91       	pop	r27
     4a4:	af 91       	pop	r26
     4a6:	9f 91       	pop	r25
     4a8:	8f 91       	pop	r24
     4aa:	7f 91       	pop	r23
     4ac:	6f 91       	pop	r22
     4ae:	5f 91       	pop	r21
     4b0:	4f 91       	pop	r20
     4b2:	3f 91       	pop	r19
     4b4:	2f 91       	pop	r18
     4b6:	0f 90       	pop	r0
     4b8:	0f be       	out	0x3f, r0	; 63
     4ba:	0f 90       	pop	r0
     4bc:	1f 90       	pop	r1
     4be:	18 95       	reti

000004c0 <TimerM$adjustInterval>:
     4c0:	af 92       	push	r10
     4c2:	bf 92       	push	r11
     4c4:	cf 92       	push	r12
     4c6:	df 92       	push	r13
     4c8:	ef 92       	push	r14
     4ca:	ff 92       	push	r15
     4cc:	0f 93       	push	r16
     4ce:	1f 93       	push	r17
     4d0:	cf 93       	push	r28
     4d2:	df 93       	push	r29
     4d4:	86 ee       	ldi	r24, 0xE6	; 230
     4d6:	f8 2e       	mov	r15, r24
     4d8:	a0 90 1d 03 	lds	r10, 0x031D
     4dc:	b0 90 1e 03 	lds	r11, 0x031E
     4e0:	c0 90 1f 03 	lds	r12, 0x031F
     4e4:	d0 90 20 03 	lds	r13, 0x0320
     4e8:	a1 14       	cp	r10, r1
     4ea:	b1 04       	cpc	r11, r1
     4ec:	c1 04       	cpc	r12, r1
     4ee:	d1 04       	cpc	r13, r1
     4f0:	81 f1       	breq	.+96     	; 0x552
     4f2:	ee 24       	eor	r14, r14
     4f4:	6c e1       	ldi	r22, 0x1C	; 28
     4f6:	72 e0       	ldi	r23, 0x02	; 2
     4f8:	00 e0       	ldi	r16, 0x00	; 0
     4fa:	10 e0       	ldi	r17, 0x00	; 0
     4fc:	81 e0       	ldi	r24, 0x01	; 1
     4fe:	90 e0       	ldi	r25, 0x00	; 0
     500:	00 2e       	mov	r0, r16
     502:	02 c0       	rjmp	.+4      	; 0x508
     504:	88 0f       	add	r24, r24
     506:	99 1f       	adc	r25, r25
     508:	0a 94       	dec	r0
     50a:	e2 f7       	brpl	.-8      	; 0x504
     50c:	aa 27       	eor	r26, r26
     50e:	97 fd       	sbrc	r25, 7
     510:	a0 95       	com	r26
     512:	ba 2f       	mov	r27, r26
     514:	8a 21       	and	r24, r10
     516:	9b 21       	and	r25, r11
     518:	ac 21       	and	r26, r12
     51a:	bd 21       	and	r27, r13
     51c:	00 97       	sbiw	r24, 0x00	; 0
     51e:	a1 05       	cpc	r26, r1
     520:	b1 05       	cpc	r27, r1
     522:	79 f0       	breq	.+30     	; 0x542
     524:	2f 2d       	mov	r18, r15
     526:	33 27       	eor	r19, r19
     528:	44 27       	eor	r20, r20
     52a:	55 27       	eor	r21, r21
     52c:	fb 01       	movw	r30, r22
     52e:	85 81       	ldd	r24, Z+5	; 0x05
     530:	96 81       	ldd	r25, Z+6	; 0x06
     532:	a7 81       	ldd	r26, Z+7	; 0x07
     534:	b0 85       	ldd	r27, Z+8	; 0x08
     536:	82 17       	cp	r24, r18
     538:	93 07       	cpc	r25, r19
     53a:	a4 07       	cpc	r26, r20
     53c:	b5 07       	cpc	r27, r21
     53e:	0c f4       	brge	.+2      	; 0x542
     540:	f5 80       	ldd	r15, Z+5	; 0x05
     542:	e3 94       	inc	r14
     544:	0f 5f       	subi	r16, 0xFF	; 255
     546:	1f 4f       	sbci	r17, 0xFF	; 255
     548:	67 5f       	subi	r22, 0xF7	; 247
     54a:	7f 4f       	sbci	r23, 0xFF	; 255
     54c:	f2 e0       	ldi	r31, 0x02	; 2
     54e:	fe 15       	cp	r31, r14
     550:	a8 f6       	brcc	.-86     	; 0x4fc
     552:	8f b7       	in	r24, 0x3f	; 63
     554:	f8 94       	cli
     556:	99 27       	eor	r25, r25
     558:	f0 92 d1 02 	sts	0x02D1, r15
     55c:	f1 be       	out	0x31, r15	; 49
     55e:	10 92 8b 02 	sts	0x028B, r1
     562:	8f bf       	out	0x3f, r24	; 63
     564:	0e 94 aa 07 	call	0xf54
     568:	df 91       	pop	r29
     56a:	cf 91       	pop	r28
     56c:	1f 91       	pop	r17
     56e:	0f 91       	pop	r16
     570:	ff 90       	pop	r15
     572:	ef 90       	pop	r14
     574:	df 90       	pop	r13
     576:	cf 90       	pop	r12
     578:	bf 90       	pop	r11
     57a:	af 90       	pop	r10
     57c:	08 95       	ret

0000057e <__vector_18>:
     57e:	1f 92       	push	r1
     580:	0f 92       	push	r0
     582:	0f b6       	in	r0, 0x3f	; 63
     584:	0f 92       	push	r0
     586:	11 24       	eor	r1, r1
     588:	2f 93       	push	r18
     58a:	3f 93       	push	r19
     58c:	4f 93       	push	r20
     58e:	5f 93       	push	r21
     590:	6f 93       	push	r22
     592:	7f 93       	push	r23
     594:	8f 93       	push	r24
     596:	9f 93       	push	r25
     598:	af 93       	push	r26
     59a:	bf 93       	push	r27
     59c:	ef 93       	push	r30
     59e:	ff 93       	push	r31
     5a0:	5f 9b       	sbis	0x0b, 7	; 11
     5a2:	06 c0       	rjmp	.+12     	; 0x5b0
     5a4:	8c b1       	in	r24, 0x0c	; 12
     5a6:	40 e0       	ldi	r20, 0x00	; 0
     5a8:	50 e0       	ldi	r21, 0x00	; 0
     5aa:	60 e0       	ldi	r22, 0x00	; 0
     5ac:	0e 94 99 19 	call	0x3332
     5b0:	ff 91       	pop	r31
     5b2:	ef 91       	pop	r30
     5b4:	bf 91       	pop	r27
     5b6:	af 91       	pop	r26
     5b8:	9f 91       	pop	r25
     5ba:	8f 91       	pop	r24
     5bc:	7f 91       	pop	r23
     5be:	6f 91       	pop	r22
     5c0:	5f 91       	pop	r21
     5c2:	4f 91       	pop	r20
     5c4:	3f 91       	pop	r19
     5c6:	2f 91       	pop	r18
     5c8:	0f 90       	pop	r0
     5ca:	0f be       	out	0x3f, r0	; 63
     5cc:	0f 90       	pop	r0
     5ce:	1f 90       	pop	r1
     5d0:	18 95       	reti

000005d2 <__vector_20>:
     5d2:	78 94       	sei
     5d4:	1f 92       	push	r1
     5d6:	0f 92       	push	r0
     5d8:	0f b6       	in	r0, 0x3f	; 63
     5da:	0f 92       	push	r0
     5dc:	11 24       	eor	r1, r1
     5de:	2f 93       	push	r18
     5e0:	3f 93       	push	r19
     5e2:	4f 93       	push	r20
     5e4:	5f 93       	push	r21
     5e6:	6f 93       	push	r22
     5e8:	7f 93       	push	r23
     5ea:	8f 93       	push	r24
     5ec:	9f 93       	push	r25
     5ee:	af 93       	push	r26
     5f0:	bf 93       	push	r27
     5f2:	ef 93       	push	r30
     5f4:	ff 93       	push	r31
     5f6:	0e 94 65 1b 	call	0x36ca
     5fa:	ff 91       	pop	r31
     5fc:	ef 91       	pop	r30
     5fe:	bf 91       	pop	r27
     600:	af 91       	pop	r26
     602:	9f 91       	pop	r25
     604:	8f 91       	pop	r24
     606:	7f 91       	pop	r23
     608:	6f 91       	pop	r22
     60a:	5f 91       	pop	r21
     60c:	4f 91       	pop	r20
     60e:	3f 91       	pop	r19
     610:	2f 91       	pop	r18
     612:	0f 90       	pop	r0
     614:	0f be       	out	0x3f, r0	; 63
     616:	0f 90       	pop	r0
     618:	1f 90       	pop	r1
     61a:	18 95       	reti

0000061c <__vector_3>:
     61c:	1f 92       	push	r1
     61e:	0f 92       	push	r0
     620:	0f b6       	in	r0, 0x3f	; 63
     622:	0f 92       	push	r0
     624:	11 24       	eor	r1, r1
     626:	2f 93       	push	r18
     628:	3f 93       	push	r19
     62a:	4f 93       	push	r20
     62c:	5f 93       	push	r21
     62e:	6f 93       	push	r22
     630:	7f 93       	push	r23
     632:	8f 93       	push	r24
     634:	9f 93       	push	r25
     636:	af 93       	push	r26
     638:	bf 93       	push	r27
     63a:	ef 93       	push	r30
     63c:	ff 93       	push	r31
     63e:	89 b7       	in	r24, 0x39	; 57
     640:	8b 7f       	andi	r24, 0xFB	; 251
     642:	89 bf       	out	0x39, r24	; 57
     644:	8e ee       	ldi	r24, 0xEE	; 238
     646:	9e e1       	ldi	r25, 0x1E	; 30
     648:	0e 94 37 03 	call	0x66e
     64c:	ff 91       	pop	r31
     64e:	ef 91       	pop	r30
     650:	bf 91       	pop	r27
     652:	af 91       	pop	r26
     654:	9f 91       	pop	r25
     656:	8f 91       	pop	r24
     658:	7f 91       	pop	r23
     65a:	6f 91       	pop	r22
     65c:	5f 91       	pop	r21
     65e:	4f 91       	pop	r20
     660:	3f 91       	pop	r19
     662:	2f 91       	pop	r18
     664:	0f 90       	pop	r0
     666:	0f be       	out	0x3f, r0	; 63
     668:	0f 90       	pop	r0
     66a:	1f 90       	pop	r1
     66c:	18 95       	reti

0000066e <TOS_post>:
     66e:	ac 01       	movw	r20, r24
     670:	8f b7       	in	r24, 0x3f	; 63
     672:	f8 94       	cli
     674:	28 2f       	mov	r18, r24
     676:	33 27       	eor	r19, r19
     678:	e0 91 67 02 	lds	r30, 0x0267
     67c:	80 91 67 02 	lds	r24, 0x0267
     680:	8f 5f       	subi	r24, 0xFF	; 255
     682:	80 93 67 02 	sts	0x0267, r24
     686:	80 91 67 02 	lds	r24, 0x0267
     68a:	87 70       	andi	r24, 0x07	; 7
     68c:	80 93 67 02 	sts	0x0267, r24
     690:	90 91 67 02 	lds	r25, 0x0267
     694:	80 91 d9 01 	lds	r24, 0x01D9
     698:	98 17       	cp	r25, r24
     69a:	59 f0       	breq	.+22     	; 0x6b2
     69c:	2f bf       	out	0x3f, r18	; 63
     69e:	ff 27       	eor	r31, r31
     6a0:	ee 0f       	add	r30, r30
     6a2:	ff 1f       	adc	r31, r31
     6a4:	eb 56       	subi	r30, 0x6B	; 107
     6a6:	fe 4f       	sbci	r31, 0xFE	; 254
     6a8:	40 83       	st	Z, r20
     6aa:	51 83       	std	Z+1, r21	; 0x01
     6ac:	81 e0       	ldi	r24, 0x01	; 1
     6ae:	90 e0       	ldi	r25, 0x00	; 0
     6b0:	08 95       	ret
     6b2:	e0 93 67 02 	sts	0x0267, r30
     6b6:	2f bf       	out	0x3f, r18	; 63
     6b8:	80 e0       	ldi	r24, 0x00	; 0
     6ba:	90 e0       	ldi	r25, 0x00	; 0
     6bc:	08 95       	ret

000006be <main>:
     6be:	cf ef       	ldi	r28, 0xFF	; 255
     6c0:	d0 e1       	ldi	r29, 0x10	; 16
     6c2:	de bf       	out	0x3e, r29	; 62
     6c4:	cd bf       	out	0x3d, r28	; 61
     6c6:	d2 9a       	sbi	0x1a, 2	; 26
     6c8:	d0 9a       	sbi	0x1a, 0	; 26
     6ca:	d1 9a       	sbi	0x1a, 1	; 26
     6cc:	d6 98       	cbi	0x1a, 6	; 26
     6ce:	a7 9a       	sbi	0x14, 7	; 20
     6d0:	a6 9a       	sbi	0x14, 6	; 20
     6d2:	a5 9a       	sbi	0x14, 5	; 20
     6d4:	a4 9a       	sbi	0x14, 4	; 20
     6d6:	a3 9a       	sbi	0x14, 3	; 20
     6d8:	a2 9a       	sbi	0x14, 2	; 20
     6da:	a1 9a       	sbi	0x14, 1	; 20
     6dc:	a0 9a       	sbi	0x14, 0	; 20
     6de:	8c 9a       	sbi	0x11, 4	; 17
     6e0:	8f 9a       	sbi	0x11, 7	; 17
     6e2:	8e 9a       	sbi	0x11, 6	; 17
     6e4:	bb 98       	cbi	0x17, 3	; 23
     6e6:	bf 98       	cbi	0x17, 7	; 23
     6e8:	d4 98       	cbi	0x1a, 4	; 26
     6ea:	dc 98       	cbi	0x1b, 4	; 27
     6ec:	d3 9a       	sbi	0x1a, 3	; 26
     6ee:	8b 9a       	sbi	0x11, 3	; 17
     6f0:	8d 9a       	sbi	0x11, 5	; 17
     6f2:	db 9a       	sbi	0x1b, 3	; 27
     6f4:	da 9a       	sbi	0x1b, 2	; 27
     6f6:	d8 9a       	sbi	0x1b, 0	; 27
     6f8:	d9 9a       	sbi	0x1b, 1	; 27
     6fa:	83 e0       	ldi	r24, 0x03	; 3
     6fc:	8c 5f       	subi	r24, 0xFC	; 252
     6fe:	87 39       	cpi	r24, 0x97	; 151
     700:	e8 f3       	brcs	.-6      	; 0x6fc
     702:	c0 e0       	ldi	r28, 0x00	; 0
     704:	8a e0       	ldi	r24, 0x0A	; 10
     706:	80 93 7c 01 	sts	0x017C, r24
     70a:	c0 93 67 02 	sts	0x0267, r28
     70e:	c0 93 d9 01 	sts	0x01D9, r28
     712:	c0 93 0d 02 	sts	0x020D, r28
     716:	c0 93 18 03 	sts	0x0318, r28
     71a:	c0 93 eb 02 	sts	0x02EB, r28
     71e:	10 92 e8 02 	sts	0x02E8, r1
     722:	10 92 e7 02 	sts	0x02E7, r1
     726:	10 92 e1 01 	sts	0x01E1, r1
     72a:	10 92 e0 01 	sts	0x01E0, r1
     72e:	c0 93 e2 02 	sts	0x02E2, r28
     732:	81 e0       	ldi	r24, 0x01	; 1
     734:	90 e0       	ldi	r25, 0x00	; 0
     736:	90 93 12 02 	sts	0x0212, r25
     73a:	80 93 11 02 	sts	0x0211, r24
     73e:	80 e1       	ldi	r24, 0x10	; 16
     740:	90 e0       	ldi	r25, 0x00	; 0
     742:	90 93 19 02 	sts	0x0219, r25
     746:	80 93 18 02 	sts	0x0218, r24
     74a:	87 ee       	ldi	r24, 0xE7	; 231
     74c:	93 e0       	ldi	r25, 0x03	; 3
     74e:	90 93 1b 02 	sts	0x021B, r25
     752:	80 93 1a 02 	sts	0x021A, r24
     756:	c0 93 23 03 	sts	0x0323, r28
     75a:	c0 93 64 01 	sts	0x0164, r28
     75e:	8f ef       	ldi	r24, 0xFF	; 255
     760:	80 93 81 01 	sts	0x0181, r24
     764:	c0 93 88 02 	sts	0x0288, r28
     768:	c0 93 77 01 	sts	0x0177, r28
     76c:	8d 5f       	subi	r24, 0xFD	; 253
     76e:	80 93 70 01 	sts	0x0170, r24
     772:	c0 93 68 01 	sts	0x0168, r28
     776:	8f e9       	ldi	r24, 0x9F	; 159
     778:	92 e0       	ldi	r25, 0x02	; 2
     77a:	90 93 9d 02 	sts	0x029D, r25
     77e:	80 93 9c 02 	sts	0x029C, r24
     782:	89 e2       	ldi	r24, 0x29	; 41
     784:	93 e0       	ldi	r25, 0x03	; 3
     786:	90 93 08 03 	sts	0x0308, r25
     78a:	80 93 07 03 	sts	0x0307, r24
     78e:	c0 93 f7 02 	sts	0x02F7, r28
     792:	c0 93 17 02 	sts	0x0217, r28
     796:	80 91 00 01 	lds	r24, 0x0100
     79a:	90 91 01 01 	lds	r25, 0x0101
     79e:	90 93 cc 02 	sts	0x02CC, r25
     7a2:	80 93 cb 02 	sts	0x02CB, r24
     7a6:	0e 94 84 04 	call	0x908
     7aa:	c0 93 8d 02 	sts	0x028D, r28
     7ae:	c0 93 8f 01 	sts	0x018F, r28
     7b2:	c0 93 89 01 	sts	0x0189, r28
     7b6:	c0 93 80 01 	sts	0x0180, r28
     7ba:	81 e0       	ldi	r24, 0x01	; 1
     7bc:	80 93 93 02 	sts	0x0293, r24
     7c0:	80 e0       	ldi	r24, 0x00	; 0
     7c2:	98 e0       	ldi	r25, 0x08	; 8
     7c4:	90 93 b0 01 	sts	0x01B0, r25
     7c8:	80 93 af 01 	sts	0x01AF, r24
     7cc:	90 93 ad 01 	sts	0x01AD, r25
     7d0:	80 93 ac 01 	sts	0x01AC, r24
     7d4:	80 91 b1 01 	lds	r24, 0x01B1
     7d8:	90 91 ae 01 	lds	r25, 0x01AE
     7dc:	82 60       	ori	r24, 0x02	; 2
     7de:	92 60       	ori	r25, 0x02	; 2
     7e0:	82 7e       	andi	r24, 0xE2	; 226
     7e2:	80 93 b1 01 	sts	0x01B1, r24
     7e6:	92 7e       	andi	r25, 0xE2	; 226
     7e8:	90 93 ae 01 	sts	0x01AE, r25
     7ec:	95 98       	cbi	0x12, 5	; 18
     7ee:	8d 9a       	sbi	0x11, 5	; 17
     7f0:	93 9a       	sbi	0x12, 3	; 18
     7f2:	8b 9a       	sbi	0x11, 3	; 17
     7f4:	92 98       	cbi	0x12, 2	; 18
     7f6:	8a 98       	cbi	0x11, 2	; 17
     7f8:	89 b7       	in	r24, 0x39	; 57
     7fa:	8b 7f       	andi	r24, 0xFB	; 251
     7fc:	89 bf       	out	0x39, r24	; 57
     7fe:	80 91 6a 00 	lds	r24, 0x006A
     802:	80 63       	ori	r24, 0x30	; 48
     804:	80 93 6a 00 	sts	0x006A, r24
     808:	8f b7       	in	r24, 0x3f	; 63
     80a:	f8 94       	cli
     80c:	99 27       	eor	r25, r25
     80e:	c0 93 f3 02 	sts	0x02F3, r28
     812:	da 9a       	sbi	0x1b, 2	; 27
     814:	d8 9a       	sbi	0x1b, 0	; 27
     816:	d9 9a       	sbi	0x1b, 1	; 27
     818:	8f bf       	out	0x3f, r24	; 63
     81a:	10 92 e5 02 	sts	0x02E5, r1
     81e:	10 92 e4 02 	sts	0x02E4, r1
     822:	8f b7       	in	r24, 0x3f	; 63
     824:	f8 94       	cli
     826:	99 27       	eor	r25, r25
     828:	da 9a       	sbi	0x1b, 2	; 27
     82a:	d8 9a       	sbi	0x1b, 0	; 27
     82c:	d9 9a       	sbi	0x1b, 1	; 27
     82e:	8f bf       	out	0x3f, r24	; 63
     830:	8f b7       	in	r24, 0x3f	; 63
     832:	f8 94       	cli
     834:	99 27       	eor	r25, r25
     836:	da 9a       	sbi	0x1b, 2	; 27
     838:	8f bf       	out	0x3f, r24	; 63
     83a:	8f b7       	in	r24, 0x3f	; 63
     83c:	f8 94       	cli
     83e:	99 27       	eor	r25, r25
     840:	d8 9a       	sbi	0x1b, 0	; 27
     842:	8f bf       	out	0x3f, r24	; 63
     844:	8f b7       	in	r24, 0x3f	; 63
     846:	f8 94       	cli
     848:	99 27       	eor	r25, r25
     84a:	d9 9a       	sbi	0x1b, 1	; 27
     84c:	8f bf       	out	0x3f, r24	; 63
     84e:	c0 93 13 03 	sts	0x0313, r28
     852:	0e 94 84 04 	call	0x908
     856:	0e 94 ee 05 	call	0xbdc
     85a:	82 ef       	ldi	r24, 0xF2	; 242
     85c:	9f e0       	ldi	r25, 0x0F	; 15
     85e:	0e 94 40 20 	call	0x4080
     862:	8f 3f       	cpi	r24, 0xFF	; 255
     864:	11 f0       	breq	.+4      	; 0x86a
     866:	80 93 02 01 	sts	0x0102, r24
     86a:	80 ef       	ldi	r24, 0xF0	; 240
     86c:	9f e0       	ldi	r25, 0x0F	; 15
     86e:	0e 94 48 20 	call	0x4090
     872:	9c 01       	movw	r18, r24
     874:	8f ef       	ldi	r24, 0xFF	; 255
     876:	2f 3f       	cpi	r18, 0xFF	; 255
     878:	38 07       	cpc	r19, r24
     87a:	41 f0       	breq	.+16     	; 0x88c
     87c:	8f b7       	in	r24, 0x3f	; 63
     87e:	f8 94       	cli
     880:	99 27       	eor	r25, r25
     882:	30 93 01 01 	sts	0x0101, r19
     886:	20 93 00 01 	sts	0x0100, r18
     88a:	8f bf       	out	0x3f, r24	; 63
     88c:	0e 94 e6 06 	call	0xdcc
     890:	2a ef       	ldi	r18, 0xFA	; 250
     892:	30 e0       	ldi	r19, 0x00	; 0
     894:	40 e0       	ldi	r20, 0x00	; 0
     896:	50 e0       	ldi	r21, 0x00	; 0
     898:	6c 2f       	mov	r22, r28
     89a:	8c 2f       	mov	r24, r28
     89c:	0e 94 bc 07 	call	0xf78
     8a0:	0e 94 e6 06 	call	0xdcc
     8a4:	78 94       	sei
     8a6:	90 91 d9 01 	lds	r25, 0x01D9
     8aa:	80 91 67 02 	lds	r24, 0x0267
     8ae:	98 17       	cp	r25, r24
     8b0:	19 f4       	brne	.+6      	; 0x8b8
     8b2:	80 e0       	ldi	r24, 0x00	; 0
     8b4:	90 e0       	ldi	r25, 0x00	; 0
     8b6:	1f c0       	rjmp	.+62     	; 0x8f6
     8b8:	8f b7       	in	r24, 0x3f	; 63
     8ba:	f8 94       	cli
     8bc:	28 2f       	mov	r18, r24
     8be:	33 27       	eor	r19, r19
     8c0:	90 91 d9 01 	lds	r25, 0x01D9
     8c4:	80 91 d9 01 	lds	r24, 0x01D9
     8c8:	8f 5f       	subi	r24, 0xFF	; 255
     8ca:	80 93 d9 01 	sts	0x01D9, r24
     8ce:	80 91 d9 01 	lds	r24, 0x01D9
     8d2:	87 70       	andi	r24, 0x07	; 7
     8d4:	80 93 d9 01 	sts	0x01D9, r24
     8d8:	e9 2f       	mov	r30, r25
     8da:	ff 27       	eor	r31, r31
     8dc:	ee 0f       	add	r30, r30
     8de:	ff 1f       	adc	r31, r31
     8e0:	eb 56       	subi	r30, 0x6B	; 107
     8e2:	fe 4f       	sbci	r31, 0xFE	; 254
     8e4:	80 81       	ld	r24, Z
     8e6:	91 81       	ldd	r25, Z+1	; 0x01
     8e8:	10 82       	st	Z, r1
     8ea:	11 82       	std	Z+1, r1	; 0x01
     8ec:	2f bf       	out	0x3f, r18	; 63
     8ee:	fc 01       	movw	r30, r24
     8f0:	09 95       	icall
     8f2:	81 e0       	ldi	r24, 0x01	; 1
     8f4:	90 e0       	ldi	r25, 0x00	; 0
     8f6:	88 23       	and	r24, r24
     8f8:	b1 f6       	brne	.-84     	; 0x8a6
     8fa:	85 b7       	in	r24, 0x35	; 53
     8fc:	80 62       	ori	r24, 0x20	; 32
     8fe:	85 bf       	out	0x35, r24	; 53
     900:	88 95       	sleep
     902:	00 00       	nop
     904:	00 00       	nop
     906:	cf cf       	rjmp	.-98     	; 0x8a6

00000908 <AMStandard$Control$init>:
     908:	1f 93       	push	r17
     90a:	cf 93       	push	r28
     90c:	df 93       	push	r29
     90e:	0e 94 ee 05 	call	0xbdc
     912:	0e 94 1d 06 	call	0xc3a
     916:	8f b7       	in	r24, 0x3f	; 63
     918:	f8 94       	cli
     91a:	99 27       	eor	r25, r25
     91c:	10 92 92 02 	sts	0x0292, r1
     920:	8f bf       	out	0x3f, r24	; 63
     922:	8f b7       	in	r24, 0x3f	; 63
     924:	f8 94       	cli
     926:	28 2f       	mov	r18, r24
     928:	33 27       	eor	r19, r19
     92a:	81 e0       	ldi	r24, 0x01	; 1
     92c:	90 e0       	ldi	r25, 0x00	; 0
     92e:	80 93 74 01 	sts	0x0174, r24
     932:	82 e0       	ldi	r24, 0x02	; 2
     934:	80 93 08 01 	sts	0x0108, r24
     938:	82 ee       	ldi	r24, 0xE2	; 226
     93a:	91 e0       	ldi	r25, 0x01	; 1
     93c:	90 93 8a 02 	sts	0x028A, r25
     940:	80 93 89 02 	sts	0x0289, r24
     944:	10 92 e6 01 	sts	0x01E6, r1
     948:	82 e2       	ldi	r24, 0x22	; 34
     94a:	90 e0       	ldi	r25, 0x00	; 0
     94c:	90 93 63 02 	sts	0x0263, r25
     950:	80 93 62 02 	sts	0x0262, r24
     954:	10 92 8e 01 	sts	0x018E, r1
     958:	10 92 22 03 	sts	0x0322, r1
     95c:	10 92 21 03 	sts	0x0321, r1
     960:	10 92 88 01 	sts	0x0188, r1
     964:	10 92 87 01 	sts	0x0187, r1
     968:	10 92 a7 01 	sts	0x01A7, r1
     96c:	10 92 a6 01 	sts	0x01A6, r1
     970:	10 92 71 01 	sts	0x0171, r1
     974:	10 92 6a 01 	sts	0x016A, r1
     978:	10 92 e9 02 	sts	0x02E9, r1
     97c:	8f ef       	ldi	r24, 0xFF	; 255
     97e:	9f ef       	ldi	r25, 0xFF	; 255
     980:	90 93 95 02 	sts	0x0295, r25
     984:	80 93 94 02 	sts	0x0294, r24
     988:	90 93 97 02 	sts	0x0297, r25
     98c:	80 93 96 02 	sts	0x0296, r24
     990:	10 92 15 02 	sts	0x0215, r1
     994:	10 92 ca 02 	sts	0x02CA, r1
     998:	ee e6       	ldi	r30, 0x6E	; 110
     99a:	f1 e0       	ldi	r31, 0x01	; 1
     99c:	84 91       	lpm	r24, Z
     99e:	99 27       	eor	r25, r25
     9a0:	90 93 10 02 	sts	0x0210, r25
     9a4:	80 93 0f 02 	sts	0x020F, r24
     9a8:	2f bf       	out	0x3f, r18	; 63
     9aa:	8f b7       	in	r24, 0x3f	; 63
     9ac:	f8 94       	cli
     9ae:	99 27       	eor	r25, r25
     9b0:	b9 98       	cbi	0x17, 1	; 23
     9b2:	bb 98       	cbi	0x17, 3	; 23
     9b4:	ba 98       	cbi	0x17, 2	; 23
     9b6:	6b 98       	cbi	0x0d, 3	; 13
     9b8:	6a 98       	cbi	0x0d, 2	; 13
     9ba:	6f 9a       	sbi	0x0d, 7	; 13
     9bc:	6e 9a       	sbi	0x0d, 6	; 13
     9be:	8f bf       	out	0x3f, r24	; 63
     9c0:	d6 98       	cbi	0x1a, 6	; 26
     9c2:	8c 9a       	sbi	0x11, 4	; 17
     9c4:	8e 9a       	sbi	0x11, 6	; 17
     9c6:	8f 9a       	sbi	0x11, 7	; 17
     9c8:	94 9a       	sbi	0x12, 4	; 18
     9ca:	97 9a       	sbi	0x12, 7	; 18
     9cc:	96 9a       	sbi	0x12, 6	; 18
     9ce:	6a e3       	ldi	r22, 0x3A	; 58
     9d0:	80 91 e6 01 	lds	r24, 0x01E6
     9d4:	0e 94 61 06 	call	0xcc2
     9d8:	6b e3       	ldi	r22, 0x3B	; 59
     9da:	80 e0       	ldi	r24, 0x00	; 0
     9dc:	0e 94 61 06 	call	0xcc2
     9e0:	80 ed       	ldi	r24, 0xD0	; 208
     9e2:	97 e0       	ldi	r25, 0x07	; 7
     9e4:	00 00       	nop
     9e6:	00 00       	nop
     9e8:	00 00       	nop
     9ea:	00 00       	nop
     9ec:	00 00       	nop
     9ee:	00 00       	nop
     9f0:	00 00       	nop
     9f2:	00 00       	nop
     9f4:	01 97       	sbiw	r24, 0x01	; 1
     9f6:	18 16       	cp	r1, r24
     9f8:	19 06       	cpc	r1, r25
     9fa:	a4 f3       	brlt	.-24     	; 0x9e4
     9fc:	80 e8       	ldi	r24, 0x80	; 128
     9fe:	80 93 c3 01 	sts	0x01C3, r24
     a02:	68 2f       	mov	r22, r24
     a04:	8b e0       	ldi	r24, 0x0B	; 11
     a06:	0e 94 61 06 	call	0xcc2
     a0a:	80 e9       	ldi	r24, 0x90	; 144
     a0c:	80 93 c5 01 	sts	0x01C5, r24
     a10:	68 2f       	mov	r22, r24
     a12:	84 e0       	ldi	r24, 0x04	; 4
     a14:	0e 94 61 06 	call	0xcc2
     a18:	10 92 c7 01 	sts	0x01C7, r1
     a1c:	8f e6       	ldi	r24, 0x6F	; 111
     a1e:	80 93 c8 01 	sts	0x01C8, r24
     a22:	85 e5       	ldi	r24, 0x55	; 85
     a24:	80 93 c9 01 	sts	0x01C9, r24
     a28:	0e 94 85 06 	call	0xd0a
     a2c:	11 e0       	ldi	r17, 0x01	; 1
     a2e:	10 93 cb 01 	sts	0x01CB, r17
     a32:	61 2f       	mov	r22, r17
     a34:	83 e1       	ldi	r24, 0x13	; 19
     a36:	0e 94 61 06 	call	0xcc2
     a3a:	10 93 d6 01 	sts	0x01D6, r17
     a3e:	88 eb       	ldi	r24, 0xB8	; 184
     a40:	91 e0       	ldi	r25, 0x01	; 1
     a42:	dc 01       	movw	r26, r24
     a44:	11 96       	adiw	r26, 0x01	; 1
     a46:	e6 e7       	ldi	r30, 0x76	; 118
     a48:	f1 e0       	ldi	r31, 0x01	; 1
     a4a:	9c 01       	movw	r18, r24
     a4c:	22 5e       	subi	r18, 0xE2	; 226
     a4e:	3f 4f       	sbci	r19, 0xFF	; 255
     a50:	84 91       	lpm	r24, Z
     a52:	8d 93       	st	X+, r24
     a54:	31 96       	adiw	r30, 0x01	; 1
     a56:	2a 17       	cp	r18, r26
     a58:	3b 07       	cpc	r19, r27
     a5a:	d4 f7       	brge	.-12     	; 0xa50
     a5c:	0e 94 85 06 	call	0xd0a
     a60:	11 e0       	ldi	r17, 0x01	; 1
     a62:	c9 eb       	ldi	r28, 0xB9	; 185
     a64:	d1 e0       	ldi	r29, 0x01	; 1
     a66:	89 91       	ld	r24, Y+
     a68:	68 2f       	mov	r22, r24
     a6a:	81 2f       	mov	r24, r17
     a6c:	0e 94 61 06 	call	0xcc2
     a70:	1f 5f       	subi	r17, 0xFF	; 255
     a72:	1d 30       	cpi	r17, 0x0D	; 13
     a74:	c0 f3       	brcs	.-16     	; 0xa66
     a76:	80 91 ca 01 	lds	r24, 0x01CA
     a7a:	68 2f       	mov	r22, r24
     a7c:	82 e1       	ldi	r24, 0x12	; 18
     a7e:	0e 94 61 06 	call	0xcc2
     a82:	60 e0       	ldi	r22, 0x00	; 0
     a84:	8b e0       	ldi	r24, 0x0B	; 11
     a86:	0e 94 61 06 	call	0xcc2
     a8a:	6f e3       	ldi	r22, 0x3F	; 63
     a8c:	82 e4       	ldi	r24, 0x42	; 66
     a8e:	0e 94 61 06 	call	0xcc2
     a92:	61 e1       	ldi	r22, 0x11	; 17
     a94:	80 e0       	ldi	r24, 0x00	; 0
     a96:	0e 94 61 06 	call	0xcc2
     a9a:	66 ea       	ldi	r22, 0xA6	; 166
     a9c:	8e e0       	ldi	r24, 0x0E	; 14
     a9e:	0e 94 61 06 	call	0xcc2
     aa2:	8e e0       	ldi	r24, 0x0E	; 14
     aa4:	0e 94 98 06 	call	0xd30
     aa8:	83 ff       	sbrs	r24, 3
     aaa:	fb cf       	rjmp	.-10     	; 0xaa2
     aac:	66 e2       	ldi	r22, 0x26	; 38
     aae:	8e e0       	ldi	r24, 0x0E	; 14
     ab0:	0e 94 61 06 	call	0xcc2
     ab4:	61 ee       	ldi	r22, 0xE1	; 225
     ab6:	80 e0       	ldi	r24, 0x00	; 0
     ab8:	0e 94 61 06 	call	0xcc2
     abc:	80 91 d5 01 	lds	r24, 0x01D5
     ac0:	68 2f       	mov	r22, r24
     ac2:	89 e0       	ldi	r24, 0x09	; 9
     ac4:	0e 94 61 06 	call	0xcc2
     ac8:	60 e0       	ldi	r22, 0x00	; 0
     aca:	8b e0       	ldi	r24, 0x0B	; 11
     acc:	0e 94 61 06 	call	0xcc2
     ad0:	66 ea       	ldi	r22, 0xA6	; 166
     ad2:	8e e0       	ldi	r24, 0x0E	; 14
     ad4:	0e 94 61 06 	call	0xcc2
     ad8:	ce e0       	ldi	r28, 0x0E	; 14
     ada:	8c 2f       	mov	r24, r28
     adc:	0e 94 98 06 	call	0xd30
     ae0:	83 ff       	sbrs	r24, 3
     ae2:	fa cf       	rjmp	.-12     	; 0xad8
     ae4:	66 e2       	ldi	r22, 0x26	; 38
     ae6:	8c 2f       	mov	r24, r28
     ae8:	0e 94 61 06 	call	0xcc2
     aec:	80 e9       	ldi	r24, 0x90	; 144
     aee:	80 93 c5 01 	sts	0x01C5, r24
     af2:	68 2f       	mov	r22, r24
     af4:	8d e0       	ldi	r24, 0x0D	; 13
     af6:	0e 94 61 06 	call	0xcc2
     afa:	80 91 d6 01 	lds	r24, 0x01D6
     afe:	28 2f       	mov	r18, r24
     b00:	33 27       	eor	r19, r19
     b02:	8f b7       	in	r24, 0x3f	; 63
     b04:	f8 94       	cli
     b06:	99 27       	eor	r25, r25
     b08:	20 93 0c 03 	sts	0x030C, r18
     b0c:	8f bf       	out	0x3f, r24	; 63
     b0e:	0e 94 cb 06 	call	0xd96
     b12:	8f b7       	in	r24, 0x3f	; 63
     b14:	f8 94       	cli
     b16:	99 27       	eor	r25, r25
     b18:	10 92 fa 02 	sts	0x02FA, r1
     b1c:	8f bf       	out	0x3f, r24	; 63
     b1e:	8f b7       	in	r24, 0x3f	; 63
     b20:	f8 94       	cli
     b22:	99 27       	eor	r25, r25
     b24:	10 92 58 03 	sts	0x0358, r1
     b28:	10 92 57 03 	sts	0x0357, r1
     b2c:	10 92 f9 02 	sts	0x02F9, r1
     b30:	10 92 f8 02 	sts	0x02F8, r1
     b34:	10 92 dd 01 	sts	0x01DD, r1
     b38:	10 92 dc 01 	sts	0x01DC, r1
     b3c:	8f bf       	out	0x3f, r24	; 63
     b3e:	0e 94 cb 06 	call	0xd96
     b42:	8f b7       	in	r24, 0x3f	; 63
     b44:	f8 94       	cli
     b46:	99 27       	eor	r25, r25
     b48:	c6 b9       	out	0x06, r28	; 6
     b4a:	17 b8       	out	0x07, r1	; 7
     b4c:	8f bf       	out	0x3f, r24	; 63
     b4e:	8f b7       	in	r24, 0x3f	; 63
     b50:	f8 94       	cli
     b52:	48 2f       	mov	r20, r24
     b54:	55 27       	eor	r21, r21
     b56:	20 91 00 01 	lds	r18, 0x0100
     b5a:	30 91 01 01 	lds	r19, 0x0101
     b5e:	81 e5       	ldi	r24, 0x51	; 81
     b60:	97 e3       	ldi	r25, 0x37	; 55
     b62:	28 9f       	mul	r18, r24
     b64:	b0 01       	movw	r22, r0
     b66:	29 9f       	mul	r18, r25
     b68:	70 0d       	add	r23, r0
     b6a:	38 9f       	mul	r19, r24
     b6c:	70 0d       	add	r23, r0
     b6e:	11 24       	eor	r1, r1
     b70:	cb 01       	movw	r24, r22
     b72:	8f 5a       	subi	r24, 0xAF	; 175
     b74:	98 4c       	sbci	r25, 0xC8	; 200
     b76:	90 93 e1 02 	sts	0x02E1, r25
     b7a:	80 93 e0 02 	sts	0x02E0, r24
     b7e:	90 93 28 03 	sts	0x0328, r25
     b82:	80 93 27 03 	sts	0x0327, r24
     b86:	85 e8       	ldi	r24, 0x85	; 133
     b88:	9f e0       	ldi	r25, 0x0F	; 15
     b8a:	28 9f       	mul	r18, r24
     b8c:	b0 01       	movw	r22, r0
     b8e:	29 9f       	mul	r18, r25
     b90:	70 0d       	add	r23, r0
     b92:	38 9f       	mul	r19, r24
     b94:	70 0d       	add	r23, r0
     b96:	11 24       	eor	r1, r1
     b98:	cb 01       	movw	r24, r22
     b9a:	8b 57       	subi	r24, 0x7B	; 123
     b9c:	90 4f       	sbci	r25, 0xF0	; 240
     b9e:	90 93 7e 01 	sts	0x017E, r25
     ba2:	80 93 7d 01 	sts	0x017D, r24
     ba6:	4f bf       	out	0x3f, r20	; 63
     ba8:	0e 94 ee 05 	call	0xbdc
     bac:	80 91 00 01 	lds	r24, 0x0100
     bb0:	90 91 01 01 	lds	r25, 0x0101
     bb4:	90 93 1a 03 	sts	0x031A, r25
     bb8:	80 93 19 03 	sts	0x0319, r24
     bbc:	10 92 1c 03 	sts	0x031C, r1
     bc0:	10 92 15 03 	sts	0x0315, r1
     bc4:	10 92 14 03 	sts	0x0314, r1
     bc8:	10 92 14 02 	sts	0x0214, r1
     bcc:	10 92 13 02 	sts	0x0213, r1
     bd0:	81 e0       	ldi	r24, 0x01	; 1
     bd2:	90 e0       	ldi	r25, 0x00	; 0
     bd4:	df 91       	pop	r29
     bd6:	cf 91       	pop	r28
     bd8:	1f 91       	pop	r17
     bda:	08 95       	ret

00000bdc <TimerM$StdControl$init>:
     bdc:	10 92 1d 03 	sts	0x031D, r1
     be0:	10 92 1e 03 	sts	0x031E, r1
     be4:	10 92 1f 03 	sts	0x031F, r1
     be8:	10 92 20 03 	sts	0x0320, r1
     bec:	10 92 8b 02 	sts	0x028B, r1
     bf0:	8f ef       	ldi	r24, 0xFF	; 255
     bf2:	80 93 26 03 	sts	0x0326, r24
     bf6:	80 93 67 01 	sts	0x0167, r24
     bfa:	10 92 93 01 	sts	0x0193, r1
     bfe:	83 e0       	ldi	r24, 0x03	; 3
     c00:	80 93 8c 02 	sts	0x028C, r24
     c04:	96 ee       	ldi	r25, 0xE6	; 230
     c06:	90 93 d1 02 	sts	0x02D1, r25
     c0a:	8f b7       	in	r24, 0x3f	; 63
     c0c:	f8 94       	cli
     c0e:	28 2f       	mov	r18, r24
     c10:	33 27       	eor	r19, r19
     c12:	87 b7       	in	r24, 0x37	; 55
     c14:	8e 7f       	andi	r24, 0xFE	; 254
     c16:	87 bf       	out	0x37, r24	; 55
     c18:	87 b7       	in	r24, 0x37	; 55
     c1a:	8d 7f       	andi	r24, 0xFD	; 253
     c1c:	87 bf       	out	0x37, r24	; 55
     c1e:	80 b7       	in	r24, 0x30	; 48
     c20:	88 60       	ori	r24, 0x08	; 8
     c22:	80 bf       	out	0x30, r24	; 48
     c24:	8b e0       	ldi	r24, 0x0B	; 11
     c26:	83 bf       	out	0x33, r24	; 51
     c28:	12 be       	out	0x32, r1	; 50
     c2a:	91 bf       	out	0x31, r25	; 49
     c2c:	87 b7       	in	r24, 0x37	; 55
     c2e:	82 60       	ori	r24, 0x02	; 2
     c30:	87 bf       	out	0x37, r24	; 55
     c32:	2f bf       	out	0x3f, r18	; 63
     c34:	81 e0       	ldi	r24, 0x01	; 1
     c36:	90 e0       	ldi	r25, 0x00	; 0
     c38:	08 95       	ret

00000c3a <FramerM$HDLCInitialize>:
     c3a:	8f b7       	in	r24, 0x3f	; 63
     c3c:	f8 94       	cli
     c3e:	68 2f       	mov	r22, r24
     c40:	80 e0       	ldi	r24, 0x00	; 0
     c42:	90 e0       	ldi	r25, 0x00	; 0
     c44:	4e e0       	ldi	r20, 0x0E	; 14
     c46:	51 e0       	ldi	r21, 0x01	; 1
     c48:	9c 01       	movw	r18, r24
     c4a:	f9 01       	movw	r30, r18
     c4c:	e8 0f       	add	r30, r24
     c4e:	f9 1f       	adc	r31, r25
     c50:	ec 52       	subi	r30, 0x2C	; 44
     c52:	fd 4f       	sbci	r31, 0xFD	; 253
     c54:	44 83       	std	Z+4, r20	; 0x04
     c56:	55 83       	std	Z+5, r21	; 0x05
     c58:	12 82       	std	Z+2, r1	; 0x02
     c5a:	13 82       	std	Z+3, r1	; 0x03
     c5c:	11 82       	std	Z+1, r1	; 0x01
     c5e:	01 96       	adiw	r24, 0x01	; 1
     c60:	2b 5f       	subi	r18, 0xFB	; 251
     c62:	3f 4f       	sbci	r19, 0xFF	; 255
     c64:	45 5d       	subi	r20, 0xD5	; 213
     c66:	5f 4f       	sbci	r21, 0xFF	; 255
     c68:	82 30       	cpi	r24, 0x02	; 2
     c6a:	91 05       	cpc	r25, r1
     c6c:	74 f3       	brlt	.-36     	; 0xc4a
     c6e:	10 92 0b 03 	sts	0x030B, r1
     c72:	10 92 65 02 	sts	0x0265, r1
     c76:	10 92 64 02 	sts	0x0264, r1
     c7a:	10 92 76 01 	sts	0x0176, r1
     c7e:	10 92 75 01 	sts	0x0175, r1
     c82:	10 92 0d 01 	sts	0x010D, r1
     c86:	10 92 0c 01 	sts	0x010C, r1
     c8a:	10 92 66 01 	sts	0x0166, r1
     c8e:	10 92 65 01 	sts	0x0165, r1
     c92:	10 92 06 03 	sts	0x0306, r1
     c96:	10 92 9a 02 	sts	0x029A, r1
     c9a:	10 92 0f 03 	sts	0x030F, r1
     c9e:	10 92 84 01 	sts	0x0184, r1
     ca2:	10 92 83 01 	sts	0x0183, r1
     ca6:	10 92 aa 01 	sts	0x01AA, r1
     caa:	10 92 a9 01 	sts	0x01A9, r1
     cae:	80 91 d8 02 	lds	r24, 0x02D8
     cb2:	90 91 d9 02 	lds	r25, 0x02D9
     cb6:	90 93 ef 02 	sts	0x02EF, r25
     cba:	80 93 ee 02 	sts	0x02EE, r24
     cbe:	6f bf       	out	0x3f, r22	; 63
     cc0:	08 95       	ret

00000cc2 <HPLCC1000M$HPLCC1000$write>:
     cc2:	88 0f       	add	r24, r24
     cc4:	94 98       	cbi	0x12, 4	; 18
     cc6:	96 e0       	ldi	r25, 0x06	; 6
     cc8:	87 ff       	sbrs	r24, 7
     cca:	02 c0       	rjmp	.+4      	; 0xcd0
     ccc:	97 9a       	sbi	0x12, 7	; 18
     cce:	01 c0       	rjmp	.+2      	; 0xcd2
     cd0:	97 98       	cbi	0x12, 7	; 18
     cd2:	96 98       	cbi	0x12, 6	; 18
     cd4:	96 9a       	sbi	0x12, 6	; 18
     cd6:	88 0f       	add	r24, r24
     cd8:	91 50       	subi	r25, 0x01	; 1
     cda:	97 ff       	sbrs	r25, 7
     cdc:	f5 cf       	rjmp	.-22     	; 0xcc8
     cde:	97 9a       	sbi	0x12, 7	; 18
     ce0:	96 98       	cbi	0x12, 6	; 18
     ce2:	96 9a       	sbi	0x12, 6	; 18
     ce4:	94 9a       	sbi	0x12, 4	; 18
     ce6:	97 e0       	ldi	r25, 0x07	; 7
     ce8:	67 ff       	sbrs	r22, 7
     cea:	02 c0       	rjmp	.+4      	; 0xcf0
     cec:	97 9a       	sbi	0x12, 7	; 18
     cee:	01 c0       	rjmp	.+2      	; 0xcf2
     cf0:	97 98       	cbi	0x12, 7	; 18
     cf2:	96 98       	cbi	0x12, 6	; 18
     cf4:	96 9a       	sbi	0x12, 6	; 18
     cf6:	66 0f       	add	r22, r22
     cf8:	91 50       	subi	r25, 0x01	; 1
     cfa:	97 ff       	sbrs	r25, 7
     cfc:	f5 cf       	rjmp	.-22     	; 0xce8
     cfe:	94 9a       	sbi	0x12, 4	; 18
     d00:	97 9a       	sbi	0x12, 7	; 18
     d02:	96 9a       	sbi	0x12, 6	; 18
     d04:	81 e0       	ldi	r24, 0x01	; 1
     d06:	90 e0       	ldi	r25, 0x00	; 0
     d08:	08 95       	ret

00000d0a <CC1000ControlM$cc1000SetModem>:
     d0a:	80 91 c7 01 	lds	r24, 0x01C7
     d0e:	68 2f       	mov	r22, r24
     d10:	8f e0       	ldi	r24, 0x0F	; 15
     d12:	0e 94 61 06 	call	0xcc2
     d16:	80 91 c8 01 	lds	r24, 0x01C8
     d1a:	68 2f       	mov	r22, r24
     d1c:	80 e1       	ldi	r24, 0x10	; 16
     d1e:	0e 94 61 06 	call	0xcc2
     d22:	80 91 c9 01 	lds	r24, 0x01C9
     d26:	68 2f       	mov	r22, r24
     d28:	81 e1       	ldi	r24, 0x11	; 17
     d2a:	0e 94 61 06 	call	0xcc2
     d2e:	08 95       	ret

00000d30 <HPLCC1000M$HPLCC1000$read>:
     d30:	90 e0       	ldi	r25, 0x00	; 0
     d32:	88 0f       	add	r24, r24
     d34:	94 98       	cbi	0x12, 4	; 18
     d36:	26 e0       	ldi	r18, 0x06	; 6
     d38:	30 e0       	ldi	r19, 0x00	; 0
     d3a:	87 ff       	sbrs	r24, 7
     d3c:	02 c0       	rjmp	.+4      	; 0xd42
     d3e:	97 9a       	sbi	0x12, 7	; 18
     d40:	01 c0       	rjmp	.+2      	; 0xd44
     d42:	97 98       	cbi	0x12, 7	; 18
     d44:	96 98       	cbi	0x12, 6	; 18
     d46:	96 9a       	sbi	0x12, 6	; 18
     d48:	88 0f       	add	r24, r24
     d4a:	21 50       	subi	r18, 0x01	; 1
     d4c:	30 40       	sbci	r19, 0x00	; 0
     d4e:	37 ff       	sbrs	r19, 7
     d50:	f4 cf       	rjmp	.-24     	; 0xd3a
     d52:	27 e0       	ldi	r18, 0x07	; 7
     d54:	30 e0       	ldi	r19, 0x00	; 0
     d56:	97 98       	cbi	0x12, 7	; 18
     d58:	96 98       	cbi	0x12, 6	; 18
     d5a:	96 9a       	sbi	0x12, 6	; 18
     d5c:	8f 98       	cbi	0x11, 7	; 17
     d5e:	94 9a       	sbi	0x12, 4	; 18
     d60:	96 98       	cbi	0x12, 6	; 18
     d62:	40 e0       	ldi	r20, 0x00	; 0
     d64:	50 e0       	ldi	r21, 0x00	; 0
     d66:	87 99       	sbic	0x10, 7	; 16
     d68:	41 e0       	ldi	r20, 0x01	; 1
     d6a:	89 2f       	mov	r24, r25
     d6c:	99 27       	eor	r25, r25
     d6e:	21 50       	subi	r18, 0x01	; 1
     d70:	30 40       	sbci	r19, 0x00	; 0
     d72:	44 23       	and	r20, r20
     d74:	29 f0       	breq	.+10     	; 0xd80
     d76:	88 0f       	add	r24, r24
     d78:	99 1f       	adc	r25, r25
     d7a:	98 2f       	mov	r25, r24
     d7c:	91 60       	ori	r25, 0x01	; 1
     d7e:	02 c0       	rjmp	.+4      	; 0xd84
     d80:	98 2f       	mov	r25, r24
     d82:	99 0f       	add	r25, r25
     d84:	96 9a       	sbi	0x12, 6	; 18
     d86:	37 ff       	sbrs	r19, 7
     d88:	eb cf       	rjmp	.-42     	; 0xd60
     d8a:	94 9a       	sbi	0x12, 4	; 18
     d8c:	8f 9a       	sbi	0x11, 7	; 17
     d8e:	97 9a       	sbi	0x12, 7	; 18
     d90:	89 2f       	mov	r24, r25
     d92:	99 27       	eor	r25, r25
     d94:	08 95       	ret

00000d96 <HPLADCM$init_portmap>:
     d96:	8f b7       	in	r24, 0x3f	; 63
     d98:	f8 94       	cli
     d9a:	28 2f       	mov	r18, r24
     d9c:	80 91 82 01 	lds	r24, 0x0182
     da0:	88 23       	and	r24, r24
     da2:	91 f4       	brne	.+36     	; 0xdc8
     da4:	80 e0       	ldi	r24, 0x00	; 0
     da6:	90 e0       	ldi	r25, 0x00	; 0
     da8:	ea ef       	ldi	r30, 0xFA	; 250
     daa:	f2 e0       	ldi	r31, 0x02	; 2
     dac:	81 93       	st	Z+, r24
     dae:	01 96       	adiw	r24, 0x01	; 1
     db0:	8c 30       	cpi	r24, 0x0C	; 12
     db2:	91 05       	cpc	r25, r1
     db4:	dc f3       	brlt	.-10     	; 0xdac
     db6:	8e e1       	ldi	r24, 0x1E	; 30
     db8:	80 93 04 03 	sts	0x0304, r24
     dbc:	8f e1       	ldi	r24, 0x1F	; 31
     dbe:	80 93 05 03 	sts	0x0305, r24
     dc2:	81 e0       	ldi	r24, 0x01	; 1
     dc4:	80 93 82 01 	sts	0x0182, r24
     dc8:	2f bf       	out	0x3f, r18	; 63
     dca:	08 95       	ret

00000dcc <AMStandard$Control$start>:
     dcc:	1f 93       	push	r17
     dce:	0e 94 1d 06 	call	0xc3a
     dd2:	10 92 90 00 	sts	0x0090, r1
     dd6:	8f e0       	ldi	r24, 0x0F	; 15
     dd8:	89 b9       	out	0x09, r24	; 9
     dda:	72 e0       	ldi	r23, 0x02	; 2
     ddc:	7b b9       	out	0x0b, r23	; 11
     dde:	a6 e0       	ldi	r26, 0x06	; 6
     de0:	a0 93 95 00 	sts	0x0095, r26
     de4:	88 ed       	ldi	r24, 0xD8	; 216
     de6:	8a b9       	out	0x0a, r24	; 10
     de8:	8f b7       	in	r24, 0x3f	; 63
     dea:	f8 94       	cli
     dec:	99 27       	eor	r25, r25
     dee:	60 91 74 01 	lds	r22, 0x0174
     df2:	8f bf       	out	0x3f, r24	; 63
     df4:	61 30       	cpi	r22, 0x01	; 1
     df6:	09 f0       	breq	.+2      	; 0xdfa
     df8:	7d c0       	rjmp	.+250    	; 0xef4
     dfa:	8f b7       	in	r24, 0x3f	; 63
     dfc:	f8 94       	cli
     dfe:	48 2f       	mov	r20, r24
     e00:	55 27       	eor	r21, r21
     e02:	e0 91 89 02 	lds	r30, 0x0289
     e06:	f0 91 8a 02 	lds	r31, 0x028A
     e0a:	14 82       	std	Z+4, r1	; 0x04
     e0c:	70 93 74 01 	sts	0x0174, r23
     e10:	10 92 6a 01 	sts	0x016A, r1
     e14:	10 92 71 01 	sts	0x0171, r1
     e18:	8f ef       	ldi	r24, 0xFF	; 255
     e1a:	9f ef       	ldi	r25, 0xFF	; 255
     e1c:	90 93 95 02 	sts	0x0295, r25
     e20:	80 93 94 02 	sts	0x0294, r24
     e24:	80 91 15 02 	lds	r24, 0x0215
     e28:	99 27       	eor	r25, r25
     e2a:	88 0f       	add	r24, r24
     e2c:	99 1f       	adc	r25, r25
     e2e:	fc 01       	movw	r30, r24
     e30:	ec 5b       	subi	r30, 0xBC	; 188
     e32:	fe 4f       	sbci	r31, 0xFE	; 254
     e34:	24 91       	lpm	r18, Z
     e36:	33 27       	eor	r19, r19
     e38:	32 2f       	mov	r19, r18
     e3a:	22 27       	eor	r18, r18
     e3c:	8b 5b       	subi	r24, 0xBB	; 187
     e3e:	9e 4f       	sbci	r25, 0xFE	; 254
     e40:	fc 01       	movw	r30, r24
     e42:	84 91       	lpm	r24, Z
     e44:	99 27       	eor	r25, r25
     e46:	28 2b       	or	r18, r24
     e48:	39 2b       	or	r19, r25
     e4a:	30 93 86 01 	sts	0x0186, r19
     e4e:	20 93 85 01 	sts	0x0185, r18
     e52:	4f bf       	out	0x3f, r20	; 63
     e54:	80 91 ca 02 	lds	r24, 0x02CA
     e58:	88 23       	and	r24, r24
     e5a:	69 f5       	brne	.+90     	; 0xeb6
     e5c:	6b e3       	ldi	r22, 0x3B	; 59
     e5e:	0e 94 61 06 	call	0xcc2
     e62:	80 ed       	ldi	r24, 0xD0	; 208
     e64:	97 e0       	ldi	r25, 0x07	; 7
     e66:	00 00       	nop
     e68:	00 00       	nop
     e6a:	00 00       	nop
     e6c:	00 00       	nop
     e6e:	00 00       	nop
     e70:	00 00       	nop
     e72:	00 00       	nop
     e74:	00 00       	nop
     e76:	01 97       	sbiw	r24, 0x01	; 1
     e78:	18 16       	cp	r1, r24
     e7a:	19 06       	cpc	r1, r25
     e7c:	a4 f3       	brlt	.-24     	; 0xe66
     e7e:	69 e3       	ldi	r22, 0x39	; 57
     e80:	80 e0       	ldi	r24, 0x00	; 0
     e82:	0e 94 61 06 	call	0xcc2
     e86:	88 ec       	ldi	r24, 0xC8	; 200
     e88:	90 e0       	ldi	r25, 0x00	; 0
     e8a:	00 00       	nop
     e8c:	00 00       	nop
     e8e:	00 00       	nop
     e90:	00 00       	nop
     e92:	00 00       	nop
     e94:	00 00       	nop
     e96:	00 00       	nop
     e98:	00 00       	nop
     e9a:	01 97       	sbiw	r24, 0x01	; 1
     e9c:	18 16       	cp	r1, r24
     e9e:	19 06       	cpc	r1, r25
     ea0:	a4 f3       	brlt	.-24     	; 0xe8a
     ea2:	bb 98       	cbi	0x17, 3	; 23
     ea4:	ba 98       	cbi	0x17, 2	; 23
     ea6:	0e 94 8b 07 	call	0xf16
     eaa:	80 ec       	ldi	r24, 0xC0	; 192
     eac:	8d b9       	out	0x0d, r24	; 13
     eae:	b8 98       	cbi	0x17, 0	; 23
     eb0:	0e 94 aa 07 	call	0xf54
     eb4:	1f c0       	rjmp	.+62     	; 0xef4
     eb6:	99 27       	eor	r25, r25
     eb8:	88 0f       	add	r24, r24
     eba:	99 1f       	adc	r25, r25
     ebc:	fc 01       	movw	r30, r24
     ebe:	e7 5a       	subi	r30, 0xA7	; 167
     ec0:	fe 4f       	sbci	r31, 0xFE	; 254
     ec2:	24 91       	lpm	r18, Z
     ec4:	33 27       	eor	r19, r19
     ec6:	32 2f       	mov	r19, r18
     ec8:	22 27       	eor	r18, r18
     eca:	86 5a       	subi	r24, 0xA6	; 166
     ecc:	9e 4f       	sbci	r25, 0xFE	; 254
     ece:	fc 01       	movw	r30, r24
     ed0:	84 91       	lpm	r24, Z
     ed2:	99 27       	eor	r25, r25
     ed4:	28 2b       	or	r18, r24
     ed6:	39 2b       	or	r19, r25
     ed8:	8f b7       	in	r24, 0x3f	; 63
     eda:	f8 94       	cli
     edc:	99 27       	eor	r25, r25
     ede:	a0 93 74 01 	sts	0x0174, r26
     ee2:	8f bf       	out	0x3f, r24	; 63
     ee4:	c9 01       	movw	r24, r18
     ee6:	aa 27       	eor	r26, r26
     ee8:	bb 27       	eor	r27, r27
     eea:	9c 01       	movw	r18, r24
     eec:	ad 01       	movw	r20, r26
     eee:	87 2f       	mov	r24, r23
     ef0:	0e 94 bc 07 	call	0xf78
     ef4:	28 ee       	ldi	r18, 0xE8	; 232
     ef6:	33 e0       	ldi	r19, 0x03	; 3
     ef8:	40 e0       	ldi	r20, 0x00	; 0
     efa:	50 e0       	ldi	r21, 0x00	; 0
     efc:	60 e0       	ldi	r22, 0x00	; 0
     efe:	81 e0       	ldi	r24, 0x01	; 1
     f00:	0e 94 bc 07 	call	0xf78
     f04:	18 2f       	mov	r17, r24
     f06:	10 92 1c 03 	sts	0x031C, r1
     f0a:	0e 94 aa 07 	call	0xf54
     f0e:	81 2f       	mov	r24, r17
     f10:	99 27       	eor	r25, r25
     f12:	1f 91       	pop	r17
     f14:	08 95       	ret

00000f16 <CC1000ControlM$CC1000Control$RxMode>:
     f16:	61 e1       	ldi	r22, 0x11	; 17
     f18:	80 e0       	ldi	r24, 0x00	; 0
     f1a:	0e 94 61 06 	call	0xcc2
     f1e:	80 91 c1 01 	lds	r24, 0x01C1
     f22:	68 2f       	mov	r22, r24
     f24:	89 e0       	ldi	r24, 0x09	; 9
     f26:	0e 94 61 06 	call	0xcc2
     f2a:	60 e0       	ldi	r22, 0x00	; 0
     f2c:	8b e0       	ldi	r24, 0x0B	; 11
     f2e:	0e 94 61 06 	call	0xcc2
     f32:	8a ef       	ldi	r24, 0xFA	; 250
     f34:	90 e0       	ldi	r25, 0x00	; 0
     f36:	00 00       	nop
     f38:	00 00       	nop
     f3a:	00 00       	nop
     f3c:	00 00       	nop
     f3e:	00 00       	nop
     f40:	00 00       	nop
     f42:	00 00       	nop
     f44:	00 00       	nop
     f46:	01 97       	sbiw	r24, 0x01	; 1
     f48:	18 16       	cp	r1, r24
     f4a:	19 06       	cpc	r1, r25
     f4c:	a4 f3       	brlt	.-24     	; 0xf36
     f4e:	81 e0       	ldi	r24, 0x01	; 1
     f50:	90 e0       	ldi	r25, 0x00	; 0
     f52:	08 95       	ret

00000f54 <HPLPowerManagementM$PowerManagement$adjustPower>:
     f54:	80 91 03 01 	lds	r24, 0x0103
     f58:	88 23       	and	r24, r24
     f5a:	29 f4       	brne	.+10     	; 0xf66
     f5c:	82 ef       	ldi	r24, 0xF2	; 242
     f5e:	9d e1       	ldi	r25, 0x1D	; 29
     f60:	0e 94 37 03 	call	0x66e
     f64:	06 c0       	rjmp	.+12     	; 0xf72
     f66:	85 b7       	in	r24, 0x35	; 53
     f68:	83 7e       	andi	r24, 0xE3	; 227
     f6a:	85 bf       	out	0x35, r24	; 53
     f6c:	85 b7       	in	r24, 0x35	; 53
     f6e:	80 62       	ori	r24, 0x20	; 32
     f70:	85 bf       	out	0x35, r24	; 53
     f72:	80 e0       	ldi	r24, 0x00	; 0
     f74:	90 e0       	ldi	r25, 0x00	; 0
     f76:	08 95       	ret

00000f78 <TimerM$Timer$start>:
     f78:	cf 92       	push	r12
     f7a:	df 92       	push	r13
     f7c:	ef 92       	push	r14
     f7e:	ff 92       	push	r15
     f80:	0f 93       	push	r16
     f82:	1f 93       	push	r17
     f84:	cf 93       	push	r28
     f86:	df 93       	push	r29
     f88:	79 01       	movw	r14, r18
     f8a:	8a 01       	movw	r16, r20
     f8c:	83 30       	cpi	r24, 0x03	; 3
     f8e:	10 f4       	brcc	.+4      	; 0xf94
     f90:	62 30       	cpi	r22, 0x02	; 2
     f92:	1c f0       	brlt	.+6      	; 0xf9a
     f94:	80 e0       	ldi	r24, 0x00	; 0
     f96:	90 e0       	ldi	r25, 0x00	; 0
     f98:	53 c0       	rjmp	.+166    	; 0x1040
     f9a:	28 2f       	mov	r18, r24
     f9c:	33 27       	eor	r19, r19
     f9e:	f9 01       	movw	r30, r18
     fa0:	a3 e0       	ldi	r26, 0x03	; 3
     fa2:	ee 0f       	add	r30, r30
     fa4:	ff 1f       	adc	r31, r31
     fa6:	aa 95       	dec	r26
     fa8:	e1 f7       	brne	.-8      	; 0xfa2
     faa:	e2 0f       	add	r30, r18
     fac:	f3 1f       	adc	r31, r19
     fae:	e4 5e       	subi	r30, 0xE4	; 228
     fb0:	fd 4f       	sbci	r31, 0xFD	; 253
     fb2:	e1 82       	std	Z+1, r14	; 0x01
     fb4:	f2 82       	std	Z+2, r15	; 0x02
     fb6:	03 83       	std	Z+3, r16	; 0x03
     fb8:	14 83       	std	Z+4, r17	; 0x04
     fba:	60 83       	st	Z, r22
     fbc:	8f b7       	in	r24, 0x3f	; 63
     fbe:	f8 94       	cli
     fc0:	c8 2f       	mov	r28, r24
     fc2:	dd 27       	eor	r29, r29
     fc4:	82 b7       	in	r24, 0x32	; 50
     fc6:	e8 0e       	add	r14, r24
     fc8:	f1 1c       	adc	r15, r1
     fca:	01 1d       	adc	r16, r1
     fcc:	11 1d       	adc	r17, r1
     fce:	e5 82       	std	Z+5, r14	; 0x05
     fd0:	f6 82       	std	Z+6, r15	; 0x06
     fd2:	07 83       	std	Z+7, r16	; 0x07
     fd4:	10 87       	std	Z+8, r17	; 0x08
     fd6:	f1 e0       	ldi	r31, 0x01	; 1
     fd8:	cf 2e       	mov	r12, r31
     fda:	d1 2c       	mov	r13, r1
     fdc:	c6 01       	movw	r24, r12
     fde:	02 c0       	rjmp	.+4      	; 0xfe4
     fe0:	88 0f       	add	r24, r24
     fe2:	99 1f       	adc	r25, r25
     fe4:	2a 95       	dec	r18
     fe6:	e2 f7       	brpl	.-8      	; 0xfe0
     fe8:	9c 01       	movw	r18, r24
     fea:	44 27       	eor	r20, r20
     fec:	37 fd       	sbrc	r19, 7
     fee:	40 95       	com	r20
     ff0:	54 2f       	mov	r21, r20
     ff2:	80 91 1d 03 	lds	r24, 0x031D
     ff6:	90 91 1e 03 	lds	r25, 0x031E
     ffa:	a0 91 1f 03 	lds	r26, 0x031F
     ffe:	b0 91 20 03 	lds	r27, 0x0320
    1002:	82 2b       	or	r24, r18
    1004:	93 2b       	or	r25, r19
    1006:	a4 2b       	or	r26, r20
    1008:	b5 2b       	or	r27, r21
    100a:	80 93 1d 03 	sts	0x031D, r24
    100e:	90 93 1e 03 	sts	0x031E, r25
    1012:	a0 93 1f 03 	sts	0x031F, r26
    1016:	b0 93 20 03 	sts	0x0320, r27
    101a:	80 91 d1 02 	lds	r24, 0x02D1
    101e:	99 27       	eor	r25, r25
    1020:	aa 27       	eor	r26, r26
    1022:	bb 27       	eor	r27, r27
    1024:	e8 16       	cp	r14, r24
    1026:	f9 06       	cpc	r15, r25
    1028:	0a 07       	cpc	r16, r26
    102a:	1b 07       	cpc	r17, r27
    102c:	38 f4       	brcc	.+14     	; 0x103c
    102e:	e0 92 d1 02 	sts	0x02D1, r14
    1032:	e1 be       	out	0x31, r14	; 49
    1034:	10 92 8b 02 	sts	0x028B, r1
    1038:	0e 94 aa 07 	call	0xf54
    103c:	cf bf       	out	0x3f, r28	; 63
    103e:	c6 01       	movw	r24, r12
    1040:	df 91       	pop	r29
    1042:	cf 91       	pop	r28
    1044:	1f 91       	pop	r17
    1046:	0f 91       	pop	r16
    1048:	ff 90       	pop	r15
    104a:	ef 90       	pop	r14
    104c:	df 90       	pop	r13
    104e:	cf 90       	pop	r12
    1050:	08 95       	ret

00001052 <received>:
    1052:	ef 92       	push	r14
    1054:	ff 92       	push	r15
    1056:	0f 93       	push	r16
    1058:	1f 93       	push	r17
    105a:	cf 93       	push	r28
    105c:	df 93       	push	r29
    105e:	ec 01       	movw	r28, r24
    1060:	40 91 00 01 	lds	r20, 0x0100
    1064:	50 91 01 01 	lds	r21, 0x0101
    1068:	80 91 13 02 	lds	r24, 0x0213
    106c:	90 91 14 02 	lds	r25, 0x0214
    1070:	01 96       	adiw	r24, 0x01	; 1
    1072:	90 93 14 02 	sts	0x0214, r25
    1076:	80 93 13 02 	sts	0x0213, r24
    107a:	8a a1       	ldd	r24, Y+34	; 0x22
    107c:	9b a1       	ldd	r25, Y+35	; 0x23
    107e:	01 97       	sbiw	r24, 0x01	; 1
    1080:	09 f0       	breq	.+2      	; 0x1084
    1082:	a6 c1       	rjmp	.+844    	; 0x13d0
    1084:	7b 81       	ldd	r23, Y+3	; 0x03
    1086:	60 91 02 01 	lds	r22, 0x0102
    108a:	76 17       	cp	r23, r22
    108c:	09 f0       	breq	.+2      	; 0x1090
    108e:	a0 c1       	rjmp	.+832    	; 0x13d0
    1090:	28 81       	ld	r18, Y
    1092:	39 81       	ldd	r19, Y+1	; 0x01
    1094:	8f ef       	ldi	r24, 0xFF	; 255
    1096:	2f 3f       	cpi	r18, 0xFF	; 255
    1098:	38 07       	cpc	r19, r24
    109a:	21 f0       	breq	.+8      	; 0x10a4
    109c:	24 17       	cp	r18, r20
    109e:	35 07       	cpc	r19, r21
    10a0:	09 f0       	breq	.+2      	; 0x10a4
    10a2:	96 c1       	rjmp	.+812    	; 0x13d0
    10a4:	9a 81       	ldd	r25, Y+2	; 0x02
    10a6:	83 e0       	ldi	r24, 0x03	; 3
    10a8:	8c 5f       	subi	r24, 0xFC	; 252
    10aa:	8b 32       	cpi	r24, 0x2B	; 43
    10ac:	e8 f3       	brcs	.-6      	; 0x10a8
    10ae:	9f 32       	cpi	r25, 0x2F	; 47
    10b0:	09 f0       	breq	.+2      	; 0x10b4
    10b2:	8a c1       	rjmp	.+788    	; 0x13c8
    10b4:	76 17       	cp	r23, r22
    10b6:	09 f0       	breq	.+2      	; 0x10ba
    10b8:	87 c1       	rjmp	.+782    	; 0x13c8
    10ba:	8f ef       	ldi	r24, 0xFF	; 255
    10bc:	2f 3f       	cpi	r18, 0xFF	; 255
    10be:	38 07       	cpc	r19, r24
    10c0:	21 f0       	breq	.+8      	; 0x10ca
    10c2:	24 17       	cp	r18, r20
    10c4:	35 07       	cpc	r19, r21
    10c6:	09 f0       	breq	.+2      	; 0x10ca
    10c8:	7f c1       	rjmp	.+766    	; 0x13c8
    10ca:	00 91 f7 02 	lds	r16, 0x02F7
    10ce:	00 23       	and	r16, r16
    10d0:	09 f0       	breq	.+2      	; 0x10d4
    10d2:	7a c1       	rjmp	.+756    	; 0x13c8
    10d4:	80 91 17 02 	lds	r24, 0x0217
    10d8:	88 23       	and	r24, r24
    10da:	09 f0       	breq	.+2      	; 0x10de
    10dc:	75 c1       	rjmp	.+746    	; 0x13c8
    10de:	8f b7       	in	r24, 0x3f	; 63
    10e0:	f8 94       	cli
    10e2:	28 2f       	mov	r18, r24
    10e4:	33 27       	eor	r19, r19
    10e6:	d9 9a       	sbi	0x1b, 1	; 27
    10e8:	80 91 f3 02 	lds	r24, 0x02F3
    10ec:	8d 7f       	andi	r24, 0xFD	; 253
    10ee:	80 93 f3 02 	sts	0x02F3, r24
    10f2:	2f bf       	out	0x3f, r18	; 63
    10f4:	9f b7       	in	r25, 0x3f	; 63
    10f6:	f8 94       	cli
    10f8:	29 2f       	mov	r18, r25
    10fa:	33 27       	eor	r19, r19
    10fc:	da 98       	cbi	0x1b, 2	; 27
    10fe:	81 60       	ori	r24, 0x01	; 1
    1100:	80 93 f3 02 	sts	0x02F3, r24
    1104:	2f bf       	out	0x3f, r18	; 63
    1106:	3f ef       	ldi	r19, 0xFF	; 255
    1108:	30 93 17 02 	sts	0x0217, r19
    110c:	e0 90 9c 02 	lds	r14, 0x029C
    1110:	f0 90 9d 02 	lds	r15, 0x029D
    1114:	d0 93 9d 02 	sts	0x029D, r29
    1118:	c0 93 9c 02 	sts	0x029C, r28
    111c:	10 91 0d 02 	lds	r17, 0x020D
    1120:	88 81       	ld	r24, Y
    1122:	99 81       	ldd	r25, Y+1	; 0x01
    1124:	40 91 00 01 	lds	r20, 0x0100
    1128:	50 91 01 01 	lds	r21, 0x0101
    112c:	84 17       	cp	r24, r20
    112e:	95 07       	cpc	r25, r21
    1130:	09 f0       	breq	.+2      	; 0x1134
    1132:	60 c0       	rjmp	.+192    	; 0x11f4
    1134:	9d 81       	ldd	r25, Y+5	; 0x05
    1136:	90 93 18 03 	sts	0x0318, r25
    113a:	8e 81       	ldd	r24, Y+6	; 0x06
    113c:	80 93 e3 02 	sts	0x02E3, r24
    1140:	30 93 eb 02 	sts	0x02EB, r19
    1144:	00 93 a8 01 	sts	0x01A8, r16
    1148:	30 93 16 03 	sts	0x0316, r19
    114c:	89 2f       	mov	r24, r25
    114e:	99 27       	eor	r25, r25
    1150:	86 30       	cpi	r24, 0x06	; 6
    1152:	91 05       	cpc	r25, r1
    1154:	a1 f1       	breq	.+104    	; 0x11be
    1156:	87 30       	cpi	r24, 0x07	; 7
    1158:	91 05       	cpc	r25, r1
    115a:	7c f4       	brge	.+30     	; 0x117a
    115c:	82 30       	cpi	r24, 0x02	; 2
    115e:	91 05       	cpc	r25, r1
    1160:	01 f1       	breq	.+64     	; 0x11a2
    1162:	83 30       	cpi	r24, 0x03	; 3
    1164:	91 05       	cpc	r25, r1
    1166:	1c f4       	brge	.+6      	; 0x116e
    1168:	01 97       	sbiw	r24, 0x01	; 1
    116a:	c9 f0       	breq	.+50     	; 0x119e
    116c:	3b c0       	rjmp	.+118    	; 0x11e4
    116e:	84 30       	cpi	r24, 0x04	; 4
    1170:	91 05       	cpc	r25, r1
    1172:	91 f0       	breq	.+36     	; 0x1198
    1174:	05 97       	sbiw	r24, 0x05	; 5
    1176:	09 f1       	breq	.+66     	; 0x11ba
    1178:	35 c0       	rjmp	.+106    	; 0x11e4
    117a:	88 30       	cpi	r24, 0x08	; 8
    117c:	91 05       	cpc	r25, r1
    117e:	d9 f0       	breq	.+54     	; 0x11b6
    1180:	88 30       	cpi	r24, 0x08	; 8
    1182:	91 05       	cpc	r25, r1
    1184:	f4 f0       	brlt	.+60     	; 0x11c2
    1186:	89 30       	cpi	r24, 0x09	; 9
    1188:	91 05       	cpc	r25, r1
    118a:	31 f0       	breq	.+12     	; 0x1198
    118c:	83 36       	cpi	r24, 0x63	; 99
    118e:	91 05       	cpc	r25, r1
    1190:	49 f5       	brne	.+82     	; 0x11e4
    1192:	0e 94 00 00 	call	0x0
    1196:	27 c0       	rjmp	.+78     	; 0x11e6
    1198:	00 93 eb 02 	sts	0x02EB, r16
    119c:	23 c0       	rjmp	.+70     	; 0x11e4
    119e:	1c e3       	ldi	r17, 0x3C	; 60
    11a0:	22 c0       	rjmp	.+68     	; 0x11e6
    11a2:	80 91 0b 01 	lds	r24, 0x010B
    11a6:	81 30       	cpi	r24, 0x01	; 1
    11a8:	11 f4       	brne	.+4      	; 0x11ae
    11aa:	10 e4       	ldi	r17, 0x40	; 64
    11ac:	1c c0       	rjmp	.+56     	; 0x11e6
    11ae:	82 30       	cpi	r24, 0x02	; 2
    11b0:	c9 f4       	brne	.+50     	; 0x11e4
    11b2:	11 e4       	ldi	r17, 0x41	; 65
    11b4:	18 c0       	rjmp	.+48     	; 0x11e6
    11b6:	19 e4       	ldi	r17, 0x49	; 73
    11b8:	16 c0       	rjmp	.+44     	; 0x11e6
    11ba:	18 e2       	ldi	r17, 0x28	; 40
    11bc:	14 c0       	rjmp	.+40     	; 0x11e6
    11be:	12 e3       	ldi	r17, 0x32	; 50
    11c0:	12 c0       	rjmp	.+36     	; 0x11e6
    11c2:	ce 01       	movw	r24, r28
    11c4:	0e 94 f0 09 	call	0x13e0
    11c8:	00 93 17 02 	sts	0x0217, r16
    11cc:	8f b7       	in	r24, 0x3f	; 63
    11ce:	f8 94       	cli
    11d0:	28 2f       	mov	r18, r24
    11d2:	33 27       	eor	r19, r19
    11d4:	da 9a       	sbi	0x1b, 2	; 27
    11d6:	80 91 f3 02 	lds	r24, 0x02F3
    11da:	8e 7f       	andi	r24, 0xFE	; 254
    11dc:	80 93 f3 02 	sts	0x02F3, r24
    11e0:	2f bf       	out	0x3f, r18	; 63
    11e2:	01 c0       	rjmp	.+2      	; 0x11e6
    11e4:	12 e0       	ldi	r17, 0x02	; 2
    11e6:	10 93 0d 02 	sts	0x020D, r17
    11ea:	8b ef       	ldi	r24, 0xFB	; 251
    11ec:	9b e0       	ldi	r25, 0x0B	; 11
    11ee:	0e 94 37 03 	call	0x66e
    11f2:	e8 c0       	rjmp	.+464    	; 0x13c4
    11f4:	8f 5f       	subi	r24, 0xFF	; 255
    11f6:	9f 4f       	sbci	r25, 0xFF	; 255
    11f8:	09 f0       	breq	.+2      	; 0x11fc
    11fa:	e2 c0       	rjmp	.+452    	; 0x13c0
    11fc:	8d 81       	ldd	r24, Y+5	; 0x05
    11fe:	80 93 18 03 	sts	0x0318, r24
    1202:	2e 81       	ldd	r18, Y+6	; 0x06
    1204:	20 93 e3 02 	sts	0x02E3, r18
    1208:	30 93 eb 02 	sts	0x02EB, r19
    120c:	30 93 a8 01 	sts	0x01A8, r19
    1210:	00 93 16 03 	sts	0x0316, r16
    1214:	99 27       	eor	r25, r25
    1216:	85 30       	cpi	r24, 0x05	; 5
    1218:	91 05       	cpc	r25, r1
    121a:	c1 f1       	breq	.+112    	; 0x128c
    121c:	86 30       	cpi	r24, 0x06	; 6
    121e:	91 05       	cpc	r25, r1
    1220:	34 f4       	brge	.+12     	; 0x122e
    1222:	81 30       	cpi	r24, 0x01	; 1
    1224:	91 05       	cpc	r25, r1
    1226:	61 f0       	breq	.+24     	; 0x1240
    1228:	02 97       	sbiw	r24, 0x02	; 2
    122a:	a9 f0       	breq	.+42     	; 0x1256
    122c:	c1 c0       	rjmp	.+386    	; 0x13b0
    122e:	87 30       	cpi	r24, 0x07	; 7
    1230:	91 05       	cpc	r25, r1
    1232:	71 f1       	breq	.+92     	; 0x1290
    1234:	87 30       	cpi	r24, 0x07	; 7
    1236:	91 05       	cpc	r25, r1
    1238:	e4 f1       	brlt	.+120    	; 0x12b2
    123a:	08 97       	sbiw	r24, 0x08	; 8
    123c:	f1 f0       	breq	.+60     	; 0x127a
    123e:	b8 c0       	rjmp	.+368    	; 0x13b0
    1240:	82 2f       	mov	r24, r18
    1242:	99 27       	eor	r25, r25
    1244:	84 17       	cp	r24, r20
    1246:	95 07       	cpc	r25, r21
    1248:	11 f4       	brne	.+4      	; 0x124e
    124a:	30 93 16 03 	sts	0x0316, r19
    124e:	00 93 7f 01 	sts	0x017F, r16
    1252:	1c e3       	ldi	r17, 0x3C	; 60
    1254:	ae c0       	rjmp	.+348    	; 0x13b2
    1256:	82 2f       	mov	r24, r18
    1258:	99 27       	eor	r25, r25
    125a:	84 17       	cp	r24, r20
    125c:	95 07       	cpc	r25, r21
    125e:	11 f4       	brne	.+4      	; 0x1264
    1260:	30 93 16 03 	sts	0x0316, r19
    1264:	80 91 0b 01 	lds	r24, 0x010B
    1268:	81 30       	cpi	r24, 0x01	; 1
    126a:	11 f4       	brne	.+4      	; 0x1270
    126c:	10 e4       	ldi	r17, 0x40	; 64
    126e:	a1 c0       	rjmp	.+322    	; 0x13b2
    1270:	82 30       	cpi	r24, 0x02	; 2
    1272:	09 f0       	breq	.+2      	; 0x1276
    1274:	9d c0       	rjmp	.+314    	; 0x13b0
    1276:	11 e4       	ldi	r17, 0x41	; 65
    1278:	9c c0       	rjmp	.+312    	; 0x13b2
    127a:	82 2f       	mov	r24, r18
    127c:	99 27       	eor	r25, r25
    127e:	84 17       	cp	r24, r20
    1280:	95 07       	cpc	r25, r21
    1282:	11 f4       	brne	.+4      	; 0x1288
    1284:	30 93 16 03 	sts	0x0316, r19
    1288:	19 e4       	ldi	r17, 0x49	; 73
    128a:	93 c0       	rjmp	.+294    	; 0x13b2
    128c:	18 e2       	ldi	r17, 0x28	; 40
    128e:	91 c0       	rjmp	.+290    	; 0x13b2
    1290:	ce 01       	movw	r24, r28
    1292:	0e 94 f0 09 	call	0x13e0
    1296:	00 93 17 02 	sts	0x0217, r16
    129a:	8f b7       	in	r24, 0x3f	; 63
    129c:	f8 94       	cli
    129e:	28 2f       	mov	r18, r24
    12a0:	33 27       	eor	r19, r19
    12a2:	da 9a       	sbi	0x1b, 2	; 27
    12a4:	80 91 f3 02 	lds	r24, 0x02F3
    12a8:	8e 7f       	andi	r24, 0xFE	; 254
    12aa:	80 93 f3 02 	sts	0x02F3, r24
    12ae:	2f bf       	out	0x3f, r18	; 63
    12b0:	80 c0       	rjmp	.+256    	; 0x13b2
    12b2:	fe 01       	movw	r30, r28
    12b4:	37 96       	adiw	r30, 0x07	; 7
    12b6:	82 2f       	mov	r24, r18
    12b8:	99 27       	eor	r25, r25
    12ba:	84 17       	cp	r24, r20
    12bc:	95 07       	cpc	r25, r21
    12be:	11 f0       	breq	.+4      	; 0x12c4
    12c0:	22 23       	and	r18, r18
    12c2:	11 f4       	brne	.+4      	; 0x12c8
    12c4:	30 93 16 03 	sts	0x0316, r19
    12c8:	20 91 6e 01 	lds	r18, 0x016E
    12cc:	30 91 6f 01 	lds	r19, 0x016F
    12d0:	80 81       	ld	r24, Z
    12d2:	91 81       	ldd	r25, Z+1	; 0x01
    12d4:	28 17       	cp	r18, r24
    12d6:	39 07       	cpc	r19, r25
    12d8:	11 f0       	breq	.+4      	; 0x12de
    12da:	10 92 16 03 	sts	0x0316, r1
    12de:	80 91 7f 01 	lds	r24, 0x017F
    12e2:	88 23       	and	r24, r24
    12e4:	09 f4       	brne	.+2      	; 0x12e8
    12e6:	62 c0       	rjmp	.+196    	; 0x13ac
    12e8:	80 91 e3 02 	lds	r24, 0x02E3
    12ec:	99 27       	eor	r25, r25
    12ee:	84 17       	cp	r24, r20
    12f0:	95 07       	cpc	r25, r21
    12f2:	09 f0       	breq	.+2      	; 0x12f6
    12f4:	5b c0       	rjmp	.+182    	; 0x13ac
    12f6:	10 92 eb 02 	sts	0x02EB, r1
    12fa:	00 23       	and	r16, r16
    12fc:	09 f0       	breq	.+2      	; 0x1300
    12fe:	59 c0       	rjmp	.+178    	; 0x13b2
    1300:	e0 91 07 03 	lds	r30, 0x0307
    1304:	f0 91 08 03 	lds	r31, 0x0308
    1308:	83 e0       	ldi	r24, 0x03	; 3
    130a:	85 83       	std	Z+5, r24	; 0x05
    130c:	e0 91 07 03 	lds	r30, 0x0307
    1310:	f0 91 08 03 	lds	r31, 0x0308
    1314:	80 91 00 01 	lds	r24, 0x0100
    1318:	86 83       	std	Z+6, r24	; 0x06
    131a:	e0 91 07 03 	lds	r30, 0x0307
    131e:	f0 91 08 03 	lds	r31, 0x0308
    1322:	27 83       	std	Z+7, r18	; 0x07
    1324:	e0 91 07 03 	lds	r30, 0x0307
    1328:	f0 91 08 03 	lds	r31, 0x0308
    132c:	83 2f       	mov	r24, r19
    132e:	99 27       	eor	r25, r25
    1330:	80 87       	std	Z+8, r24	; 0x08
    1332:	e0 91 07 03 	lds	r30, 0x0307
    1336:	f0 91 08 03 	lds	r31, 0x0308
    133a:	01 87       	std	Z+9, r16	; 0x09
    133c:	e0 91 07 03 	lds	r30, 0x0307
    1340:	f0 91 08 03 	lds	r31, 0x0308
    1344:	02 87       	std	Z+10, r16	; 0x0a
    1346:	e0 91 07 03 	lds	r30, 0x0307
    134a:	f0 91 08 03 	lds	r31, 0x0308
    134e:	80 91 18 03 	lds	r24, 0x0318
    1352:	83 87       	std	Z+11, r24	; 0x0b
    1354:	e0 91 07 03 	lds	r30, 0x0307
    1358:	f0 91 08 03 	lds	r31, 0x0308
    135c:	80 91 eb 02 	lds	r24, 0x02EB
    1360:	84 87       	std	Z+12, r24	; 0x0c
    1362:	28 e0       	ldi	r18, 0x08	; 8
    1364:	88 e0       	ldi	r24, 0x08	; 8
    1366:	90 e0       	ldi	r25, 0x00	; 0
    1368:	e0 91 07 03 	lds	r30, 0x0307
    136c:	f0 91 08 03 	lds	r31, 0x0308
    1370:	e8 0f       	add	r30, r24
    1372:	f9 1f       	adc	r31, r25
    1374:	25 83       	std	Z+5, r18	; 0x05
    1376:	2f 5f       	subi	r18, 0xFF	; 255
    1378:	01 96       	adiw	r24, 0x01	; 1
    137a:	24 31       	cpi	r18, 0x14	; 20
    137c:	a8 f3       	brcs	.-22     	; 0x1368
    137e:	81 e0       	ldi	r24, 0x01	; 1
    1380:	80 93 70 01 	sts	0x0170, r24
    1384:	80 91 f7 02 	lds	r24, 0x02F7
    1388:	88 23       	and	r24, r24
    138a:	99 f4       	brne	.+38     	; 0x13b2
    138c:	80 91 00 01 	lds	r24, 0x0100
    1390:	90 91 01 01 	lds	r25, 0x0101
    1394:	20 91 07 03 	lds	r18, 0x0307
    1398:	30 91 08 03 	lds	r19, 0x0308
    139c:	4d e1       	ldi	r20, 0x1D	; 29
    139e:	bc 01       	movw	r22, r24
    13a0:	8f e2       	ldi	r24, 0x2F	; 47
    13a2:	0e 94 76 0a 	call	0x14ec
    13a6:	80 93 f7 02 	sts	0x02F7, r24
    13aa:	03 c0       	rjmp	.+6      	; 0x13b2
    13ac:	12 e3       	ldi	r17, 0x32	; 50
    13ae:	01 c0       	rjmp	.+2      	; 0x13b2
    13b0:	12 e0       	ldi	r17, 0x02	; 2
    13b2:	10 93 0d 02 	sts	0x020D, r17
    13b6:	8b ef       	ldi	r24, 0xFB	; 251
    13b8:	9b e0       	ldi	r25, 0x0B	; 11
    13ba:	0e 94 37 03 	call	0x66e
    13be:	04 c0       	rjmp	.+8      	; 0x13c8
    13c0:	10 93 0d 02 	sts	0x020D, r17
    13c4:	c7 01       	movw	r24, r14
    13c6:	01 c0       	rjmp	.+2      	; 0x13ca
    13c8:	ce 01       	movw	r24, r28
    13ca:	00 97       	sbiw	r24, 0x00	; 0
    13cc:	09 f0       	breq	.+2      	; 0x13d0
    13ce:	ec 01       	movw	r28, r24
    13d0:	ce 01       	movw	r24, r28
    13d2:	df 91       	pop	r29
    13d4:	cf 91       	pop	r28
    13d6:	1f 91       	pop	r17
    13d8:	0f 91       	pop	r16
    13da:	ff 90       	pop	r15
    13dc:	ef 90       	pop	r14
    13de:	08 95       	ret

000013e0 <XnpM$fNPXGetProgramID>:
    13e0:	0f 93       	push	r16
    13e2:	1f 93       	push	r17
    13e4:	cf 93       	push	r28
    13e6:	fc 01       	movw	r30, r24
    13e8:	c3 85       	ldd	r28, Z+11	; 0x0b
    13ea:	07 81       	ldd	r16, Z+7	; 0x07
    13ec:	10 85       	ldd	r17, Z+8	; 0x08
    13ee:	84 ef       	ldi	r24, 0xF4	; 244
    13f0:	9f e0       	ldi	r25, 0x0F	; 15
    13f2:	0e 94 48 20 	call	0x4090
    13f6:	9c 01       	movw	r18, r24
    13f8:	60 e0       	ldi	r22, 0x00	; 0
    13fa:	08 17       	cp	r16, r24
    13fc:	19 07       	cpc	r17, r25
    13fe:	09 f4       	brne	.+2      	; 0x1402
    1400:	61 e0       	ldi	r22, 0x01	; 1
    1402:	10 92 eb 02 	sts	0x02EB, r1
    1406:	80 91 a8 01 	lds	r24, 0x01A8
    140a:	88 23       	and	r24, r24
    140c:	89 f0       	breq	.+34     	; 0x1430
    140e:	80 e0       	ldi	r24, 0x00	; 0
    1410:	90 e0       	ldi	r25, 0x00	; 0
    1412:	cc 23       	and	r28, r28
    1414:	11 f0       	breq	.+4      	; 0x141a
    1416:	61 11       	cpse	r22, r1
    1418:	81 e0       	ldi	r24, 0x01	; 1
    141a:	40 e0       	ldi	r20, 0x00	; 0
    141c:	50 e0       	ldi	r21, 0x00	; 0
    141e:	cc 23       	and	r28, r28
    1420:	19 f4       	brne	.+6      	; 0x1428
    1422:	66 23       	and	r22, r22
    1424:	09 f4       	brne	.+2      	; 0x1428
    1426:	41 e0       	ldi	r20, 0x01	; 1
    1428:	84 2b       	or	r24, r20
    142a:	95 2b       	or	r25, r21
    142c:	89 2b       	or	r24, r25
    142e:	19 f0       	breq	.+6      	; 0x1436
    1430:	c9 01       	movw	r24, r18
    1432:	0e 94 1f 0a 	call	0x143e
    1436:	cf 91       	pop	r28
    1438:	1f 91       	pop	r17
    143a:	0f 91       	pop	r16
    143c:	08 95       	ret

0000143e <XnpM$fNPXSendPIDStatus>:
    143e:	9c 01       	movw	r18, r24
    1440:	e0 91 07 03 	lds	r30, 0x0307
    1444:	f0 91 08 03 	lds	r31, 0x0308
    1448:	87 e0       	ldi	r24, 0x07	; 7
    144a:	85 83       	std	Z+5, r24	; 0x05
    144c:	e0 91 07 03 	lds	r30, 0x0307
    1450:	f0 91 08 03 	lds	r31, 0x0308
    1454:	80 91 00 01 	lds	r24, 0x0100
    1458:	86 83       	std	Z+6, r24	; 0x06
    145a:	e0 91 07 03 	lds	r30, 0x0307
    145e:	f0 91 08 03 	lds	r31, 0x0308
    1462:	27 83       	std	Z+7, r18	; 0x07
    1464:	e0 91 07 03 	lds	r30, 0x0307
    1468:	f0 91 08 03 	lds	r31, 0x0308
    146c:	83 2f       	mov	r24, r19
    146e:	99 27       	eor	r25, r25
    1470:	80 87       	std	Z+8, r24	; 0x08
    1472:	e0 91 07 03 	lds	r30, 0x0307
    1476:	f0 91 08 03 	lds	r31, 0x0308
    147a:	11 86       	std	Z+9, r1	; 0x09
    147c:	e0 91 07 03 	lds	r30, 0x0307
    1480:	f0 91 08 03 	lds	r31, 0x0308
    1484:	12 86       	std	Z+10, r1	; 0x0a
    1486:	e0 91 07 03 	lds	r30, 0x0307
    148a:	f0 91 08 03 	lds	r31, 0x0308
    148e:	80 91 18 03 	lds	r24, 0x0318
    1492:	83 87       	std	Z+11, r24	; 0x0b
    1494:	e0 91 07 03 	lds	r30, 0x0307
    1498:	f0 91 08 03 	lds	r31, 0x0308
    149c:	80 91 eb 02 	lds	r24, 0x02EB
    14a0:	84 87       	std	Z+12, r24	; 0x0c
    14a2:	28 e0       	ldi	r18, 0x08	; 8
    14a4:	88 e0       	ldi	r24, 0x08	; 8
    14a6:	90 e0       	ldi	r25, 0x00	; 0
    14a8:	e0 91 07 03 	lds	r30, 0x0307
    14ac:	f0 91 08 03 	lds	r31, 0x0308
    14b0:	e8 0f       	add	r30, r24
    14b2:	f9 1f       	adc	r31, r25
    14b4:	25 83       	std	Z+5, r18	; 0x05
    14b6:	2f 5f       	subi	r18, 0xFF	; 255
    14b8:	01 96       	adiw	r24, 0x01	; 1
    14ba:	24 31       	cpi	r18, 0x14	; 20
    14bc:	a8 f3       	brcs	.-22     	; 0x14a8
    14be:	81 e0       	ldi	r24, 0x01	; 1
    14c0:	80 93 70 01 	sts	0x0170, r24
    14c4:	80 91 f7 02 	lds	r24, 0x02F7
    14c8:	88 23       	and	r24, r24
    14ca:	79 f4       	brne	.+30     	; 0x14ea
    14cc:	80 91 00 01 	lds	r24, 0x0100
    14d0:	90 91 01 01 	lds	r25, 0x0101
    14d4:	20 91 07 03 	lds	r18, 0x0307
    14d8:	30 91 08 03 	lds	r19, 0x0308
    14dc:	4d e1       	ldi	r20, 0x1D	; 29
    14de:	bc 01       	movw	r22, r24
    14e0:	8f e2       	ldi	r24, 0x2F	; 47
    14e2:	0e 94 76 0a 	call	0x14ec
    14e6:	80 93 f7 02 	sts	0x02F7, r24
    14ea:	08 95       	ret

000014ec <AMStandard$SendMsg$send>:
    14ec:	cf 92       	push	r12
    14ee:	df 92       	push	r13
    14f0:	ef 92       	push	r14
    14f2:	ff 92       	push	r15
    14f4:	0f 93       	push	r16
    14f6:	1f 93       	push	r17
    14f8:	cf 93       	push	r28
    14fa:	df 93       	push	r29
    14fc:	d8 2e       	mov	r13, r24
    14fe:	7b 01       	movw	r14, r22
    1500:	04 2f       	mov	r16, r20
    1502:	e9 01       	movw	r28, r18
    1504:	10 91 1c 03 	lds	r17, 0x031C
    1508:	11 23       	and	r17, r17
    150a:	31 f5       	brne	.+76     	; 0x1558
    150c:	91 e0       	ldi	r25, 0x01	; 1
    150e:	c9 2e       	mov	r12, r25
    1510:	c0 92 1c 03 	sts	0x031C, r12
    1514:	4e 31       	cpi	r20, 0x1E	; 30
    1516:	30 f4       	brcc	.+12     	; 0x1524
    1518:	80 e5       	ldi	r24, 0x50	; 80
    151a:	9c e1       	ldi	r25, 0x1C	; 28
    151c:	0e 94 37 03 	call	0x66e
    1520:	88 23       	and	r24, r24
    1522:	19 f4       	brne	.+6      	; 0x152a
    1524:	10 93 1c 03 	sts	0x031C, r17
    1528:	17 c0       	rjmp	.+46     	; 0x1558
    152a:	d0 93 8d 01 	sts	0x018D, r29
    152e:	c0 93 8c 01 	sts	0x018C, r28
    1532:	0c 83       	std	Y+4, r16	; 0x04
    1534:	e8 82       	st	Y, r14
    1536:	f9 82       	std	Y+1, r15	; 0x01
    1538:	da 82       	std	Y+2, r13	; 0x02
    153a:	e0 91 8c 01 	lds	r30, 0x018C
    153e:	f0 91 8d 01 	lds	r31, 0x018D
    1542:	80 91 02 01 	lds	r24, 0x0102
    1546:	83 83       	std	Z+3, r24	; 0x03
    1548:	8c 2d       	mov	r24, r12
    154a:	8e 5f       	subi	r24, 0xFE	; 254
    154c:	8c 5f       	subi	r24, 0xFC	; 252
    154e:	8b 32       	cpi	r24, 0x2B	; 43
    1550:	e8 f3       	brcs	.-6      	; 0x154c
    1552:	81 e0       	ldi	r24, 0x01	; 1
    1554:	90 e0       	ldi	r25, 0x00	; 0
    1556:	02 c0       	rjmp	.+4      	; 0x155c
    1558:	80 e0       	ldi	r24, 0x00	; 0
    155a:	90 e0       	ldi	r25, 0x00	; 0
    155c:	df 91       	pop	r29
    155e:	cf 91       	pop	r28
    1560:	1f 91       	pop	r17
    1562:	0f 91       	pop	r16
    1564:	ff 90       	pop	r15
    1566:	ef 90       	pop	r14
    1568:	df 90       	pop	r13
    156a:	cf 90       	pop	r12
    156c:	08 95       	ret

0000156e <FramerM$StartTx>:
    156e:	cf 93       	push	r28
    1570:	c1 e0       	ldi	r28, 0x01	; 1
    1572:	20 e0       	ldi	r18, 0x00	; 0
    1574:	8f b7       	in	r24, 0x3f	; 63
    1576:	f8 94       	cli
    1578:	38 2f       	mov	r19, r24
    157a:	80 91 0b 03 	lds	r24, 0x030B
    157e:	88 23       	and	r24, r24
    1580:	91 f5       	brne	.+100    	; 0x15e6
    1582:	80 91 56 03 	lds	r24, 0x0356
    1586:	99 27       	eor	r25, r25
    1588:	81 ff       	sbrs	r24, 1
    158a:	08 c0       	rjmp	.+16     	; 0x159c
    158c:	8b e9       	ldi	r24, 0x9B	; 155
    158e:	92 e0       	ldi	r25, 0x02	; 2
    1590:	90 93 d8 01 	sts	0x01D8, r25
    1594:	80 93 d7 01 	sts	0x01D7, r24
    1598:	80 e4       	ldi	r24, 0x40	; 64
    159a:	1a c0       	rjmp	.+52     	; 0x15d0
    159c:	82 ff       	sbrs	r24, 2
    159e:	0f c0       	rjmp	.+30     	; 0x15be
    15a0:	e0 91 65 01 	lds	r30, 0x0165
    15a4:	f0 91 66 01 	lds	r31, 0x0166
    15a8:	f0 93 d8 01 	sts	0x01D8, r31
    15ac:	e0 93 d7 01 	sts	0x01D7, r30
    15b0:	82 e4       	ldi	r24, 0x42	; 66
    15b2:	80 93 69 01 	sts	0x0169, r24
    15b6:	84 81       	ldd	r24, Z+4	; 0x04
    15b8:	99 27       	eor	r25, r25
    15ba:	05 96       	adiw	r24, 0x05	; 5
    15bc:	0d c0       	rjmp	.+26     	; 0x15d8
    15be:	83 ff       	sbrs	r24, 3
    15c0:	12 c0       	rjmp	.+36     	; 0x15e6
    15c2:	83 e7       	ldi	r24, 0x73	; 115
    15c4:	91 e0       	ldi	r25, 0x01	; 1
    15c6:	90 93 d8 01 	sts	0x01D8, r25
    15ca:	80 93 d7 01 	sts	0x01D7, r24
    15ce:	8f ef       	ldi	r24, 0xFF	; 255
    15d0:	80 93 69 01 	sts	0x0169, r24
    15d4:	81 e0       	ldi	r24, 0x01	; 1
    15d6:	90 e0       	ldi	r25, 0x00	; 0
    15d8:	90 93 76 01 	sts	0x0176, r25
    15dc:	80 93 75 01 	sts	0x0175, r24
    15e0:	2c 2f       	mov	r18, r28
    15e2:	c0 93 0b 03 	sts	0x030B, r28
    15e6:	3f bf       	out	0x3f, r19	; 63
    15e8:	22 23       	and	r18, r18
    15ea:	f1 f0       	breq	.+60     	; 0x1628
    15ec:	8f b7       	in	r24, 0x3f	; 63
    15ee:	f8 94       	cli
    15f0:	99 27       	eor	r25, r25
    15f2:	10 92 0d 01 	sts	0x010D, r1
    15f6:	10 92 0c 01 	sts	0x010C, r1
    15fa:	10 92 65 02 	sts	0x0265, r1
    15fe:	10 92 64 02 	sts	0x0264, r1
    1602:	8f bf       	out	0x3f, r24	; 63
    1604:	8e e7       	ldi	r24, 0x7E	; 126
    1606:	0e 94 18 0b 	call	0x1630
    160a:	c8 2f       	mov	r28, r24
    160c:	81 30       	cpi	r24, 0x01	; 1
    160e:	61 f0       	breq	.+24     	; 0x1628
    1610:	8f b7       	in	r24, 0x3f	; 63
    1612:	f8 94       	cli
    1614:	28 2f       	mov	r18, r24
    1616:	33 27       	eor	r19, r19
    1618:	88 e0       	ldi	r24, 0x08	; 8
    161a:	80 93 0b 03 	sts	0x030B, r24
    161e:	2f bf       	out	0x3f, r18	; 63
    1620:	8d e2       	ldi	r24, 0x2D	; 45
    1622:	9b e0       	ldi	r25, 0x0B	; 11
    1624:	0e 94 37 03 	call	0x66e
    1628:	8c 2f       	mov	r24, r28
    162a:	99 27       	eor	r25, r25
    162c:	cf 91       	pop	r28
    162e:	08 95       	ret

00001630 <UARTM$ByteComm$txByte>:
    1630:	48 2f       	mov	r20, r24
    1632:	8f b7       	in	r24, 0x3f	; 63
    1634:	f8 94       	cli
    1636:	28 2f       	mov	r18, r24
    1638:	33 27       	eor	r19, r19
    163a:	90 91 92 02 	lds	r25, 0x0292
    163e:	81 e0       	ldi	r24, 0x01	; 1
    1640:	80 93 92 02 	sts	0x0292, r24
    1644:	2f bf       	out	0x3f, r18	; 63
    1646:	99 23       	and	r25, r25
    1648:	19 f0       	breq	.+6      	; 0x1650
    164a:	80 e0       	ldi	r24, 0x00	; 0
    164c:	90 e0       	ldi	r25, 0x00	; 0
    164e:	08 95       	ret
    1650:	4c b9       	out	0x0c, r20	; 12
    1652:	5e 9a       	sbi	0x0b, 6	; 11
    1654:	81 e0       	ldi	r24, 0x01	; 1
    1656:	90 e0       	ldi	r25, 0x00	; 0
    1658:	08 95       	ret

0000165a <FramerM$PacketSent>:
    165a:	61 e0       	ldi	r22, 0x01	; 1
    165c:	8f b7       	in	r24, 0x3f	; 63
    165e:	f8 94       	cli
    1660:	28 2f       	mov	r18, r24
    1662:	33 27       	eor	r19, r19
    1664:	80 91 0b 03 	lds	r24, 0x030B
    1668:	88 30       	cpi	r24, 0x08	; 8
    166a:	19 f4       	brne	.+6      	; 0x1672
    166c:	60 e0       	ldi	r22, 0x00	; 0
    166e:	60 93 0b 03 	sts	0x030B, r22
    1672:	2f bf       	out	0x3f, r18	; 63
    1674:	80 91 69 01 	lds	r24, 0x0169
    1678:	90 91 56 03 	lds	r25, 0x0356
    167c:	80 34       	cpi	r24, 0x40	; 64
    167e:	51 f4       	brne	.+20     	; 0x1694
    1680:	8f b7       	in	r24, 0x3f	; 63
    1682:	f8 94       	cli
    1684:	28 2f       	mov	r18, r24
    1686:	33 27       	eor	r19, r19
    1688:	82 e0       	ldi	r24, 0x02	; 2
    168a:	98 27       	eor	r25, r24
    168c:	90 93 56 03 	sts	0x0356, r25
    1690:	2f bf       	out	0x3f, r18	; 63
    1692:	17 c0       	rjmp	.+46     	; 0x16c2
    1694:	8f b7       	in	r24, 0x3f	; 63
    1696:	f8 94       	cli
    1698:	28 2f       	mov	r18, r24
    169a:	33 27       	eor	r19, r19
    169c:	84 e0       	ldi	r24, 0x04	; 4
    169e:	98 27       	eor	r25, r24
    16a0:	90 93 56 03 	sts	0x0356, r25
    16a4:	2f bf       	out	0x3f, r18	; 63
    16a6:	80 91 65 01 	lds	r24, 0x0165
    16aa:	90 91 66 01 	lds	r25, 0x0166
    16ae:	0e 94 64 0b 	call	0x16c8
    16b2:	8f b7       	in	r24, 0x3f	; 63
    16b4:	f8 94       	cli
    16b6:	99 27       	eor	r25, r25
    16b8:	10 92 66 01 	sts	0x0166, r1
    16bc:	10 92 65 01 	sts	0x0165, r1
    16c0:	8f bf       	out	0x3f, r24	; 63
    16c2:	0e 94 b7 0a 	call	0x156e
    16c6:	08 95       	ret

000016c8 <AMStandard$reportSendDone>:
    16c8:	fc 01       	movw	r30, r24
    16ca:	10 92 1c 03 	sts	0x031C, r1
    16ce:	82 81       	ldd	r24, Z+2	; 0x02
    16d0:	99 27       	eor	r25, r25
    16d2:	84 30       	cpi	r24, 0x04	; 4
    16d4:	91 05       	cpc	r25, r1
    16d6:	19 f0       	breq	.+6      	; 0x16de
    16d8:	8f 97       	sbiw	r24, 0x2f	; 47
    16da:	b1 f0       	breq	.+44     	; 0x1708
    16dc:	1e c0       	rjmp	.+60     	; 0x171a
    16de:	80 91 13 03 	lds	r24, 0x0313
    16e2:	88 23       	and	r24, r24
    16e4:	d1 f0       	breq	.+52     	; 0x171a
    16e6:	e7 53       	subi	r30, 0x37	; 55
    16e8:	f2 40       	sbci	r31, 0x02	; 2
    16ea:	b9 f4       	brne	.+46     	; 0x171a
    16ec:	10 92 13 03 	sts	0x0313, r1
    16f0:	66 23       	and	r22, r22
    16f2:	99 f4       	brne	.+38     	; 0x171a
    16f4:	80 91 e4 02 	lds	r24, 0x02E4
    16f8:	90 91 e5 02 	lds	r25, 0x02E5
    16fc:	01 97       	sbiw	r24, 0x01	; 1
    16fe:	90 93 e5 02 	sts	0x02E5, r25
    1702:	80 93 e4 02 	sts	0x02E4, r24
    1706:	09 c0       	rjmp	.+18     	; 0x171a
    1708:	10 92 f7 02 	sts	0x02F7, r1
    170c:	f0 93 08 03 	sts	0x0308, r31
    1710:	e0 93 07 03 	sts	0x0307, r30
    1714:	82 e0       	ldi	r24, 0x02	; 2
    1716:	80 93 70 01 	sts	0x0170, r24
    171a:	81 e0       	ldi	r24, 0x01	; 1
    171c:	90 e0       	ldi	r25, 0x00	; 0
    171e:	08 95       	ret

00001720 <RandomLFSR$Random$rand>:
    1720:	8f b7       	in	r24, 0x3f	; 63
    1722:	f8 94       	cli
    1724:	48 2f       	mov	r20, r24
    1726:	55 27       	eor	r21, r21
    1728:	20 91 e0 02 	lds	r18, 0x02E0
    172c:	30 91 e1 02 	lds	r19, 0x02E1
    1730:	83 2f       	mov	r24, r19
    1732:	88 1f       	adc	r24, r24
    1734:	88 27       	eor	r24, r24
    1736:	88 1f       	adc	r24, r24
    1738:	22 0f       	add	r18, r18
    173a:	33 1f       	adc	r19, r19
    173c:	88 23       	and	r24, r24
    173e:	21 f0       	breq	.+8      	; 0x1748
    1740:	8b e0       	ldi	r24, 0x0B	; 11
    1742:	90 e1       	ldi	r25, 0x10	; 16
    1744:	28 27       	eor	r18, r24
    1746:	39 27       	eor	r19, r25
    1748:	2f 5f       	subi	r18, 0xFF	; 255
    174a:	3f 4f       	sbci	r19, 0xFF	; 255
    174c:	30 93 e1 02 	sts	0x02E1, r19
    1750:	20 93 e0 02 	sts	0x02E0, r18
    1754:	80 91 7d 01 	lds	r24, 0x017D
    1758:	90 91 7e 01 	lds	r25, 0x017E
    175c:	28 27       	eor	r18, r24
    175e:	39 27       	eor	r19, r25
    1760:	4f bf       	out	0x3f, r20	; 63
    1762:	c9 01       	movw	r24, r18
    1764:	08 95       	ret

00001766 <TimerM$Timer$stop>:
    1766:	cf 93       	push	r28
    1768:	df 93       	push	r29
    176a:	83 30       	cpi	r24, 0x03	; 3
    176c:	08 f0       	brcs	.+2      	; 0x1770
    176e:	3e c0       	rjmp	.+124    	; 0x17ec
    1770:	61 e0       	ldi	r22, 0x01	; 1
    1772:	70 e0       	ldi	r23, 0x00	; 0
    1774:	ab 01       	movw	r20, r22
    1776:	02 c0       	rjmp	.+4      	; 0x177c
    1778:	44 0f       	add	r20, r20
    177a:	55 1f       	adc	r21, r21
    177c:	8a 95       	dec	r24
    177e:	e2 f7       	brpl	.-8      	; 0x1778
    1780:	ca 01       	movw	r24, r20
    1782:	aa 27       	eor	r26, r26
    1784:	97 fd       	sbrc	r25, 7
    1786:	a0 95       	com	r26
    1788:	ba 2f       	mov	r27, r26
    178a:	c0 91 1d 03 	lds	r28, 0x031D
    178e:	d0 91 1e 03 	lds	r29, 0x031E
    1792:	e0 91 1f 03 	lds	r30, 0x031F
    1796:	f0 91 20 03 	lds	r31, 0x0320
    179a:	8c 23       	and	r24, r28
    179c:	9d 23       	and	r25, r29
    179e:	ae 23       	and	r26, r30
    17a0:	bf 23       	and	r27, r31
    17a2:	00 97       	sbiw	r24, 0x00	; 0
    17a4:	a1 05       	cpc	r26, r1
    17a6:	b1 05       	cpc	r27, r1
    17a8:	09 f1       	breq	.+66     	; 0x17ec
    17aa:	8f b7       	in	r24, 0x3f	; 63
    17ac:	f8 94       	cli
    17ae:	28 2f       	mov	r18, r24
    17b0:	33 27       	eor	r19, r19
    17b2:	40 95       	com	r20
    17b4:	50 95       	com	r21
    17b6:	ca 01       	movw	r24, r20
    17b8:	aa 27       	eor	r26, r26
    17ba:	97 fd       	sbrc	r25, 7
    17bc:	a0 95       	com	r26
    17be:	ba 2f       	mov	r27, r26
    17c0:	8c 23       	and	r24, r28
    17c2:	9d 23       	and	r25, r29
    17c4:	ae 23       	and	r26, r30
    17c6:	bf 23       	and	r27, r31
    17c8:	80 93 1d 03 	sts	0x031D, r24
    17cc:	90 93 1e 03 	sts	0x031E, r25
    17d0:	a0 93 1f 03 	sts	0x031F, r26
    17d4:	b0 93 20 03 	sts	0x0320, r27
    17d8:	2f bf       	out	0x3f, r18	; 63
    17da:	00 97       	sbiw	r24, 0x00	; 0
    17dc:	a1 05       	cpc	r26, r1
    17de:	b1 05       	cpc	r27, r1
    17e0:	19 f4       	brne	.+6      	; 0x17e8
    17e2:	81 e0       	ldi	r24, 0x01	; 1
    17e4:	80 93 8b 02 	sts	0x028B, r24
    17e8:	cb 01       	movw	r24, r22
    17ea:	02 c0       	rjmp	.+4      	; 0x17f0
    17ec:	80 e0       	ldi	r24, 0x00	; 0
    17ee:	90 e0       	ldi	r25, 0x00	; 0
    17f0:	df 91       	pop	r29
    17f2:	cf 91       	pop	r28
    17f4:	08 95       	ret

000017f6 <XnpM$NPX_STATEMACHINE>:
    17f6:	ff 92       	push	r15
    17f8:	0f 93       	push	r16
    17fa:	1f 93       	push	r17
    17fc:	cf 93       	push	r28
    17fe:	c0 91 0d 02 	lds	r28, 0x020D
    1802:	ff 24       	eor	r15, r15
    1804:	8c 2f       	mov	r24, r28
    1806:	99 27       	eor	r25, r25
    1808:	aa 27       	eor	r26, r26
    180a:	bb 27       	eor	r27, r27
    180c:	fc 01       	movw	r30, r24
    180e:	8c 35       	cpi	r24, 0x5C	; 92
    1810:	91 05       	cpc	r25, r1
    1812:	08 f0       	brcs	.+2      	; 0x1816
    1814:	56 c2       	rjmp	.+1196   	; 0x1cc2
    1816:	ea 5b       	subi	r30, 0xBA	; 186
    1818:	ff 4f       	sbci	r31, 0xFF	; 255
    181a:	ee 0f       	add	r30, r30
    181c:	ff 1f       	adc	r31, r31
    181e:	05 90       	lpm	r0, Z+
    1820:	f4 91       	lpm	r31, Z
    1822:	e0 2d       	mov	r30, r0
    1824:	09 94       	ijmp
    1826:	e0 91 9c 02 	lds	r30, 0x029C
    182a:	f0 91 9d 02 	lds	r31, 0x029D
    182e:	27 81       	ldd	r18, Z+7	; 0x07
    1830:	30 85       	ldd	r19, Z+8	; 0x08
    1832:	80 91 6e 01 	lds	r24, 0x016E
    1836:	90 91 6f 01 	lds	r25, 0x016F
    183a:	28 17       	cp	r18, r24
    183c:	39 07       	cpc	r19, r25
    183e:	21 f0       	breq	.+8      	; 0x1848
    1840:	83 e0       	ldi	r24, 0x03	; 3
    1842:	80 93 eb 02 	sts	0x02EB, r24
    1846:	a0 c0       	rjmp	.+320    	; 0x1988
    1848:	c3 e3       	ldi	r28, 0x33	; 51
    184a:	68 c0       	rjmp	.+208    	; 0x191c
    184c:	82 e0       	ldi	r24, 0x02	; 2
    184e:	80 93 0b 01 	sts	0x010B, r24
    1852:	20 91 cf 02 	lds	r18, 0x02CF
    1856:	30 91 d0 02 	lds	r19, 0x02D0
    185a:	8f b7       	in	r24, 0x3f	; 63
    185c:	f8 94       	cli
    185e:	48 2f       	mov	r20, r24
    1860:	55 27       	eor	r21, r21
    1862:	d9 9a       	sbi	0x1b, 1	; 27
    1864:	80 91 f3 02 	lds	r24, 0x02F3
    1868:	8d 7f       	andi	r24, 0xFD	; 253
    186a:	80 93 f3 02 	sts	0x02F3, r24
    186e:	4f bf       	out	0x3f, r20	; 63
    1870:	30 93 e8 02 	sts	0x02E8, r19
    1874:	20 93 e7 02 	sts	0x02E7, r18
    1878:	22 0f       	add	r18, r18
    187a:	33 1f       	adc	r19, r19
    187c:	80 91 18 02 	lds	r24, 0x0218
    1880:	90 91 19 02 	lds	r25, 0x0219
    1884:	82 0f       	add	r24, r18
    1886:	93 1f       	adc	r25, r19
    1888:	90 93 25 03 	sts	0x0325, r25
    188c:	80 93 24 03 	sts	0x0324, r24
    1890:	86 e3       	ldi	r24, 0x36	; 54
    1892:	80 93 0d 02 	sts	0x020D, r24
    1896:	8f ef       	ldi	r24, 0xFF	; 255
    1898:	80 93 10 03 	sts	0x0310, r24
    189c:	22 c1       	rjmp	.+580    	; 0x1ae2
    189e:	e0 91 9c 02 	lds	r30, 0x029C
    18a2:	f0 91 9d 02 	lds	r31, 0x029D
    18a6:	87 81       	ldd	r24, Z+7	; 0x07
    18a8:	90 85       	ldd	r25, Z+8	; 0x08
    18aa:	90 93 6f 01 	sts	0x016F, r25
    18ae:	80 93 6e 01 	sts	0x016E, r24
    18b2:	81 85       	ldd	r24, Z+9	; 0x09
    18b4:	92 85       	ldd	r25, Z+10	; 0x0a
    18b6:	90 93 e1 01 	sts	0x01E1, r25
    18ba:	80 93 e0 01 	sts	0x01E0, r24
    18be:	80 e1       	ldi	r24, 0x10	; 16
    18c0:	90 e0       	ldi	r25, 0x00	; 0
    18c2:	90 93 f2 02 	sts	0x02F2, r25
    18c6:	80 93 f1 02 	sts	0x02F1, r24
    18ca:	81 e0       	ldi	r24, 0x01	; 1
    18cc:	90 e0       	ldi	r25, 0x00	; 0
    18ce:	90 93 12 02 	sts	0x0212, r25
    18d2:	80 93 11 02 	sts	0x0211, r24
    18d6:	90 93 d0 02 	sts	0x02D0, r25
    18da:	80 93 cf 02 	sts	0x02CF, r24
    18de:	90 93 ed 02 	sts	0x02ED, r25
    18e2:	80 93 ec 02 	sts	0x02EC, r24
    18e6:	10 92 7a 01 	sts	0x017A, r1
    18ea:	81 e0       	ldi	r24, 0x01	; 1
    18ec:	80 93 eb 02 	sts	0x02EB, r24
    18f0:	cc 33       	cpi	r28, 0x3C	; 60
    18f2:	31 f0       	breq	.+12     	; 0x1900
    18f4:	10 92 0d 02 	sts	0x020D, r1
    18f8:	82 e0       	ldi	r24, 0x02	; 2
    18fa:	80 93 eb 02 	sts	0x02EB, r24
    18fe:	09 c0       	rjmp	.+18     	; 0x1912
    1900:	80 93 eb 02 	sts	0x02EB, r24
    1904:	8e e3       	ldi	r24, 0x3E	; 62
    1906:	80 93 0d 02 	sts	0x020D, r24
    190a:	8b ef       	ldi	r24, 0xFB	; 251
    190c:	9b e0       	ldi	r25, 0x0B	; 11
    190e:	0e 94 37 03 	call	0x66e
    1912:	80 e0       	ldi	r24, 0x00	; 0
    1914:	0e 94 b3 0b 	call	0x1766
    1918:	e8 c0       	rjmp	.+464    	; 0x1aea
    191a:	cf e3       	ldi	r28, 0x3F	; 63
    191c:	8f e2       	ldi	r24, 0x2F	; 47
    191e:	0e 94 6e 0e 	call	0x1cdc
    1922:	88 23       	and	r24, r24
    1924:	09 f0       	breq	.+2      	; 0x1928
    1926:	cd c1       	rjmp	.+922    	; 0x1cc2
    1928:	ca c1       	rjmp	.+916    	; 0x1cbe
    192a:	10 92 ab 01 	sts	0x01AB, r1
    192e:	10 92 e2 02 	sts	0x02E2, r1
    1932:	10 92 23 03 	sts	0x0323, r1
    1936:	8f e2       	ldi	r24, 0x2F	; 47
    1938:	0e 94 ca 14 	call	0x2994
    193c:	88 23       	and	r24, r24
    193e:	39 f4       	brne	.+14     	; 0x194e
    1940:	81 e0       	ldi	r24, 0x01	; 1
    1942:	80 93 eb 02 	sts	0x02EB, r24
    1946:	8d e4       	ldi	r24, 0x4D	; 77
    1948:	80 93 0d 02 	sts	0x020D, r24
    194c:	b8 c1       	rjmp	.+880    	; 0x1cbe
    194e:	8f ef       	ldi	r24, 0xFF	; 255
    1950:	80 93 ab 01 	sts	0x01AB, r24
    1954:	80 93 e2 02 	sts	0x02E2, r24
    1958:	10 92 23 03 	sts	0x0323, r1
    195c:	80 91 11 02 	lds	r24, 0x0211
    1960:	90 91 12 02 	lds	r25, 0x0212
    1964:	24 e0       	ldi	r18, 0x04	; 4
    1966:	88 0f       	add	r24, r24
    1968:	99 1f       	adc	r25, r25
    196a:	2a 95       	dec	r18
    196c:	e1 f7       	brne	.-8      	; 0x1966
    196e:	90 93 19 02 	sts	0x0219, r25
    1972:	80 93 18 02 	sts	0x0218, r24
    1976:	10 92 e8 02 	sts	0x02E8, r1
    197a:	10 92 e7 02 	sts	0x02E7, r1
    197e:	10 92 eb 02 	sts	0x02EB, r1
    1982:	81 e0       	ldi	r24, 0x01	; 1
    1984:	80 93 0b 01 	sts	0x010B, r24
    1988:	c2 e0       	ldi	r28, 0x02	; 2
    198a:	99 c1       	rjmp	.+818    	; 0x1cbe
    198c:	e0 91 9c 02 	lds	r30, 0x029C
    1990:	f0 91 9d 02 	lds	r31, 0x029D
    1994:	80 91 0b 01 	lds	r24, 0x010B
    1998:	81 30       	cpi	r24, 0x01	; 1
    199a:	09 f0       	breq	.+2      	; 0x199e
    199c:	5a c0       	rjmp	.+180    	; 0x1a52
    199e:	47 81       	ldd	r20, Z+7	; 0x07
    19a0:	50 85       	ldd	r21, Z+8	; 0x08
    19a2:	80 91 6e 01 	lds	r24, 0x016E
    19a6:	90 91 6f 01 	lds	r25, 0x016F
    19aa:	48 17       	cp	r20, r24
    19ac:	59 07       	cpc	r21, r25
    19ae:	11 f0       	breq	.+4      	; 0x19b4
    19b0:	83 e0       	ldi	r24, 0x03	; 3
    19b2:	2d c0       	rjmp	.+90     	; 0x1a0e
    19b4:	41 85       	ldd	r20, Z+9	; 0x09
    19b6:	52 85       	ldd	r21, Z+10	; 0x0a
    19b8:	60 91 e7 02 	lds	r22, 0x02E7
    19bc:	70 91 e8 02 	lds	r23, 0x02E8
    19c0:	9b 01       	movw	r18, r22
    19c2:	2f 5f       	subi	r18, 0xFF	; 255
    19c4:	3f 4f       	sbci	r19, 0xFF	; 255
    19c6:	42 17       	cp	r20, r18
    19c8:	53 07       	cpc	r21, r19
    19ca:	b9 f0       	breq	.+46     	; 0x19fa
    19cc:	80 91 7a 01 	lds	r24, 0x017A
    19d0:	88 23       	and	r24, r24
    19d2:	59 f4       	brne	.+22     	; 0x19ea
    19d4:	8f ef       	ldi	r24, 0xFF	; 255
    19d6:	80 93 7a 01 	sts	0x017A, r24
    19da:	30 93 ed 02 	sts	0x02ED, r19
    19de:	20 93 ec 02 	sts	0x02EC, r18
    19e2:	30 93 d0 02 	sts	0x02D0, r19
    19e6:	20 93 cf 02 	sts	0x02CF, r18
    19ea:	ca 01       	movw	r24, r20
    19ec:	86 1b       	sub	r24, r22
    19ee:	97 0b       	sbc	r25, r23
    19f0:	01 97       	sbiw	r24, 0x01	; 1
    19f2:	90 93 b5 01 	sts	0x01B5, r25
    19f6:	80 93 b4 01 	sts	0x01B4, r24
    19fa:	50 93 e8 02 	sts	0x02E8, r21
    19fe:	40 93 e7 02 	sts	0x02E7, r20
    1a02:	cf 01       	movw	r24, r30
    1a04:	0e 94 dd 14 	call	0x29ba
    1a08:	88 23       	and	r24, r24
    1a0a:	29 f4       	brne	.+10     	; 0x1a16
    1a0c:	85 e0       	ldi	r24, 0x05	; 5
    1a0e:	80 93 eb 02 	sts	0x02EB, r24
    1a12:	82 e0       	ldi	r24, 0x02	; 2
    1a14:	64 c0       	rjmp	.+200    	; 0x1ade
    1a16:	20 91 e7 02 	lds	r18, 0x02E7
    1a1a:	30 91 e8 02 	lds	r19, 0x02E8
    1a1e:	22 0f       	add	r18, r18
    1a20:	33 1f       	adc	r19, r19
    1a22:	80 91 18 02 	lds	r24, 0x0218
    1a26:	90 91 19 02 	lds	r25, 0x0219
    1a2a:	82 0f       	add	r24, r18
    1a2c:	93 1f       	adc	r25, r19
    1a2e:	90 93 f2 02 	sts	0x02F2, r25
    1a32:	80 93 f1 02 	sts	0x02F1, r24
    1a36:	10 92 eb 02 	sts	0x02EB, r1
    1a3a:	8f ef       	ldi	r24, 0xFF	; 255
    1a3c:	80 93 64 01 	sts	0x0164, r24
    1a40:	4d c0       	rjmp	.+154    	; 0x1adc
    1a42:	e0 91 9c 02 	lds	r30, 0x029C
    1a46:	f0 91 9d 02 	lds	r31, 0x029D
    1a4a:	c0 91 0b 01 	lds	r28, 0x010B
    1a4e:	c2 30       	cpi	r28, 0x02	; 2
    1a50:	21 f0       	breq	.+8      	; 0x1a5a
    1a52:	82 e0       	ldi	r24, 0x02	; 2
    1a54:	80 93 eb 02 	sts	0x02EB, r24
    1a58:	42 c0       	rjmp	.+132    	; 0x1ade
    1a5a:	27 81       	ldd	r18, Z+7	; 0x07
    1a5c:	30 85       	ldd	r19, Z+8	; 0x08
    1a5e:	80 91 6e 01 	lds	r24, 0x016E
    1a62:	90 91 6f 01 	lds	r25, 0x016F
    1a66:	28 17       	cp	r18, r24
    1a68:	39 07       	cpc	r19, r25
    1a6a:	11 f0       	breq	.+4      	; 0x1a70
    1a6c:	83 e0       	ldi	r24, 0x03	; 3
    1a6e:	0c c0       	rjmp	.+24     	; 0x1a88
    1a70:	81 85       	ldd	r24, Z+9	; 0x09
    1a72:	92 85       	ldd	r25, Z+10	; 0x0a
    1a74:	90 93 e8 02 	sts	0x02E8, r25
    1a78:	80 93 e7 02 	sts	0x02E7, r24
    1a7c:	cf 01       	movw	r24, r30
    1a7e:	0e 94 dd 14 	call	0x29ba
    1a82:	88 23       	and	r24, r24
    1a84:	31 f4       	brne	.+12     	; 0x1a92
    1a86:	85 e0       	ldi	r24, 0x05	; 5
    1a88:	80 93 eb 02 	sts	0x02EB, r24
    1a8c:	c0 93 0d 02 	sts	0x020D, r28
    1a90:	28 c0       	rjmp	.+80     	; 0x1ae2
    1a92:	20 91 e7 02 	lds	r18, 0x02E7
    1a96:	30 91 e8 02 	lds	r19, 0x02E8
    1a9a:	22 0f       	add	r18, r18
    1a9c:	33 1f       	adc	r19, r19
    1a9e:	80 91 18 02 	lds	r24, 0x0218
    1aa2:	90 91 19 02 	lds	r25, 0x0219
    1aa6:	82 0f       	add	r24, r18
    1aa8:	93 1f       	adc	r25, r19
    1aaa:	90 93 f2 02 	sts	0x02F2, r25
    1aae:	80 93 f1 02 	sts	0x02F1, r24
    1ab2:	10 92 eb 02 	sts	0x02EB, r1
    1ab6:	8f ef       	ldi	r24, 0xFF	; 255
    1ab8:	80 93 64 01 	sts	0x0164, r24
    1abc:	80 91 e2 02 	lds	r24, 0x02E2
    1ac0:	88 23       	and	r24, r24
    1ac2:	39 f4       	brne	.+14     	; 0x1ad2
    1ac4:	8f e2       	ldi	r24, 0x2F	; 47
    1ac6:	0e 94 ca 14 	call	0x2994
    1aca:	88 23       	and	r24, r24
    1acc:	11 f4       	brne	.+4      	; 0x1ad2
    1ace:	81 e0       	ldi	r24, 0x01	; 1
    1ad0:	db cf       	rjmp	.-74     	; 0x1a88
    1ad2:	81 e0       	ldi	r24, 0x01	; 1
    1ad4:	80 93 e2 02 	sts	0x02E2, r24
    1ad8:	10 92 ab 01 	sts	0x01AB, r1
    1adc:	83 e4       	ldi	r24, 0x43	; 67
    1ade:	80 93 0d 02 	sts	0x020D, r24
    1ae2:	8b ef       	ldi	r24, 0xFB	; 251
    1ae4:	9b e0       	ldi	r25, 0x0B	; 11
    1ae6:	0e 94 37 03 	call	0x66e
    1aea:	c0 91 0d 02 	lds	r28, 0x020D
    1aee:	e9 c0       	rjmp	.+466    	; 0x1cc2
    1af0:	8f b7       	in	r24, 0x3f	; 63
    1af2:	f8 94       	cli
    1af4:	28 2f       	mov	r18, r24
    1af6:	33 27       	eor	r19, r19
    1af8:	d8 98       	cbi	0x1b, 0	; 27
    1afa:	80 91 f3 02 	lds	r24, 0x02F3
    1afe:	84 60       	ori	r24, 0x04	; 4
    1b00:	80 93 f3 02 	sts	0x02F3, r24
    1b04:	2f bf       	out	0x3f, r18	; 63
    1b06:	80 91 64 01 	lds	r24, 0x0164
    1b0a:	88 23       	and	r24, r24
    1b0c:	61 f0       	breq	.+24     	; 0x1b26
    1b0e:	10 91 23 03 	lds	r17, 0x0323
    1b12:	11 23       	and	r17, r17
    1b14:	09 f0       	breq	.+2      	; 0x1b18
    1b16:	d3 c0       	rjmp	.+422    	; 0x1cbe
    1b18:	8d e7       	ldi	r24, 0x7D	; 125
    1b1a:	95 e1       	ldi	r25, 0x15	; 21
    1b1c:	0e 94 37 03 	call	0x66e
    1b20:	10 93 64 01 	sts	0x0164, r17
    1b24:	ce c0       	rjmp	.+412    	; 0x1cc2
    1b26:	c4 e4       	ldi	r28, 0x44	; 68
    1b28:	ca c0       	rjmp	.+404    	; 0x1cbe
    1b2a:	c2 e0       	ldi	r28, 0x02	; 2
    1b2c:	80 91 ab 01 	lds	r24, 0x01AB
    1b30:	88 23       	and	r24, r24
    1b32:	41 f4       	brne	.+16     	; 0x1b44
    1b34:	80 91 e2 02 	lds	r24, 0x02E2
    1b38:	88 23       	and	r24, r24
    1b3a:	21 f0       	breq	.+8      	; 0x1b44
    1b3c:	8f e2       	ldi	r24, 0x2F	; 47
    1b3e:	0e 94 6e 0e 	call	0x1cdc
    1b42:	02 c0       	rjmp	.+4      	; 0x1b48
    1b44:	bf ef       	ldi	r27, 0xFF	; 255
    1b46:	fb 2e       	mov	r15, r27
    1b48:	8f b7       	in	r24, 0x3f	; 63
    1b4a:	f8 94       	cli
    1b4c:	28 2f       	mov	r18, r24
    1b4e:	33 27       	eor	r19, r19
    1b50:	d8 9a       	sbi	0x1b, 0	; 27
    1b52:	80 91 f3 02 	lds	r24, 0x02F3
    1b56:	8b 7f       	andi	r24, 0xFB	; 251
    1b58:	80 93 f3 02 	sts	0x02F3, r24
    1b5c:	2f bf       	out	0x3f, r18	; 63
    1b5e:	b1 c0       	rjmp	.+354    	; 0x1cc2
    1b60:	ca e4       	ldi	r28, 0x4A	; 74
    1b62:	0b c0       	rjmp	.+22     	; 0x1b7a
    1b64:	10 92 eb 02 	sts	0x02EB, r1
    1b68:	10 92 e8 02 	sts	0x02E8, r1
    1b6c:	10 92 e7 02 	sts	0x02E7, r1
    1b70:	c2 e0       	ldi	r28, 0x02	; 2
    1b72:	10 92 0b 01 	sts	0x010B, r1
    1b76:	a3 c0       	rjmp	.+326    	; 0x1cbe
    1b78:	ce e4       	ldi	r28, 0x4E	; 78
    1b7a:	80 91 e2 02 	lds	r24, 0x02E2
    1b7e:	88 23       	and	r24, r24
    1b80:	09 f4       	brne	.+2      	; 0x1b84
    1b82:	9d c0       	rjmp	.+314    	; 0x1cbe
    1b84:	8f e2       	ldi	r24, 0x2F	; 47
    1b86:	0e 94 6e 0e 	call	0x1cdc
    1b8a:	9b c0       	rjmp	.+310    	; 0x1cc2
    1b8c:	80 91 16 03 	lds	r24, 0x0316
    1b90:	88 23       	and	r24, r24
    1b92:	11 f0       	breq	.+4      	; 0x1b98
    1b94:	0e 94 bd 0f 	call	0x1f7a
    1b98:	10 92 0b 01 	sts	0x010B, r1
    1b9c:	10 92 e8 02 	sts	0x02E8, r1
    1ba0:	10 92 e7 02 	sts	0x02E7, r1
    1ba4:	f1 ce       	rjmp	.-542    	; 0x1988
    1ba6:	10 92 17 02 	sts	0x0217, r1
    1baa:	8b c0       	rjmp	.+278    	; 0x1cc2
    1bac:	e0 91 9c 02 	lds	r30, 0x029C
    1bb0:	f0 91 9d 02 	lds	r31, 0x029D
    1bb4:	87 81       	ldd	r24, Z+7	; 0x07
    1bb6:	90 85       	ldd	r25, Z+8	; 0x08
    1bb8:	90 93 6f 01 	sts	0x016F, r25
    1bbc:	80 93 6e 01 	sts	0x016E, r24
    1bc0:	81 e0       	ldi	r24, 0x01	; 1
    1bc2:	90 e0       	ldi	r25, 0x00	; 0
    1bc4:	90 93 12 02 	sts	0x0212, r25
    1bc8:	80 93 11 02 	sts	0x0211, r24
    1bcc:	80 e1       	ldi	r24, 0x10	; 16
    1bce:	90 e0       	ldi	r25, 0x00	; 0
    1bd0:	90 93 19 02 	sts	0x0219, r25
    1bd4:	80 93 18 02 	sts	0x0218, r24
    1bd8:	82 e1       	ldi	r24, 0x12	; 18
    1bda:	90 e0       	ldi	r25, 0x00	; 0
    1bdc:	90 93 25 03 	sts	0x0325, r25
    1be0:	80 93 24 03 	sts	0x0324, r24
    1be4:	8f ef       	ldi	r24, 0xFF	; 255
    1be6:	80 93 10 03 	sts	0x0310, r24
    1bea:	c9 e2       	ldi	r28, 0x29	; 41
    1bec:	68 c0       	rjmp	.+208    	; 0x1cbe
    1bee:	80 91 10 03 	lds	r24, 0x0310
    1bf2:	88 23       	and	r24, r24
    1bf4:	09 f4       	brne	.+2      	; 0x1bf8
    1bf6:	65 c0       	rjmp	.+202    	; 0x1cc2
    1bf8:	8f b7       	in	r24, 0x3f	; 63
    1bfa:	f8 94       	cli
    1bfc:	28 2f       	mov	r18, r24
    1bfe:	33 27       	eor	r19, r19
    1c00:	d8 98       	cbi	0x1b, 0	; 27
    1c02:	80 91 f3 02 	lds	r24, 0x02F3
    1c06:	84 60       	ori	r24, 0x04	; 4
    1c08:	80 93 f3 02 	sts	0x02F3, r24
    1c0c:	2f bf       	out	0x3f, r18	; 63
    1c0e:	60 91 24 03 	lds	r22, 0x0324
    1c12:	70 91 25 03 	lds	r23, 0x0325
    1c16:	28 e6       	ldi	r18, 0x68	; 104
    1c18:	32 e0       	ldi	r19, 0x02	; 2
    1c1a:	80 91 8d 02 	lds	r24, 0x028D
    1c1e:	88 23       	and	r24, r24
    1c20:	09 f0       	breq	.+2      	; 0x1c24
    1c22:	4f c0       	rjmp	.+158    	; 0x1cc2
    1c24:	e1 e0       	ldi	r30, 0x01	; 1
    1c26:	e0 93 8d 02 	sts	0x028D, r30
    1c2a:	30 93 99 02 	sts	0x0299, r19
    1c2e:	20 93 98 02 	sts	0x0298, r18
    1c32:	cb 01       	movw	r24, r22
    1c34:	8f 70       	andi	r24, 0x0F	; 15
    1c36:	90 70       	andi	r25, 0x00	; 0
    1c38:	a4 e0       	ldi	r26, 0x04	; 4
    1c3a:	88 0f       	add	r24, r24
    1c3c:	99 1f       	adc	r25, r25
    1c3e:	aa 95       	dec	r26
    1c40:	e1 f7       	brne	.-8      	; 0x1c3a
    1c42:	00 e1       	ldi	r16, 0x10	; 16
    1c44:	10 e0       	ldi	r17, 0x00	; 0
    1c46:	ac 01       	movw	r20, r24
    1c48:	f4 e0       	ldi	r31, 0x04	; 4
    1c4a:	76 95       	lsr	r23
    1c4c:	67 95       	ror	r22
    1c4e:	fa 95       	dec	r31
    1c50:	e1 f7       	brne	.-8      	; 0x1c4a
    1c52:	8e 2f       	mov	r24, r30
    1c54:	0e 94 fc 10 	call	0x21f8
    1c58:	34 c0       	rjmp	.+104    	; 0x1cc2
    1c5a:	80 91 16 03 	lds	r24, 0x0316
    1c5e:	88 23       	and	r24, r24
    1c60:	11 f0       	breq	.+4      	; 0x1c66
    1c62:	0e 94 bd 0f 	call	0x1f7a
    1c66:	10 92 17 02 	sts	0x0217, r1
    1c6a:	8f b7       	in	r24, 0x3f	; 63
    1c6c:	f8 94       	cli
    1c6e:	28 2f       	mov	r18, r24
    1c70:	33 27       	eor	r19, r19
    1c72:	da 9a       	sbi	0x1b, 2	; 27
    1c74:	80 91 f3 02 	lds	r24, 0x02F3
    1c78:	8e 7f       	andi	r24, 0xFE	; 254
    1c7a:	80 93 f3 02 	sts	0x02F3, r24
    1c7e:	2f bf       	out	0x3f, r18	; 63
    1c80:	c0 e0       	ldi	r28, 0x00	; 0
    1c82:	1f c0       	rjmp	.+62     	; 0x1cc2
    1c84:	8f b7       	in	r24, 0x3f	; 63
    1c86:	f8 94       	cli
    1c88:	28 2f       	mov	r18, r24
    1c8a:	33 27       	eor	r19, r19
    1c8c:	d8 9a       	sbi	0x1b, 0	; 27
    1c8e:	80 91 f3 02 	lds	r24, 0x02F3
    1c92:	8b 7f       	andi	r24, 0xFB	; 251
    1c94:	80 93 f3 02 	sts	0x02F3, r24
    1c98:	2f bf       	out	0x3f, r18	; 63
    1c9a:	c0 e0       	ldi	r28, 0x00	; 0
    1c9c:	c0 93 17 02 	sts	0x0217, r28
    1ca0:	10 c0       	rjmp	.+32     	; 0x1cc2
    1ca2:	80 91 f7 02 	lds	r24, 0x02F7
    1ca6:	88 23       	and	r24, r24
    1ca8:	51 f4       	brne	.+20     	; 0x1cbe
    1caa:	60 91 e7 02 	lds	r22, 0x02E7
    1cae:	70 91 e8 02 	lds	r23, 0x02E8
    1cb2:	80 91 6e 01 	lds	r24, 0x016E
    1cb6:	90 91 6f 01 	lds	r25, 0x016F
    1cba:	0e 94 21 10 	call	0x2042
    1cbe:	6f ef       	ldi	r22, 0xFF	; 255
    1cc0:	f6 2e       	mov	r15, r22
    1cc2:	c0 93 0d 02 	sts	0x020D, r28
    1cc6:	ff 20       	and	r15, r15
    1cc8:	21 f0       	breq	.+8      	; 0x1cd2
    1cca:	8b ef       	ldi	r24, 0xFB	; 251
    1ccc:	9b e0       	ldi	r25, 0x0B	; 11
    1cce:	0e 94 37 03 	call	0x66e
    1cd2:	cf 91       	pop	r28
    1cd4:	1f 91       	pop	r17
    1cd6:	0f 91       	pop	r16
    1cd8:	ff 90       	pop	r15
    1cda:	08 95       	ret

00001cdc <eepromM$EEPROMWrite$endWrite>:
    1cdc:	98 2f       	mov	r25, r24
    1cde:	80 91 8d 02 	lds	r24, 0x028D
    1ce2:	82 30       	cpi	r24, 0x02	; 2
    1ce4:	21 f4       	brne	.+8      	; 0x1cee
    1ce6:	80 91 b7 01 	lds	r24, 0x01B7
    1cea:	98 17       	cp	r25, r24
    1cec:	19 f0       	breq	.+6      	; 0x1cf4
    1cee:	80 e0       	ldi	r24, 0x00	; 0
    1cf0:	90 e0       	ldi	r25, 0x00	; 0
    1cf2:	08 95       	ret
    1cf4:	84 e0       	ldi	r24, 0x04	; 4
    1cf6:	80 93 8d 02 	sts	0x028D, r24
    1cfa:	86 e0       	ldi	r24, 0x06	; 6
    1cfc:	0e 94 83 0e 	call	0x1d06
    1d00:	81 e0       	ldi	r24, 0x01	; 1
    1d02:	90 e0       	ldi	r25, 0x00	; 0
    1d04:	08 95       	ret

00001d06 <PageEEPROMM$syncOrFlushAll>:
    1d06:	98 2f       	mov	r25, r24
    1d08:	80 91 8f 01 	lds	r24, 0x018F
    1d0c:	88 23       	and	r24, r24
    1d0e:	19 f0       	breq	.+6      	; 0x1d16
    1d10:	80 e0       	ldi	r24, 0x00	; 0
    1d12:	90 e0       	ldi	r25, 0x00	; 0
    1d14:	08 95       	ret
    1d16:	90 93 8f 01 	sts	0x018F, r25
    1d1a:	80 91 ce 02 	lds	r24, 0x02CE
    1d1e:	88 23       	and	r24, r24
    1d20:	19 f0       	breq	.+6      	; 0x1d28
    1d22:	81 ee       	ldi	r24, 0xE1	; 225
    1d24:	9e e1       	ldi	r25, 0x1E	; 30
    1d26:	13 c0       	rjmp	.+38     	; 0x1d4e
    1d28:	80 91 ae 01 	lds	r24, 0x01AE
    1d2c:	98 2f       	mov	r25, r24
    1d2e:	92 70       	andi	r25, 0x02	; 2
    1d30:	81 fd       	sbrc	r24, 1
    1d32:	03 c0       	rjmp	.+6      	; 0x1d3a
    1d34:	90 93 72 01 	sts	0x0172, r25
    1d38:	0f c0       	rjmp	.+30     	; 0x1d58
    1d3a:	80 91 b1 01 	lds	r24, 0x01B1
    1d3e:	81 fd       	sbrc	r24, 1
    1d40:	04 c0       	rjmp	.+8      	; 0x1d4a
    1d42:	81 e0       	ldi	r24, 0x01	; 1
    1d44:	80 93 72 01 	sts	0x0172, r24
    1d48:	07 c0       	rjmp	.+14     	; 0x1d58
    1d4a:	8d ed       	ldi	r24, 0xDD	; 221
    1d4c:	9e e1       	ldi	r25, 0x1E	; 30
    1d4e:	0e 94 37 03 	call	0x66e
    1d52:	81 e0       	ldi	r24, 0x01	; 1
    1d54:	90 e0       	ldi	r25, 0x00	; 0
    1d56:	08 95       	ret
    1d58:	80 91 72 01 	lds	r24, 0x0172
    1d5c:	99 27       	eor	r25, r25
    1d5e:	fc 01       	movw	r30, r24
    1d60:	ee 0f       	add	r30, r30
    1d62:	ff 1f       	adc	r31, r31
    1d64:	e8 0f       	add	r30, r24
    1d66:	f9 1f       	adc	r31, r25
    1d68:	e2 55       	subi	r30, 0x52	; 82
    1d6a:	fe 4f       	sbci	r31, 0xFE	; 254
    1d6c:	80 81       	ld	r24, Z
    1d6e:	87 7e       	andi	r24, 0xE7	; 231
    1d70:	80 83       	st	Z, r24
    1d72:	0e 94 57 11 	call	0x22ae
    1d76:	ed cf       	rjmp	.-38     	; 0x1d52

00001d78 <PageEEPROMM$requestDone>:
    1d78:	ef 92       	push	r14
    1d7a:	ff 92       	push	r15
    1d7c:	1f 93       	push	r17
    1d7e:	cf 93       	push	r28
    1d80:	df 93       	push	r29
    1d82:	98 2f       	mov	r25, r24
    1d84:	80 91 8f 01 	lds	r24, 0x018F
    1d88:	10 92 8f 01 	sts	0x018F, r1
    1d8c:	48 2f       	mov	r20, r24
    1d8e:	55 27       	eor	r21, r21
    1d90:	44 30       	cpi	r20, 0x04	; 4
    1d92:	51 05       	cpc	r21, r1
    1d94:	09 f4       	brne	.+2      	; 0x1d98
    1d96:	eb c0       	rjmp	.+470    	; 0x1f6e
    1d98:	45 30       	cpi	r20, 0x05	; 5
    1d9a:	51 05       	cpc	r21, r1
    1d9c:	64 f4       	brge	.+24     	; 0x1db6
    1d9e:	42 30       	cpi	r20, 0x02	; 2
    1da0:	51 05       	cpc	r21, r1
    1da2:	09 f4       	brne	.+2      	; 0x1da6
    1da4:	e4 c0       	rjmp	.+456    	; 0x1f6e
    1da6:	43 30       	cpi	r20, 0x03	; 3
    1da8:	51 05       	cpc	r21, r1
    1daa:	0c f0       	brlt	.+2      	; 0x1dae
    1dac:	9f c0       	rjmp	.+318    	; 0x1eec
    1dae:	41 30       	cpi	r20, 0x01	; 1
    1db0:	51 05       	cpc	r21, r1
    1db2:	51 f0       	breq	.+20     	; 0x1dc8
    1db4:	dc c0       	rjmp	.+440    	; 0x1f6e
    1db6:	47 30       	cpi	r20, 0x07	; 7
    1db8:	51 05       	cpc	r21, r1
    1dba:	0c f4       	brge	.+2      	; 0x1dbe
    1dbc:	bd c0       	rjmp	.+378    	; 0x1f38
    1dbe:	49 30       	cpi	r20, 0x09	; 9
    1dc0:	51 05       	cpc	r21, r1
    1dc2:	0c f0       	brlt	.+2      	; 0x1dc6
    1dc4:	d4 c0       	rjmp	.+424    	; 0x1f6e
    1dc6:	c3 c0       	rjmp	.+390    	; 0x1f4e
    1dc8:	10 92 8d 02 	sts	0x028D, r1
    1dcc:	a0 91 98 02 	lds	r26, 0x0298
    1dd0:	b0 91 99 02 	lds	r27, 0x0299
    1dd4:	10 92 10 03 	sts	0x0310, r1
    1dd8:	8f b7       	in	r24, 0x3f	; 63
    1dda:	f8 94       	cli
    1ddc:	99 27       	eor	r25, r25
    1dde:	da 9a       	sbi	0x1b, 2	; 27
    1de0:	10 91 f3 02 	lds	r17, 0x02F3
    1de4:	1e 7f       	andi	r17, 0xFE	; 254
    1de6:	10 93 f3 02 	sts	0x02F3, r17
    1dea:	8f bf       	out	0x3f, r24	; 63
    1dec:	80 91 0d 02 	lds	r24, 0x020D
    1df0:	99 27       	eor	r25, r25
    1df2:	89 32       	cpi	r24, 0x29	; 41
    1df4:	91 05       	cpc	r25, r1
    1df6:	19 f0       	breq	.+6      	; 0x1dfe
    1df8:	c6 97       	sbiw	r24, 0x36	; 54
    1dfa:	d1 f0       	breq	.+52     	; 0x1e30
    1dfc:	b8 c0       	rjmp	.+368    	; 0x1f6e
    1dfe:	2d 91       	ld	r18, X+
    1e00:	3c 91       	ld	r19, X
    1e02:	80 91 6e 01 	lds	r24, 0x016E
    1e06:	90 91 6f 01 	lds	r25, 0x016F
    1e0a:	28 17       	cp	r18, r24
    1e0c:	39 07       	cpc	r19, r25
    1e0e:	39 f4       	brne	.+14     	; 0x1e1e
    1e10:	10 92 eb 02 	sts	0x02EB, r1
    1e14:	8c e9       	ldi	r24, 0x9C	; 156
    1e16:	9e e1       	ldi	r25, 0x1E	; 30
    1e18:	0e 94 37 03 	call	0x66e
    1e1c:	03 c0       	rjmp	.+6      	; 0x1e24
    1e1e:	83 e0       	ldi	r24, 0x03	; 3
    1e20:	80 93 eb 02 	sts	0x02EB, r24
    1e24:	10 92 0b 01 	sts	0x010B, r1
    1e28:	82 e0       	ldi	r24, 0x02	; 2
    1e2a:	80 93 0d 02 	sts	0x020D, r24
    1e2e:	9b c0       	rjmp	.+310    	; 0x1f66
    1e30:	12 96       	adiw	r26, 0x02	; 2
    1e32:	cd 91       	ld	r28, X+
    1e34:	dc 91       	ld	r29, X
    1e36:	13 97       	sbiw	r26, 0x03	; 3
    1e38:	2d 91       	ld	r18, X+
    1e3a:	3c 91       	ld	r19, X
    1e3c:	11 97       	sbiw	r26, 0x01	; 1
    1e3e:	e0 e0       	ldi	r30, 0x00	; 0
    1e40:	f0 e0       	ldi	r31, 0x00	; 0
    1e42:	80 91 6e 01 	lds	r24, 0x016E
    1e46:	90 91 6f 01 	lds	r25, 0x016F
    1e4a:	28 17       	cp	r18, r24
    1e4c:	39 07       	cpc	r19, r25
    1e4e:	09 f0       	breq	.+2      	; 0x1e52
    1e50:	fa 01       	movw	r30, r20
    1e52:	80 e0       	ldi	r24, 0x00	; 0
    1e54:	90 e0       	ldi	r25, 0x00	; 0
    1e56:	60 91 e7 02 	lds	r22, 0x02E7
    1e5a:	70 91 e8 02 	lds	r23, 0x02E8
    1e5e:	c6 17       	cp	r28, r22
    1e60:	d7 07       	cpc	r29, r23
    1e62:	09 f0       	breq	.+2      	; 0x1e66
    1e64:	ca 01       	movw	r24, r20
    1e66:	7f 01       	movw	r14, r30
    1e68:	e8 2a       	or	r14, r24
    1e6a:	f9 2a       	or	r15, r25
    1e6c:	e1 14       	cp	r14, r1
    1e6e:	f1 04       	cpc	r15, r1
    1e70:	21 f0       	breq	.+8      	; 0x1e7a
    1e72:	c9 01       	movw	r24, r18
    1e74:	0e 94 21 10 	call	0x2042
    1e78:	7a c0       	rjmp	.+244    	; 0x1f6e
    1e7a:	14 96       	adiw	r26, 0x04	; 4
    1e7c:	8c 91       	ld	r24, X
    1e7e:	89 30       	cpi	r24, 0x09	; 9
    1e80:	d9 f4       	brne	.+54     	; 0x1eb8
    1e82:	10 92 7a 01 	sts	0x017A, r1
    1e86:	f0 92 ed 02 	sts	0x02ED, r15
    1e8a:	e0 92 ec 02 	sts	0x02EC, r14
    1e8e:	50 93 d0 02 	sts	0x02D0, r21
    1e92:	40 93 cf 02 	sts	0x02CF, r20
    1e96:	8f ef       	ldi	r24, 0xFF	; 255
    1e98:	80 93 7f 01 	sts	0x017F, r24
    1e9c:	10 92 eb 02 	sts	0x02EB, r1
    1ea0:	88 e3       	ldi	r24, 0x38	; 56
    1ea2:	80 93 0d 02 	sts	0x020D, r24
    1ea6:	8f b7       	in	r24, 0x3f	; 63
    1ea8:	f8 94       	cli
    1eaa:	99 27       	eor	r25, r25
    1eac:	d9 98       	cbi	0x1b, 1	; 27
    1eae:	12 60       	ori	r17, 0x02	; 2
    1eb0:	10 93 f3 02 	sts	0x02F3, r17
    1eb4:	8f bf       	out	0x3f, r24	; 63
    1eb6:	57 c0       	rjmp	.+174    	; 0x1f66
    1eb8:	9e 01       	movw	r18, r28
    1eba:	2f 5f       	subi	r18, 0xFF	; 255
    1ebc:	3f 4f       	sbci	r19, 0xFF	; 255
    1ebe:	30 93 e8 02 	sts	0x02E8, r19
    1ec2:	20 93 e7 02 	sts	0x02E7, r18
    1ec6:	22 0f       	add	r18, r18
    1ec8:	33 1f       	adc	r19, r19
    1eca:	80 91 18 02 	lds	r24, 0x0218
    1ece:	90 91 19 02 	lds	r25, 0x0219
    1ed2:	82 0f       	add	r24, r18
    1ed4:	93 1f       	adc	r25, r19
    1ed6:	90 93 25 03 	sts	0x0325, r25
    1eda:	80 93 24 03 	sts	0x0324, r24
    1ede:	86 e3       	ldi	r24, 0x36	; 54
    1ee0:	80 93 0d 02 	sts	0x020D, r24
    1ee4:	8f ef       	ldi	r24, 0xFF	; 255
    1ee6:	80 93 10 03 	sts	0x0310, r24
    1eea:	3d c0       	rjmp	.+122    	; 0x1f66
    1eec:	80 91 59 03 	lds	r24, 0x0359
    1ef0:	88 23       	and	r24, r24
    1ef2:	19 f0       	breq	.+6      	; 0x1efa
    1ef4:	89 2f       	mov	r24, r25
    1ef6:	99 27       	eor	r25, r25
    1ef8:	02 c0       	rjmp	.+4      	; 0x1efe
    1efa:	80 e0       	ldi	r24, 0x00	; 0
    1efc:	90 e0       	ldi	r25, 0x00	; 0
    1efe:	80 93 59 03 	sts	0x0359, r24
    1f02:	82 e0       	ldi	r24, 0x02	; 2
    1f04:	80 93 8d 02 	sts	0x028D, r24
    1f08:	80 91 b7 01 	lds	r24, 0x01B7
    1f0c:	8f 32       	cpi	r24, 0x2F	; 47
    1f0e:	79 f5       	brne	.+94     	; 0x1f6e
    1f10:	80 91 f6 02 	lds	r24, 0x02F6
    1f14:	88 23       	and	r24, r24
    1f16:	69 f0       	breq	.+26     	; 0x1f32
    1f18:	10 92 f6 02 	sts	0x02F6, r1
    1f1c:	80 91 f1 02 	lds	r24, 0x02F1
    1f20:	90 91 f2 02 	lds	r25, 0x02F2
    1f24:	48 e7       	ldi	r20, 0x78	; 120
    1f26:	52 e0       	ldi	r21, 0x02	; 2
    1f28:	bc 01       	movw	r22, r24
    1f2a:	8f e2       	ldi	r24, 0x2F	; 47
    1f2c:	0e 94 c7 10 	call	0x218e
    1f30:	1e c0       	rjmp	.+60     	; 0x1f6e
    1f32:	80 93 23 03 	sts	0x0323, r24
    1f36:	17 c0       	rjmp	.+46     	; 0x1f66
    1f38:	10 92 8d 02 	sts	0x028D, r1
    1f3c:	80 91 b7 01 	lds	r24, 0x01B7
    1f40:	8f 32       	cpi	r24, 0x2F	; 47
    1f42:	a9 f4       	brne	.+42     	; 0x1f6e
    1f44:	10 92 ab 01 	sts	0x01AB, r1
    1f48:	10 92 e2 02 	sts	0x02E2, r1
    1f4c:	0c c0       	rjmp	.+24     	; 0x1f66
    1f4e:	20 e0       	ldi	r18, 0x00	; 0
    1f50:	30 e0       	ldi	r19, 0x00	; 0
    1f52:	20 93 8d 02 	sts	0x028D, r18
    1f56:	80 91 b7 01 	lds	r24, 0x01B7
    1f5a:	8f 32       	cpi	r24, 0x2F	; 47
    1f5c:	41 f4       	brne	.+16     	; 0x1f6e
    1f5e:	20 93 ab 01 	sts	0x01AB, r18
    1f62:	20 93 e2 02 	sts	0x02E2, r18
    1f66:	8b ef       	ldi	r24, 0xFB	; 251
    1f68:	9b e0       	ldi	r25, 0x0B	; 11
    1f6a:	0e 94 37 03 	call	0x66e
    1f6e:	df 91       	pop	r29
    1f70:	cf 91       	pop	r28
    1f72:	1f 91       	pop	r17
    1f74:	ff 90       	pop	r15
    1f76:	ef 90       	pop	r14
    1f78:	08 95       	ret

00001f7a <XnpM$fNPXSendStatus>:
    1f7a:	e0 91 07 03 	lds	r30, 0x0307
    1f7e:	f0 91 08 03 	lds	r31, 0x0308
    1f82:	84 e0       	ldi	r24, 0x04	; 4
    1f84:	85 83       	std	Z+5, r24	; 0x05
    1f86:	e0 91 07 03 	lds	r30, 0x0307
    1f8a:	f0 91 08 03 	lds	r31, 0x0308
    1f8e:	80 91 00 01 	lds	r24, 0x0100
    1f92:	86 83       	std	Z+6, r24	; 0x06
    1f94:	e0 91 07 03 	lds	r30, 0x0307
    1f98:	f0 91 08 03 	lds	r31, 0x0308
    1f9c:	80 91 6e 01 	lds	r24, 0x016E
    1fa0:	87 83       	std	Z+7, r24	; 0x07
    1fa2:	e0 91 07 03 	lds	r30, 0x0307
    1fa6:	f0 91 08 03 	lds	r31, 0x0308
    1faa:	80 91 6e 01 	lds	r24, 0x016E
    1fae:	90 91 6f 01 	lds	r25, 0x016F
    1fb2:	89 2f       	mov	r24, r25
    1fb4:	99 27       	eor	r25, r25
    1fb6:	80 87       	std	Z+8, r24	; 0x08
    1fb8:	e0 91 07 03 	lds	r30, 0x0307
    1fbc:	f0 91 08 03 	lds	r31, 0x0308
    1fc0:	80 91 e7 02 	lds	r24, 0x02E7
    1fc4:	81 87       	std	Z+9, r24	; 0x09
    1fc6:	e0 91 07 03 	lds	r30, 0x0307
    1fca:	f0 91 08 03 	lds	r31, 0x0308
    1fce:	80 91 e7 02 	lds	r24, 0x02E7
    1fd2:	90 91 e8 02 	lds	r25, 0x02E8
    1fd6:	89 2f       	mov	r24, r25
    1fd8:	99 27       	eor	r25, r25
    1fda:	82 87       	std	Z+10, r24	; 0x0a
    1fdc:	e0 91 07 03 	lds	r30, 0x0307
    1fe0:	f0 91 08 03 	lds	r31, 0x0308
    1fe4:	80 91 18 03 	lds	r24, 0x0318
    1fe8:	83 87       	std	Z+11, r24	; 0x0b
    1fea:	e0 91 07 03 	lds	r30, 0x0307
    1fee:	f0 91 08 03 	lds	r31, 0x0308
    1ff2:	80 91 eb 02 	lds	r24, 0x02EB
    1ff6:	84 87       	std	Z+12, r24	; 0x0c
    1ff8:	28 e0       	ldi	r18, 0x08	; 8
    1ffa:	88 e0       	ldi	r24, 0x08	; 8
    1ffc:	90 e0       	ldi	r25, 0x00	; 0
    1ffe:	e0 91 07 03 	lds	r30, 0x0307
    2002:	f0 91 08 03 	lds	r31, 0x0308
    2006:	e8 0f       	add	r30, r24
    2008:	f9 1f       	adc	r31, r25
    200a:	25 83       	std	Z+5, r18	; 0x05
    200c:	2f 5f       	subi	r18, 0xFF	; 255
    200e:	01 96       	adiw	r24, 0x01	; 1
    2010:	24 31       	cpi	r18, 0x14	; 20
    2012:	a8 f3       	brcs	.-22     	; 0x1ffe
    2014:	81 e0       	ldi	r24, 0x01	; 1
    2016:	80 93 70 01 	sts	0x0170, r24
    201a:	80 91 f7 02 	lds	r24, 0x02F7
    201e:	88 23       	and	r24, r24
    2020:	79 f4       	brne	.+30     	; 0x2040
    2022:	80 91 00 01 	lds	r24, 0x0100
    2026:	90 91 01 01 	lds	r25, 0x0101
    202a:	20 91 07 03 	lds	r18, 0x0307
    202e:	30 91 08 03 	lds	r19, 0x0308
    2032:	4d e1       	ldi	r20, 0x1D	; 29
    2034:	bc 01       	movw	r22, r24
    2036:	8f e2       	ldi	r24, 0x2F	; 47
    2038:	0e 94 76 0a 	call	0x14ec
    203c:	80 93 f7 02 	sts	0x02F7, r24
    2040:	08 95       	ret

00002042 <XnpM$fProcessMissingCapsule>:
    2042:	0f 93       	push	r16
    2044:	1f 93       	push	r17
    2046:	cf 93       	push	r28
    2048:	df 93       	push	r29
    204a:	8c 01       	movw	r16, r24
    204c:	eb 01       	movw	r28, r22
    204e:	8f ef       	ldi	r24, 0xFF	; 255
    2050:	80 93 7a 01 	sts	0x017A, r24
    2054:	70 93 ed 02 	sts	0x02ED, r23
    2058:	60 93 ec 02 	sts	0x02EC, r22
    205c:	70 93 d0 02 	sts	0x02D0, r23
    2060:	60 93 cf 02 	sts	0x02CF, r22
    2064:	80 91 16 03 	lds	r24, 0x0316
    2068:	88 23       	and	r24, r24
    206a:	09 f4       	brne	.+2      	; 0x206e
    206c:	81 c0       	rjmp	.+258    	; 0x2170
    206e:	0e 94 90 0b 	call	0x1720
    2072:	90 93 ed 02 	sts	0x02ED, r25
    2076:	80 93 ec 02 	sts	0x02EC, r24
    207a:	8f 70       	andi	r24, 0x0F	; 15
    207c:	90 70       	andi	r25, 0x00	; 0
    207e:	01 96       	adiw	r24, 0x01	; 1
    2080:	90 93 0e 03 	sts	0x030E, r25
    2084:	80 93 0d 03 	sts	0x030D, r24
    2088:	20 ee       	ldi	r18, 0xE0	; 224
    208a:	3f e1       	ldi	r19, 0x1F	; 31
    208c:	00 97       	sbiw	r24, 0x00	; 0
    208e:	59 f0       	breq	.+22     	; 0x20a6
    2090:	21 50       	subi	r18, 0x01	; 1
    2092:	30 40       	sbci	r19, 0x00	; 0
    2094:	e9 f7       	brne	.-6      	; 0x2090
    2096:	20 ee       	ldi	r18, 0xE0	; 224
    2098:	3f e1       	ldi	r19, 0x1F	; 31
    209a:	01 97       	sbiw	r24, 0x01	; 1
    209c:	c9 f7       	brne	.-14     	; 0x2090
    209e:	90 93 0e 03 	sts	0x030E, r25
    20a2:	80 93 0d 03 	sts	0x030D, r24
    20a6:	80 91 7a 01 	lds	r24, 0x017A
    20aa:	81 11       	cpse	r24, r1
    20ac:	8a e0       	ldi	r24, 0x0A	; 10
    20ae:	80 93 eb 02 	sts	0x02EB, r24
    20b2:	80 91 f7 02 	lds	r24, 0x02F7
    20b6:	88 23       	and	r24, r24
    20b8:	09 f0       	breq	.+2      	; 0x20bc
    20ba:	5a c0       	rjmp	.+180    	; 0x2170
    20bc:	9e 01       	movw	r18, r28
    20be:	21 50       	subi	r18, 0x01	; 1
    20c0:	30 40       	sbci	r19, 0x00	; 0
    20c2:	e0 91 07 03 	lds	r30, 0x0307
    20c6:	f0 91 08 03 	lds	r31, 0x0308
    20ca:	86 e0       	ldi	r24, 0x06	; 6
    20cc:	85 83       	std	Z+5, r24	; 0x05
    20ce:	e0 91 07 03 	lds	r30, 0x0307
    20d2:	f0 91 08 03 	lds	r31, 0x0308
    20d6:	80 91 00 01 	lds	r24, 0x0100
    20da:	86 83       	std	Z+6, r24	; 0x06
    20dc:	e0 91 07 03 	lds	r30, 0x0307
    20e0:	f0 91 08 03 	lds	r31, 0x0308
    20e4:	07 83       	std	Z+7, r16	; 0x07
    20e6:	e0 91 07 03 	lds	r30, 0x0307
    20ea:	f0 91 08 03 	lds	r31, 0x0308
    20ee:	81 2f       	mov	r24, r17
    20f0:	99 27       	eor	r25, r25
    20f2:	80 87       	std	Z+8, r24	; 0x08
    20f4:	e0 91 07 03 	lds	r30, 0x0307
    20f8:	f0 91 08 03 	lds	r31, 0x0308
    20fc:	21 87       	std	Z+9, r18	; 0x09
    20fe:	e0 91 07 03 	lds	r30, 0x0307
    2102:	f0 91 08 03 	lds	r31, 0x0308
    2106:	83 2f       	mov	r24, r19
    2108:	99 27       	eor	r25, r25
    210a:	82 87       	std	Z+10, r24	; 0x0a
    210c:	e0 91 07 03 	lds	r30, 0x0307
    2110:	f0 91 08 03 	lds	r31, 0x0308
    2114:	80 91 18 03 	lds	r24, 0x0318
    2118:	83 87       	std	Z+11, r24	; 0x0b
    211a:	e0 91 07 03 	lds	r30, 0x0307
    211e:	f0 91 08 03 	lds	r31, 0x0308
    2122:	80 91 eb 02 	lds	r24, 0x02EB
    2126:	84 87       	std	Z+12, r24	; 0x0c
    2128:	28 e0       	ldi	r18, 0x08	; 8
    212a:	88 e0       	ldi	r24, 0x08	; 8
    212c:	90 e0       	ldi	r25, 0x00	; 0
    212e:	e0 91 07 03 	lds	r30, 0x0307
    2132:	f0 91 08 03 	lds	r31, 0x0308
    2136:	e8 0f       	add	r30, r24
    2138:	f9 1f       	adc	r31, r25
    213a:	25 83       	std	Z+5, r18	; 0x05
    213c:	2f 5f       	subi	r18, 0xFF	; 255
    213e:	01 96       	adiw	r24, 0x01	; 1
    2140:	24 31       	cpi	r18, 0x14	; 20
    2142:	a8 f3       	brcs	.-22     	; 0x212e
    2144:	81 e0       	ldi	r24, 0x01	; 1
    2146:	80 93 70 01 	sts	0x0170, r24
    214a:	80 91 f7 02 	lds	r24, 0x02F7
    214e:	88 23       	and	r24, r24
    2150:	79 f4       	brne	.+30     	; 0x2170
    2152:	80 91 00 01 	lds	r24, 0x0100
    2156:	90 91 01 01 	lds	r25, 0x0101
    215a:	20 91 07 03 	lds	r18, 0x0307
    215e:	30 91 08 03 	lds	r19, 0x0308
    2162:	4d e1       	ldi	r20, 0x1D	; 29
    2164:	bc 01       	movw	r22, r24
    2166:	8f e2       	ldi	r24, 0x2F	; 47
    2168:	0e 94 76 0a 	call	0x14ec
    216c:	80 93 f7 02 	sts	0x02F7, r24
    2170:	82 e0       	ldi	r24, 0x02	; 2
    2172:	80 93 0b 01 	sts	0x010B, r24
    2176:	88 e3       	ldi	r24, 0x38	; 56
    2178:	80 93 0d 02 	sts	0x020D, r24
    217c:	8b ef       	ldi	r24, 0xFB	; 251
    217e:	9b e0       	ldi	r25, 0x0B	; 11
    2180:	0e 94 37 03 	call	0x66e
    2184:	df 91       	pop	r29
    2186:	cf 91       	pop	r28
    2188:	1f 91       	pop	r17
    218a:	0f 91       	pop	r16
    218c:	08 95       	ret

0000218e <eepromM$EEPROMWrite$write>:
    218e:	0f 93       	push	r16
    2190:	1f 93       	push	r17
    2192:	cf 93       	push	r28
    2194:	df 93       	push	r29
    2196:	98 2f       	mov	r25, r24
    2198:	ea 01       	movw	r28, r20
    219a:	80 91 8d 02 	lds	r24, 0x028D
    219e:	82 30       	cpi	r24, 0x02	; 2
    21a0:	d1 f4       	brne	.+52     	; 0x21d6
    21a2:	80 91 b7 01 	lds	r24, 0x01B7
    21a6:	98 17       	cp	r25, r24
    21a8:	b1 f4       	brne	.+44     	; 0x21d6
    21aa:	cb 01       	movw	r24, r22
    21ac:	8f 70       	andi	r24, 0x0F	; 15
    21ae:	90 70       	andi	r25, 0x00	; 0
    21b0:	24 e0       	ldi	r18, 0x04	; 4
    21b2:	88 0f       	add	r24, r24
    21b4:	99 1f       	adc	r25, r25
    21b6:	2a 95       	dec	r18
    21b8:	e1 f7       	brne	.-8      	; 0x21b2
    21ba:	00 e1       	ldi	r16, 0x10	; 16
    21bc:	10 e0       	ldi	r17, 0x00	; 0
    21be:	9a 01       	movw	r18, r20
    21c0:	ac 01       	movw	r20, r24
    21c2:	84 e0       	ldi	r24, 0x04	; 4
    21c4:	76 95       	lsr	r23
    21c6:	67 95       	ror	r22
    21c8:	8a 95       	dec	r24
    21ca:	e1 f7       	brne	.-8      	; 0x21c4
    21cc:	83 e0       	ldi	r24, 0x03	; 3
    21ce:	0e 94 fc 10 	call	0x21f8
    21d2:	88 23       	and	r24, r24
    21d4:	19 f4       	brne	.+6      	; 0x21dc
    21d6:	80 e0       	ldi	r24, 0x00	; 0
    21d8:	90 e0       	ldi	r25, 0x00	; 0
    21da:	09 c0       	rjmp	.+18     	; 0x21ee
    21dc:	83 e0       	ldi	r24, 0x03	; 3
    21de:	80 93 8d 02 	sts	0x028D, r24
    21e2:	d0 93 99 02 	sts	0x0299, r29
    21e6:	c0 93 98 02 	sts	0x0298, r28
    21ea:	81 e0       	ldi	r24, 0x01	; 1
    21ec:	90 e0       	ldi	r25, 0x00	; 0
    21ee:	df 91       	pop	r29
    21f0:	cf 91       	pop	r28
    21f2:	1f 91       	pop	r17
    21f4:	0f 91       	pop	r16
    21f6:	08 95       	ret

000021f8 <PageEEPROMM$newRequest>:
    21f8:	0f 93       	push	r16
    21fa:	1f 93       	push	r17
    21fc:	e8 2f       	mov	r30, r24
    21fe:	88 e0       	ldi	r24, 0x08	; 8
    2200:	60 30       	cpi	r22, 0x00	; 0
    2202:	78 07       	cpc	r23, r24
    2204:	90 f4       	brcc	.+36     	; 0x222a
    2206:	f1 e0       	ldi	r31, 0x01	; 1
    2208:	48 30       	cpi	r20, 0x08	; 8
    220a:	5f 07       	cpc	r21, r31
    220c:	70 f4       	brcc	.+28     	; 0x222a
    220e:	81 e0       	ldi	r24, 0x01	; 1
    2210:	09 30       	cpi	r16, 0x09	; 9
    2212:	18 07       	cpc	r17, r24
    2214:	50 f4       	brcc	.+20     	; 0x222a
    2216:	ca 01       	movw	r24, r20
    2218:	80 0f       	add	r24, r16
    221a:	91 1f       	adc	r25, r17
    221c:	89 50       	subi	r24, 0x09	; 9
    221e:	91 40       	sbci	r25, 0x01	; 1
    2220:	20 f4       	brcc	.+8      	; 0x222a
    2222:	80 91 8f 01 	lds	r24, 0x018F
    2226:	88 23       	and	r24, r24
    2228:	19 f0       	breq	.+6      	; 0x2230
    222a:	80 e0       	ldi	r24, 0x00	; 0
    222c:	90 e0       	ldi	r25, 0x00	; 0
    222e:	3c c0       	rjmp	.+120    	; 0x22a8
    2230:	e0 93 8f 01 	sts	0x018F, r30
    2234:	e0 91 ce 02 	lds	r30, 0x02CE
    2238:	ee 23       	and	r30, r30
    223a:	29 f0       	breq	.+10     	; 0x2246
    223c:	81 ee       	ldi	r24, 0xE1	; 225
    223e:	9e e1       	ldi	r25, 0x1E	; 30
    2240:	0e 94 37 03 	call	0x66e
    2244:	2f c0       	rjmp	.+94     	; 0x22a4
    2246:	30 93 df 01 	sts	0x01DF, r19
    224a:	20 93 de 01 	sts	0x01DE, r18
    224e:	10 93 0a 01 	sts	0x010A, r17
    2252:	00 93 09 01 	sts	0x0109, r16
    2256:	70 93 79 01 	sts	0x0179, r23
    225a:	60 93 78 01 	sts	0x0178, r22
    225e:	50 93 55 03 	sts	0x0355, r21
    2262:	40 93 54 03 	sts	0x0354, r20
    2266:	80 91 ac 01 	lds	r24, 0x01AC
    226a:	90 91 ad 01 	lds	r25, 0x01AD
    226e:	68 17       	cp	r22, r24
    2270:	79 07       	cpc	r23, r25
    2272:	19 f4       	brne	.+6      	; 0x227a
    2274:	e0 93 72 01 	sts	0x0172, r30
    2278:	13 c0       	rjmp	.+38     	; 0x22a0
    227a:	80 91 af 01 	lds	r24, 0x01AF
    227e:	90 91 b0 01 	lds	r25, 0x01B0
    2282:	68 17       	cp	r22, r24
    2284:	79 07       	cpc	r23, r25
    2286:	21 f4       	brne	.+8      	; 0x2290
    2288:	81 e0       	ldi	r24, 0x01	; 1
    228a:	80 93 72 01 	sts	0x0172, r24
    228e:	08 c0       	rjmp	.+16     	; 0x22a0
    2290:	9e 2f       	mov	r25, r30
    2292:	80 91 72 01 	lds	r24, 0x0172
    2296:	88 23       	and	r24, r24
    2298:	09 f4       	brne	.+2      	; 0x229c
    229a:	91 e0       	ldi	r25, 0x01	; 1
    229c:	90 93 72 01 	sts	0x0172, r25
    22a0:	0e 94 57 11 	call	0x22ae
    22a4:	81 e0       	ldi	r24, 0x01	; 1
    22a6:	90 e0       	ldi	r25, 0x00	; 0
    22a8:	1f 91       	pop	r17
    22aa:	0f 91       	pop	r16
    22ac:	08 95       	ret

000022ae <PageEEPROMM$handleRWRequest>:
    22ae:	0f 93       	push	r16
    22b0:	1f 93       	push	r17
    22b2:	40 91 72 01 	lds	r20, 0x0172
    22b6:	84 2f       	mov	r24, r20
    22b8:	99 27       	eor	r25, r25
    22ba:	fc 01       	movw	r30, r24
    22bc:	ee 0f       	add	r30, r30
    22be:	ff 1f       	adc	r31, r31
    22c0:	e8 0f       	add	r30, r24
    22c2:	f9 1f       	adc	r31, r25
    22c4:	df 01       	movw	r26, r30
    22c6:	a4 55       	subi	r26, 0x54	; 84
    22c8:	be 4f       	sbci	r27, 0xFE	; 254
    22ca:	20 91 78 01 	lds	r18, 0x0178
    22ce:	30 91 79 01 	lds	r19, 0x0179
    22d2:	8d 91       	ld	r24, X+
    22d4:	9c 91       	ld	r25, X
    22d6:	11 97       	sbiw	r26, 0x01	; 1
    22d8:	28 17       	cp	r18, r24
    22da:	39 07       	cpc	r19, r25
    22dc:	09 f0       	breq	.+2      	; 0x22e0
    22de:	e8 c0       	rjmp	.+464    	; 0x24b0
    22e0:	50 91 8f 01 	lds	r21, 0x018F
    22e4:	85 2f       	mov	r24, r21
    22e6:	99 27       	eor	r25, r25
    22e8:	84 30       	cpi	r24, 0x04	; 4
    22ea:	91 05       	cpc	r25, r1
    22ec:	b1 f0       	breq	.+44     	; 0x231a
    22ee:	85 30       	cpi	r24, 0x05	; 5
    22f0:	91 05       	cpc	r25, r1
    22f2:	64 f4       	brge	.+24     	; 0x230c
    22f4:	82 30       	cpi	r24, 0x02	; 2
    22f6:	91 05       	cpc	r25, r1
    22f8:	09 f4       	brne	.+2      	; 0x22fc
    22fa:	88 c0       	rjmp	.+272    	; 0x240c
    22fc:	83 30       	cpi	r24, 0x03	; 3
    22fe:	91 05       	cpc	r25, r1
    2300:	0c f0       	brlt	.+2      	; 0x2304
    2302:	a5 c0       	rjmp	.+330    	; 0x244e
    2304:	01 97       	sbiw	r24, 0x01	; 1
    2306:	09 f4       	brne	.+2      	; 0x230a
    2308:	58 c0       	rjmp	.+176    	; 0x23ba
    230a:	fc c0       	rjmp	.+504    	; 0x2504
    230c:	87 30       	cpi	r24, 0x07	; 7
    230e:	91 05       	cpc	r25, r1
    2310:	74 f1       	brlt	.+92     	; 0x236e
    2312:	09 97       	sbiw	r24, 0x09	; 9
    2314:	0c f0       	brlt	.+2      	; 0x2318
    2316:	f6 c0       	rjmp	.+492    	; 0x2504
    2318:	35 c0       	rjmp	.+106    	; 0x2384
    231a:	80 91 54 03 	lds	r24, 0x0354
    231e:	90 91 55 03 	lds	r25, 0x0355
    2322:	81 30       	cpi	r24, 0x01	; 1
    2324:	91 05       	cpc	r25, r1
    2326:	99 f0       	breq	.+38     	; 0x234e
    2328:	81 30       	cpi	r24, 0x01	; 1
    232a:	91 05       	cpc	r25, r1
    232c:	18 f0       	brcs	.+6      	; 0x2334
    232e:	02 97       	sbiw	r24, 0x02	; 2
    2330:	49 f0       	breq	.+18     	; 0x2344
    2332:	e8 c0       	rjmp	.+464    	; 0x2504
    2334:	86 e0       	ldi	r24, 0x06	; 6
    2336:	80 93 16 02 	sts	0x0216, r24
    233a:	00 e0       	ldi	r16, 0x00	; 0
    233c:	10 e0       	ldi	r17, 0x00	; 0
    233e:	40 e0       	ldi	r20, 0x00	; 0
    2340:	61 e8       	ldi	r22, 0x81	; 129
    2342:	dd c0       	rjmp	.+442    	; 0x24fe
    2344:	e2 55       	subi	r30, 0x52	; 82
    2346:	fe 4f       	sbci	r31, 0xFE	; 254
    2348:	80 81       	ld	r24, Z
    234a:	84 60       	ori	r24, 0x04	; 4
    234c:	80 83       	st	Z, r24
    234e:	84 2f       	mov	r24, r20
    2350:	99 27       	eor	r25, r25
    2352:	fc 01       	movw	r30, r24
    2354:	ee 0f       	add	r30, r30
    2356:	ff 1f       	adc	r31, r31
    2358:	e8 0f       	add	r30, r24
    235a:	f9 1f       	adc	r31, r25
    235c:	e2 55       	subi	r30, 0x52	; 82
    235e:	fe 4f       	sbci	r31, 0xFE	; 254
    2360:	80 81       	ld	r24, Z
    2362:	82 60       	ori	r24, 0x02	; 2
    2364:	80 83       	st	Z, r24
    2366:	81 e0       	ldi	r24, 0x01	; 1
    2368:	0e 94 bc 0e 	call	0x1d78
    236c:	cb c0       	rjmp	.+406    	; 0x2504
    236e:	e2 55       	subi	r30, 0x52	; 82
    2370:	fe 4f       	sbci	r31, 0xFE	; 254
    2372:	80 81       	ld	r24, Z
    2374:	81 ff       	sbrs	r24, 1
    2376:	06 c0       	rjmp	.+12     	; 0x2384
    2378:	86 95       	lsr	r24
    237a:	86 95       	lsr	r24
    237c:	86 95       	lsr	r24
    237e:	83 70       	andi	r24, 0x03	; 3
    2380:	09 f0       	breq	.+2      	; 0x2384
    2382:	a3 c0       	rjmp	.+326    	; 0x24ca
    2384:	84 2f       	mov	r24, r20
    2386:	99 27       	eor	r25, r25
    2388:	fc 01       	movw	r30, r24
    238a:	ee 0f       	add	r30, r30
    238c:	ff 1f       	adc	r31, r31
    238e:	e8 0f       	add	r30, r24
    2390:	f9 1f       	adc	r31, r25
    2392:	e2 55       	subi	r30, 0x52	; 82
    2394:	fe 4f       	sbci	r31, 0xFE	; 254
    2396:	80 81       	ld	r24, Z
    2398:	81 ff       	sbrs	r24, 1
    239a:	8f c0       	rjmp	.+286    	; 0x24ba
    239c:	57 30       	cpi	r21, 0x07	; 7
    239e:	11 f0       	breq	.+4      	; 0x23a4
    23a0:	55 30       	cpi	r21, 0x05	; 5
    23a2:	29 f4       	brne	.+10     	; 0x23ae
    23a4:	8d ed       	ldi	r24, 0xDD	; 221
    23a6:	9e e1       	ldi	r25, 0x1E	; 30
    23a8:	0e 94 37 03 	call	0x66e
    23ac:	ab c0       	rjmp	.+342    	; 0x2504
    23ae:	10 92 8f 01 	sts	0x018F, r1
    23b2:	85 2f       	mov	r24, r21
    23b4:	0e 94 83 0e 	call	0x1d06
    23b8:	a5 c0       	rjmp	.+330    	; 0x2504
    23ba:	80 91 de 01 	lds	r24, 0x01DE
    23be:	90 91 df 01 	lds	r25, 0x01DF
    23c2:	90 93 0a 03 	sts	0x030A, r25
    23c6:	80 93 09 03 	sts	0x0309, r24
    23ca:	80 91 09 01 	lds	r24, 0x0109
    23ce:	90 91 0a 01 	lds	r25, 0x010A
    23d2:	90 93 91 01 	sts	0x0191, r25
    23d6:	80 93 90 01 	sts	0x0190, r24
    23da:	81 e0       	ldi	r24, 0x01	; 1
    23dc:	80 93 16 02 	sts	0x0216, r24
    23e0:	44 23       	and	r20, r20
    23e2:	11 f0       	breq	.+4      	; 0x23e8
    23e4:	64 ed       	ldi	r22, 0xD4	; 212
    23e6:	01 c0       	rjmp	.+2      	; 0x23ea
    23e8:	66 ed       	ldi	r22, 0xD6	; 214
    23ea:	20 91 54 03 	lds	r18, 0x0354
    23ee:	30 91 55 03 	lds	r19, 0x0355
    23f2:	84 2f       	mov	r24, r20
    23f4:	99 27       	eor	r25, r25
    23f6:	fc 01       	movw	r30, r24
    23f8:	ee 0f       	add	r30, r30
    23fa:	ff 1f       	adc	r31, r31
    23fc:	e8 0f       	add	r30, r24
    23fe:	f9 1f       	adc	r31, r25
    2400:	e2 55       	subi	r30, 0x52	; 82
    2402:	fe 4f       	sbci	r31, 0xFE	; 254
    2404:	80 81       	ld	r24, Z
    2406:	81 70       	andi	r24, 0x01	; 1
    2408:	89 01       	movw	r16, r18
    240a:	1d c0       	rjmp	.+58     	; 0x2446
    240c:	80 91 09 01 	lds	r24, 0x0109
    2410:	90 91 0a 01 	lds	r25, 0x010A
    2414:	90 93 91 01 	sts	0x0191, r25
    2418:	80 93 90 01 	sts	0x0190, r24
    241c:	82 e0       	ldi	r24, 0x02	; 2
    241e:	80 93 16 02 	sts	0x0216, r24
    2422:	44 23       	and	r20, r20
    2424:	11 f0       	breq	.+4      	; 0x242a
    2426:	64 ed       	ldi	r22, 0xD4	; 212
    2428:	01 c0       	rjmp	.+2      	; 0x242c
    242a:	66 ed       	ldi	r22, 0xD6	; 214
    242c:	84 2f       	mov	r24, r20
    242e:	99 27       	eor	r25, r25
    2430:	fc 01       	movw	r30, r24
    2432:	ee 0f       	add	r30, r30
    2434:	ff 1f       	adc	r31, r31
    2436:	e8 0f       	add	r30, r24
    2438:	f9 1f       	adc	r31, r25
    243a:	e2 55       	subi	r30, 0x52	; 82
    243c:	fe 4f       	sbci	r31, 0xFE	; 254
    243e:	80 81       	ld	r24, Z
    2440:	81 70       	andi	r24, 0x01	; 1
    2442:	00 e0       	ldi	r16, 0x00	; 0
    2444:	10 e0       	ldi	r17, 0x00	; 0
    2446:	20 e0       	ldi	r18, 0x00	; 0
    2448:	30 e0       	ldi	r19, 0x00	; 0
    244a:	42 e0       	ldi	r20, 0x02	; 2
    244c:	59 c0       	rjmp	.+178    	; 0x2500
    244e:	80 91 de 01 	lds	r24, 0x01DE
    2452:	90 91 df 01 	lds	r25, 0x01DF
    2456:	90 93 0a 03 	sts	0x030A, r25
    245a:	80 93 09 03 	sts	0x0309, r24
    245e:	80 91 09 01 	lds	r24, 0x0109
    2462:	90 91 0a 01 	lds	r25, 0x010A
    2466:	90 93 91 01 	sts	0x0191, r25
    246a:	80 93 90 01 	sts	0x0190, r24
    246e:	83 e0       	ldi	r24, 0x03	; 3
    2470:	80 93 16 02 	sts	0x0216, r24
    2474:	e2 55       	subi	r30, 0x52	; 82
    2476:	fe 4f       	sbci	r31, 0xFE	; 254
    2478:	80 81       	ld	r24, Z
    247a:	85 7e       	andi	r24, 0xE5	; 229
    247c:	80 83       	st	Z, r24
    247e:	44 23       	and	r20, r20
    2480:	11 f0       	breq	.+4      	; 0x2486
    2482:	64 e8       	ldi	r22, 0x84	; 132
    2484:	01 c0       	rjmp	.+2      	; 0x2488
    2486:	67 e8       	ldi	r22, 0x87	; 135
    2488:	20 91 54 03 	lds	r18, 0x0354
    248c:	30 91 55 03 	lds	r19, 0x0355
    2490:	84 2f       	mov	r24, r20
    2492:	99 27       	eor	r25, r25
    2494:	fc 01       	movw	r30, r24
    2496:	ee 0f       	add	r30, r30
    2498:	ff 1f       	adc	r31, r31
    249a:	e8 0f       	add	r30, r24
    249c:	f9 1f       	adc	r31, r25
    249e:	e2 55       	subi	r30, 0x52	; 82
    24a0:	fe 4f       	sbci	r31, 0xFE	; 254
    24a2:	80 81       	ld	r24, Z
    24a4:	81 70       	andi	r24, 0x01	; 1
    24a6:	89 01       	movw	r16, r18
    24a8:	20 e0       	ldi	r18, 0x00	; 0
    24aa:	30 e0       	ldi	r19, 0x00	; 0
    24ac:	40 e0       	ldi	r20, 0x00	; 0
    24ae:	28 c0       	rjmp	.+80     	; 0x2500
    24b0:	e2 55       	subi	r30, 0x52	; 82
    24b2:	fe 4f       	sbci	r31, 0xFE	; 254
    24b4:	80 81       	ld	r24, Z
    24b6:	81 fd       	sbrc	r24, 1
    24b8:	03 c0       	rjmp	.+6      	; 0x24c0
    24ba:	0e 94 9d 14 	call	0x293a
    24be:	22 c0       	rjmp	.+68     	; 0x2504
    24c0:	86 95       	lsr	r24
    24c2:	86 95       	lsr	r24
    24c4:	86 95       	lsr	r24
    24c6:	83 70       	andi	r24, 0x03	; 3
    24c8:	21 f0       	breq	.+8      	; 0x24d2
    24ca:	84 2f       	mov	r24, r20
    24cc:	0e 94 15 14 	call	0x282a
    24d0:	19 c0       	rjmp	.+50     	; 0x2504
    24d2:	80 91 8f 01 	lds	r24, 0x018F
    24d6:	84 30       	cpi	r24, 0x04	; 4
    24d8:	19 f4       	brne	.+6      	; 0x24e0
    24da:	2d 93       	st	X+, r18
    24dc:	3c 93       	st	X, r19
    24de:	e9 ce       	rjmp	.-558    	; 0x22b2
    24e0:	85 e0       	ldi	r24, 0x05	; 5
    24e2:	80 93 16 02 	sts	0x0216, r24
    24e6:	44 23       	and	r20, r20
    24e8:	11 f0       	breq	.+4      	; 0x24ee
    24ea:	63 e5       	ldi	r22, 0x53	; 83
    24ec:	01 c0       	rjmp	.+2      	; 0x24f0
    24ee:	65 e5       	ldi	r22, 0x55	; 85
    24f0:	00 e0       	ldi	r16, 0x00	; 0
    24f2:	10 e0       	ldi	r17, 0x00	; 0
    24f4:	20 91 78 01 	lds	r18, 0x0178
    24f8:	30 91 79 01 	lds	r19, 0x0179
    24fc:	40 e0       	ldi	r20, 0x00	; 0
    24fe:	81 e0       	ldi	r24, 0x01	; 1
    2500:	0e 94 85 12 	call	0x250a
    2504:	1f 91       	pop	r17
    2506:	0f 91       	pop	r16
    2508:	08 95       	ret

0000250a <PageEEPROMM$execCommand>:
    250a:	0f 93       	push	r16
    250c:	1f 93       	push	r17
    250e:	78 2f       	mov	r23, r24
    2510:	86 2f       	mov	r24, r22
    2512:	64 2f       	mov	r22, r20
    2514:	a8 01       	movw	r20, r16
    2516:	80 93 8e 02 	sts	0x028E, r24
    251a:	c9 01       	movw	r24, r18
    251c:	88 0f       	add	r24, r24
    251e:	89 2f       	mov	r24, r25
    2520:	88 1f       	adc	r24, r24
    2522:	99 0b       	sbc	r25, r25
    2524:	91 95       	neg	r25
    2526:	80 93 8f 02 	sts	0x028F, r24
    252a:	22 0f       	add	r18, r18
    252c:	85 2f       	mov	r24, r21
    252e:	99 27       	eor	r25, r25
    2530:	28 2b       	or	r18, r24
    2532:	20 93 90 02 	sts	0x0290, r18
    2536:	40 93 91 02 	sts	0x0291, r20
    253a:	6c 5f       	subi	r22, 0xFC	; 252
    253c:	60 93 92 01 	sts	0x0192, r22
    2540:	77 23       	and	r23, r23
    2542:	39 f0       	breq	.+14     	; 0x2552
    2544:	80 91 93 02 	lds	r24, 0x0293
    2548:	88 23       	and	r24, r24
    254a:	19 f0       	breq	.+6      	; 0x2552
    254c:	0e 94 ae 12 	call	0x255c
    2550:	02 c0       	rjmp	.+4      	; 0x2556
    2552:	0e 94 36 14 	call	0x286c
    2556:	1f 91       	pop	r17
    2558:	0f 91       	pop	r16
    255a:	08 95       	ret

0000255c <PageEEPROMM$requestFlashStatus>:
    255c:	81 e0       	ldi	r24, 0x01	; 1
    255e:	80 93 80 01 	sts	0x0180, r24
    2562:	95 98       	cbi	0x12, 5	; 18
    2564:	db 98       	cbi	0x1b, 3	; 27
    2566:	87 ed       	ldi	r24, 0xD7	; 215
    2568:	0e 94 f1 12 	call	0x25e2
    256c:	8f b7       	in	r24, 0x3f	; 63
    256e:	f8 94       	cli
    2570:	28 2f       	mov	r18, r24
    2572:	84 e0       	ldi	r24, 0x04	; 4
    2574:	88 bf       	out	0x38, r24	; 56
    2576:	89 b7       	in	r24, 0x39	; 57
    2578:	84 60       	ori	r24, 0x04	; 4
    257a:	89 bf       	out	0x39, r24	; 57
    257c:	95 98       	cbi	0x12, 5	; 18
    257e:	82 e0       	ldi	r24, 0x02	; 2
    2580:	90 e0       	ldi	r25, 0x00	; 0
    2582:	00 00       	nop
    2584:	00 00       	nop
    2586:	00 00       	nop
    2588:	00 00       	nop
    258a:	00 00       	nop
    258c:	00 00       	nop
    258e:	00 00       	nop
    2590:	00 00       	nop
    2592:	01 97       	sbiw	r24, 0x01	; 1
    2594:	18 16       	cp	r1, r24
    2596:	19 06       	cpc	r1, r25
    2598:	a4 f3       	brlt	.-24     	; 0x2582
    259a:	82 9b       	sbis	0x10, 2	; 16
    259c:	05 c0       	rjmp	.+10     	; 0x25a8
    259e:	89 b7       	in	r24, 0x39	; 57
    25a0:	8b 7f       	andi	r24, 0xFB	; 251
    25a2:	89 bf       	out	0x39, r24	; 57
    25a4:	80 e0       	ldi	r24, 0x00	; 0
    25a6:	01 c0       	rjmp	.+2      	; 0x25aa
    25a8:	81 e0       	ldi	r24, 0x01	; 1
    25aa:	2f bf       	out	0x3f, r18	; 63
    25ac:	88 23       	and	r24, r24
    25ae:	c1 f4       	brne	.+48     	; 0x25e0
    25b0:	80 91 16 02 	lds	r24, 0x0216
    25b4:	88 30       	cpi	r24, 0x08	; 8
    25b6:	61 f4       	brne	.+24     	; 0x25d0
    25b8:	95 9a       	sbi	0x12, 5	; 18
    25ba:	95 98       	cbi	0x12, 5	; 18
    25bc:	00 00       	nop
    25be:	00 00       	nop
    25c0:	80 e0       	ldi	r24, 0x00	; 0
    25c2:	90 e0       	ldi	r25, 0x00	; 0
    25c4:	82 99       	sbic	0x10, 2	; 16
    25c6:	02 c0       	rjmp	.+4      	; 0x25cc
    25c8:	81 e0       	ldi	r24, 0x01	; 1
    25ca:	90 e0       	ldi	r25, 0x00	; 0
    25cc:	80 93 9e 02 	sts	0x029E, r24
    25d0:	81 e0       	ldi	r24, 0x01	; 1
    25d2:	80 93 89 01 	sts	0x0189, r24
    25d6:	db 9a       	sbi	0x1b, 3	; 27
    25d8:	85 ee       	ldi	r24, 0xE5	; 229
    25da:	9e e1       	ldi	r25, 0x1E	; 30
    25dc:	0e 94 37 03 	call	0x66e
    25e0:	08 95       	ret

000025e2 <HPLFlash$FlashSPI$txByte>:
    25e2:	98 2f       	mov	r25, r24
    25e4:	80 e0       	ldi	r24, 0x00	; 0
    25e6:	2f b7       	in	r18, 0x3f	; 63
    25e8:	f8 94       	cli
    25ea:	42 2f       	mov	r20, r18
    25ec:	55 27       	eor	r21, r21
    25ee:	22 b3       	in	r18, 0x12	; 18
    25f0:	27 7d       	andi	r18, 0xD7	; 215
    25f2:	22 bb       	out	0x12, r18	; 18
    25f4:	97 fd       	sbrc	r25, 7
    25f6:	93 9a       	sbi	0x12, 3	; 18
    25f8:	95 9a       	sbi	0x12, 5	; 18
    25fa:	82 99       	sbic	0x10, 2	; 16
    25fc:	80 68       	ori	r24, 0x80	; 128
    25fe:	22 bb       	out	0x12, r18	; 18
    2600:	96 fd       	sbrc	r25, 6
    2602:	93 9a       	sbi	0x12, 3	; 18
    2604:	95 9a       	sbi	0x12, 5	; 18
    2606:	82 99       	sbic	0x10, 2	; 16
    2608:	80 64       	ori	r24, 0x40	; 64
    260a:	22 bb       	out	0x12, r18	; 18
    260c:	95 fd       	sbrc	r25, 5
    260e:	93 9a       	sbi	0x12, 3	; 18
    2610:	95 9a       	sbi	0x12, 5	; 18
    2612:	82 99       	sbic	0x10, 2	; 16
    2614:	80 62       	ori	r24, 0x20	; 32
    2616:	22 bb       	out	0x12, r18	; 18
    2618:	94 fd       	sbrc	r25, 4
    261a:	93 9a       	sbi	0x12, 3	; 18
    261c:	95 9a       	sbi	0x12, 5	; 18
    261e:	82 99       	sbic	0x10, 2	; 16
    2620:	80 61       	ori	r24, 0x10	; 16
    2622:	22 bb       	out	0x12, r18	; 18
    2624:	93 fd       	sbrc	r25, 3
    2626:	93 9a       	sbi	0x12, 3	; 18
    2628:	95 9a       	sbi	0x12, 5	; 18
    262a:	82 99       	sbic	0x10, 2	; 16
    262c:	88 60       	ori	r24, 0x08	; 8
    262e:	22 bb       	out	0x12, r18	; 18
    2630:	92 fd       	sbrc	r25, 2
    2632:	93 9a       	sbi	0x12, 3	; 18
    2634:	95 9a       	sbi	0x12, 5	; 18
    2636:	82 99       	sbic	0x10, 2	; 16
    2638:	84 60       	ori	r24, 0x04	; 4
    263a:	22 bb       	out	0x12, r18	; 18
    263c:	91 fd       	sbrc	r25, 1
    263e:	93 9a       	sbi	0x12, 3	; 18
    2640:	95 9a       	sbi	0x12, 5	; 18
    2642:	82 99       	sbic	0x10, 2	; 16
    2644:	82 60       	ori	r24, 0x02	; 2
    2646:	22 bb       	out	0x12, r18	; 18
    2648:	90 fd       	sbrc	r25, 0
    264a:	93 9a       	sbi	0x12, 3	; 18
    264c:	95 9a       	sbi	0x12, 5	; 18
    264e:	82 99       	sbic	0x10, 2	; 16
    2650:	81 60       	ori	r24, 0x01	; 1
    2652:	4f bf       	out	0x3f, r20	; 63
    2654:	99 27       	eor	r25, r25
    2656:	08 95       	ret

00002658 <PageEEPROMM$flashCommandComplete>:
    2658:	80 91 80 01 	lds	r24, 0x0180
    265c:	20 91 16 02 	lds	r18, 0x0216
    2660:	88 23       	and	r24, r24
    2662:	09 f4       	brne	.+2      	; 0x2666
    2664:	4a c0       	rjmp	.+148    	; 0x26fa
    2666:	90 91 b1 01 	lds	r25, 0x01B1
    266a:	89 2f       	mov	r24, r25
    266c:	8e 7f       	andi	r24, 0xFE	; 254
    266e:	80 93 b1 01 	sts	0x01B1, r24
    2672:	30 91 ae 01 	lds	r19, 0x01AE
    2676:	83 2f       	mov	r24, r19
    2678:	8e 7f       	andi	r24, 0xFE	; 254
    267a:	80 93 ae 01 	sts	0x01AE, r24
    267e:	10 92 93 02 	sts	0x0293, r1
    2682:	10 92 80 01 	sts	0x0180, r1
    2686:	28 30       	cpi	r18, 0x08	; 8
    2688:	39 f5       	brne	.+78     	; 0x26d8
    268a:	20 91 9e 02 	lds	r18, 0x029E
    268e:	80 91 7b 01 	lds	r24, 0x017B
    2692:	22 23       	and	r18, r18
    2694:	59 f0       	breq	.+22     	; 0x26ac
    2696:	99 27       	eor	r25, r25
    2698:	fc 01       	movw	r30, r24
    269a:	ee 0f       	add	r30, r30
    269c:	ff 1f       	adc	r31, r31
    269e:	e8 0f       	add	r30, r24
    26a0:	f9 1f       	adc	r31, r25
    26a2:	e2 55       	subi	r30, 0x52	; 82
    26a4:	fe 4f       	sbci	r31, 0xFE	; 254
    26a6:	80 81       	ld	r24, Z
    26a8:	87 7e       	andi	r24, 0xE7	; 231
    26aa:	9f c0       	rjmp	.+318    	; 0x27ea
    26ac:	99 27       	eor	r25, r25
    26ae:	fc 01       	movw	r30, r24
    26b0:	ee 0f       	add	r30, r30
    26b2:	ff 1f       	adc	r31, r31
    26b4:	e8 0f       	add	r30, r24
    26b6:	f9 1f       	adc	r31, r25
    26b8:	e2 55       	subi	r30, 0x52	; 82
    26ba:	fe 4f       	sbci	r31, 0xFE	; 254
    26bc:	90 81       	ld	r25, Z
    26be:	89 2f       	mov	r24, r25
    26c0:	86 95       	lsr	r24
    26c2:	86 95       	lsr	r24
    26c4:	86 95       	lsr	r24
    26c6:	83 70       	andi	r24, 0x03	; 3
    26c8:	82 30       	cpi	r24, 0x02	; 2
    26ca:	10 f4       	brcc	.+4      	; 0x26d0
    26cc:	9d 7f       	andi	r25, 0xFD	; 253
    26ce:	4b c0       	rjmp	.+150    	; 0x2766
    26d0:	81 e0       	ldi	r24, 0x01	; 1
    26d2:	80 93 ce 02 	sts	0x02CE, r24
    26d6:	26 c0       	rjmp	.+76     	; 0x2724
    26d8:	38 71       	andi	r19, 0x18	; 24
    26da:	11 f4       	brne	.+4      	; 0x26e0
    26dc:	98 71       	andi	r25, 0x18	; 24
    26de:	51 f0       	breq	.+20     	; 0x26f4
    26e0:	27 50       	subi	r18, 0x07	; 7
    26e2:	22 30       	cpi	r18, 0x02	; 2
    26e4:	38 f0       	brcs	.+14     	; 0x26f4
    26e6:	80 e0       	ldi	r24, 0x00	; 0
    26e8:	33 23       	and	r19, r19
    26ea:	09 f4       	brne	.+2      	; 0x26ee
    26ec:	81 e0       	ldi	r24, 0x01	; 1
    26ee:	0e 94 15 14 	call	0x282a
    26f2:	08 95       	ret
    26f4:	0e 94 36 14 	call	0x286c
    26f8:	08 95       	ret
    26fa:	82 2f       	mov	r24, r18
    26fc:	99 27       	eor	r25, r25
    26fe:	84 30       	cpi	r24, 0x04	; 4
    2700:	91 05       	cpc	r25, r1
    2702:	b1 f0       	breq	.+44     	; 0x2730
    2704:	85 30       	cpi	r24, 0x05	; 5
    2706:	91 05       	cpc	r25, r1
    2708:	1c f4       	brge	.+6      	; 0x2710
    270a:	01 97       	sbiw	r24, 0x01	; 1
    270c:	5c f0       	brlt	.+22     	; 0x2724
    270e:	0c c0       	rjmp	.+24     	; 0x2728
    2710:	86 30       	cpi	r24, 0x06	; 6
    2712:	91 05       	cpc	r25, r1
    2714:	09 f4       	brne	.+2      	; 0x2718
    2716:	6b c0       	rjmp	.+214    	; 0x27ee
    2718:	86 30       	cpi	r24, 0x06	; 6
    271a:	91 05       	cpc	r25, r1
    271c:	0c f4       	brge	.+2      	; 0x2720
    271e:	4b c0       	rjmp	.+150    	; 0x27b6
    2720:	07 97       	sbiw	r24, 0x07	; 7
    2722:	29 f1       	breq	.+74     	; 0x276e
    2724:	80 e0       	ldi	r24, 0x00	; 0
    2726:	01 c0       	rjmp	.+2      	; 0x272a
    2728:	81 e0       	ldi	r24, 0x01	; 1
    272a:	0e 94 bc 0e 	call	0x1d78
    272e:	08 95       	ret
    2730:	81 e0       	ldi	r24, 0x01	; 1
    2732:	80 93 93 02 	sts	0x0293, r24
    2736:	80 91 72 01 	lds	r24, 0x0172
    273a:	99 27       	eor	r25, r25
    273c:	fc 01       	movw	r30, r24
    273e:	ee 0f       	add	r30, r30
    2740:	ff 1f       	adc	r31, r31
    2742:	e8 0f       	add	r30, r24
    2744:	f9 1f       	adc	r31, r25
    2746:	e2 55       	subi	r30, 0x52	; 82
    2748:	fe 4f       	sbci	r31, 0xFE	; 254
    274a:	90 81       	ld	r25, Z
    274c:	93 60       	ori	r25, 0x03	; 3
    274e:	89 2f       	mov	r24, r25
    2750:	86 95       	lsr	r24
    2752:	86 95       	lsr	r24
    2754:	86 95       	lsr	r24
    2756:	83 70       	andi	r24, 0x03	; 3
    2758:	8f 5f       	subi	r24, 0xFF	; 255
    275a:	83 70       	andi	r24, 0x03	; 3
    275c:	88 0f       	add	r24, r24
    275e:	88 0f       	add	r24, r24
    2760:	88 0f       	add	r24, r24
    2762:	93 7e       	andi	r25, 0xE3	; 227
    2764:	98 2b       	or	r25, r24
    2766:	90 83       	st	Z, r25
    2768:	0e 94 57 11 	call	0x22ae
    276c:	08 95       	ret
    276e:	88 e0       	ldi	r24, 0x08	; 8
    2770:	80 93 16 02 	sts	0x0216, r24
    2774:	81 e0       	ldi	r24, 0x01	; 1
    2776:	80 93 93 02 	sts	0x0293, r24
    277a:	80 91 7b 01 	lds	r24, 0x017B
    277e:	99 27       	eor	r25, r25
    2780:	fc 01       	movw	r30, r24
    2782:	ee 0f       	add	r30, r30
    2784:	ff 1f       	adc	r31, r31
    2786:	e8 0f       	add	r30, r24
    2788:	f9 1f       	adc	r31, r25
    278a:	e2 55       	subi	r30, 0x52	; 82
    278c:	fe 4f       	sbci	r31, 0xFE	; 254
    278e:	80 81       	ld	r24, Z
    2790:	81 60       	ori	r24, 0x01	; 1
    2792:	80 83       	st	Z, r24
    2794:	8a e0       	ldi	r24, 0x0A	; 10
    2796:	90 e0       	ldi	r25, 0x00	; 0
    2798:	00 00       	nop
    279a:	00 00       	nop
    279c:	00 00       	nop
    279e:	00 00       	nop
    27a0:	00 00       	nop
    27a2:	00 00       	nop
    27a4:	00 00       	nop
    27a6:	00 00       	nop
    27a8:	01 97       	sbiw	r24, 0x01	; 1
    27aa:	18 16       	cp	r1, r24
    27ac:	19 06       	cpc	r1, r25
    27ae:	a4 f3       	brlt	.-24     	; 0x2798
    27b0:	0e 94 ae 12 	call	0x255c
    27b4:	08 95       	ret
    27b6:	81 e0       	ldi	r24, 0x01	; 1
    27b8:	80 93 93 02 	sts	0x0293, r24
    27bc:	80 91 72 01 	lds	r24, 0x0172
    27c0:	99 27       	eor	r25, r25
    27c2:	9c 01       	movw	r18, r24
    27c4:	22 0f       	add	r18, r18
    27c6:	33 1f       	adc	r19, r19
    27c8:	28 0f       	add	r18, r24
    27ca:	39 1f       	adc	r19, r25
    27cc:	f9 01       	movw	r30, r18
    27ce:	e4 55       	subi	r30, 0x54	; 84
    27d0:	fe 4f       	sbci	r31, 0xFE	; 254
    27d2:	80 91 78 01 	lds	r24, 0x0178
    27d6:	90 91 79 01 	lds	r25, 0x0179
    27da:	80 83       	st	Z, r24
    27dc:	91 83       	std	Z+1, r25	; 0x01
    27de:	f9 01       	movw	r30, r18
    27e0:	e2 55       	subi	r30, 0x52	; 82
    27e2:	fe 4f       	sbci	r31, 0xFE	; 254
    27e4:	80 81       	ld	r24, Z
    27e6:	83 60       	ori	r24, 0x03	; 3
    27e8:	8b 7f       	andi	r24, 0xFB	; 251
    27ea:	80 83       	st	Z, r24
    27ec:	bd cf       	rjmp	.-134    	; 0x2768
    27ee:	41 e0       	ldi	r20, 0x01	; 1
    27f0:	40 93 93 02 	sts	0x0293, r20
    27f4:	80 91 72 01 	lds	r24, 0x0172
    27f8:	99 27       	eor	r25, r25
    27fa:	9c 01       	movw	r18, r24
    27fc:	02 c0       	rjmp	.+4      	; 0x2802
    27fe:	22 0f       	add	r18, r18
    2800:	33 1f       	adc	r19, r19
    2802:	4a 95       	dec	r20
    2804:	e2 f7       	brpl	.-8      	; 0x27fe
    2806:	28 0f       	add	r18, r24
    2808:	39 1f       	adc	r19, r25
    280a:	f9 01       	movw	r30, r18
    280c:	e4 55       	subi	r30, 0x54	; 84
    280e:	fe 4f       	sbci	r31, 0xFE	; 254
    2810:	80 91 78 01 	lds	r24, 0x0178
    2814:	90 91 79 01 	lds	r25, 0x0179
    2818:	80 83       	st	Z, r24
    281a:	91 83       	std	Z+1, r25	; 0x01
    281c:	f9 01       	movw	r30, r18
    281e:	e2 55       	subi	r30, 0x52	; 82
    2820:	fe 4f       	sbci	r31, 0xFE	; 254
    2822:	80 81       	ld	r24, Z
    2824:	86 60       	ori	r24, 0x06	; 6
    2826:	80 83       	st	Z, r24
    2828:	7f cf       	rjmp	.-258    	; 0x2728

0000282a <PageEEPROMM$checkBuffer>:
    282a:	0f 93       	push	r16
    282c:	1f 93       	push	r17
    282e:	28 2f       	mov	r18, r24
    2830:	87 e0       	ldi	r24, 0x07	; 7
    2832:	80 93 16 02 	sts	0x0216, r24
    2836:	20 93 7b 01 	sts	0x017B, r18
    283a:	82 2f       	mov	r24, r18
    283c:	99 27       	eor	r25, r25
    283e:	fc 01       	movw	r30, r24
    2840:	ee 0f       	add	r30, r30
    2842:	ff 1f       	adc	r31, r31
    2844:	e8 0f       	add	r30, r24
    2846:	f9 1f       	adc	r31, r25
    2848:	e4 55       	subi	r30, 0x54	; 84
    284a:	fe 4f       	sbci	r31, 0xFE	; 254
    284c:	22 23       	and	r18, r18
    284e:	11 f0       	breq	.+4      	; 0x2854
    2850:	60 e6       	ldi	r22, 0x60	; 96
    2852:	01 c0       	rjmp	.+2      	; 0x2856
    2854:	61 e6       	ldi	r22, 0x61	; 97
    2856:	00 e0       	ldi	r16, 0x00	; 0
    2858:	10 e0       	ldi	r17, 0x00	; 0
    285a:	20 81       	ld	r18, Z
    285c:	31 81       	ldd	r19, Z+1	; 0x01
    285e:	40 e0       	ldi	r20, 0x00	; 0
    2860:	81 e0       	ldi	r24, 0x01	; 1
    2862:	0e 94 85 12 	call	0x250a
    2866:	1f 91       	pop	r17
    2868:	0f 91       	pop	r16
    286a:	08 95       	ret

0000286c <PageEEPROMM$sendFlashCommand>:
    286c:	cf 92       	push	r12
    286e:	df 92       	push	r13
    2870:	ef 92       	push	r14
    2872:	ff 92       	push	r15
    2874:	0f 93       	push	r16
    2876:	1f 93       	push	r17
    2878:	cf 93       	push	r28
    287a:	df 93       	push	r29
    287c:	90 e0       	ldi	r25, 0x00	; 0
    287e:	c9 2e       	mov	r12, r25
    2880:	0e e8       	ldi	r16, 0x8E	; 142
    2882:	12 e0       	ldi	r17, 0x02	; 2
    2884:	80 91 92 01 	lds	r24, 0x0192
    2888:	c8 2f       	mov	r28, r24
    288a:	dd 27       	eor	r29, r29
    288c:	ee 24       	eor	r14, r14
    288e:	ff 24       	eor	r15, r15
    2890:	d9 2e       	mov	r13, r25
    2892:	95 98       	cbi	0x12, 5	; 18
    2894:	db 98       	cbi	0x1b, 3	; 27
    2896:	82 e0       	ldi	r24, 0x02	; 2
    2898:	d8 16       	cp	r13, r24
    289a:	a9 f4       	brne	.+42     	; 0x28c6
    289c:	ef e2       	ldi	r30, 0x2F	; 47
    289e:	f2 e0       	ldi	r31, 0x02	; 2
    28a0:	9f 25       	eor	r25, r15
    28a2:	99 0f       	add	r25, r25
    28a4:	f1 1d       	adc	r31, r1
    28a6:	e9 0f       	add	r30, r25
    28a8:	f1 1d       	adc	r31, r1
    28aa:	c8 95       	lpm
    28ac:	3e 2d       	mov	r19, r14
    28ae:	20 2d       	mov	r18, r0
    28b0:	31 96       	adiw	r30, 0x01	; 1
    28b2:	c8 95       	lpm
    28b4:	30 25       	eor	r19, r0
    28b6:	79 01       	movw	r14, r18
    28b8:	21 97       	sbiw	r28, 0x01	; 1
    28ba:	49 f5       	brne	.+82     	; 0x290e
    28bc:	30 93 d3 02 	sts	0x02D3, r19
    28c0:	20 93 d2 02 	sts	0x02D2, r18
    28c4:	29 c0       	rjmp	.+82     	; 0x2918
    28c6:	dd 20       	and	r13, r13
    28c8:	81 f4       	brne	.+32     	; 0x28ea
    28ca:	f8 01       	movw	r30, r16
    28cc:	c1 90       	ld	r12, Z+
    28ce:	8f 01       	movw	r16, r30
    28d0:	21 97       	sbiw	r28, 0x01	; 1
    28d2:	e9 f4       	brne	.+58     	; 0x290e
    28d4:	d0 90 16 02 	lds	r13, 0x0216
    28d8:	00 91 09 03 	lds	r16, 0x0309
    28dc:	10 91 0a 03 	lds	r17, 0x030A
    28e0:	c0 91 90 01 	lds	r28, 0x0190
    28e4:	d0 91 91 01 	lds	r29, 0x0191
    28e8:	12 c0       	rjmp	.+36     	; 0x290e
    28ea:	f1 e0       	ldi	r31, 0x01	; 1
    28ec:	df 16       	cp	r13, r31
    28ee:	31 f4       	brne	.+12     	; 0x28fc
    28f0:	f8 01       	movw	r30, r16
    28f2:	91 93       	st	Z+, r25
    28f4:	8f 01       	movw	r16, r30
    28f6:	21 97       	sbiw	r28, 0x01	; 1
    28f8:	51 f4       	brne	.+20     	; 0x290e
    28fa:	0e c0       	rjmp	.+28     	; 0x2918
    28fc:	f3 e0       	ldi	r31, 0x03	; 3
    28fe:	df 16       	cp	r13, r31
    2900:	59 f4       	brne	.+22     	; 0x2918
    2902:	20 97       	sbiw	r28, 0x00	; 0
    2904:	49 f0       	breq	.+18     	; 0x2918
    2906:	f8 01       	movw	r30, r16
    2908:	c1 90       	ld	r12, Z+
    290a:	8f 01       	movw	r16, r30
    290c:	21 97       	sbiw	r28, 0x01	; 1
    290e:	8c 2d       	mov	r24, r12
    2910:	0e 94 f1 12 	call	0x25e2
    2914:	98 2f       	mov	r25, r24
    2916:	bf cf       	rjmp	.-130    	; 0x2896
    2918:	81 e0       	ldi	r24, 0x01	; 1
    291a:	80 93 89 01 	sts	0x0189, r24
    291e:	db 9a       	sbi	0x1b, 3	; 27
    2920:	85 ee       	ldi	r24, 0xE5	; 229
    2922:	9e e1       	ldi	r25, 0x1E	; 30
    2924:	0e 94 37 03 	call	0x66e
    2928:	df 91       	pop	r29
    292a:	cf 91       	pop	r28
    292c:	1f 91       	pop	r17
    292e:	0f 91       	pop	r16
    2930:	ff 90       	pop	r15
    2932:	ef 90       	pop	r14
    2934:	df 90       	pop	r13
    2936:	cf 90       	pop	r12
    2938:	08 95       	ret

0000293a <PageEEPROMM$flushBuffer>:
    293a:	0f 93       	push	r16
    293c:	1f 93       	push	r17
    293e:	84 e0       	ldi	r24, 0x04	; 4
    2940:	80 93 16 02 	sts	0x0216, r24
    2944:	40 91 72 01 	lds	r20, 0x0172
    2948:	24 2f       	mov	r18, r20
    294a:	33 27       	eor	r19, r19
    294c:	c9 01       	movw	r24, r18
    294e:	88 0f       	add	r24, r24
    2950:	99 1f       	adc	r25, r25
    2952:	82 0f       	add	r24, r18
    2954:	93 1f       	adc	r25, r19
    2956:	dc 01       	movw	r26, r24
    2958:	a4 55       	subi	r26, 0x54	; 84
    295a:	be 4f       	sbci	r27, 0xFE	; 254
    295c:	fc 01       	movw	r30, r24
    295e:	e2 55       	subi	r30, 0x52	; 82
    2960:	fe 4f       	sbci	r31, 0xFE	; 254
    2962:	80 81       	ld	r24, Z
    2964:	82 ff       	sbrs	r24, 2
    2966:	06 c0       	rjmp	.+12     	; 0x2974
    2968:	44 23       	and	r20, r20
    296a:	11 f0       	breq	.+4      	; 0x2970
    296c:	68 e8       	ldi	r22, 0x88	; 136
    296e:	07 c0       	rjmp	.+14     	; 0x297e
    2970:	69 e8       	ldi	r22, 0x89	; 137
    2972:	05 c0       	rjmp	.+10     	; 0x297e
    2974:	44 23       	and	r20, r20
    2976:	11 f0       	breq	.+4      	; 0x297c
    2978:	63 e8       	ldi	r22, 0x83	; 131
    297a:	01 c0       	rjmp	.+2      	; 0x297e
    297c:	66 e8       	ldi	r22, 0x86	; 134
    297e:	00 e0       	ldi	r16, 0x00	; 0
    2980:	10 e0       	ldi	r17, 0x00	; 0
    2982:	2d 91       	ld	r18, X+
    2984:	3c 91       	ld	r19, X
    2986:	40 e0       	ldi	r20, 0x00	; 0
    2988:	81 e0       	ldi	r24, 0x01	; 1
    298a:	0e 94 85 12 	call	0x250a
    298e:	1f 91       	pop	r17
    2990:	0f 91       	pop	r16
    2992:	08 95       	ret

00002994 <eepromM$EEPROMWrite$startWrite>:
    2994:	98 2f       	mov	r25, r24
    2996:	80 91 8d 02 	lds	r24, 0x028D
    299a:	88 23       	and	r24, r24
    299c:	19 f0       	breq	.+6      	; 0x29a4
    299e:	80 e0       	ldi	r24, 0x00	; 0
    29a0:	90 e0       	ldi	r25, 0x00	; 0
    29a2:	08 95       	ret
    29a4:	82 e0       	ldi	r24, 0x02	; 2
    29a6:	80 93 8d 02 	sts	0x028D, r24
    29aa:	81 e0       	ldi	r24, 0x01	; 1
    29ac:	80 93 59 03 	sts	0x0359, r24
    29b0:	90 93 b7 01 	sts	0x01B7, r25
    29b4:	81 e0       	ldi	r24, 0x01	; 1
    29b6:	90 e0       	ldi	r25, 0x00	; 0
    29b8:	08 95       	ret

000029ba <XnpM$fNPXSRECParse>:
    29ba:	cf 93       	push	r28
    29bc:	df 93       	push	r29
    29be:	ec 01       	movw	r28, r24
    29c0:	6f ef       	ldi	r22, 0xFF	; 255
    29c2:	9c 85       	ldd	r25, Y+12	; 0x0c
    29c4:	50 e0       	ldi	r21, 0x00	; 0
    29c6:	47 e0       	ldi	r20, 0x07	; 7
    29c8:	29 2f       	mov	r18, r25
    29ca:	33 27       	eor	r19, r19
    29cc:	29 5f       	subi	r18, 0xF9	; 249
    29ce:	3f 4f       	sbci	r19, 0xFF	; 255
    29d0:	28 30       	cpi	r18, 0x08	; 8
    29d2:	31 05       	cpc	r19, r1
    29d4:	5c f0       	brlt	.+22     	; 0x29ec
    29d6:	fe 01       	movw	r30, r28
    29d8:	e4 0f       	add	r30, r20
    29da:	f1 1d       	adc	r31, r1
    29dc:	85 81       	ldd	r24, Z+5	; 0x05
    29de:	58 0f       	add	r21, r24
    29e0:	4f 5f       	subi	r20, 0xFF	; 255
    29e2:	84 2f       	mov	r24, r20
    29e4:	99 27       	eor	r25, r25
    29e6:	82 17       	cp	r24, r18
    29e8:	93 07       	cpc	r25, r19
    29ea:	ac f3       	brlt	.-22     	; 0x29d6
    29ec:	50 95       	com	r21
    29ee:	fe 01       	movw	r30, r28
    29f0:	e4 0f       	add	r30, r20
    29f2:	f1 1d       	adc	r31, r1
    29f4:	85 81       	ldd	r24, Z+5	; 0x05
    29f6:	58 17       	cp	r21, r24
    29f8:	21 f4       	brne	.+8      	; 0x2a02
    29fa:	80 91 23 03 	lds	r24, 0x0323
    29fe:	88 23       	and	r24, r24
    2a00:	19 f0       	breq	.+6      	; 0x2a08
    2a02:	80 e0       	ldi	r24, 0x00	; 0
    2a04:	90 e0       	ldi	r25, 0x00	; 0
    2a06:	76 c0       	rjmp	.+236    	; 0x2af4
    2a08:	8b 85       	ldd	r24, Y+11	; 0x0b
    2a0a:	99 27       	eor	r25, r25
    2a0c:	81 30       	cpi	r24, 0x01	; 1
    2a0e:	91 05       	cpc	r25, r1
    2a10:	21 f0       	breq	.+8      	; 0x2a1a
    2a12:	09 97       	sbiw	r24, 0x09	; 9
    2a14:	09 f4       	brne	.+2      	; 0x2a18
    2a16:	4c c0       	rjmp	.+152    	; 0x2ab0
    2a18:	6a c0       	rjmp	.+212    	; 0x2aee
    2a1a:	80 91 6e 01 	lds	r24, 0x016E
    2a1e:	80 93 68 02 	sts	0x0268, r24
    2a22:	80 91 6e 01 	lds	r24, 0x016E
    2a26:	90 91 6f 01 	lds	r25, 0x016F
    2a2a:	89 2f       	mov	r24, r25
    2a2c:	99 27       	eor	r25, r25
    2a2e:	80 93 69 02 	sts	0x0269, r24
    2a32:	89 85       	ldd	r24, Y+9	; 0x09
    2a34:	80 93 6a 02 	sts	0x026A, r24
    2a38:	8a 85       	ldd	r24, Y+10	; 0x0a
    2a3a:	80 93 6b 02 	sts	0x026B, r24
    2a3e:	81 e0       	ldi	r24, 0x01	; 1
    2a40:	80 93 6c 02 	sts	0x026C, r24
    2a44:	9c 85       	ldd	r25, Y+12	; 0x0c
    2a46:	90 93 6d 02 	sts	0x026D, r25
    2a4a:	8e 85       	ldd	r24, Y+14	; 0x0e
    2a4c:	80 93 6e 02 	sts	0x026E, r24
    2a50:	8d 85       	ldd	r24, Y+13	; 0x0d
    2a52:	80 93 6f 02 	sts	0x026F, r24
    2a56:	93 50       	subi	r25, 0x03	; 3
    2a58:	58 e0       	ldi	r21, 0x08	; 8
    2a5a:	4a e0       	ldi	r20, 0x0A	; 10
    2a5c:	29 2f       	mov	r18, r25
    2a5e:	33 27       	eor	r19, r19
    2a60:	28 5f       	subi	r18, 0xF8	; 248
    2a62:	3f 4f       	sbci	r19, 0xFF	; 255
    2a64:	29 30       	cpi	r18, 0x09	; 9
    2a66:	31 05       	cpc	r19, r1
    2a68:	84 f0       	brlt	.+32     	; 0x2a8a
    2a6a:	a5 2f       	mov	r26, r21
    2a6c:	bb 27       	eor	r27, r27
    2a6e:	a8 59       	subi	r26, 0x98	; 152
    2a70:	bd 4f       	sbci	r27, 0xFD	; 253
    2a72:	fe 01       	movw	r30, r28
    2a74:	e4 0f       	add	r30, r20
    2a76:	f1 1d       	adc	r31, r1
    2a78:	85 81       	ldd	r24, Z+5	; 0x05
    2a7a:	8c 93       	st	X, r24
    2a7c:	5f 5f       	subi	r21, 0xFF	; 255
    2a7e:	4f 5f       	subi	r20, 0xFF	; 255
    2a80:	85 2f       	mov	r24, r21
    2a82:	99 27       	eor	r25, r25
    2a84:	82 17       	cp	r24, r18
    2a86:	93 07       	cpc	r25, r19
    2a88:	84 f3       	brlt	.-32     	; 0x2a6a
    2a8a:	e5 2f       	mov	r30, r21
    2a8c:	ff 27       	eor	r31, r31
    2a8e:	e8 59       	subi	r30, 0x98	; 152
    2a90:	fd 4f       	sbci	r31, 0xFD	; 253
    2a92:	87 e7       	ldi	r24, 0x77	; 119
    2a94:	80 83       	st	Z, r24
    2a96:	45 2f       	mov	r20, r21
    2a98:	4f 5f       	subi	r20, 0xFF	; 255
    2a9a:	40 32       	cpi	r20, 0x20	; 32
    2a9c:	48 f5       	brcc	.+82     	; 0x2af0
    2a9e:	e4 2f       	mov	r30, r20
    2aa0:	ff 27       	eor	r31, r31
    2aa2:	e8 59       	subi	r30, 0x98	; 152
    2aa4:	fd 4f       	sbci	r31, 0xFD	; 253
    2aa6:	40 83       	st	Z, r20
    2aa8:	4f 5f       	subi	r20, 0xFF	; 255
    2aaa:	40 32       	cpi	r20, 0x20	; 32
    2aac:	c0 f3       	brcs	.-16     	; 0x2a9e
    2aae:	20 c0       	rjmp	.+64     	; 0x2af0
    2ab0:	80 91 6e 01 	lds	r24, 0x016E
    2ab4:	80 93 68 02 	sts	0x0268, r24
    2ab8:	80 91 6e 01 	lds	r24, 0x016E
    2abc:	90 91 6f 01 	lds	r25, 0x016F
    2ac0:	89 2f       	mov	r24, r25
    2ac2:	99 27       	eor	r25, r25
    2ac4:	80 93 69 02 	sts	0x0269, r24
    2ac8:	89 85       	ldd	r24, Y+9	; 0x09
    2aca:	80 93 6a 02 	sts	0x026A, r24
    2ace:	8a 85       	ldd	r24, Y+10	; 0x0a
    2ad0:	80 93 6b 02 	sts	0x026B, r24
    2ad4:	89 e0       	ldi	r24, 0x09	; 9
    2ad6:	80 93 6c 02 	sts	0x026C, r24
    2ada:	9c 85       	ldd	r25, Y+12	; 0x0c
    2adc:	90 93 6d 02 	sts	0x026D, r25
    2ae0:	8e 85       	ldd	r24, Y+14	; 0x0e
    2ae2:	80 93 6e 02 	sts	0x026E, r24
    2ae6:	8d 85       	ldd	r24, Y+13	; 0x0d
    2ae8:	80 93 6f 02 	sts	0x026F, r24
    2aec:	01 c0       	rjmp	.+2      	; 0x2af0
    2aee:	60 e0       	ldi	r22, 0x00	; 0
    2af0:	86 2f       	mov	r24, r22
    2af2:	99 27       	eor	r25, r25
    2af4:	df 91       	pop	r29
    2af6:	cf 91       	pop	r28
    2af8:	08 95       	ret

00002afa <XnpM$NPX_wEE_LineWrite>:
    2afa:	1f 93       	push	r17
    2afc:	cf 93       	push	r28
    2afe:	80 91 e2 02 	lds	r24, 0x02E2
    2b02:	88 23       	and	r24, r24
    2b04:	d1 f1       	breq	.+116    	; 0x2b7a
    2b06:	c0 91 23 03 	lds	r28, 0x0323
    2b0a:	cc 23       	and	r28, r28
    2b0c:	91 f5       	brne	.+100    	; 0x2b72
    2b0e:	1f ef       	ldi	r17, 0xFF	; 255
    2b10:	10 93 f6 02 	sts	0x02F6, r17
    2b14:	80 91 f1 02 	lds	r24, 0x02F1
    2b18:	90 91 f2 02 	lds	r25, 0x02F2
    2b1c:	48 e6       	ldi	r20, 0x68	; 104
    2b1e:	52 e0       	ldi	r21, 0x02	; 2
    2b20:	bc 01       	movw	r22, r24
    2b22:	8f e2       	ldi	r24, 0x2F	; 47
    2b24:	0e 94 c7 10 	call	0x218e
    2b28:	88 23       	and	r24, r24
    2b2a:	21 f4       	brne	.+8      	; 0x2b34
    2b2c:	8d e7       	ldi	r24, 0x7D	; 125
    2b2e:	95 e1       	ldi	r25, 0x15	; 21
    2b30:	0e 94 37 03 	call	0x66e
    2b34:	10 93 23 03 	sts	0x0323, r17
    2b38:	80 91 f1 02 	lds	r24, 0x02F1
    2b3c:	90 91 f2 02 	lds	r25, 0x02F2
    2b40:	01 96       	adiw	r24, 0x01	; 1
    2b42:	90 93 f2 02 	sts	0x02F2, r25
    2b46:	80 93 f1 02 	sts	0x02F1, r24
    2b4a:	80 91 77 01 	lds	r24, 0x0177
    2b4e:	8f 5f       	subi	r24, 0xFF	; 255
    2b50:	80 93 77 01 	sts	0x0177, r24
    2b54:	80 31       	cpi	r24, 0x10	; 16
    2b56:	88 f0       	brcs	.+34     	; 0x2b7a
    2b58:	9c 2f       	mov	r25, r28
    2b5a:	80 91 81 01 	lds	r24, 0x0181
    2b5e:	88 23       	and	r24, r24
    2b60:	09 f4       	brne	.+2      	; 0x2b64
    2b62:	91 e0       	ldi	r25, 0x01	; 1
    2b64:	90 93 81 01 	sts	0x0181, r25
    2b68:	10 93 88 02 	sts	0x0288, r17
    2b6c:	c0 93 77 01 	sts	0x0177, r28
    2b70:	04 c0       	rjmp	.+8      	; 0x2b7a
    2b72:	8d e7       	ldi	r24, 0x7D	; 125
    2b74:	95 e1       	ldi	r25, 0x15	; 21
    2b76:	0e 94 37 03 	call	0x66e
    2b7a:	cf 91       	pop	r28
    2b7c:	1f 91       	pop	r17
    2b7e:	08 95       	ret

00002b80 <__vector_21>:
    2b80:	1f 92       	push	r1
    2b82:	0f 92       	push	r0
    2b84:	0f b6       	in	r0, 0x3f	; 63
    2b86:	0f 92       	push	r0
    2b88:	11 24       	eor	r1, r1
    2b8a:	ff 92       	push	r15
    2b8c:	0f 93       	push	r16
    2b8e:	1f 93       	push	r17
    2b90:	2f 93       	push	r18
    2b92:	3f 93       	push	r19
    2b94:	4f 93       	push	r20
    2b96:	5f 93       	push	r21
    2b98:	6f 93       	push	r22
    2b9a:	7f 93       	push	r23
    2b9c:	8f 93       	push	r24
    2b9e:	9f 93       	push	r25
    2ba0:	af 93       	push	r26
    2ba2:	bf 93       	push	r27
    2ba4:	cf 93       	push	r28
    2ba6:	df 93       	push	r29
    2ba8:	ef 93       	push	r30
    2baa:	ff 93       	push	r31
    2bac:	c4 b1       	in	r28, 0x04	; 4
    2bae:	d5 b1       	in	r29, 0x05	; 5
    2bb0:	d3 70       	andi	r29, 0x03	; 3
    2bb2:	34 9a       	sbi	0x06, 4	; 6
    2bb4:	37 98       	cbi	0x06, 7	; 6
    2bb6:	78 94       	sei
    2bb8:	8f b7       	in	r24, 0x3f	; 63
    2bba:	f8 94       	cli
    2bbc:	f8 2e       	mov	r15, r24
    2bbe:	80 91 57 03 	lds	r24, 0x0357
    2bc2:	08 2f       	mov	r16, r24
    2bc4:	11 27       	eor	r17, r17
    2bc6:	21 e0       	ldi	r18, 0x01	; 1
    2bc8:	30 e0       	ldi	r19, 0x00	; 0
    2bca:	00 2e       	mov	r0, r16
    2bcc:	02 c0       	rjmp	.+4      	; 0x2bd2
    2bce:	22 0f       	add	r18, r18
    2bd0:	33 1f       	adc	r19, r19
    2bd2:	0a 94       	dec	r0
    2bd4:	e2 f7       	brpl	.-8      	; 0x2bce
    2bd6:	80 91 f8 02 	lds	r24, 0x02F8
    2bda:	90 91 f9 02 	lds	r25, 0x02F9
    2bde:	82 23       	and	r24, r18
    2be0:	93 23       	and	r25, r19
    2be2:	89 2b       	or	r24, r25
    2be4:	61 f4       	brne	.+24     	; 0x2bfe
    2be6:	20 95       	com	r18
    2be8:	30 95       	com	r19
    2bea:	80 91 dc 01 	lds	r24, 0x01DC
    2bee:	90 91 dd 01 	lds	r25, 0x01DD
    2bf2:	82 23       	and	r24, r18
    2bf4:	93 23       	and	r25, r19
    2bf6:	90 93 dd 01 	sts	0x01DD, r25
    2bfa:	80 93 dc 01 	sts	0x01DC, r24
    2bfe:	40 91 dc 01 	lds	r20, 0x01DC
    2c02:	50 91 dd 01 	lds	r21, 0x01DD
    2c06:	41 15       	cp	r20, r1
    2c08:	51 05       	cpc	r21, r1
    2c0a:	11 f1       	breq	.+68     	; 0x2c50
    2c0c:	20 91 57 03 	lds	r18, 0x0357
    2c10:	30 91 58 03 	lds	r19, 0x0358
    2c14:	2f 5f       	subi	r18, 0xFF	; 255
    2c16:	3f 4f       	sbci	r19, 0xFF	; 255
    2c18:	2c 30       	cpi	r18, 0x0C	; 12
    2c1a:	31 05       	cpc	r19, r1
    2c1c:	11 f0       	breq	.+4      	; 0x2c22
    2c1e:	c9 01       	movw	r24, r18
    2c20:	02 c0       	rjmp	.+4      	; 0x2c26
    2c22:	80 e0       	ldi	r24, 0x00	; 0
    2c24:	90 e0       	ldi	r25, 0x00	; 0
    2c26:	9c 01       	movw	r18, r24
    2c28:	81 e0       	ldi	r24, 0x01	; 1
    2c2a:	90 e0       	ldi	r25, 0x00	; 0
    2c2c:	02 2e       	mov	r0, r18
    2c2e:	02 c0       	rjmp	.+4      	; 0x2c34
    2c30:	88 0f       	add	r24, r24
    2c32:	99 1f       	adc	r25, r25
    2c34:	0a 94       	dec	r0
    2c36:	e2 f7       	brpl	.-8      	; 0x2c30
    2c38:	84 23       	and	r24, r20
    2c3a:	95 23       	and	r25, r21
    2c3c:	89 2b       	or	r24, r25
    2c3e:	51 f3       	breq	.-44     	; 0x2c14
    2c40:	30 93 58 03 	sts	0x0358, r19
    2c44:	20 93 57 03 	sts	0x0357, r18
    2c48:	80 91 57 03 	lds	r24, 0x0357
    2c4c:	0e 94 6f 16 	call	0x2cde
    2c50:	ff be       	out	0x3f, r15	; 63
    2c52:	01 15       	cp	r16, r1
    2c54:	11 05       	cpc	r17, r1
    2c56:	69 f4       	brne	.+26     	; 0x2c72
    2c58:	8f b7       	in	r24, 0x3f	; 63
    2c5a:	f8 94       	cli
    2c5c:	28 2f       	mov	r18, r24
    2c5e:	33 27       	eor	r19, r19
    2c60:	d0 93 97 02 	sts	0x0297, r29
    2c64:	c0 93 96 02 	sts	0x0296, r28
    2c68:	81 e0       	ldi	r24, 0x01	; 1
    2c6a:	80 93 e9 02 	sts	0x02E9, r24
    2c6e:	2f bf       	out	0x3f, r18	; 63
    2c70:	01 c0       	rjmp	.+2      	; 0x2c74
    2c72:	80 e0       	ldi	r24, 0x00	; 0
    2c74:	99 27       	eor	r25, r25
    2c76:	2f b7       	in	r18, 0x3f	; 63
    2c78:	f8 94       	cli
    2c7a:	88 23       	and	r24, r24
    2c7c:	c9 f4       	brne	.+50     	; 0x2cb0
    2c7e:	61 e0       	ldi	r22, 0x01	; 1
    2c80:	70 e0       	ldi	r23, 0x00	; 0
    2c82:	02 c0       	rjmp	.+4      	; 0x2c88
    2c84:	66 0f       	add	r22, r22
    2c86:	77 1f       	adc	r23, r23
    2c88:	0a 95       	dec	r16
    2c8a:	e2 f7       	brpl	.-8      	; 0x2c84
    2c8c:	40 91 f8 02 	lds	r20, 0x02F8
    2c90:	50 91 f9 02 	lds	r21, 0x02F9
    2c94:	ca 01       	movw	r24, r20
    2c96:	86 23       	and	r24, r22
    2c98:	97 23       	and	r25, r23
    2c9a:	89 2b       	or	r24, r25
    2c9c:	49 f0       	breq	.+18     	; 0x2cb0
    2c9e:	cb 01       	movw	r24, r22
    2ca0:	80 95       	com	r24
    2ca2:	90 95       	com	r25
    2ca4:	48 23       	and	r20, r24
    2ca6:	59 23       	and	r21, r25
    2ca8:	50 93 f9 02 	sts	0x02F9, r21
    2cac:	40 93 f8 02 	sts	0x02F8, r20
    2cb0:	2f bf       	out	0x3f, r18	; 63
    2cb2:	ff 91       	pop	r31
    2cb4:	ef 91       	pop	r30
    2cb6:	df 91       	pop	r29
    2cb8:	cf 91       	pop	r28
    2cba:	bf 91       	pop	r27
    2cbc:	af 91       	pop	r26
    2cbe:	9f 91       	pop	r25
    2cc0:	8f 91       	pop	r24
    2cc2:	7f 91       	pop	r23
    2cc4:	6f 91       	pop	r22
    2cc6:	5f 91       	pop	r21
    2cc8:	4f 91       	pop	r20
    2cca:	3f 91       	pop	r19
    2ccc:	2f 91       	pop	r18
    2cce:	1f 91       	pop	r17
    2cd0:	0f 91       	pop	r16
    2cd2:	ff 90       	pop	r15
    2cd4:	0f 90       	pop	r0
    2cd6:	0f be       	out	0x3f, r0	; 63
    2cd8:	0f 90       	pop	r0
    2cda:	1f 90       	pop	r1
    2cdc:	18 95       	reti

00002cde <HPLADCM$ADC$samplePort>:
    2cde:	98 2f       	mov	r25, r24
    2ce0:	8f b7       	in	r24, 0x3f	; 63
    2ce2:	f8 94       	cli
    2ce4:	28 2f       	mov	r18, r24
    2ce6:	33 27       	eor	r19, r19
    2ce8:	ea ef       	ldi	r30, 0xFA	; 250
    2cea:	f2 e0       	ldi	r31, 0x02	; 2
    2cec:	e9 0f       	add	r30, r25
    2cee:	f1 1d       	adc	r31, r1
    2cf0:	80 81       	ld	r24, Z
    2cf2:	8f 71       	andi	r24, 0x1F	; 31
    2cf4:	87 b9       	out	0x07, r24	; 7
    2cf6:	2f bf       	out	0x3f, r18	; 63
    2cf8:	37 9a       	sbi	0x06, 7	; 6
    2cfa:	36 9a       	sbi	0x06, 6	; 6
    2cfc:	81 e0       	ldi	r24, 0x01	; 1
    2cfe:	90 e0       	ldi	r25, 0x00	; 0
    2d00:	08 95       	ret

00002d02 <CC1000RadioIntM$SpiByteFifo$dataReady>:
    2d02:	1f 93       	push	r17
    2d04:	cf 93       	push	r28
    2d06:	68 2f       	mov	r22, r24
    2d08:	80 91 0c 03 	lds	r24, 0x030C
    2d0c:	81 11       	cpse	r24, r1
    2d0e:	60 95       	com	r22
    2d10:	80 91 74 01 	lds	r24, 0x0174
    2d14:	48 2f       	mov	r20, r24
    2d16:	55 27       	eor	r21, r21
    2d18:	42 30       	cpi	r20, 0x02	; 2
    2d1a:	51 05       	cpc	r21, r1
    2d1c:	09 f4       	brne	.+2      	; 0x2d20
    2d1e:	ad c0       	rjmp	.+346    	; 0x2e7a
    2d20:	43 30       	cpi	r20, 0x03	; 3
    2d22:	51 05       	cpc	r21, r1
    2d24:	24 f4       	brge	.+8      	; 0x2d2e
    2d26:	41 15       	cp	r20, r1
    2d28:	51 05       	cpc	r21, r1
    2d2a:	71 f0       	breq	.+28     	; 0x2d48
    2d2c:	b8 c2       	rjmp	.+1392   	; 0x329e
    2d2e:	44 30       	cpi	r20, 0x04	; 4
    2d30:	51 05       	cpc	r21, r1
    2d32:	09 f4       	brne	.+2      	; 0x2d36
    2d34:	7e c1       	rjmp	.+764    	; 0x3032
    2d36:	44 30       	cpi	r20, 0x04	; 4
    2d38:	51 05       	cpc	r21, r1
    2d3a:	0c f4       	brge	.+2      	; 0x2d3e
    2d3c:	04 c1       	rjmp	.+520    	; 0x2f46
    2d3e:	45 30       	cpi	r20, 0x05	; 5
    2d40:	51 05       	cpc	r21, r1
    2d42:	09 f4       	brne	.+2      	; 0x2d46
    2d44:	ee c1       	rjmp	.+988    	; 0x3122
    2d46:	ab c2       	rjmp	.+1366   	; 0x329e
    2d48:	20 91 f0 02 	lds	r18, 0x02F0
    2d4c:	8f b7       	in	r24, 0x3f	; 63
    2d4e:	f8 94       	cli
    2d50:	99 27       	eor	r25, r25
    2d52:	20 93 b6 01 	sts	0x01B6, r18
    2d56:	8f bf       	out	0x3f, r24	; 63
    2d58:	60 91 11 03 	lds	r22, 0x0311
    2d5c:	70 91 12 03 	lds	r23, 0x0312
    2d60:	6f 5f       	subi	r22, 0xFF	; 255
    2d62:	7f 4f       	sbci	r23, 0xFF	; 255
    2d64:	70 93 12 03 	sts	0x0312, r23
    2d68:	60 93 11 03 	sts	0x0311, r22
    2d6c:	80 91 08 01 	lds	r24, 0x0108
    2d70:	99 27       	eor	r25, r25
    2d72:	84 30       	cpi	r24, 0x04	; 4
    2d74:	91 05       	cpc	r25, r1
    2d76:	59 f1       	breq	.+86     	; 0x2dce
    2d78:	85 30       	cpi	r24, 0x05	; 5
    2d7a:	91 05       	cpc	r25, r1
    2d7c:	34 f4       	brge	.+12     	; 0x2d8a
    2d7e:	82 30       	cpi	r24, 0x02	; 2
    2d80:	91 05       	cpc	r25, r1
    2d82:	59 f0       	breq	.+22     	; 0x2d9a
    2d84:	03 97       	sbiw	r24, 0x03	; 3
    2d86:	b1 f0       	breq	.+44     	; 0x2db4
    2d88:	6a c0       	rjmp	.+212    	; 0x2e5e
    2d8a:	86 30       	cpi	r24, 0x06	; 6
    2d8c:	91 05       	cpc	r25, r1
    2d8e:	09 f4       	brne	.+2      	; 0x2d92
    2d90:	5e c0       	rjmp	.+188    	; 0x2e4e
    2d92:	06 97       	sbiw	r24, 0x06	; 6
    2d94:	0c f4       	brge	.+2      	; 0x2d98
    2d96:	4b c0       	rjmp	.+150    	; 0x2e2e
    2d98:	62 c0       	rjmp	.+196    	; 0x2e5e
    2d9a:	80 91 85 01 	lds	r24, 0x0185
    2d9e:	90 91 86 01 	lds	r25, 0x0186
    2da2:	68 17       	cp	r22, r24
    2da4:	79 07       	cpc	r23, r25
    2da6:	08 f4       	brcc	.+2      	; 0x2daa
    2da8:	7a c2       	rjmp	.+1268   	; 0x329e
    2daa:	83 e3       	ldi	r24, 0x33	; 51
    2dac:	80 93 f0 02 	sts	0x02F0, r24
    2db0:	83 e0       	ldi	r24, 0x03	; 3
    2db2:	52 c0       	rjmp	.+164    	; 0x2e58
    2db4:	8c ec       	ldi	r24, 0xCC	; 204
    2db6:	80 93 f0 02 	sts	0x02F0, r24
    2dba:	84 e0       	ldi	r24, 0x04	; 4
    2dbc:	80 93 08 01 	sts	0x0108, r24
    2dc0:	8f ef       	ldi	r24, 0xFF	; 255
    2dc2:	9f ef       	ldi	r25, 0xFF	; 255
    2dc4:	90 93 12 03 	sts	0x0312, r25
    2dc8:	80 93 11 03 	sts	0x0311, r24
    2dcc:	68 c2       	rjmp	.+1232   	; 0x329e
    2dce:	80 91 11 03 	lds	r24, 0x0311
    2dd2:	28 2f       	mov	r18, r24
    2dd4:	33 27       	eor	r19, r19
    2dd6:	80 91 8a 01 	lds	r24, 0x018A
    2dda:	90 91 8b 01 	lds	r25, 0x018B
    2dde:	28 17       	cp	r18, r24
    2de0:	39 07       	cpc	r19, r25
    2de2:	f8 f4       	brcc	.+62     	; 0x2e22
    2de4:	e0 91 f4 02 	lds	r30, 0x02F4
    2de8:	f0 91 f5 02 	lds	r31, 0x02F5
    2dec:	e6 0f       	add	r30, r22
    2dee:	f7 1f       	adc	r31, r23
    2df0:	20 81       	ld	r18, Z
    2df2:	20 93 f0 02 	sts	0x02F0, r18
    2df6:	80 91 b2 01 	lds	r24, 0x01B2
    2dfa:	90 91 b3 01 	lds	r25, 0x01B3
    2dfe:	ef e2       	ldi	r30, 0x2F	; 47
    2e00:	f2 e0       	ldi	r31, 0x02	; 2
    2e02:	29 27       	eor	r18, r25
    2e04:	22 0f       	add	r18, r18
    2e06:	f1 1d       	adc	r31, r1
    2e08:	e2 0f       	add	r30, r18
    2e0a:	f1 1d       	adc	r31, r1
    2e0c:	c8 95       	lpm
    2e0e:	98 2f       	mov	r25, r24
    2e10:	80 2d       	mov	r24, r0
    2e12:	31 96       	adiw	r30, 0x01	; 1
    2e14:	c8 95       	lpm
    2e16:	90 25       	eor	r25, r0
    2e18:	90 93 b3 01 	sts	0x01B3, r25
    2e1c:	80 93 b2 01 	sts	0x01B2, r24
    2e20:	3e c2       	rjmp	.+1148   	; 0x329e
    2e22:	80 91 b2 01 	lds	r24, 0x01B2
    2e26:	80 93 f0 02 	sts	0x02F0, r24
    2e2a:	85 e0       	ldi	r24, 0x05	; 5
    2e2c:	15 c0       	rjmp	.+42     	; 0x2e58
    2e2e:	80 91 b2 01 	lds	r24, 0x01B2
    2e32:	90 91 b3 01 	lds	r25, 0x01B3
    2e36:	89 2f       	mov	r24, r25
    2e38:	99 27       	eor	r25, r25
    2e3a:	80 93 f0 02 	sts	0x02F0, r24
    2e3e:	86 e0       	ldi	r24, 0x06	; 6
    2e40:	80 93 08 01 	sts	0x0108, r24
    2e44:	50 93 12 03 	sts	0x0312, r21
    2e48:	40 93 11 03 	sts	0x0311, r20
    2e4c:	28 c2       	rjmp	.+1104   	; 0x329e
    2e4e:	64 30       	cpi	r22, 0x04	; 4
    2e50:	71 05       	cpc	r23, r1
    2e52:	08 f4       	brcc	.+2      	; 0x2e56
    2e54:	24 c2       	rjmp	.+1096   	; 0x329e
    2e56:	87 e0       	ldi	r24, 0x07	; 7
    2e58:	80 93 08 01 	sts	0x0108, r24
    2e5c:	20 c2       	rjmp	.+1088   	; 0x329e
    2e5e:	bb 98       	cbi	0x17, 3	; 23
    2e60:	ba 98       	cbi	0x17, 2	; 23
    2e62:	0e 94 8b 07 	call	0xf16
    2e66:	10 92 71 01 	sts	0x0171, r1
    2e6a:	80 e3       	ldi	r24, 0x30	; 48
    2e6c:	9d e1       	ldi	r25, 0x1D	; 29
    2e6e:	0e 94 37 03 	call	0x66e
    2e72:	88 23       	and	r24, r24
    2e74:	09 f4       	brne	.+2      	; 0x2e78
    2e76:	13 c2       	rjmp	.+1062   	; 0x329e
    2e78:	af c1       	rjmp	.+862    	; 0x31d8
    2e7a:	6a 3a       	cpi	r22, 0xAA	; 170
    2e7c:	11 f0       	breq	.+4      	; 0x2e82
    2e7e:	65 35       	cpi	r22, 0x55	; 85
    2e80:	71 f5       	brne	.+92     	; 0x2ede
    2e82:	20 91 21 03 	lds	r18, 0x0321
    2e86:	30 91 22 03 	lds	r19, 0x0322
    2e8a:	2f 5f       	subi	r18, 0xFF	; 255
    2e8c:	3f 4f       	sbci	r19, 0xFF	; 255
    2e8e:	30 93 22 03 	sts	0x0322, r19
    2e92:	20 93 21 03 	sts	0x0321, r18
    2e96:	80 91 ca 02 	lds	r24, 0x02CA
    2e9a:	e8 2f       	mov	r30, r24
    2e9c:	ff 27       	eor	r31, r31
    2e9e:	ee 5a       	subi	r30, 0xAE	; 174
    2ea0:	fe 4f       	sbci	r31, 0xFE	; 254
    2ea2:	84 91       	lpm	r24, Z
    2ea4:	99 27       	eor	r25, r25
    2ea6:	82 17       	cp	r24, r18
    2ea8:	93 07       	cpc	r25, r19
    2eaa:	08 f0       	brcs	.+2      	; 0x2eae
    2eac:	f8 c1       	rjmp	.+1008   	; 0x329e
    2eae:	10 92 1b 03 	sts	0x031B, r1
    2eb2:	10 92 22 03 	sts	0x0322, r1
    2eb6:	10 92 21 03 	sts	0x0321, r1
    2eba:	10 92 db 01 	sts	0x01DB, r1
    2ebe:	10 92 da 01 	sts	0x01DA, r1
    2ec2:	10 92 8e 01 	sts	0x018E, r1
    2ec6:	10 92 b3 01 	sts	0x01B3, r1
    2eca:	10 92 b2 01 	sts	0x01B2, r1
    2ece:	82 e2       	ldi	r24, 0x22	; 34
    2ed0:	90 e0       	ldi	r25, 0x00	; 0
    2ed2:	90 93 63 02 	sts	0x0263, r25
    2ed6:	80 93 62 02 	sts	0x0262, r24
    2eda:	84 e0       	ldi	r24, 0x04	; 4
    2edc:	7e c1       	rjmp	.+764    	; 0x31da
    2ede:	80 91 71 01 	lds	r24, 0x0171
    2ee2:	88 23       	and	r24, r24
    2ee4:	09 f4       	brne	.+2      	; 0x2ee8
    2ee6:	db c1       	rjmp	.+950    	; 0x329e
    2ee8:	80 91 94 02 	lds	r24, 0x0294
    2eec:	90 91 95 02 	lds	r25, 0x0295
    2ef0:	01 97       	sbiw	r24, 0x01	; 1
    2ef2:	90 93 95 02 	sts	0x0295, r25
    2ef6:	80 93 94 02 	sts	0x0294, r24
    2efa:	18 16       	cp	r1, r24
    2efc:	19 06       	cpc	r1, r25
    2efe:	0c f4       	brge	.+2      	; 0x2f02
    2f00:	ce c1       	rjmp	.+924    	; 0x329e
    2f02:	10 92 e9 02 	sts	0x02E9, r1
    2f06:	8f b7       	in	r24, 0x3f	; 63
    2f08:	f8 94       	cli
    2f0a:	c8 2f       	mov	r28, r24
    2f0c:	20 91 dc 01 	lds	r18, 0x01DC
    2f10:	30 91 dd 01 	lds	r19, 0x01DD
    2f14:	20 fd       	sbrc	r18, 0
    2f16:	10 c0       	rjmp	.+32     	; 0x2f38
    2f18:	c9 01       	movw	r24, r18
    2f1a:	81 60       	ori	r24, 0x01	; 1
    2f1c:	90 93 dd 01 	sts	0x01DD, r25
    2f20:	80 93 dc 01 	sts	0x01DC, r24
    2f24:	21 15       	cp	r18, r1
    2f26:	31 05       	cpc	r19, r1
    2f28:	39 f4       	brne	.+14     	; 0x2f38
    2f2a:	30 93 58 03 	sts	0x0358, r19
    2f2e:	20 93 57 03 	sts	0x0357, r18
    2f32:	80 e0       	ldi	r24, 0x00	; 0
    2f34:	0e 94 6f 16 	call	0x2cde
    2f38:	cf bf       	out	0x3f, r28	; 63
    2f3a:	10 92 22 03 	sts	0x0322, r1
    2f3e:	10 92 21 03 	sts	0x0321, r1
    2f42:	83 e0       	ldi	r24, 0x03	; 3
    2f44:	4a c1       	rjmp	.+660    	; 0x31da
    2f46:	6a 3a       	cpi	r22, 0xAA	; 170
    2f48:	09 f4       	brne	.+2      	; 0x2f4c
    2f4a:	5e c0       	rjmp	.+188    	; 0x3008
    2f4c:	65 35       	cpi	r22, 0x55	; 85
    2f4e:	09 f4       	brne	.+2      	; 0x2f52
    2f50:	5b c0       	rjmp	.+182    	; 0x3008
    2f52:	80 91 e9 02 	lds	r24, 0x02E9
    2f56:	88 23       	and	r24, r24
    2f58:	09 f4       	brne	.+2      	; 0x2f5c
    2f5a:	a1 c1       	rjmp	.+834    	; 0x329e
    2f5c:	80 91 ca 02 	lds	r24, 0x02CA
    2f60:	e8 2f       	mov	r30, r24
    2f62:	ff 27       	eor	r31, r31
    2f64:	e2 59       	subi	r30, 0x92	; 146
    2f66:	fe 4f       	sbci	r31, 0xFE	; 254
    2f68:	84 91       	lpm	r24, Z
    2f6a:	28 2f       	mov	r18, r24
    2f6c:	33 27       	eor	r19, r19
    2f6e:	80 91 96 02 	lds	r24, 0x0296
    2f72:	90 91 97 02 	lds	r25, 0x0297
    2f76:	28 17       	cp	r18, r24
    2f78:	39 07       	cpc	r19, r25
    2f7a:	08 f0       	brcs	.+2      	; 0x2f7e
    2f7c:	45 c0       	rjmp	.+138    	; 0x3008
    2f7e:	61 ee       	ldi	r22, 0xE1	; 225
    2f80:	80 e0       	ldi	r24, 0x00	; 0
    2f82:	0e 94 61 06 	call	0xcc2
    2f86:	80 91 d5 01 	lds	r24, 0x01D5
    2f8a:	68 2f       	mov	r22, r24
    2f8c:	89 e0       	ldi	r24, 0x09	; 9
    2f8e:	0e 94 61 06 	call	0xcc2
    2f92:	8a ef       	ldi	r24, 0xFA	; 250
    2f94:	90 e0       	ldi	r25, 0x00	; 0
    2f96:	00 00       	nop
    2f98:	00 00       	nop
    2f9a:	00 00       	nop
    2f9c:	00 00       	nop
    2f9e:	00 00       	nop
    2fa0:	00 00       	nop
    2fa2:	00 00       	nop
    2fa4:	00 00       	nop
    2fa6:	01 97       	sbiw	r24, 0x01	; 1
    2fa8:	18 16       	cp	r1, r24
    2faa:	19 06       	cpc	r1, r25
    2fac:	a4 f3       	brlt	.-24     	; 0x2f96
    2fae:	80 91 c3 01 	lds	r24, 0x01C3
    2fb2:	68 2f       	mov	r22, r24
    2fb4:	8b e0       	ldi	r24, 0x0B	; 11
    2fb6:	0e 94 61 06 	call	0xcc2
    2fba:	84 e1       	ldi	r24, 0x14	; 20
    2fbc:	90 e0       	ldi	r25, 0x00	; 0
    2fbe:	00 00       	nop
    2fc0:	00 00       	nop
    2fc2:	00 00       	nop
    2fc4:	00 00       	nop
    2fc6:	00 00       	nop
    2fc8:	00 00       	nop
    2fca:	00 00       	nop
    2fcc:	00 00       	nop
    2fce:	01 97       	sbiw	r24, 0x01	; 1
    2fd0:	18 16       	cp	r1, r24
    2fd2:	19 06       	cpc	r1, r25
    2fd4:	a4 f3       	brlt	.-24     	; 0x2fbe
    2fd6:	bb 9a       	sbi	0x17, 3	; 23
    2fd8:	ba 9a       	sbi	0x17, 2	; 23
    2fda:	10 92 12 03 	sts	0x0312, r1
    2fde:	10 92 11 03 	sts	0x0311, r1
    2fe2:	10 92 b3 01 	sts	0x01B3, r1
    2fe6:	10 92 b2 01 	sts	0x01B2, r1
    2fea:	10 92 74 01 	sts	0x0174, r1
    2fee:	82 e0       	ldi	r24, 0x02	; 2
    2ff0:	80 93 08 01 	sts	0x0108, r24
    2ff4:	2a ea       	ldi	r18, 0xAA	; 170
    2ff6:	20 93 f0 02 	sts	0x02F0, r18
    2ffa:	8f b7       	in	r24, 0x3f	; 63
    2ffc:	f8 94       	cli
    2ffe:	99 27       	eor	r25, r25
    3000:	20 93 b6 01 	sts	0x01B6, r18
    3004:	8f bf       	out	0x3f, r24	; 63
    3006:	4b c1       	rjmp	.+662    	; 0x329e
    3008:	0e 94 90 0b 	call	0x1720
    300c:	8f 70       	andi	r24, 0x0F	; 15
    300e:	90 70       	andi	r25, 0x00	; 0
    3010:	24 e2       	ldi	r18, 0x24	; 36
    3012:	30 e0       	ldi	r19, 0x00	; 0
    3014:	82 9f       	mul	r24, r18
    3016:	a0 01       	movw	r20, r0
    3018:	83 9f       	mul	r24, r19
    301a:	50 0d       	add	r21, r0
    301c:	92 9f       	mul	r25, r18
    301e:	50 0d       	add	r21, r0
    3020:	11 24       	eor	r1, r1
    3022:	ca 01       	movw	r24, r20
    3024:	82 0f       	add	r24, r18
    3026:	93 1f       	adc	r25, r19
    3028:	90 93 95 02 	sts	0x0295, r25
    302c:	80 93 94 02 	sts	0x0294, r24
    3030:	d3 c0       	rjmp	.+422    	; 0x31d8
    3032:	6a 3a       	cpi	r22, 0xAA	; 170
    3034:	11 f0       	breq	.+4      	; 0x303a
    3036:	65 35       	cpi	r22, 0x55	; 85
    3038:	19 f4       	brne	.+6      	; 0x3040
    303a:	60 93 a7 01 	sts	0x01A7, r22
    303e:	2f c1       	rjmp	.+606    	; 0x329e
    3040:	80 91 1b 03 	lds	r24, 0x031B
    3044:	99 27       	eor	r25, r25
    3046:	00 97       	sbiw	r24, 0x00	; 0
    3048:	21 f0       	breq	.+8      	; 0x3052
    304a:	03 97       	sbiw	r24, 0x03	; 3
    304c:	0c f0       	brlt	.+2      	; 0x3050
    304e:	60 c0       	rjmp	.+192    	; 0x3110
    3050:	03 c0       	rjmp	.+6      	; 0x3058
    3052:	60 93 a6 01 	sts	0x01A6, r22
    3056:	5f c0       	rjmp	.+190    	; 0x3116
    3058:	20 91 a6 01 	lds	r18, 0x01A6
    305c:	30 91 a7 01 	lds	r19, 0x01A7
    3060:	92 2f       	mov	r25, r18
    3062:	88 27       	eor	r24, r24
    3064:	90 93 a7 01 	sts	0x01A7, r25
    3068:	80 93 a6 01 	sts	0x01A6, r24
    306c:	60 93 a6 01 	sts	0x01A6, r22
    3070:	10 e0       	ldi	r17, 0x00	; 0
    3072:	22 0f       	add	r18, r18
    3074:	33 1f       	adc	r19, r19
    3076:	67 fd       	sbrc	r22, 7
    3078:	21 60       	ori	r18, 0x01	; 1
    307a:	66 0f       	add	r22, r22
    307c:	53 e3       	ldi	r21, 0x33	; 51
    307e:	2c 3c       	cpi	r18, 0xCC	; 204
    3080:	35 07       	cpc	r19, r21
    3082:	09 f0       	breq	.+2      	; 0x3086
    3084:	40 c0       	rjmp	.+128    	; 0x3106
    3086:	e0 91 89 02 	lds	r30, 0x0289
    308a:	f0 91 8a 02 	lds	r31, 0x028A
    308e:	44 81       	ldd	r20, Z+4	; 0x04
    3090:	44 23       	and	r20, r20
    3092:	b9 f0       	breq	.+46     	; 0x30c2
    3094:	8f b7       	in	r24, 0x3f	; 63
    3096:	f8 94       	cli
    3098:	38 2f       	mov	r19, r24
    309a:	20 91 f3 02 	lds	r18, 0x02F3
    309e:	20 ff       	sbrs	r18, 0
    30a0:	06 c0       	rjmp	.+12     	; 0x30ae
    30a2:	8f b7       	in	r24, 0x3f	; 63
    30a4:	f8 94       	cli
    30a6:	99 27       	eor	r25, r25
    30a8:	da 9a       	sbi	0x1b, 2	; 27
    30aa:	2e 7f       	andi	r18, 0xFE	; 254
    30ac:	05 c0       	rjmp	.+10     	; 0x30b8
    30ae:	8f b7       	in	r24, 0x3f	; 63
    30b0:	f8 94       	cli
    30b2:	99 27       	eor	r25, r25
    30b4:	da 98       	cbi	0x1b, 2	; 27
    30b6:	21 60       	ori	r18, 0x01	; 1
    30b8:	20 93 f3 02 	sts	0x02F3, r18
    30bc:	8f bf       	out	0x3f, r24	; 63
    30be:	3f bf       	out	0x3f, r19	; 63
    30c0:	27 c0       	rjmp	.+78     	; 0x3110
    30c2:	85 e0       	ldi	r24, 0x05	; 5
    30c4:	80 93 74 01 	sts	0x0174, r24
    30c8:	8f b7       	in	r24, 0x3f	; 63
    30ca:	f8 94       	cli
    30cc:	c8 2f       	mov	r28, r24
    30ce:	20 91 dc 01 	lds	r18, 0x01DC
    30d2:	30 91 dd 01 	lds	r19, 0x01DD
    30d6:	20 fd       	sbrc	r18, 0
    30d8:	10 c0       	rjmp	.+32     	; 0x30fa
    30da:	c9 01       	movw	r24, r18
    30dc:	81 60       	ori	r24, 0x01	; 1
    30de:	90 93 dd 01 	sts	0x01DD, r25
    30e2:	80 93 dc 01 	sts	0x01DC, r24
    30e6:	21 15       	cp	r18, r1
    30e8:	31 05       	cpc	r19, r1
    30ea:	39 f4       	brne	.+14     	; 0x30fa
    30ec:	30 93 58 03 	sts	0x0358, r19
    30f0:	20 93 57 03 	sts	0x0357, r18
    30f4:	84 2f       	mov	r24, r20
    30f6:	0e 94 6f 16 	call	0x2cde
    30fa:	cf bf       	out	0x3f, r28	; 63
    30fc:	87 e0       	ldi	r24, 0x07	; 7
    30fe:	81 1b       	sub	r24, r17
    3100:	80 93 8e 01 	sts	0x018E, r24
    3104:	08 c0       	rjmp	.+16     	; 0x3116
    3106:	1f 5f       	subi	r17, 0xFF	; 255
    3108:	18 30       	cpi	r17, 0x08	; 8
    310a:	08 f4       	brcc	.+2      	; 0x310e
    310c:	b2 cf       	rjmp	.-156    	; 0x3072
    310e:	03 c0       	rjmp	.+6      	; 0x3116
    3110:	82 e0       	ldi	r24, 0x02	; 2
    3112:	80 93 74 01 	sts	0x0174, r24
    3116:	80 91 1b 03 	lds	r24, 0x031B
    311a:	8f 5f       	subi	r24, 0xFF	; 255
    311c:	80 93 1b 03 	sts	0x031B, r24
    3120:	be c0       	rjmp	.+380    	; 0x329e
    3122:	80 91 a6 01 	lds	r24, 0x01A6
    3126:	90 91 a7 01 	lds	r25, 0x01A7
    312a:	98 2f       	mov	r25, r24
    312c:	88 27       	eor	r24, r24
    312e:	90 93 a7 01 	sts	0x01A7, r25
    3132:	80 93 a6 01 	sts	0x01A6, r24
    3136:	60 93 a6 01 	sts	0x01A6, r22
    313a:	20 91 a6 01 	lds	r18, 0x01A6
    313e:	30 91 a7 01 	lds	r19, 0x01A7
    3142:	00 90 8e 01 	lds	r0, 0x018E
    3146:	02 c0       	rjmp	.+4      	; 0x314c
    3148:	36 95       	lsr	r19
    314a:	27 95       	ror	r18
    314c:	0a 94       	dec	r0
    314e:	e2 f7       	brpl	.-8      	; 0x3148
    3150:	62 2f       	mov	r22, r18
    3152:	e0 91 89 02 	lds	r30, 0x0289
    3156:	f0 91 8a 02 	lds	r31, 0x028A
    315a:	80 91 da 01 	lds	r24, 0x01DA
    315e:	90 91 db 01 	lds	r25, 0x01DB
    3162:	e8 0f       	add	r30, r24
    3164:	f9 1f       	adc	r31, r25
    3166:	20 83       	st	Z, r18
    3168:	40 91 da 01 	lds	r20, 0x01DA
    316c:	50 91 db 01 	lds	r21, 0x01DB
    3170:	4f 5f       	subi	r20, 0xFF	; 255
    3172:	5f 4f       	sbci	r21, 0xFF	; 255
    3174:	50 93 db 01 	sts	0x01DB, r21
    3178:	40 93 da 01 	sts	0x01DA, r20
    317c:	80 91 62 02 	lds	r24, 0x0262
    3180:	90 91 63 02 	lds	r25, 0x0263
    3184:	48 17       	cp	r20, r24
    3186:	59 07       	cpc	r21, r25
    3188:	98 f5       	brcc	.+102    	; 0x31f0
    318a:	80 91 b2 01 	lds	r24, 0x01B2
    318e:	90 91 b3 01 	lds	r25, 0x01B3
    3192:	ef e2       	ldi	r30, 0x2F	; 47
    3194:	f2 e0       	ldi	r31, 0x02	; 2
    3196:	69 27       	eor	r22, r25
    3198:	66 0f       	add	r22, r22
    319a:	f1 1d       	adc	r31, r1
    319c:	e6 0f       	add	r30, r22
    319e:	f1 1d       	adc	r31, r1
    31a0:	c8 95       	lpm
    31a2:	98 2f       	mov	r25, r24
    31a4:	80 2d       	mov	r24, r0
    31a6:	31 96       	adiw	r30, 0x01	; 1
    31a8:	c8 95       	lpm
    31aa:	90 25       	eor	r25, r0
    31ac:	90 93 b3 01 	sts	0x01B3, r25
    31b0:	80 93 b2 01 	sts	0x01B2, r24
    31b4:	45 30       	cpi	r20, 0x05	; 5
    31b6:	51 05       	cpc	r21, r1
    31b8:	09 f0       	breq	.+2      	; 0x31bc
    31ba:	71 c0       	rjmp	.+226    	; 0x329e
    31bc:	e0 91 89 02 	lds	r30, 0x0289
    31c0:	f0 91 8a 02 	lds	r31, 0x028A
    31c4:	84 81       	ldd	r24, Z+4	; 0x04
    31c6:	99 27       	eor	r25, r25
    31c8:	90 93 63 02 	sts	0x0263, r25
    31cc:	80 93 62 02 	sts	0x0262, r24
    31d0:	8e 31       	cpi	r24, 0x1E	; 30
    31d2:	91 05       	cpc	r25, r1
    31d4:	28 f0       	brcs	.+10     	; 0x31e0
    31d6:	14 82       	std	Z+4, r1	; 0x04
    31d8:	82 e0       	ldi	r24, 0x02	; 2
    31da:	80 93 74 01 	sts	0x0174, r24
    31de:	5f c0       	rjmp	.+190    	; 0x329e
    31e0:	00 97       	sbiw	r24, 0x00	; 0
    31e2:	f1 f0       	breq	.+60     	; 0x3220
    31e4:	05 96       	adiw	r24, 0x05	; 5
    31e6:	90 93 63 02 	sts	0x0263, r25
    31ea:	80 93 62 02 	sts	0x0262, r24
    31ee:	57 c0       	rjmp	.+174    	; 0x329e
    31f0:	48 17       	cp	r20, r24
    31f2:	59 07       	cpc	r21, r25
    31f4:	e1 f4       	brne	.+56     	; 0x322e
    31f6:	80 91 b2 01 	lds	r24, 0x01B2
    31fa:	90 91 b3 01 	lds	r25, 0x01B3
    31fe:	ef e2       	ldi	r30, 0x2F	; 47
    3200:	f2 e0       	ldi	r31, 0x02	; 2
    3202:	69 27       	eor	r22, r25
    3204:	66 0f       	add	r22, r22
    3206:	f1 1d       	adc	r31, r1
    3208:	e6 0f       	add	r30, r22
    320a:	f1 1d       	adc	r31, r1
    320c:	c8 95       	lpm
    320e:	98 2f       	mov	r25, r24
    3210:	80 2d       	mov	r24, r0
    3212:	31 96       	adiw	r30, 0x01	; 1
    3214:	c8 95       	lpm
    3216:	90 25       	eor	r25, r0
    3218:	90 93 b3 01 	sts	0x01B3, r25
    321c:	80 93 b2 01 	sts	0x01B2, r24
    3220:	82 e2       	ldi	r24, 0x22	; 34
    3222:	90 e0       	ldi	r25, 0x00	; 0
    3224:	90 93 db 01 	sts	0x01DB, r25
    3228:	80 93 da 01 	sts	0x01DA, r24
    322c:	38 c0       	rjmp	.+112    	; 0x329e
    322e:	44 32       	cpi	r20, 0x24	; 36
    3230:	51 05       	cpc	r21, r1
    3232:	a8 f1       	brcs	.+106    	; 0x329e
    3234:	e0 91 89 02 	lds	r30, 0x0289
    3238:	f0 91 8a 02 	lds	r31, 0x028A
    323c:	22 a1       	ldd	r18, Z+34	; 0x22
    323e:	33 a1       	ldd	r19, Z+35	; 0x23
    3240:	80 91 b2 01 	lds	r24, 0x01B2
    3244:	90 91 b3 01 	lds	r25, 0x01B3
    3248:	28 17       	cp	r18, r24
    324a:	39 07       	cpc	r19, r25
    324c:	29 f4       	brne	.+10     	; 0x3258
    324e:	81 e0       	ldi	r24, 0x01	; 1
    3250:	90 e0       	ldi	r25, 0x00	; 0
    3252:	82 a3       	std	Z+34, r24	; 0x22
    3254:	93 a3       	std	Z+35, r25	; 0x23
    3256:	02 c0       	rjmp	.+4      	; 0x325c
    3258:	12 a2       	std	Z+34, r1	; 0x22
    325a:	13 a2       	std	Z+35, r1	; 0x23
    325c:	0e 94 54 19 	call	0x32a8
    3260:	c2 e0       	ldi	r28, 0x02	; 2
    3262:	c0 93 74 01 	sts	0x0174, r28
    3266:	e0 91 89 02 	lds	r30, 0x0289
    326a:	f0 91 8a 02 	lds	r31, 0x028A
    326e:	80 91 96 02 	lds	r24, 0x0296
    3272:	90 91 97 02 	lds	r25, 0x0297
    3276:	84 a3       	std	Z+36, r24	; 0x24
    3278:	95 a3       	std	Z+37, r25	; 0x25
    327a:	8e ee       	ldi	r24, 0xEE	; 238
    327c:	9c e1       	ldi	r25, 0x1C	; 28
    327e:	0e 94 37 03 	call	0x66e
    3282:	88 23       	and	r24, r24
    3284:	61 f4       	brne	.+24     	; 0x329e
    3286:	e0 91 89 02 	lds	r30, 0x0289
    328a:	f0 91 8a 02 	lds	r31, 0x028A
    328e:	84 83       	std	Z+4, r24	; 0x04
    3290:	c0 93 74 01 	sts	0x0174, r28
    3294:	80 ec       	ldi	r24, 0xC0	; 192
    3296:	8d b9       	out	0x0d, r24	; 13
    3298:	b8 98       	cbi	0x17, 0	; 23
    329a:	0e 94 aa 07 	call	0xf54
    329e:	81 e0       	ldi	r24, 0x01	; 1
    32a0:	90 e0       	ldi	r25, 0x00	; 0
    32a2:	cf 91       	pop	r28
    32a4:	1f 91       	pop	r17
    32a6:	08 95       	ret

000032a8 <HPLSpiM$SpiByteFifo$disableIntr>:
    32a8:	6f 98       	cbi	0x0d, 7	; 13
    32aa:	b8 9a       	sbi	0x17, 0	; 23
    32ac:	c0 98       	cbi	0x18, 0	; 24
    32ae:	0e 94 aa 07 	call	0xf54
    32b2:	81 e0       	ldi	r24, 0x01	; 1
    32b4:	90 e0       	ldi	r25, 0x00	; 0
    32b6:	08 95       	ret

000032b8 <__vector_15>:
    32b8:	78 94       	sei
    32ba:	1f 92       	push	r1
    32bc:	0f 92       	push	r0
    32be:	0f b6       	in	r0, 0x3f	; 63
    32c0:	0f 92       	push	r0
    32c2:	11 24       	eor	r1, r1
    32c4:	2f 93       	push	r18
    32c6:	3f 93       	push	r19
    32c8:	4f 93       	push	r20
    32ca:	5f 93       	push	r21
    32cc:	6f 93       	push	r22
    32ce:	7f 93       	push	r23
    32d0:	8f 93       	push	r24
    32d2:	9f 93       	push	r25
    32d4:	af 93       	push	r26
    32d6:	bf 93       	push	r27
    32d8:	ef 93       	push	r30
    32da:	ff 93       	push	r31
    32dc:	8f b7       	in	r24, 0x3f	; 63
    32de:	f8 94       	cli
    32e0:	28 2f       	mov	r18, r24
    32e2:	33 27       	eor	r19, r19
    32e4:	80 91 94 01 	lds	r24, 0x0194
    32e8:	88 23       	and	r24, r24
    32ea:	69 f0       	breq	.+26     	; 0x3306
    32ec:	80 91 66 02 	lds	r24, 0x0266
    32f0:	80 93 ea 02 	sts	0x02EA, r24
    32f4:	88 60       	ori	r24, 0x08	; 8
    32f6:	80 93 66 02 	sts	0x0266, r24
    32fa:	83 bf       	out	0x33, r24	; 51
    32fc:	80 91 a5 01 	lds	r24, 0x01A5
    3300:	81 bf       	out	0x31, r24	; 49
    3302:	10 92 94 01 	sts	0x0194, r1
    3306:	2f bf       	out	0x3f, r18	; 63
    3308:	85 e4       	ldi	r24, 0x45	; 69
    330a:	9d e1       	ldi	r25, 0x1D	; 29
    330c:	0e 94 37 03 	call	0x66e
    3310:	ff 91       	pop	r31
    3312:	ef 91       	pop	r30
    3314:	bf 91       	pop	r27
    3316:	af 91       	pop	r26
    3318:	9f 91       	pop	r25
    331a:	8f 91       	pop	r24
    331c:	7f 91       	pop	r23
    331e:	6f 91       	pop	r22
    3320:	5f 91       	pop	r21
    3322:	4f 91       	pop	r20
    3324:	3f 91       	pop	r19
    3326:	2f 91       	pop	r18
    3328:	0f 90       	pop	r0
    332a:	0f be       	out	0x3f, r0	; 63
    332c:	0f 90       	pop	r0
    332e:	1f 90       	pop	r1
    3330:	18 95       	reti

00003332 <FramerM$ByteComm$rxByteReady>:
    3332:	38 2f       	mov	r19, r24
    3334:	80 91 06 03 	lds	r24, 0x0306
    3338:	99 27       	eor	r25, r25
    333a:	82 30       	cpi	r24, 0x02	; 2
    333c:	91 05       	cpc	r25, r1
    333e:	09 f4       	brne	.+2      	; 0x3342
    3340:	6b c0       	rjmp	.+214    	; 0x3418
    3342:	83 30       	cpi	r24, 0x03	; 3
    3344:	91 05       	cpc	r25, r1
    3346:	2c f4       	brge	.+10     	; 0x3352
    3348:	00 97       	sbiw	r24, 0x00	; 0
    334a:	59 f0       	breq	.+22     	; 0x3362
    334c:	01 97       	sbiw	r24, 0x01	; 1
    334e:	81 f1       	breq	.+96     	; 0x33b0
    3350:	b7 c1       	rjmp	.+878    	; 0x36c0
    3352:	83 30       	cpi	r24, 0x03	; 3
    3354:	91 05       	cpc	r25, r1
    3356:	09 f4       	brne	.+2      	; 0x335a
    3358:	9c c0       	rjmp	.+312    	; 0x3492
    335a:	04 97       	sbiw	r24, 0x04	; 4
    335c:	09 f4       	brne	.+2      	; 0x3360
    335e:	59 c1       	rjmp	.+690    	; 0x3612
    3360:	af c1       	rjmp	.+862    	; 0x36c0
    3362:	3e 37       	cpi	r19, 0x7E	; 126
    3364:	09 f0       	breq	.+2      	; 0x3368
    3366:	ae c1       	rjmp	.+860    	; 0x36c4
    3368:	80 91 9a 02 	lds	r24, 0x029A
    336c:	99 27       	eor	r25, r25
    336e:	fc 01       	movw	r30, r24
    3370:	ee 0f       	add	r30, r30
    3372:	ff 1f       	adc	r31, r31
    3374:	ee 0f       	add	r30, r30
    3376:	ff 1f       	adc	r31, r31
    3378:	e8 0f       	add	r30, r24
    337a:	f9 1f       	adc	r31, r25
    337c:	e8 0f       	add	r30, r24
    337e:	f9 1f       	adc	r31, r25
    3380:	ec 52       	subi	r30, 0x2C	; 44
    3382:	fd 4f       	sbci	r31, 0xFD	; 253
    3384:	82 81       	ldd	r24, Z+2	; 0x02
    3386:	93 81       	ldd	r25, Z+3	; 0x03
    3388:	00 97       	sbiw	r24, 0x00	; 0
    338a:	09 f0       	breq	.+2      	; 0x338e
    338c:	9b c1       	rjmp	.+822    	; 0x36c4
    338e:	11 82       	std	Z+1, r1	; 0x01
    3390:	90 93 aa 01 	sts	0x01AA, r25
    3394:	80 93 a9 01 	sts	0x01A9, r24
    3398:	90 93 84 01 	sts	0x0184, r25
    339c:	80 93 83 01 	sts	0x0183, r24
    33a0:	84 81       	ldd	r24, Z+4	; 0x04
    33a2:	95 81       	ldd	r25, Z+5	; 0x05
    33a4:	90 93 ef 02 	sts	0x02EF, r25
    33a8:	80 93 ee 02 	sts	0x02EE, r24
    33ac:	81 e0       	ldi	r24, 0x01	; 1
    33ae:	85 c1       	rjmp	.+778    	; 0x36ba
    33b0:	3e 37       	cpi	r19, 0x7E	; 126
    33b2:	09 f4       	brne	.+2      	; 0x33b6
    33b4:	87 c1       	rjmp	.+782    	; 0x36c4
    33b6:	80 91 9a 02 	lds	r24, 0x029A
    33ba:	99 27       	eor	r25, r25
    33bc:	fc 01       	movw	r30, r24
    33be:	ee 0f       	add	r30, r30
    33c0:	ff 1f       	adc	r31, r31
    33c2:	ee 0f       	add	r30, r30
    33c4:	ff 1f       	adc	r31, r31
    33c6:	e8 0f       	add	r30, r24
    33c8:	f9 1f       	adc	r31, r25
    33ca:	e8 0f       	add	r30, r24
    33cc:	f9 1f       	adc	r31, r25
    33ce:	ec 52       	subi	r30, 0x2C	; 44
    33d0:	fd 4f       	sbci	r31, 0xFD	; 253
    33d2:	30 83       	st	Z, r19
    33d4:	80 91 a9 01 	lds	r24, 0x01A9
    33d8:	90 91 aa 01 	lds	r25, 0x01AA
    33dc:	ef e2       	ldi	r30, 0x2F	; 47
    33de:	f2 e0       	ldi	r31, 0x02	; 2
    33e0:	23 2f       	mov	r18, r19
    33e2:	29 27       	eor	r18, r25
    33e4:	22 0f       	add	r18, r18
    33e6:	f1 1d       	adc	r31, r1
    33e8:	e2 0f       	add	r30, r18
    33ea:	f1 1d       	adc	r31, r1
    33ec:	c8 95       	lpm
    33ee:	98 2f       	mov	r25, r24
    33f0:	80 2d       	mov	r24, r0
    33f2:	31 96       	adiw	r30, 0x01	; 1
    33f4:	c8 95       	lpm
    33f6:	90 25       	eor	r25, r0
    33f8:	90 93 aa 01 	sts	0x01AA, r25
    33fc:	80 93 a9 01 	sts	0x01A9, r24
    3400:	83 2f       	mov	r24, r19
    3402:	99 27       	eor	r25, r25
    3404:	81 34       	cpi	r24, 0x41	; 65
    3406:	91 05       	cpc	r25, r1
    3408:	29 f0       	breq	.+10     	; 0x3414
    340a:	82 34       	cpi	r24, 0x42	; 66
    340c:	91 05       	cpc	r25, r1
    340e:	09 f4       	brne	.+2      	; 0x3412
    3410:	53 c1       	rjmp	.+678    	; 0x36b8
    3412:	56 c1       	rjmp	.+684    	; 0x36c0
    3414:	82 e0       	ldi	r24, 0x02	; 2
    3416:	51 c1       	rjmp	.+674    	; 0x36ba
    3418:	3e 37       	cpi	r19, 0x7E	; 126
    341a:	09 f4       	brne	.+2      	; 0x341e
    341c:	51 c1       	rjmp	.+674    	; 0x36c0
    341e:	60 91 9a 02 	lds	r22, 0x029A
    3422:	3d 37       	cpi	r19, 0x7D	; 125
    3424:	81 f4       	brne	.+32     	; 0x3446
    3426:	86 2f       	mov	r24, r22
    3428:	99 27       	eor	r25, r25
    342a:	fc 01       	movw	r30, r24
    342c:	ee 0f       	add	r30, r30
    342e:	ff 1f       	adc	r31, r31
    3430:	ee 0f       	add	r30, r30
    3432:	ff 1f       	adc	r31, r31
    3434:	e8 0f       	add	r30, r24
    3436:	f9 1f       	adc	r31, r25
    3438:	e8 0f       	add	r30, r24
    343a:	f9 1f       	adc	r31, r25
    343c:	ec 52       	subi	r30, 0x2C	; 44
    343e:	fd 4f       	sbci	r31, 0xFD	; 253
    3440:	80 e2       	ldi	r24, 0x20	; 32
    3442:	81 83       	std	Z+1, r24	; 0x01
    3444:	3f c1       	rjmp	.+638    	; 0x36c4
    3446:	86 2f       	mov	r24, r22
    3448:	99 27       	eor	r25, r25
    344a:	fc 01       	movw	r30, r24
    344c:	ee 0f       	add	r30, r30
    344e:	ff 1f       	adc	r31, r31
    3450:	ee 0f       	add	r30, r30
    3452:	ff 1f       	adc	r31, r31
    3454:	e8 0f       	add	r30, r24
    3456:	f9 1f       	adc	r31, r25
    3458:	e8 0f       	add	r30, r24
    345a:	f9 1f       	adc	r31, r25
    345c:	ec 52       	subi	r30, 0x2C	; 44
    345e:	fd 4f       	sbci	r31, 0xFD	; 253
    3460:	21 81       	ldd	r18, Z+1	; 0x01
    3462:	23 27       	eor	r18, r19
    3464:	21 83       	std	Z+1, r18	; 0x01
    3466:	80 91 a9 01 	lds	r24, 0x01A9
    346a:	90 91 aa 01 	lds	r25, 0x01AA
    346e:	ef e2       	ldi	r30, 0x2F	; 47
    3470:	f2 e0       	ldi	r31, 0x02	; 2
    3472:	29 27       	eor	r18, r25
    3474:	22 0f       	add	r18, r18
    3476:	f1 1d       	adc	r31, r1
    3478:	e2 0f       	add	r30, r18
    347a:	f1 1d       	adc	r31, r1
    347c:	c8 95       	lpm
    347e:	98 2f       	mov	r25, r24
    3480:	80 2d       	mov	r24, r0
    3482:	31 96       	adiw	r30, 0x01	; 1
    3484:	c8 95       	lpm
    3486:	90 25       	eor	r25, r0
    3488:	90 93 aa 01 	sts	0x01AA, r25
    348c:	80 93 a9 01 	sts	0x01A9, r24
    3490:	13 c1       	rjmp	.+550    	; 0x36b8
    3492:	40 91 83 01 	lds	r20, 0x0183
    3496:	50 91 84 01 	lds	r21, 0x0184
    349a:	4c 32       	cpi	r20, 0x2C	; 44
    349c:	51 05       	cpc	r21, r1
    349e:	08 f0       	brcs	.+2      	; 0x34a2
    34a0:	ba c0       	rjmp	.+372    	; 0x3616
    34a2:	3d 37       	cpi	r19, 0x7D	; 125
    34a4:	11 f4       	brne	.+4      	; 0x34aa
    34a6:	84 e0       	ldi	r24, 0x04	; 4
    34a8:	08 c1       	rjmp	.+528    	; 0x36ba
    34aa:	3e 37       	cpi	r19, 0x7E	; 126
    34ac:	09 f0       	breq	.+2      	; 0x34b0
    34ae:	7f c0       	rjmp	.+254    	; 0x35ae
    34b0:	42 30       	cpi	r20, 0x02	; 2
    34b2:	51 05       	cpc	r21, r1
    34b4:	08 f4       	brcc	.+2      	; 0x34b8
    34b6:	5f c0       	rjmp	.+190    	; 0x3576
    34b8:	e0 91 ee 02 	lds	r30, 0x02EE
    34bc:	f0 91 ef 02 	lds	r31, 0x02EF
    34c0:	e4 0f       	add	r30, r20
    34c2:	f5 1f       	adc	r31, r21
    34c4:	82 91       	ld	r24, -Z
    34c6:	99 27       	eor	r25, r25
    34c8:	38 2f       	mov	r19, r24
    34ca:	22 27       	eor	r18, r18
    34cc:	82 91       	ld	r24, -Z
    34ce:	99 27       	eor	r25, r25
    34d0:	28 2b       	or	r18, r24
    34d2:	39 2b       	or	r19, r25
    34d4:	80 91 a9 01 	lds	r24, 0x01A9
    34d8:	90 91 aa 01 	lds	r25, 0x01AA
    34dc:	60 91 9a 02 	lds	r22, 0x029A
    34e0:	28 17       	cp	r18, r24
    34e2:	39 07       	cpc	r19, r25
    34e4:	e1 f4       	brne	.+56     	; 0x351e
    34e6:	86 2f       	mov	r24, r22
    34e8:	99 27       	eor	r25, r25
    34ea:	fc 01       	movw	r30, r24
    34ec:	ee 0f       	add	r30, r30
    34ee:	ff 1f       	adc	r31, r31
    34f0:	ee 0f       	add	r30, r30
    34f2:	ff 1f       	adc	r31, r31
    34f4:	e8 0f       	add	r30, r24
    34f6:	f9 1f       	adc	r31, r25
    34f8:	e8 0f       	add	r30, r24
    34fa:	f9 1f       	adc	r31, r25
    34fc:	ec 52       	subi	r30, 0x2C	; 44
    34fe:	fd 4f       	sbci	r31, 0xFD	; 253
    3500:	42 50       	subi	r20, 0x02	; 2
    3502:	50 40       	sbci	r21, 0x00	; 0
    3504:	42 83       	std	Z+2, r20	; 0x02
    3506:	53 83       	std	Z+3, r21	; 0x03
    3508:	8a e2       	ldi	r24, 0x2A	; 42
    350a:	9e e1       	ldi	r25, 0x1E	; 30
    350c:	0e 94 37 03 	call	0x66e
    3510:	80 91 9a 02 	lds	r24, 0x029A
    3514:	8f 5f       	subi	r24, 0xFF	; 255
    3516:	81 70       	andi	r24, 0x01	; 1
    3518:	80 93 9a 02 	sts	0x029A, r24
    351c:	10 c0       	rjmp	.+32     	; 0x353e
    351e:	86 2f       	mov	r24, r22
    3520:	99 27       	eor	r25, r25
    3522:	fc 01       	movw	r30, r24
    3524:	ee 0f       	add	r30, r30
    3526:	ff 1f       	adc	r31, r31
    3528:	ee 0f       	add	r30, r30
    352a:	ff 1f       	adc	r31, r31
    352c:	e8 0f       	add	r30, r24
    352e:	f9 1f       	adc	r31, r25
    3530:	e8 0f       	add	r30, r24
    3532:	f9 1f       	adc	r31, r25
    3534:	ec 52       	subi	r30, 0x2C	; 44
    3536:	fd 4f       	sbci	r31, 0xFD	; 253
    3538:	12 82       	std	Z+2, r1	; 0x02
    353a:	13 82       	std	Z+3, r1	; 0x03
    353c:	11 82       	std	Z+1, r1	; 0x01
    353e:	80 91 9a 02 	lds	r24, 0x029A
    3542:	99 27       	eor	r25, r25
    3544:	fc 01       	movw	r30, r24
    3546:	ee 0f       	add	r30, r30
    3548:	ff 1f       	adc	r31, r31
    354a:	ee 0f       	add	r30, r30
    354c:	ff 1f       	adc	r31, r31
    354e:	e8 0f       	add	r30, r24
    3550:	f9 1f       	adc	r31, r25
    3552:	e8 0f       	add	r30, r24
    3554:	f9 1f       	adc	r31, r25
    3556:	ec 52       	subi	r30, 0x2C	; 44
    3558:	fd 4f       	sbci	r31, 0xFD	; 253
    355a:	82 81       	ldd	r24, Z+2	; 0x02
    355c:	93 81       	ldd	r25, Z+3	; 0x03
    355e:	89 2b       	or	r24, r25
    3560:	d9 f4       	brne	.+54     	; 0x3598
    3562:	84 81       	ldd	r24, Z+4	; 0x04
    3564:	95 81       	ldd	r25, Z+5	; 0x05
    3566:	90 93 ef 02 	sts	0x02EF, r25
    356a:	80 93 ee 02 	sts	0x02EE, r24
    356e:	81 e0       	ldi	r24, 0x01	; 1
    3570:	80 93 06 03 	sts	0x0306, r24
    3574:	13 c0       	rjmp	.+38     	; 0x359c
    3576:	80 91 9a 02 	lds	r24, 0x029A
    357a:	99 27       	eor	r25, r25
    357c:	fc 01       	movw	r30, r24
    357e:	ee 0f       	add	r30, r30
    3580:	ff 1f       	adc	r31, r31
    3582:	ee 0f       	add	r30, r30
    3584:	ff 1f       	adc	r31, r31
    3586:	e8 0f       	add	r30, r24
    3588:	f9 1f       	adc	r31, r25
    358a:	e8 0f       	add	r30, r24
    358c:	f9 1f       	adc	r31, r25
    358e:	ec 52       	subi	r30, 0x2C	; 44
    3590:	fd 4f       	sbci	r31, 0xFD	; 253
    3592:	12 82       	std	Z+2, r1	; 0x02
    3594:	13 82       	std	Z+3, r1	; 0x03
    3596:	11 82       	std	Z+1, r1	; 0x01
    3598:	10 92 06 03 	sts	0x0306, r1
    359c:	10 92 aa 01 	sts	0x01AA, r1
    35a0:	10 92 a9 01 	sts	0x01A9, r1
    35a4:	10 92 84 01 	sts	0x0184, r1
    35a8:	10 92 83 01 	sts	0x0183, r1
    35ac:	8b c0       	rjmp	.+278    	; 0x36c4
    35ae:	e0 91 ee 02 	lds	r30, 0x02EE
    35b2:	f0 91 ef 02 	lds	r31, 0x02EF
    35b6:	e4 0f       	add	r30, r20
    35b8:	f5 1f       	adc	r31, r21
    35ba:	30 83       	st	Z, r19
    35bc:	40 91 83 01 	lds	r20, 0x0183
    35c0:	50 91 84 01 	lds	r21, 0x0184
    35c4:	42 30       	cpi	r20, 0x02	; 2
    35c6:	51 05       	cpc	r21, r1
    35c8:	e8 f0       	brcs	.+58     	; 0x3604
    35ca:	20 91 a9 01 	lds	r18, 0x01A9
    35ce:	30 91 aa 01 	lds	r19, 0x01AA
    35d2:	e0 91 ee 02 	lds	r30, 0x02EE
    35d6:	f0 91 ef 02 	lds	r31, 0x02EF
    35da:	e4 0f       	add	r30, r20
    35dc:	f5 1f       	adc	r31, r21
    35de:	32 97       	sbiw	r30, 0x02	; 2
    35e0:	80 81       	ld	r24, Z
    35e2:	ef e2       	ldi	r30, 0x2F	; 47
    35e4:	f2 e0       	ldi	r31, 0x02	; 2
    35e6:	83 27       	eor	r24, r19
    35e8:	88 0f       	add	r24, r24
    35ea:	f1 1d       	adc	r31, r1
    35ec:	e8 0f       	add	r30, r24
    35ee:	f1 1d       	adc	r31, r1
    35f0:	c8 95       	lpm
    35f2:	32 2f       	mov	r19, r18
    35f4:	20 2d       	mov	r18, r0
    35f6:	31 96       	adiw	r30, 0x01	; 1
    35f8:	c8 95       	lpm
    35fa:	30 25       	eor	r19, r0
    35fc:	30 93 aa 01 	sts	0x01AA, r19
    3600:	20 93 a9 01 	sts	0x01A9, r18
    3604:	4f 5f       	subi	r20, 0xFF	; 255
    3606:	5f 4f       	sbci	r21, 0xFF	; 255
    3608:	50 93 84 01 	sts	0x0184, r21
    360c:	40 93 83 01 	sts	0x0183, r20
    3610:	59 c0       	rjmp	.+178    	; 0x36c4
    3612:	3e 37       	cpi	r19, 0x7E	; 126
    3614:	d1 f4       	brne	.+52     	; 0x364a
    3616:	10 92 aa 01 	sts	0x01AA, r1
    361a:	10 92 a9 01 	sts	0x01A9, r1
    361e:	10 92 84 01 	sts	0x0184, r1
    3622:	10 92 83 01 	sts	0x0183, r1
    3626:	80 91 9a 02 	lds	r24, 0x029A
    362a:	99 27       	eor	r25, r25
    362c:	fc 01       	movw	r30, r24
    362e:	ee 0f       	add	r30, r30
    3630:	ff 1f       	adc	r31, r31
    3632:	ee 0f       	add	r30, r30
    3634:	ff 1f       	adc	r31, r31
    3636:	e8 0f       	add	r30, r24
    3638:	f9 1f       	adc	r31, r25
    363a:	e8 0f       	add	r30, r24
    363c:	f9 1f       	adc	r31, r25
    363e:	ec 52       	subi	r30, 0x2C	; 44
    3640:	fd 4f       	sbci	r31, 0xFD	; 253
    3642:	12 82       	std	Z+2, r1	; 0x02
    3644:	13 82       	std	Z+3, r1	; 0x03
    3646:	11 82       	std	Z+1, r1	; 0x01
    3648:	3b c0       	rjmp	.+118    	; 0x36c0
    364a:	80 e2       	ldi	r24, 0x20	; 32
    364c:	83 27       	eor	r24, r19
    364e:	e0 91 ee 02 	lds	r30, 0x02EE
    3652:	f0 91 ef 02 	lds	r31, 0x02EF
    3656:	20 91 83 01 	lds	r18, 0x0183
    365a:	30 91 84 01 	lds	r19, 0x0184
    365e:	e2 0f       	add	r30, r18
    3660:	f3 1f       	adc	r31, r19
    3662:	80 83       	st	Z, r24
    3664:	40 91 83 01 	lds	r20, 0x0183
    3668:	50 91 84 01 	lds	r21, 0x0184
    366c:	42 30       	cpi	r20, 0x02	; 2
    366e:	51 05       	cpc	r21, r1
    3670:	e8 f0       	brcs	.+58     	; 0x36ac
    3672:	20 91 a9 01 	lds	r18, 0x01A9
    3676:	30 91 aa 01 	lds	r19, 0x01AA
    367a:	e0 91 ee 02 	lds	r30, 0x02EE
    367e:	f0 91 ef 02 	lds	r31, 0x02EF
    3682:	e4 0f       	add	r30, r20
    3684:	f5 1f       	adc	r31, r21
    3686:	32 97       	sbiw	r30, 0x02	; 2
    3688:	80 81       	ld	r24, Z
    368a:	ef e2       	ldi	r30, 0x2F	; 47
    368c:	f2 e0       	ldi	r31, 0x02	; 2
    368e:	83 27       	eor	r24, r19
    3690:	88 0f       	add	r24, r24
    3692:	f1 1d       	adc	r31, r1
    3694:	e8 0f       	add	r30, r24
    3696:	f1 1d       	adc	r31, r1
    3698:	c8 95       	lpm
    369a:	32 2f       	mov	r19, r18
    369c:	20 2d       	mov	r18, r0
    369e:	31 96       	adiw	r30, 0x01	; 1
    36a0:	c8 95       	lpm
    36a2:	30 25       	eor	r19, r0
    36a4:	30 93 aa 01 	sts	0x01AA, r19
    36a8:	20 93 a9 01 	sts	0x01A9, r18
    36ac:	4f 5f       	subi	r20, 0xFF	; 255
    36ae:	5f 4f       	sbci	r21, 0xFF	; 255
    36b0:	50 93 84 01 	sts	0x0184, r21
    36b4:	40 93 83 01 	sts	0x0183, r20
    36b8:	83 e0       	ldi	r24, 0x03	; 3
    36ba:	80 93 06 03 	sts	0x0306, r24
    36be:	02 c0       	rjmp	.+4      	; 0x36c4
    36c0:	10 92 06 03 	sts	0x0306, r1
    36c4:	81 e0       	ldi	r24, 0x01	; 1
    36c6:	90 e0       	ldi	r25, 0x00	; 0
    36c8:	08 95       	ret

000036ca <UARTM$HPLUART$putDone>:
    36ca:	8f b7       	in	r24, 0x3f	; 63
    36cc:	f8 94       	cli
    36ce:	99 27       	eor	r25, r25
    36d0:	20 91 92 02 	lds	r18, 0x0292
    36d4:	10 92 92 02 	sts	0x0292, r1
    36d8:	8f bf       	out	0x3f, r24	; 63
    36da:	22 23       	and	r18, r18
    36dc:	09 f4       	brne	.+2      	; 0x36e0
    36de:	a4 c0       	rjmp	.+328    	; 0x3828
    36e0:	80 91 0b 03 	lds	r24, 0x030B
    36e4:	87 30       	cpi	r24, 0x07	; 7
    36e6:	31 f4       	brne	.+12     	; 0x36f4
    36e8:	10 92 0b 03 	sts	0x030B, r1
    36ec:	8d e2       	ldi	r24, 0x2D	; 45
    36ee:	9b e0       	ldi	r25, 0x0B	; 11
    36f0:	0e 94 37 03 	call	0x66e
    36f4:	21 e0       	ldi	r18, 0x01	; 1
    36f6:	80 91 0b 03 	lds	r24, 0x030B
    36fa:	99 27       	eor	r25, r25
    36fc:	84 30       	cpi	r24, 0x04	; 4
    36fe:	91 05       	cpc	r25, r1
    3700:	09 f4       	brne	.+2      	; 0x3704
    3702:	6e c0       	rjmp	.+220    	; 0x37e0
    3704:	85 30       	cpi	r24, 0x05	; 5
    3706:	91 05       	cpc	r25, r1
    3708:	54 f4       	brge	.+20     	; 0x371e
    370a:	82 30       	cpi	r24, 0x02	; 2
    370c:	91 05       	cpc	r25, r1
    370e:	61 f1       	breq	.+88     	; 0x3768
    3710:	83 30       	cpi	r24, 0x03	; 3
    3712:	91 05       	cpc	r25, r1
    3714:	0c f0       	brlt	.+2      	; 0x3718
    3716:	58 c0       	rjmp	.+176    	; 0x37c8
    3718:	01 97       	sbiw	r24, 0x01	; 1
    371a:	49 f0       	breq	.+18     	; 0x372e
    371c:	7c c0       	rjmp	.+248    	; 0x3816
    371e:	86 30       	cpi	r24, 0x06	; 6
    3720:	91 05       	cpc	r25, r1
    3722:	09 f4       	brne	.+2      	; 0x3726
    3724:	71 c0       	rjmp	.+226    	; 0x3808
    3726:	06 97       	sbiw	r24, 0x06	; 6
    3728:	0c f4       	brge	.+2      	; 0x372c
    372a:	63 c0       	rjmp	.+198    	; 0x37f2
    372c:	74 c0       	rjmp	.+232    	; 0x3816
    372e:	82 e0       	ldi	r24, 0x02	; 2
    3730:	80 93 0b 03 	sts	0x030B, r24
    3734:	20 91 0c 01 	lds	r18, 0x010C
    3738:	30 91 0d 01 	lds	r19, 0x010D
    373c:	80 91 69 01 	lds	r24, 0x0169
    3740:	ef e2       	ldi	r30, 0x2F	; 47
    3742:	f2 e0       	ldi	r31, 0x02	; 2
    3744:	83 27       	eor	r24, r19
    3746:	88 0f       	add	r24, r24
    3748:	f1 1d       	adc	r31, r1
    374a:	e8 0f       	add	r30, r24
    374c:	f1 1d       	adc	r31, r1
    374e:	c8 95       	lpm
    3750:	32 2f       	mov	r19, r18
    3752:	20 2d       	mov	r18, r0
    3754:	31 96       	adiw	r30, 0x01	; 1
    3756:	c8 95       	lpm
    3758:	30 25       	eor	r19, r0
    375a:	30 93 0d 01 	sts	0x010D, r19
    375e:	20 93 0c 01 	sts	0x010C, r18
    3762:	80 91 69 01 	lds	r24, 0x0169
    3766:	54 c0       	rjmp	.+168    	; 0x3810
    3768:	e0 91 d7 01 	lds	r30, 0x01D7
    376c:	f0 91 d8 01 	lds	r31, 0x01D8
    3770:	20 91 64 02 	lds	r18, 0x0264
    3774:	30 91 65 02 	lds	r19, 0x0265
    3778:	e2 0f       	add	r30, r18
    377a:	f3 1f       	adc	r31, r19
    377c:	50 81       	ld	r21, Z
    377e:	80 91 0c 01 	lds	r24, 0x010C
    3782:	90 91 0d 01 	lds	r25, 0x010D
    3786:	ef e2       	ldi	r30, 0x2F	; 47
    3788:	f2 e0       	ldi	r31, 0x02	; 2
    378a:	45 2f       	mov	r20, r21
    378c:	49 27       	eor	r20, r25
    378e:	44 0f       	add	r20, r20
    3790:	f1 1d       	adc	r31, r1
    3792:	e4 0f       	add	r30, r20
    3794:	f1 1d       	adc	r31, r1
    3796:	c8 95       	lpm
    3798:	98 2f       	mov	r25, r24
    379a:	80 2d       	mov	r24, r0
    379c:	31 96       	adiw	r30, 0x01	; 1
    379e:	c8 95       	lpm
    37a0:	90 25       	eor	r25, r0
    37a2:	90 93 0d 01 	sts	0x010D, r25
    37a6:	80 93 0c 01 	sts	0x010C, r24
    37aa:	2f 5f       	subi	r18, 0xFF	; 255
    37ac:	3f 4f       	sbci	r19, 0xFF	; 255
    37ae:	30 93 65 02 	sts	0x0265, r19
    37b2:	20 93 64 02 	sts	0x0264, r18
    37b6:	80 91 75 01 	lds	r24, 0x0175
    37ba:	90 91 76 01 	lds	r25, 0x0176
    37be:	28 17       	cp	r18, r24
    37c0:	39 07       	cpc	r19, r25
    37c2:	98 f0       	brcs	.+38     	; 0x37ea
    37c4:	84 e0       	ldi	r24, 0x04	; 4
    37c6:	0f c0       	rjmp	.+30     	; 0x37e6
    37c8:	80 91 17 03 	lds	r24, 0x0317
    37cc:	90 e2       	ldi	r25, 0x20	; 32
    37ce:	89 27       	eor	r24, r25
    37d0:	0e 94 18 0b 	call	0x1630
    37d4:	28 2f       	mov	r18, r24
    37d6:	80 91 e6 02 	lds	r24, 0x02E6
    37da:	80 93 0b 03 	sts	0x030B, r24
    37de:	1b c0       	rjmp	.+54     	; 0x3816
    37e0:	50 91 0c 01 	lds	r21, 0x010C
    37e4:	85 e0       	ldi	r24, 0x05	; 5
    37e6:	80 93 0b 03 	sts	0x030B, r24
    37ea:	85 2f       	mov	r24, r21
    37ec:	0e 94 17 1c 	call	0x382e
    37f0:	11 c0       	rjmp	.+34     	; 0x3814
    37f2:	80 91 0c 01 	lds	r24, 0x010C
    37f6:	90 91 0d 01 	lds	r25, 0x010D
    37fa:	29 2f       	mov	r18, r25
    37fc:	33 27       	eor	r19, r19
    37fe:	86 e0       	ldi	r24, 0x06	; 6
    3800:	80 93 0b 03 	sts	0x030B, r24
    3804:	82 2f       	mov	r24, r18
    3806:	f2 cf       	rjmp	.-28     	; 0x37ec
    3808:	87 e0       	ldi	r24, 0x07	; 7
    380a:	80 93 0b 03 	sts	0x030B, r24
    380e:	8e e7       	ldi	r24, 0x7E	; 126
    3810:	0e 94 18 0b 	call	0x1630
    3814:	28 2f       	mov	r18, r24
    3816:	21 30       	cpi	r18, 0x01	; 1
    3818:	39 f0       	breq	.+14     	; 0x3828
    381a:	88 e0       	ldi	r24, 0x08	; 8
    381c:	80 93 0b 03 	sts	0x030B, r24
    3820:	8d e2       	ldi	r24, 0x2D	; 45
    3822:	9b e0       	ldi	r25, 0x0B	; 11
    3824:	0e 94 37 03 	call	0x66e
    3828:	81 e0       	ldi	r24, 0x01	; 1
    382a:	90 e0       	ldi	r25, 0x00	; 0
    382c:	08 95       	ret

0000382e <FramerM$TxArbitraryByte>:
    382e:	98 2f       	mov	r25, r24
    3830:	8d 57       	subi	r24, 0x7D	; 125
    3832:	82 30       	cpi	r24, 0x02	; 2
    3834:	78 f4       	brcc	.+30     	; 0x3854
    3836:	8f b7       	in	r24, 0x3f	; 63
    3838:	f8 94       	cli
    383a:	28 2f       	mov	r18, r24
    383c:	33 27       	eor	r19, r19
    383e:	80 91 0b 03 	lds	r24, 0x030B
    3842:	80 93 e6 02 	sts	0x02E6, r24
    3846:	83 e0       	ldi	r24, 0x03	; 3
    3848:	80 93 0b 03 	sts	0x030B, r24
    384c:	90 93 17 03 	sts	0x0317, r25
    3850:	2f bf       	out	0x3f, r18	; 63
    3852:	9d e7       	ldi	r25, 0x7D	; 125
    3854:	89 2f       	mov	r24, r25
    3856:	0e 94 18 0b 	call	0x1630
    385a:	99 27       	eor	r25, r25
    385c:	08 95       	ret

0000385e <HPLFlash$FlashIdle$available>:
    385e:	80 91 16 02 	lds	r24, 0x0216
    3862:	88 30       	cpi	r24, 0x08	; 8
    3864:	61 f4       	brne	.+24     	; 0x387e
    3866:	95 9a       	sbi	0x12, 5	; 18
    3868:	95 98       	cbi	0x12, 5	; 18
    386a:	00 00       	nop
    386c:	00 00       	nop
    386e:	80 e0       	ldi	r24, 0x00	; 0
    3870:	90 e0       	ldi	r25, 0x00	; 0
    3872:	82 99       	sbic	0x10, 2	; 16
    3874:	02 c0       	rjmp	.+4      	; 0x387a
    3876:	81 e0       	ldi	r24, 0x01	; 1
    3878:	90 e0       	ldi	r25, 0x00	; 0
    387a:	80 93 9e 02 	sts	0x029E, r24
    387e:	81 e0       	ldi	r24, 0x01	; 1
    3880:	80 93 89 01 	sts	0x0189, r24
    3884:	db 9a       	sbi	0x1b, 3	; 27
    3886:	85 ee       	ldi	r24, 0xE5	; 229
    3888:	9e e1       	ldi	r25, 0x1E	; 30
    388a:	0e 94 37 03 	call	0x66e
    388e:	81 e0       	ldi	r24, 0x01	; 1
    3890:	90 e0       	ldi	r25, 0x00	; 0
    3892:	08 95       	ret

00003894 <__nesc_atomic_end>:
    3894:	8f bf       	out	0x3f, r24	; 63
    3896:	08 95       	ret

00003898 <__nesc_atomic_start>:
    3898:	8f b7       	in	r24, 0x3f	; 63
    389a:	f8 94       	cli
    389c:	99 27       	eor	r25, r25
    389e:	08 95       	ret

000038a0 <AMStandard$sendTask>:
    38a0:	1f 93       	push	r17
    38a2:	cf 93       	push	r28
    38a4:	e0 91 8c 01 	lds	r30, 0x018C
    38a8:	f0 91 8d 01 	lds	r31, 0x018D
    38ac:	80 81       	ld	r24, Z
    38ae:	91 81       	ldd	r25, Z+1	; 0x01
    38b0:	8e 37       	cpi	r24, 0x7E	; 126
    38b2:	91 05       	cpc	r25, r1
    38b4:	c1 f4       	brne	.+48     	; 0x38e6
    38b6:	61 e0       	ldi	r22, 0x01	; 1
    38b8:	8f b7       	in	r24, 0x3f	; 63
    38ba:	f8 94       	cli
    38bc:	90 91 56 03 	lds	r25, 0x0356
    38c0:	92 fd       	sbrc	r25, 2
    38c2:	08 c0       	rjmp	.+16     	; 0x38d4
    38c4:	94 60       	ori	r25, 0x04	; 4
    38c6:	90 93 56 03 	sts	0x0356, r25
    38ca:	f0 93 66 01 	sts	0x0166, r31
    38ce:	e0 93 65 01 	sts	0x0165, r30
    38d2:	01 c0       	rjmp	.+2      	; 0x38d6
    38d4:	60 e0       	ldi	r22, 0x00	; 0
    38d6:	8f bf       	out	0x3f, r24	; 63
    38d8:	61 30       	cpi	r22, 0x01	; 1
    38da:	09 f0       	breq	.+2      	; 0x38de
    38dc:	74 c0       	rjmp	.+232    	; 0x39c6
    38de:	0e 94 b7 0a 	call	0x156e
    38e2:	68 2f       	mov	r22, r24
    38e4:	70 c0       	rjmp	.+224    	; 0x39c6
    38e6:	11 e0       	ldi	r17, 0x01	; 1
    38e8:	8f b7       	in	r24, 0x3f	; 63
    38ea:	f8 94       	cli
    38ec:	c8 2f       	mov	r28, r24
    38ee:	80 91 6a 01 	lds	r24, 0x016A
    38f2:	88 23       	and	r24, r24
    38f4:	11 f0       	breq	.+4      	; 0x38fa
    38f6:	10 e0       	ldi	r17, 0x00	; 0
    38f8:	18 c0       	rjmp	.+48     	; 0x392a
    38fa:	10 93 6a 01 	sts	0x016A, r17
    38fe:	f0 93 f5 02 	sts	0x02F5, r31
    3902:	e0 93 f4 02 	sts	0x02F4, r30
    3906:	84 81       	ldd	r24, Z+4	; 0x04
    3908:	99 27       	eor	r25, r25
    390a:	05 96       	adiw	r24, 0x05	; 5
    390c:	90 93 8b 01 	sts	0x018B, r25
    3910:	80 93 8a 01 	sts	0x018A, r24
    3914:	0e 94 90 0b 	call	0x1720
    3918:	8f 77       	andi	r24, 0x7F	; 127
    391a:	90 70       	andi	r25, 0x00	; 0
    391c:	84 96       	adiw	r24, 0x24	; 36
    391e:	90 93 95 02 	sts	0x0295, r25
    3922:	80 93 94 02 	sts	0x0294, r24
    3926:	10 93 71 01 	sts	0x0171, r17
    392a:	cf bf       	out	0x3f, r28	; 63
    392c:	11 23       	and	r17, r17
    392e:	09 f4       	brne	.+2      	; 0x3932
    3930:	49 c0       	rjmp	.+146    	; 0x39c4
    3932:	8f b7       	in	r24, 0x3f	; 63
    3934:	f8 94       	cli
    3936:	99 27       	eor	r25, r25
    3938:	20 91 74 01 	lds	r18, 0x0174
    393c:	8f bf       	out	0x3f, r24	; 63
    393e:	26 30       	cpi	r18, 0x06	; 6
    3940:	09 f0       	breq	.+2      	; 0x3944
    3942:	40 c0       	rjmp	.+128    	; 0x39c4
    3944:	82 e0       	ldi	r24, 0x02	; 2
    3946:	0e 94 b3 0b 	call	0x1766
    394a:	6b e3       	ldi	r22, 0x3B	; 59
    394c:	80 e0       	ldi	r24, 0x00	; 0
    394e:	0e 94 61 06 	call	0xcc2
    3952:	80 ed       	ldi	r24, 0xD0	; 208
    3954:	97 e0       	ldi	r25, 0x07	; 7
    3956:	00 00       	nop
    3958:	00 00       	nop
    395a:	00 00       	nop
    395c:	00 00       	nop
    395e:	00 00       	nop
    3960:	00 00       	nop
    3962:	00 00       	nop
    3964:	00 00       	nop
    3966:	01 97       	sbiw	r24, 0x01	; 1
    3968:	18 16       	cp	r1, r24
    396a:	19 06       	cpc	r1, r25
    396c:	a4 f3       	brlt	.-24     	; 0x3956
    396e:	69 e3       	ldi	r22, 0x39	; 57
    3970:	80 e0       	ldi	r24, 0x00	; 0
    3972:	0e 94 61 06 	call	0xcc2
    3976:	88 ec       	ldi	r24, 0xC8	; 200
    3978:	90 e0       	ldi	r25, 0x00	; 0
    397a:	00 00       	nop
    397c:	00 00       	nop
    397e:	00 00       	nop
    3980:	00 00       	nop
    3982:	00 00       	nop
    3984:	00 00       	nop
    3986:	00 00       	nop
    3988:	00 00       	nop
    398a:	01 97       	sbiw	r24, 0x01	; 1
    398c:	18 16       	cp	r1, r24
    398e:	19 06       	cpc	r1, r25
    3990:	a4 f3       	brlt	.-24     	; 0x397a
    3992:	0e 94 8b 07 	call	0xf16
    3996:	bb 98       	cbi	0x17, 3	; 23
    3998:	ba 98       	cbi	0x17, 2	; 23
    399a:	80 ec       	ldi	r24, 0xC0	; 192
    399c:	8d b9       	out	0x0d, r24	; 13
    399e:	b8 98       	cbi	0x17, 0	; 23
    39a0:	0e 94 aa 07 	call	0xf54
    39a4:	20 e2       	ldi	r18, 0x20	; 32
    39a6:	30 e0       	ldi	r19, 0x00	; 0
    39a8:	40 e0       	ldi	r20, 0x00	; 0
    39aa:	50 e0       	ldi	r21, 0x00	; 0
    39ac:	61 e0       	ldi	r22, 0x01	; 1
    39ae:	82 e0       	ldi	r24, 0x02	; 2
    39b0:	0e 94 bc 07 	call	0xf78
    39b4:	8f b7       	in	r24, 0x3f	; 63
    39b6:	f8 94       	cli
    39b8:	28 2f       	mov	r18, r24
    39ba:	33 27       	eor	r19, r19
    39bc:	82 e0       	ldi	r24, 0x02	; 2
    39be:	80 93 74 01 	sts	0x0174, r24
    39c2:	2f bf       	out	0x3f, r18	; 63
    39c4:	61 2f       	mov	r22, r17
    39c6:	66 23       	and	r22, r22
    39c8:	31 f4       	brne	.+12     	; 0x39d6
    39ca:	80 91 8c 01 	lds	r24, 0x018C
    39ce:	90 91 8d 01 	lds	r25, 0x018D
    39d2:	0e 94 64 0b 	call	0x16c8
    39d6:	cf 91       	pop	r28
    39d8:	1f 91       	pop	r17
    39da:	08 95       	ret

000039dc <CC1000RadioIntM$PacketRcvd>:
    39dc:	8f b7       	in	r24, 0x3f	; 63
    39de:	f8 94       	cli
    39e0:	68 2f       	mov	r22, r24
    39e2:	77 27       	eor	r23, r23
    39e4:	e0 91 89 02 	lds	r30, 0x0289
    39e8:	f0 91 8a 02 	lds	r31, 0x028A
    39ec:	17 a2       	std	Z+39, r1	; 0x27
    39ee:	10 a6       	std	Z+40, r1	; 0x28
    39f0:	84 a1       	ldd	r24, Z+36	; 0x24
    39f2:	95 a1       	ldd	r25, Z+37	; 0x25
    39f4:	9c 01       	movw	r18, r24
    39f6:	22 0f       	add	r18, r18
    39f8:	33 1f       	adc	r19, r19
    39fa:	22 0f       	add	r18, r18
    39fc:	33 1f       	adc	r19, r19
    39fe:	28 0f       	add	r18, r24
    3a00:	39 1f       	adc	r19, r25
    3a02:	40 91 0f 02 	lds	r20, 0x020F
    3a06:	50 91 10 02 	lds	r21, 0x0210
    3a0a:	ca 01       	movw	r24, r20
    3a0c:	88 0f       	add	r24, r24
    3a0e:	99 1f       	adc	r25, r25
    3a10:	84 0f       	add	r24, r20
    3a12:	95 1f       	adc	r25, r21
    3a14:	28 0f       	add	r18, r24
    3a16:	39 1f       	adc	r19, r25
    3a18:	53 e0       	ldi	r21, 0x03	; 3
    3a1a:	36 95       	lsr	r19
    3a1c:	27 95       	ror	r18
    3a1e:	5a 95       	dec	r21
    3a20:	e1 f7       	brne	.-8      	; 0x3a1a
    3a22:	30 93 10 02 	sts	0x0210, r19
    3a26:	20 93 0f 02 	sts	0x020F, r18
    3a2a:	6f bf       	out	0x3f, r22	; 63
    3a2c:	cf 01       	movw	r24, r30
    3a2e:	0e 94 29 08 	call	0x1052
    3a32:	9c 01       	movw	r18, r24
    3a34:	8f b7       	in	r24, 0x3f	; 63
    3a36:	f8 94       	cli
    3a38:	99 27       	eor	r25, r25
    3a3a:	21 15       	cp	r18, r1
    3a3c:	31 05       	cpc	r19, r1
    3a3e:	21 f0       	breq	.+8      	; 0x3a48
    3a40:	30 93 8a 02 	sts	0x028A, r19
    3a44:	20 93 89 02 	sts	0x0289, r18
    3a48:	e0 91 89 02 	lds	r30, 0x0289
    3a4c:	f0 91 8a 02 	lds	r31, 0x028A
    3a50:	14 82       	std	Z+4, r1	; 0x04
    3a52:	8f bf       	out	0x3f, r24	; 63
    3a54:	80 ec       	ldi	r24, 0xC0	; 192
    3a56:	8d b9       	out	0x0d, r24	; 13
    3a58:	b8 98       	cbi	0x17, 0	; 23
    3a5a:	0e 94 aa 07 	call	0xf54
    3a5e:	08 95       	ret

00003a60 <CC1000RadioIntM$PacketSent>:
    3a60:	8f b7       	in	r24, 0x3f	; 63
    3a62:	f8 94       	cli
    3a64:	99 27       	eor	r25, r25
    3a66:	e0 91 f4 02 	lds	r30, 0x02F4
    3a6a:	f0 91 f5 02 	lds	r31, 0x02F5
    3a6e:	17 a2       	std	Z+39, r1	; 0x27
    3a70:	10 a6       	std	Z+40, r1	; 0x28
    3a72:	8f bf       	out	0x3f, r24	; 63
    3a74:	61 e0       	ldi	r22, 0x01	; 1
    3a76:	cf 01       	movw	r24, r30
    3a78:	0e 94 64 0b 	call	0x16c8
    3a7c:	8f b7       	in	r24, 0x3f	; 63
    3a7e:	f8 94       	cli
    3a80:	99 27       	eor	r25, r25
    3a82:	10 92 6a 01 	sts	0x016A, r1
    3a86:	8f bf       	out	0x3f, r24	; 63
    3a88:	08 95       	ret

00003a8a <TimerM$HandleFire>:
    3a8a:	8f 92       	push	r8
    3a8c:	9f 92       	push	r9
    3a8e:	af 92       	push	r10
    3a90:	bf 92       	push	r11
    3a92:	df 92       	push	r13
    3a94:	ef 92       	push	r14
    3a96:	ff 92       	push	r15
    3a98:	0f 93       	push	r16
    3a9a:	1f 93       	push	r17
    3a9c:	cf 93       	push	r28
    3a9e:	df 93       	push	r29
    3aa0:	81 e0       	ldi	r24, 0x01	; 1
    3aa2:	80 93 8b 02 	sts	0x028B, r24
    3aa6:	80 91 1d 03 	lds	r24, 0x031D
    3aaa:	90 91 1e 03 	lds	r25, 0x031E
    3aae:	a0 91 1f 03 	lds	r26, 0x031F
    3ab2:	b0 91 20 03 	lds	r27, 0x0320
    3ab6:	00 97       	sbiw	r24, 0x00	; 0
    3ab8:	a1 05       	cpc	r26, r1
    3aba:	b1 05       	cpc	r27, r1
    3abc:	09 f4       	brne	.+2      	; 0x3ac0
    3abe:	84 c0       	rjmp	.+264    	; 0x3bc8
    3ac0:	dd 24       	eor	r13, r13
    3ac2:	0c e1       	ldi	r16, 0x1C	; 28
    3ac4:	12 e0       	ldi	r17, 0x02	; 2
    3ac6:	ee 24       	eor	r14, r14
    3ac8:	ff 24       	eor	r15, r15
    3aca:	61 e0       	ldi	r22, 0x01	; 1
    3acc:	70 e0       	ldi	r23, 0x00	; 0
    3ace:	0e 2c       	mov	r0, r14
    3ad0:	02 c0       	rjmp	.+4      	; 0x3ad6
    3ad2:	66 0f       	add	r22, r22
    3ad4:	77 1f       	adc	r23, r23
    3ad6:	0a 94       	dec	r0
    3ad8:	e2 f7       	brpl	.-8      	; 0x3ad2
    3ada:	cb 01       	movw	r24, r22
    3adc:	aa 27       	eor	r26, r26
    3ade:	97 fd       	sbrc	r25, 7
    3ae0:	a0 95       	com	r26
    3ae2:	ba 2f       	mov	r27, r26
    3ae4:	80 90 1d 03 	lds	r8, 0x031D
    3ae8:	90 90 1e 03 	lds	r9, 0x031E
    3aec:	a0 90 1f 03 	lds	r10, 0x031F
    3af0:	b0 90 20 03 	lds	r11, 0x0320
    3af4:	88 21       	and	r24, r8
    3af6:	99 21       	and	r25, r9
    3af8:	aa 21       	and	r26, r10
    3afa:	bb 21       	and	r27, r11
    3afc:	00 97       	sbiw	r24, 0x00	; 0
    3afe:	a1 05       	cpc	r26, r1
    3b00:	b1 05       	cpc	r27, r1
    3b02:	09 f4       	brne	.+2      	; 0x3b06
    3b04:	57 c0       	rjmp	.+174    	; 0x3bb4
    3b06:	80 91 d1 02 	lds	r24, 0x02D1
    3b0a:	99 27       	eor	r25, r25
    3b0c:	01 96       	adiw	r24, 0x01	; 1
    3b0e:	aa 27       	eor	r26, r26
    3b10:	97 fd       	sbrc	r25, 7
    3b12:	a0 95       	com	r26
    3b14:	ba 2f       	mov	r27, r26
    3b16:	f8 01       	movw	r30, r16
    3b18:	25 81       	ldd	r18, Z+5	; 0x05
    3b1a:	36 81       	ldd	r19, Z+6	; 0x06
    3b1c:	47 81       	ldd	r20, Z+7	; 0x07
    3b1e:	50 85       	ldd	r21, Z+8	; 0x08
    3b20:	28 1b       	sub	r18, r24
    3b22:	39 0b       	sbc	r19, r25
    3b24:	4a 0b       	sbc	r20, r26
    3b26:	5b 0b       	sbc	r21, r27
    3b28:	25 83       	std	Z+5, r18	; 0x05
    3b2a:	36 83       	std	Z+6, r19	; 0x06
    3b2c:	47 83       	std	Z+7, r20	; 0x07
    3b2e:	50 87       	std	Z+8, r21	; 0x08
    3b30:	23 30       	cpi	r18, 0x03	; 3
    3b32:	31 05       	cpc	r19, r1
    3b34:	41 05       	cpc	r20, r1
    3b36:	51 05       	cpc	r21, r1
    3b38:	ec f5       	brge	.+122    	; 0x3bb4
    3b3a:	80 81       	ld	r24, Z
    3b3c:	88 23       	and	r24, r24
    3b3e:	69 f4       	brne	.+26     	; 0x3b5a
    3b40:	81 81       	ldd	r24, Z+1	; 0x01
    3b42:	92 81       	ldd	r25, Z+2	; 0x02
    3b44:	a3 81       	ldd	r26, Z+3	; 0x03
    3b46:	b4 81       	ldd	r27, Z+4	; 0x04
    3b48:	28 0f       	add	r18, r24
    3b4a:	39 1f       	adc	r19, r25
    3b4c:	4a 1f       	adc	r20, r26
    3b4e:	5b 1f       	adc	r21, r27
    3b50:	25 83       	std	Z+5, r18	; 0x05
    3b52:	36 83       	std	Z+6, r19	; 0x06
    3b54:	47 83       	std	Z+7, r20	; 0x07
    3b56:	50 87       	std	Z+8, r21	; 0x08
    3b58:	13 c0       	rjmp	.+38     	; 0x3b80
    3b5a:	cb 01       	movw	r24, r22
    3b5c:	80 95       	com	r24
    3b5e:	90 95       	com	r25
    3b60:	aa 27       	eor	r26, r26
    3b62:	97 fd       	sbrc	r25, 7
    3b64:	a0 95       	com	r26
    3b66:	ba 2f       	mov	r27, r26
    3b68:	88 22       	and	r8, r24
    3b6a:	99 22       	and	r9, r25
    3b6c:	aa 22       	and	r10, r26
    3b6e:	bb 22       	and	r11, r27
    3b70:	80 92 1d 03 	sts	0x031D, r8
    3b74:	90 92 1e 03 	sts	0x031E, r9
    3b78:	a0 92 1f 03 	sts	0x031F, r10
    3b7c:	b0 92 20 03 	sts	0x0320, r11
    3b80:	80 91 26 03 	lds	r24, 0x0326
    3b84:	82 30       	cpi	r24, 0x02	; 2
    3b86:	19 f4       	brne	.+6      	; 0x3b8e
    3b88:	8f ef       	ldi	r24, 0xFF	; 255
    3b8a:	80 93 26 03 	sts	0x0326, r24
    3b8e:	90 91 26 03 	lds	r25, 0x0326
    3b92:	9f 5f       	subi	r25, 0xFF	; 255
    3b94:	90 93 26 03 	sts	0x0326, r25
    3b98:	80 91 93 01 	lds	r24, 0x0193
    3b9c:	8f 5f       	subi	r24, 0xFF	; 255
    3b9e:	80 93 93 01 	sts	0x0193, r24
    3ba2:	e9 2f       	mov	r30, r25
    3ba4:	ff 27       	eor	r31, r31
    3ba6:	e5 59       	subi	r30, 0x95	; 149
    3ba8:	fe 4f       	sbci	r31, 0xFE	; 254
    3baa:	d0 82       	st	Z, r13
    3bac:	81 ef       	ldi	r24, 0xF1	; 241
    3bae:	9e e1       	ldi	r25, 0x1E	; 30
    3bb0:	0e 94 37 03 	call	0x66e
    3bb4:	d3 94       	inc	r13
    3bb6:	08 94       	sec
    3bb8:	e1 1c       	adc	r14, r1
    3bba:	f1 1c       	adc	r15, r1
    3bbc:	07 5f       	subi	r16, 0xF7	; 247
    3bbe:	1f 4f       	sbci	r17, 0xFF	; 255
    3bc0:	f2 e0       	ldi	r31, 0x02	; 2
    3bc2:	fd 15       	cp	r31, r13
    3bc4:	08 f0       	brcs	.+2      	; 0x3bc8
    3bc6:	81 cf       	rjmp	.-254    	; 0x3aca
    3bc8:	0e 94 60 02 	call	0x4c0
    3bcc:	df 91       	pop	r29
    3bce:	cf 91       	pop	r28
    3bd0:	1f 91       	pop	r17
    3bd2:	0f 91       	pop	r16
    3bd4:	ff 90       	pop	r15
    3bd6:	ef 90       	pop	r14
    3bd8:	df 90       	pop	r13
    3bda:	bf 90       	pop	r11
    3bdc:	af 90       	pop	r10
    3bde:	9f 90       	pop	r9
    3be0:	8f 90       	pop	r8
    3be2:	08 95       	ret

00003be4 <HPLPowerManagementM$doAdjustment>:
    3be4:	87 b7       	in	r24, 0x37	; 55
    3be6:	99 27       	eor	r25, r25
    3be8:	8c 7f       	andi	r24, 0xFC	; 252
    3bea:	00 97       	sbiw	r24, 0x00	; 0
    3bec:	19 f0       	breq	.+6      	; 0x3bf4
    3bee:	80 e0       	ldi	r24, 0x00	; 0
    3bf0:	90 e0       	ldi	r25, 0x00	; 0
    3bf2:	1a c0       	rjmp	.+52     	; 0x3c28
    3bf4:	6f 99       	sbic	0x0d, 7	; 13
    3bf6:	18 c0       	rjmp	.+48     	; 0x3c28
    3bf8:	37 9b       	sbis	0x06, 7	; 6
    3bfa:	03 c0       	rjmp	.+6      	; 0x3c02
    3bfc:	88 e0       	ldi	r24, 0x08	; 8
    3bfe:	90 e0       	ldi	r25, 0x00	; 0
    3c00:	13 c0       	rjmp	.+38     	; 0x3c28
    3c02:	87 b7       	in	r24, 0x37	; 55
    3c04:	99 27       	eor	r25, r25
    3c06:	83 70       	andi	r24, 0x03	; 3
    3c08:	90 70       	andi	r25, 0x00	; 0
    3c0a:	89 2b       	or	r24, r25
    3c0c:	59 f0       	breq	.+22     	; 0x3c24
    3c0e:	81 b7       	in	r24, 0x31	; 49
    3c10:	92 b7       	in	r25, 0x32	; 50
    3c12:	89 1b       	sub	r24, r25
    3c14:	80 31       	cpi	r24, 0x10	; 16
    3c16:	18 f4       	brcc	.+6      	; 0x3c1e
    3c18:	8c e1       	ldi	r24, 0x1C	; 28
    3c1a:	90 e0       	ldi	r25, 0x00	; 0
    3c1c:	05 c0       	rjmp	.+10     	; 0x3c28
    3c1e:	88 e1       	ldi	r24, 0x18	; 24
    3c20:	90 e0       	ldi	r25, 0x00	; 0
    3c22:	02 c0       	rjmp	.+4      	; 0x3c28
    3c24:	80 e1       	ldi	r24, 0x10	; 16
    3c26:	90 e0       	ldi	r25, 0x00	; 0
    3c28:	38 2f       	mov	r19, r24
    3c2a:	25 b7       	in	r18, 0x35	; 53
    3c2c:	23 7e       	andi	r18, 0xE3	; 227
    3c2e:	8c 31       	cpi	r24, 0x1C	; 28
    3c30:	21 f0       	breq	.+8      	; 0x3c3a
    3c32:	88 31       	cpi	r24, 0x18	; 24
    3c34:	11 f0       	breq	.+4      	; 0x3c3a
    3c36:	08 c0       	rjmp	.+16     	; 0x3c48
    3c38:	00 00       	nop
    3c3a:	80 b7       	in	r24, 0x30	; 48
    3c3c:	99 27       	eor	r25, r25
    3c3e:	87 70       	andi	r24, 0x07	; 7
    3c40:	90 70       	andi	r25, 0x00	; 0
    3c42:	89 2b       	or	r24, r25
    3c44:	c9 f7       	brne	.-14     	; 0x3c38
    3c46:	23 7e       	andi	r18, 0xE3	; 227
    3c48:	23 2b       	or	r18, r19
    3c4a:	25 bf       	out	0x35, r18	; 53
    3c4c:	85 b7       	in	r24, 0x35	; 53
    3c4e:	80 62       	ori	r24, 0x20	; 32
    3c50:	85 bf       	out	0x35, r24	; 53
    3c52:	08 95       	ret

00003c54 <FramerM$PacketRcvd>:
    3c54:	0f 93       	push	r16
    3c56:	1f 93       	push	r17
    3c58:	cf 93       	push	r28
    3c5a:	df 93       	push	r29
    3c5c:	90 91 0f 03 	lds	r25, 0x030F
    3c60:	86 e0       	ldi	r24, 0x06	; 6
